
matmul_normal.o:     file format elf64-littleriscv


Disassembly of section .text.init:

0000000080000000 <_start>:
    80000000:	00000093          	li	ra,0
    80000004:	00000113          	li	sp,0
    80000008:	00000193          	li	gp,0
    8000000c:	00000213          	li	tp,0
    80000010:	00000293          	li	t0,0
    80000014:	00000313          	li	t1,0
    80000018:	00000393          	li	t2,0
    8000001c:	00000413          	li	s0,0
    80000020:	00000493          	li	s1,0
    80000024:	00000513          	li	a0,0
    80000028:	00000593          	li	a1,0
    8000002c:	00000613          	li	a2,0
    80000030:	00000693          	li	a3,0
    80000034:	00000713          	li	a4,0
    80000038:	00000793          	li	a5,0
    8000003c:	00000813          	li	a6,0
    80000040:	00000893          	li	a7,0
    80000044:	00000913          	li	s2,0
    80000048:	00000993          	li	s3,0
    8000004c:	00000a13          	li	s4,0
    80000050:	00000a93          	li	s5,0
    80000054:	00000b13          	li	s6,0
    80000058:	00000b93          	li	s7,0
    8000005c:	00000c13          	li	s8,0
    80000060:	00000c93          	li	s9,0
    80000064:	00000d13          	li	s10,0
    80000068:	00000d93          	li	s11,0
    8000006c:	00000e13          	li	t3,0
    80000070:	00000e93          	li	t4,0
    80000074:	00000f13          	li	t5,0
    80000078:	00000f93          	li	t6,0
    8000007c:	0001e2b7          	lui	t0,0x1e
    80000080:	3002a073          	csrs	mstatus,t0
    80000084:	00100293          	li	t0,1
    80000088:	01f29293          	sll	t0,t0,0x1f
    8000008c:	0002da63          	bgez	t0,800000a0 <_start+0xa0>
    80000090:	00100513          	li	a0,1
    80000094:	00001297          	auipc	t0,0x1
    80000098:	f6a2a623          	sw	a0,-148(t0) # 80001000 <tohost>
    8000009c:	ff5ff06f          	j	80000090 <_start+0x90>
    800000a0:	00000297          	auipc	t0,0x0
    800000a4:	09028293          	add	t0,t0,144 # 80000130 <_start+0x130>
    800000a8:	30529073          	csrw	mtvec,t0
    800000ac:	00301073          	fscsr	zero
    800000b0:	f0000053          	fmv.w.x	ft0,zero
    800000b4:	f00000d3          	fmv.w.x	ft1,zero
    800000b8:	f0000153          	fmv.w.x	ft2,zero
    800000bc:	f00001d3          	fmv.w.x	ft3,zero
    800000c0:	f0000253          	fmv.w.x	ft4,zero
    800000c4:	f00002d3          	fmv.w.x	ft5,zero
    800000c8:	f0000353          	fmv.w.x	ft6,zero
    800000cc:	f00003d3          	fmv.w.x	ft7,zero
    800000d0:	f0000453          	fmv.w.x	fs0,zero
    800000d4:	f00004d3          	fmv.w.x	fs1,zero
    800000d8:	f0000553          	fmv.w.x	fa0,zero
    800000dc:	f00005d3          	fmv.w.x	fa1,zero
    800000e0:	f0000653          	fmv.w.x	fa2,zero
    800000e4:	f00006d3          	fmv.w.x	fa3,zero
    800000e8:	f0000753          	fmv.w.x	fa4,zero
    800000ec:	f00007d3          	fmv.w.x	fa5,zero
    800000f0:	f0000853          	fmv.w.x	fa6,zero
    800000f4:	f00008d3          	fmv.w.x	fa7,zero
    800000f8:	f0000953          	fmv.w.x	fs2,zero
    800000fc:	f00009d3          	fmv.w.x	fs3,zero
    80000100:	f0000a53          	fmv.w.x	fs4,zero
    80000104:	f0000ad3          	fmv.w.x	fs5,zero
    80000108:	f0000b53          	fmv.w.x	fs6,zero
    8000010c:	f0000bd3          	fmv.w.x	fs7,zero
    80000110:	f0000c53          	fmv.w.x	fs8,zero
    80000114:	f0000cd3          	fmv.w.x	fs9,zero
    80000118:	f0000d53          	fmv.w.x	fs10,zero
    8000011c:	f0000dd3          	fmv.w.x	fs11,zero
    80000120:	f0000e53          	fmv.w.x	ft8,zero
    80000124:	f0000ed3          	fmv.w.x	ft9,zero
    80000128:	f0000f53          	fmv.w.x	ft10,zero
    8000012c:	f0000fd3          	fmv.w.x	ft11,zero
    80000130:	00000297          	auipc	t0,0x0
    80000134:	04028293          	add	t0,t0,64 # 80000170 <trap_entry>
    80000138:	30529073          	csrw	mtvec,t0
    8000013c:	00008197          	auipc	gp,0x8
    80000140:	4a418193          	add	gp,gp,1188 # 800085e0 <__global_pointer$>
    80000144:	89f18213          	add	tp,gp,-1889 # 80007e7f <_end+0x3f>
    80000148:	fc027213          	and	tp,tp,-64
    8000014c:	f1402573          	csrr	a0,mhartid
    80000150:	00100593          	li	a1,1
    80000154:	00b57063          	bgeu	a0,a1,80000154 <_start+0x154>
    80000158:	00150113          	add	sp,a0,1
    8000015c:	01111113          	sll	sp,sp,0x11
    80000160:	00410133          	add	sp,sp,tp
    80000164:	01151613          	sll	a2,a0,0x11
    80000168:	00c20233          	add	tp,tp,a2
    8000016c:	3110206f          	j	80002c7c <_init>

0000000080000170 <trap_entry>:
    80000170:	ef010113          	add	sp,sp,-272
    80000174:	00113423          	sd	ra,8(sp)
    80000178:	00213823          	sd	sp,16(sp)
    8000017c:	00313c23          	sd	gp,24(sp)
    80000180:	02413023          	sd	tp,32(sp)
    80000184:	02513423          	sd	t0,40(sp)
    80000188:	02613823          	sd	t1,48(sp)
    8000018c:	02713c23          	sd	t2,56(sp)
    80000190:	04813023          	sd	s0,64(sp)
    80000194:	04913423          	sd	s1,72(sp)
    80000198:	04a13823          	sd	a0,80(sp)
    8000019c:	04b13c23          	sd	a1,88(sp)
    800001a0:	06c13023          	sd	a2,96(sp)
    800001a4:	06d13423          	sd	a3,104(sp)
    800001a8:	06e13823          	sd	a4,112(sp)
    800001ac:	06f13c23          	sd	a5,120(sp)
    800001b0:	09013023          	sd	a6,128(sp)
    800001b4:	09113423          	sd	a7,136(sp)
    800001b8:	09213823          	sd	s2,144(sp)
    800001bc:	09313c23          	sd	s3,152(sp)
    800001c0:	0b413023          	sd	s4,160(sp)
    800001c4:	0b513423          	sd	s5,168(sp)
    800001c8:	0b613823          	sd	s6,176(sp)
    800001cc:	0b713c23          	sd	s7,184(sp)
    800001d0:	0d813023          	sd	s8,192(sp)
    800001d4:	0d913423          	sd	s9,200(sp)
    800001d8:	0da13823          	sd	s10,208(sp)
    800001dc:	0db13c23          	sd	s11,216(sp)
    800001e0:	0fc13023          	sd	t3,224(sp)
    800001e4:	0fd13423          	sd	t4,232(sp)
    800001e8:	0fe13823          	sd	t5,240(sp)
    800001ec:	0ff13c23          	sd	t6,248(sp)
    800001f0:	34202573          	csrr	a0,mcause
    800001f4:	341025f3          	csrr	a1,mepc
    800001f8:	00010613          	mv	a2,sp
    800001fc:	0c5020ef          	jal	80002ac0 <handle_trap>
    80000200:	34151073          	csrw	mepc,a0
    80000204:	000022b7          	lui	t0,0x2
    80000208:	8002829b          	addw	t0,t0,-2048 # 1800 <buflen.2+0x1780>
    8000020c:	3002a073          	csrs	mstatus,t0
    80000210:	00813083          	ld	ra,8(sp)
    80000214:	01013103          	ld	sp,16(sp)
    80000218:	01813183          	ld	gp,24(sp)
    8000021c:	02013203          	ld	tp,32(sp)
    80000220:	02813283          	ld	t0,40(sp)
    80000224:	03013303          	ld	t1,48(sp)
    80000228:	03813383          	ld	t2,56(sp)
    8000022c:	04013403          	ld	s0,64(sp)
    80000230:	04813483          	ld	s1,72(sp)
    80000234:	05013503          	ld	a0,80(sp)
    80000238:	05813583          	ld	a1,88(sp)
    8000023c:	06013603          	ld	a2,96(sp)
    80000240:	06813683          	ld	a3,104(sp)
    80000244:	07013703          	ld	a4,112(sp)
    80000248:	07813783          	ld	a5,120(sp)
    8000024c:	08013803          	ld	a6,128(sp)
    80000250:	08813883          	ld	a7,136(sp)
    80000254:	09013903          	ld	s2,144(sp)
    80000258:	09813983          	ld	s3,152(sp)
    8000025c:	0a013a03          	ld	s4,160(sp)
    80000260:	0a813a83          	ld	s5,168(sp)
    80000264:	0b013b03          	ld	s6,176(sp)
    80000268:	0b813b83          	ld	s7,184(sp)
    8000026c:	0c013c03          	ld	s8,192(sp)
    80000270:	0c813c83          	ld	s9,200(sp)
    80000274:	0d013d03          	ld	s10,208(sp)
    80000278:	0d813d83          	ld	s11,216(sp)
    8000027c:	0e013e03          	ld	t3,224(sp)
    80000280:	0e813e83          	ld	t4,232(sp)
    80000284:	0f013f03          	ld	t5,240(sp)
    80000288:	0f813f83          	ld	t6,248(sp)
    8000028c:	11010113          	add	sp,sp,272
    80000290:	30200073          	mret
    80000294:	fe000513          	li	a0,-32
    80000298:	0100006f          	j	800002a8 <_exit>
    8000029c:	028020ef          	jal	800022c4 <main>
    800002a0:	0080006f          	j	800002a8 <_exit>
    800002a4:	0040006f          	j	800002a8 <_exit>

00000000800002a8 <_exit>:
    800002a8:	00151513          	sll	a0,a0,0x1
    800002ac:	00150513          	add	a0,a0,1
    800002b0:	00001f17          	auipc	t5,0x1
    800002b4:	d4af2823          	sw	a0,-688(t5) # 80001000 <tohost>
    800002b8:	00000013          	nop
    800002bc:	0000006f          	j	800002bc <_exit+0x14>

Disassembly of section .text:

0000000080002000 <multiplyMatrices>:
    80002000:	fc010113          	add	sp,sp,-64
    80002004:	02813c23          	sd	s0,56(sp)
    80002008:	04010413          	add	s0,sp,64
    8000200c:	fca43c23          	sd	a0,-40(s0)
    80002010:	fcb43823          	sd	a1,-48(s0)
    80002014:	fcc43423          	sd	a2,-56(s0)
    80002018:	fe042623          	sw	zero,-20(s0)
    8000201c:	1000006f          	j	8000211c <multiplyMatrices+0x11c>
    80002020:	fe042423          	sw	zero,-24(s0)
    80002024:	0dc0006f          	j	80002100 <multiplyMatrices+0x100>
    80002028:	fec42783          	lw	a5,-20(s0)
    8000202c:	00779793          	sll	a5,a5,0x7
    80002030:	fc843703          	ld	a4,-56(s0)
    80002034:	00f70733          	add	a4,a4,a5
    80002038:	fe842783          	lw	a5,-24(s0)
    8000203c:	00279793          	sll	a5,a5,0x2
    80002040:	00f707b3          	add	a5,a4,a5
    80002044:	0007a023          	sw	zero,0(a5)
    80002048:	fe042223          	sw	zero,-28(s0)
    8000204c:	fe042023          	sw	zero,-32(s0)
    80002050:	0640006f          	j	800020b4 <multiplyMatrices+0xb4>
    80002054:	fec42783          	lw	a5,-20(s0)
    80002058:	00779793          	sll	a5,a5,0x7
    8000205c:	fd843703          	ld	a4,-40(s0)
    80002060:	00f70733          	add	a4,a4,a5
    80002064:	fe042783          	lw	a5,-32(s0)
    80002068:	00279793          	sll	a5,a5,0x2
    8000206c:	00f707b3          	add	a5,a4,a5
    80002070:	0007a703          	lw	a4,0(a5)
    80002074:	fe042783          	lw	a5,-32(s0)
    80002078:	00779793          	sll	a5,a5,0x7
    8000207c:	fd043683          	ld	a3,-48(s0)
    80002080:	00f686b3          	add	a3,a3,a5
    80002084:	fe842783          	lw	a5,-24(s0)
    80002088:	00279793          	sll	a5,a5,0x2
    8000208c:	00f687b3          	add	a5,a3,a5
    80002090:	0007a783          	lw	a5,0(a5)
    80002094:	02f707bb          	mulw	a5,a4,a5
    80002098:	0007879b          	sext.w	a5,a5
    8000209c:	fe442703          	lw	a4,-28(s0)
    800020a0:	00f707bb          	addw	a5,a4,a5
    800020a4:	fef42223          	sw	a5,-28(s0)
    800020a8:	fe042783          	lw	a5,-32(s0)
    800020ac:	0017879b          	addw	a5,a5,1
    800020b0:	fef42023          	sw	a5,-32(s0)
    800020b4:	fe042783          	lw	a5,-32(s0)
    800020b8:	0007871b          	sext.w	a4,a5
    800020bc:	01f00793          	li	a5,31
    800020c0:	00e7a7b3          	slt	a5,a5,a4
    800020c4:	0017b793          	seqz	a5,a5
    800020c8:	0ff7f793          	zext.b	a5,a5
    800020cc:	f80794e3          	bnez	a5,80002054 <multiplyMatrices+0x54>
    800020d0:	fec42783          	lw	a5,-20(s0)
    800020d4:	00779793          	sll	a5,a5,0x7
    800020d8:	fc843703          	ld	a4,-56(s0)
    800020dc:	00f70733          	add	a4,a4,a5
    800020e0:	fe842783          	lw	a5,-24(s0)
    800020e4:	00279793          	sll	a5,a5,0x2
    800020e8:	00f707b3          	add	a5,a4,a5
    800020ec:	fe442703          	lw	a4,-28(s0)
    800020f0:	00e7a023          	sw	a4,0(a5)
    800020f4:	fe842783          	lw	a5,-24(s0)
    800020f8:	0017879b          	addw	a5,a5,1
    800020fc:	fef42423          	sw	a5,-24(s0)
    80002100:	fe842783          	lw	a5,-24(s0)
    80002104:	0007871b          	sext.w	a4,a5
    80002108:	01f00793          	li	a5,31
    8000210c:	f0e7dee3          	bge	a5,a4,80002028 <multiplyMatrices+0x28>
    80002110:	fec42783          	lw	a5,-20(s0)
    80002114:	0017879b          	addw	a5,a5,1
    80002118:	fef42623          	sw	a5,-20(s0)
    8000211c:	fec42783          	lw	a5,-20(s0)
    80002120:	0007871b          	sext.w	a4,a5
    80002124:	01f00793          	li	a5,31
    80002128:	eee7dce3          	bge	a5,a4,80002020 <multiplyMatrices+0x20>
    8000212c:	00000013          	nop
    80002130:	00000013          	nop
    80002134:	03813403          	ld	s0,56(sp)
    80002138:	04010113          	add	sp,sp,64
    8000213c:	00008067          	ret

0000000080002140 <transpose>:
    80002140:	fd010113          	add	sp,sp,-48
    80002144:	02813423          	sd	s0,40(sp)
    80002148:	03010413          	add	s0,sp,48
    8000214c:	fca43c23          	sd	a0,-40(s0)
    80002150:	fcb43823          	sd	a1,-48(s0)
    80002154:	fe042623          	sw	zero,-20(s0)
    80002158:	0740006f          	j	800021cc <transpose+0x8c>
    8000215c:	fe042423          	sw	zero,-24(s0)
    80002160:	0500006f          	j	800021b0 <transpose+0x70>
    80002164:	fec42783          	lw	a5,-20(s0)
    80002168:	00779793          	sll	a5,a5,0x7
    8000216c:	fd843703          	ld	a4,-40(s0)
    80002170:	00f70733          	add	a4,a4,a5
    80002174:	fe842783          	lw	a5,-24(s0)
    80002178:	00779793          	sll	a5,a5,0x7
    8000217c:	fd043683          	ld	a3,-48(s0)
    80002180:	00f686b3          	add	a3,a3,a5
    80002184:	fe842783          	lw	a5,-24(s0)
    80002188:	00279793          	sll	a5,a5,0x2
    8000218c:	00f707b3          	add	a5,a4,a5
    80002190:	0007a703          	lw	a4,0(a5)
    80002194:	fec42783          	lw	a5,-20(s0)
    80002198:	00279793          	sll	a5,a5,0x2
    8000219c:	00f687b3          	add	a5,a3,a5
    800021a0:	00e7a023          	sw	a4,0(a5)
    800021a4:	fe842783          	lw	a5,-24(s0)
    800021a8:	0017879b          	addw	a5,a5,1
    800021ac:	fef42423          	sw	a5,-24(s0)
    800021b0:	fe842783          	lw	a5,-24(s0)
    800021b4:	0007871b          	sext.w	a4,a5
    800021b8:	01f00793          	li	a5,31
    800021bc:	fae7d4e3          	bge	a5,a4,80002164 <transpose+0x24>
    800021c0:	fec42783          	lw	a5,-20(s0)
    800021c4:	0017879b          	addw	a5,a5,1
    800021c8:	fef42623          	sw	a5,-20(s0)
    800021cc:	fec42783          	lw	a5,-20(s0)
    800021d0:	0007871b          	sext.w	a4,a5
    800021d4:	01f00793          	li	a5,31
    800021d8:	f8e7d2e3          	bge	a5,a4,8000215c <transpose+0x1c>
    800021dc:	00000013          	nop
    800021e0:	00000013          	nop
    800021e4:	02813403          	ld	s0,40(sp)
    800021e8:	03010113          	add	sp,sp,48
    800021ec:	00008067          	ret

00000000800021f0 <printMatrix>:
    800021f0:	fd010113          	add	sp,sp,-48
    800021f4:	02113423          	sd	ra,40(sp)
    800021f8:	02813023          	sd	s0,32(sp)
    800021fc:	03010413          	add	s0,sp,48
    80002200:	fca43c23          	sd	a0,-40(s0)
    80002204:	fe042623          	sw	zero,-20(s0)
    80002208:	06c0006f          	j	80002274 <printMatrix+0x84>
    8000220c:	fe042423          	sw	zero,-24(s0)
    80002210:	0400006f          	j	80002250 <printMatrix+0x60>
    80002214:	fec42783          	lw	a5,-20(s0)
    80002218:	00779793          	sll	a5,a5,0x7
    8000221c:	fd843703          	ld	a4,-40(s0)
    80002220:	00f70733          	add	a4,a4,a5
    80002224:	fe842783          	lw	a5,-24(s0)
    80002228:	00279793          	sll	a5,a5,0x2
    8000222c:	00f707b3          	add	a5,a4,a5
    80002230:	0007a783          	lw	a5,0(a5)
    80002234:	00078593          	mv	a1,a5
    80002238:	00002517          	auipc	a0,0x2
    8000223c:	9b050513          	add	a0,a0,-1616 # 80003be8 <atol+0x114>
    80002240:	3bc010ef          	jal	800035fc <printf>
    80002244:	fe842783          	lw	a5,-24(s0)
    80002248:	0017879b          	addw	a5,a5,1
    8000224c:	fef42423          	sw	a5,-24(s0)
    80002250:	fe842783          	lw	a5,-24(s0)
    80002254:	0007871b          	sext.w	a4,a5
    80002258:	01f00793          	li	a5,31
    8000225c:	fae7dce3          	bge	a5,a4,80002214 <printMatrix+0x24>
    80002260:	00a00513          	li	a0,10
    80002264:	3a9000ef          	jal	80002e0c <putchar>
    80002268:	fec42783          	lw	a5,-20(s0)
    8000226c:	0017879b          	addw	a5,a5,1
    80002270:	fef42623          	sw	a5,-20(s0)
    80002274:	fec42783          	lw	a5,-20(s0)
    80002278:	0007871b          	sext.w	a4,a5
    8000227c:	01f00793          	li	a5,31
    80002280:	f8e7d6e3          	bge	a5,a4,8000220c <printMatrix+0x1c>
    80002284:	00000013          	nop
    80002288:	00000013          	nop
    8000228c:	02813083          	ld	ra,40(sp)
    80002290:	02013403          	ld	s0,32(sp)
    80002294:	03010113          	add	sp,sp,48
    80002298:	00008067          	ret

000000008000229c <read_cycle>:
    8000229c:	fe010113          	add	sp,sp,-32
    800022a0:	00813c23          	sd	s0,24(sp)
    800022a4:	02010413          	add	s0,sp,32
    800022a8:	c00027f3          	rdcycle	a5
    800022ac:	fef43423          	sd	a5,-24(s0)
    800022b0:	fe843783          	ld	a5,-24(s0)
    800022b4:	00078513          	mv	a0,a5
    800022b8:	01813403          	ld	s0,24(sp)
    800022bc:	02010113          	add	sp,sp,32
    800022c0:	00008067          	ret

00000000800022c4 <main>:
    800022c4:	fb010113          	add	sp,sp,-80
    800022c8:	04113423          	sd	ra,72(sp)
    800022cc:	04813023          	sd	s0,64(sp)
    800022d0:	05010413          	add	s0,sp,80
    800022d4:	00050793          	mv	a5,a0
    800022d8:	fab43823          	sd	a1,-80(s0)
    800022dc:	faf42e23          	sw	a5,-68(s0)
    800022e0:	00b00793          	li	a5,11
    800022e4:	fef42023          	sw	a5,-32(s0)
    800022e8:	fb5ff0ef          	jal	8000229c <read_cycle>
    800022ec:	fca43c23          	sd	a0,-40(s0)
    800022f0:	00004617          	auipc	a2,0x4
    800022f4:	af060613          	add	a2,a2,-1296 # 80005de0 <C>
    800022f8:	00005597          	auipc	a1,0x5
    800022fc:	ae858593          	add	a1,a1,-1304 # 80006de0 <BT>
    80002300:	00002517          	auipc	a0,0x2
    80002304:	ae050513          	add	a0,a0,-1312 # 80003de0 <A>
    80002308:	cf9ff0ef          	jal	80002000 <multiplyMatrices>
    8000230c:	f91ff0ef          	jal	8000229c <read_cycle>
    80002310:	fca43823          	sd	a0,-48(s0)
    80002314:	fd043703          	ld	a4,-48(s0)
    80002318:	fd843783          	ld	a5,-40(s0)
    8000231c:	40f707b3          	sub	a5,a4,a5
    80002320:	fcf43423          	sd	a5,-56(s0)
    80002324:	01600793          	li	a5,22
    80002328:	fef42023          	sw	a5,-32(s0)
    8000232c:	fe042623          	sw	zero,-20(s0)
    80002330:	fe042423          	sw	zero,-24(s0)
    80002334:	0640006f          	j	80002398 <main+0xd4>
    80002338:	fe042223          	sw	zero,-28(s0)
    8000233c:	0400006f          	j	8000237c <main+0xb8>
    80002340:	00004717          	auipc	a4,0x4
    80002344:	aa070713          	add	a4,a4,-1376 # 80005de0 <C>
    80002348:	fe442783          	lw	a5,-28(s0)
    8000234c:	fe842683          	lw	a3,-24(s0)
    80002350:	00569693          	sll	a3,a3,0x5
    80002354:	00f687b3          	add	a5,a3,a5
    80002358:	00279793          	sll	a5,a5,0x2
    8000235c:	00f707b3          	add	a5,a4,a5
    80002360:	0007a783          	lw	a5,0(a5)
    80002364:	fec42703          	lw	a4,-20(s0)
    80002368:	00f707bb          	addw	a5,a4,a5
    8000236c:	fef42623          	sw	a5,-20(s0)
    80002370:	fe442783          	lw	a5,-28(s0)
    80002374:	0017879b          	addw	a5,a5,1
    80002378:	fef42223          	sw	a5,-28(s0)
    8000237c:	fe442783          	lw	a5,-28(s0)
    80002380:	0007871b          	sext.w	a4,a5
    80002384:	01f00793          	li	a5,31
    80002388:	fae7dce3          	bge	a5,a4,80002340 <main+0x7c>
    8000238c:	fe842783          	lw	a5,-24(s0)
    80002390:	0017879b          	addw	a5,a5,1
    80002394:	fef42423          	sw	a5,-24(s0)
    80002398:	fe842783          	lw	a5,-24(s0)
    8000239c:	0007871b          	sext.w	a4,a5
    800023a0:	01f00793          	li	a5,31
    800023a4:	f8e7dae3          	bge	a5,a4,80002338 <main+0x74>
    800023a8:	00004517          	auipc	a0,0x4
    800023ac:	a3850513          	add	a0,a0,-1480 # 80005de0 <C>
    800023b0:	e41ff0ef          	jal	800021f0 <printMatrix>
    800023b4:	fec42783          	lw	a5,-20(s0)
    800023b8:	00078593          	mv	a1,a5
    800023bc:	00002517          	auipc	a0,0x2
    800023c0:	83450513          	add	a0,a0,-1996 # 80003bf0 <atol+0x11c>
    800023c4:	238010ef          	jal	800035fc <printf>
    800023c8:	00006797          	auipc	a5,0x6
    800023cc:	a1878793          	add	a5,a5,-1512 # 80007de0 <load_count_normal>
    800023d0:	0007a783          	lw	a5,0(a5)
    800023d4:	00078593          	mv	a1,a5
    800023d8:	00002517          	auipc	a0,0x2
    800023dc:	83850513          	add	a0,a0,-1992 # 80003c10 <atol+0x13c>
    800023e0:	21c010ef          	jal	800035fc <printf>
    800023e4:	00006797          	auipc	a5,0x6
    800023e8:	a0078793          	add	a5,a5,-1536 # 80007de4 <store_count_normal>
    800023ec:	0007a783          	lw	a5,0(a5)
    800023f0:	00078593          	mv	a1,a5
    800023f4:	00002517          	auipc	a0,0x2
    800023f8:	83450513          	add	a0,a0,-1996 # 80003c28 <atol+0x154>
    800023fc:	200010ef          	jal	800035fc <printf>
    80002400:	00000793          	li	a5,0
    80002404:	00078513          	mv	a0,a5
    80002408:	04813083          	ld	ra,72(sp)
    8000240c:	04013403          	ld	s0,64(sp)
    80002410:	05010113          	add	sp,sp,80
    80002414:	00008067          	ret

0000000080002418 <verify>:
    80002418:	fb010113          	add	sp,sp,-80
    8000241c:	04813423          	sd	s0,72(sp)
    80002420:	05010413          	add	s0,sp,80
    80002424:	00050793          	mv	a5,a0
    80002428:	fcb43023          	sd	a1,-64(s0)
    8000242c:	fac43c23          	sd	a2,-72(s0)
    80002430:	fcf42623          	sw	a5,-52(s0)
    80002434:	fe042623          	sw	zero,-20(s0)
    80002438:	0c80006f          	j	80002500 <verify+0xe8>
    8000243c:	fec42783          	lw	a5,-20(s0)
    80002440:	00279793          	sll	a5,a5,0x2
    80002444:	fc043703          	ld	a4,-64(s0)
    80002448:	00f707b3          	add	a5,a4,a5
    8000244c:	0007a783          	lw	a5,0(a5)
    80002450:	fef42423          	sw	a5,-24(s0)
    80002454:	fec42783          	lw	a5,-20(s0)
    80002458:	00178793          	add	a5,a5,1
    8000245c:	00279793          	sll	a5,a5,0x2
    80002460:	fc043703          	ld	a4,-64(s0)
    80002464:	00f707b3          	add	a5,a4,a5
    80002468:	0007a783          	lw	a5,0(a5)
    8000246c:	fef42223          	sw	a5,-28(s0)
    80002470:	fec42783          	lw	a5,-20(s0)
    80002474:	00279793          	sll	a5,a5,0x2
    80002478:	fb843703          	ld	a4,-72(s0)
    8000247c:	00f707b3          	add	a5,a4,a5
    80002480:	0007a783          	lw	a5,0(a5)
    80002484:	fef42023          	sw	a5,-32(s0)
    80002488:	fec42783          	lw	a5,-20(s0)
    8000248c:	00178793          	add	a5,a5,1
    80002490:	00279793          	sll	a5,a5,0x2
    80002494:	fb843703          	ld	a4,-72(s0)
    80002498:	00f707b3          	add	a5,a4,a5
    8000249c:	0007a783          	lw	a5,0(a5)
    800024a0:	fcf42e23          	sw	a5,-36(s0)
    800024a4:	fe842783          	lw	a5,-24(s0)
    800024a8:	00078713          	mv	a4,a5
    800024ac:	fe042783          	lw	a5,-32(s0)
    800024b0:	0007071b          	sext.w	a4,a4
    800024b4:	0007879b          	sext.w	a5,a5
    800024b8:	00f70a63          	beq	a4,a5,800024cc <verify+0xb4>
    800024bc:	fec42783          	lw	a5,-20(s0)
    800024c0:	0017879b          	addw	a5,a5,1
    800024c4:	0007879b          	sext.w	a5,a5
    800024c8:	0b80006f          	j	80002580 <verify+0x168>
    800024cc:	fe442783          	lw	a5,-28(s0)
    800024d0:	00078713          	mv	a4,a5
    800024d4:	fdc42783          	lw	a5,-36(s0)
    800024d8:	0007071b          	sext.w	a4,a4
    800024dc:	0007879b          	sext.w	a5,a5
    800024e0:	00f70a63          	beq	a4,a5,800024f4 <verify+0xdc>
    800024e4:	fec42783          	lw	a5,-20(s0)
    800024e8:	0027879b          	addw	a5,a5,2
    800024ec:	0007879b          	sext.w	a5,a5
    800024f0:	0900006f          	j	80002580 <verify+0x168>
    800024f4:	fec42783          	lw	a5,-20(s0)
    800024f8:	0027879b          	addw	a5,a5,2
    800024fc:	fef42623          	sw	a5,-20(s0)
    80002500:	fcc42783          	lw	a5,-52(s0)
    80002504:	01f7d71b          	srlw	a4,a5,0x1f
    80002508:	00f707bb          	addw	a5,a4,a5
    8000250c:	4017d79b          	sraw	a5,a5,0x1
    80002510:	0007879b          	sext.w	a5,a5
    80002514:	0017979b          	sllw	a5,a5,0x1
    80002518:	0007871b          	sext.w	a4,a5
    8000251c:	fec42783          	lw	a5,-20(s0)
    80002520:	0007879b          	sext.w	a5,a5
    80002524:	f0e7cce3          	blt	a5,a4,8000243c <verify+0x24>
    80002528:	fcc42783          	lw	a5,-52(s0)
    8000252c:	0017f793          	and	a5,a5,1
    80002530:	0007879b          	sext.w	a5,a5
    80002534:	04078463          	beqz	a5,8000257c <verify+0x164>
    80002538:	fcc42783          	lw	a5,-52(s0)
    8000253c:	00279793          	sll	a5,a5,0x2
    80002540:	ffc78793          	add	a5,a5,-4
    80002544:	fc043703          	ld	a4,-64(s0)
    80002548:	00f707b3          	add	a5,a4,a5
    8000254c:	0007a783          	lw	a5,0(a5)
    80002550:	0007869b          	sext.w	a3,a5
    80002554:	fcc42783          	lw	a5,-52(s0)
    80002558:	00279793          	sll	a5,a5,0x2
    8000255c:	ffc78793          	add	a5,a5,-4
    80002560:	fb843703          	ld	a4,-72(s0)
    80002564:	00f707b3          	add	a5,a4,a5
    80002568:	0007a783          	lw	a5,0(a5)
    8000256c:	00068713          	mv	a4,a3
    80002570:	00f70663          	beq	a4,a5,8000257c <verify+0x164>
    80002574:	fcc42783          	lw	a5,-52(s0)
    80002578:	0080006f          	j	80002580 <verify+0x168>
    8000257c:	00000793          	li	a5,0
    80002580:	00078513          	mv	a0,a5
    80002584:	04813403          	ld	s0,72(sp)
    80002588:	05010113          	add	sp,sp,80
    8000258c:	00008067          	ret

0000000080002590 <verifyDouble>:
    80002590:	fa010113          	add	sp,sp,-96
    80002594:	04813c23          	sd	s0,88(sp)
    80002598:	06010413          	add	s0,sp,96
    8000259c:	00050793          	mv	a5,a0
    800025a0:	fab43823          	sd	a1,-80(s0)
    800025a4:	fac43423          	sd	a2,-88(s0)
    800025a8:	faf42e23          	sw	a5,-68(s0)
    800025ac:	fe042623          	sw	zero,-20(s0)
    800025b0:	0dc0006f          	j	8000268c <verifyDouble+0xfc>
    800025b4:	fec42783          	lw	a5,-20(s0)
    800025b8:	00379793          	sll	a5,a5,0x3
    800025bc:	fb043703          	ld	a4,-80(s0)
    800025c0:	00f707b3          	add	a5,a4,a5
    800025c4:	0007b787          	fld	fa5,0(a5)
    800025c8:	fef43027          	fsd	fa5,-32(s0)
    800025cc:	fec42783          	lw	a5,-20(s0)
    800025d0:	00178793          	add	a5,a5,1
    800025d4:	00379793          	sll	a5,a5,0x3
    800025d8:	fb043703          	ld	a4,-80(s0)
    800025dc:	00f707b3          	add	a5,a4,a5
    800025e0:	0007b787          	fld	fa5,0(a5)
    800025e4:	fcf43c27          	fsd	fa5,-40(s0)
    800025e8:	fec42783          	lw	a5,-20(s0)
    800025ec:	00379793          	sll	a5,a5,0x3
    800025f0:	fa843703          	ld	a4,-88(s0)
    800025f4:	00f707b3          	add	a5,a4,a5
    800025f8:	0007b787          	fld	fa5,0(a5)
    800025fc:	fcf43827          	fsd	fa5,-48(s0)
    80002600:	fec42783          	lw	a5,-20(s0)
    80002604:	00178793          	add	a5,a5,1
    80002608:	00379793          	sll	a5,a5,0x3
    8000260c:	fa843703          	ld	a4,-88(s0)
    80002610:	00f707b3          	add	a5,a4,a5
    80002614:	0007b787          	fld	fa5,0(a5)
    80002618:	fcf43427          	fsd	fa5,-56(s0)
    8000261c:	fe043707          	fld	fa4,-32(s0)
    80002620:	fd043787          	fld	fa5,-48(s0)
    80002624:	a2f727d3          	feq.d	a5,fa4,fa5
    80002628:	00f037b3          	snez	a5,a5
    8000262c:	0ff7f793          	zext.b	a5,a5
    80002630:	fcf42223          	sw	a5,-60(s0)
    80002634:	fd843707          	fld	fa4,-40(s0)
    80002638:	fc843787          	fld	fa5,-56(s0)
    8000263c:	a2f727d3          	feq.d	a5,fa4,fa5
    80002640:	00f037b3          	snez	a5,a5
    80002644:	0ff7f793          	zext.b	a5,a5
    80002648:	fcf42023          	sw	a5,-64(s0)
    8000264c:	fc442783          	lw	a5,-60(s0)
    80002650:	00078713          	mv	a4,a5
    80002654:	fc042783          	lw	a5,-64(s0)
    80002658:	00f777b3          	and	a5,a4,a5
    8000265c:	0007879b          	sext.w	a5,a5
    80002660:	02079063          	bnez	a5,80002680 <verifyDouble+0xf0>
    80002664:	fec42783          	lw	a5,-20(s0)
    80002668:	0017879b          	addw	a5,a5,1
    8000266c:	0007879b          	sext.w	a5,a5
    80002670:	fc442703          	lw	a4,-60(s0)
    80002674:	00f707bb          	addw	a5,a4,a5
    80002678:	0007879b          	sext.w	a5,a5
    8000267c:	08c0006f          	j	80002708 <verifyDouble+0x178>
    80002680:	fec42783          	lw	a5,-20(s0)
    80002684:	0027879b          	addw	a5,a5,2
    80002688:	fef42623          	sw	a5,-20(s0)
    8000268c:	fbc42783          	lw	a5,-68(s0)
    80002690:	01f7d71b          	srlw	a4,a5,0x1f
    80002694:	00f707bb          	addw	a5,a4,a5
    80002698:	4017d79b          	sraw	a5,a5,0x1
    8000269c:	0007879b          	sext.w	a5,a5
    800026a0:	0017979b          	sllw	a5,a5,0x1
    800026a4:	0007871b          	sext.w	a4,a5
    800026a8:	fec42783          	lw	a5,-20(s0)
    800026ac:	0007879b          	sext.w	a5,a5
    800026b0:	f0e7c2e3          	blt	a5,a4,800025b4 <verifyDouble+0x24>
    800026b4:	fbc42783          	lw	a5,-68(s0)
    800026b8:	0017f793          	and	a5,a5,1
    800026bc:	0007879b          	sext.w	a5,a5
    800026c0:	04078263          	beqz	a5,80002704 <verifyDouble+0x174>
    800026c4:	fbc42783          	lw	a5,-68(s0)
    800026c8:	00379793          	sll	a5,a5,0x3
    800026cc:	ff878793          	add	a5,a5,-8
    800026d0:	fb043703          	ld	a4,-80(s0)
    800026d4:	00f707b3          	add	a5,a4,a5
    800026d8:	0007b707          	fld	fa4,0(a5)
    800026dc:	fbc42783          	lw	a5,-68(s0)
    800026e0:	00379793          	sll	a5,a5,0x3
    800026e4:	ff878793          	add	a5,a5,-8
    800026e8:	fa843703          	ld	a4,-88(s0)
    800026ec:	00f707b3          	add	a5,a4,a5
    800026f0:	0007b787          	fld	fa5,0(a5)
    800026f4:	a2f727d3          	feq.d	a5,fa4,fa5
    800026f8:	00079663          	bnez	a5,80002704 <verifyDouble+0x174>
    800026fc:	fbc42783          	lw	a5,-68(s0)
    80002700:	0080006f          	j	80002708 <verifyDouble+0x178>
    80002704:	00000793          	li	a5,0
    80002708:	00078513          	mv	a0,a5
    8000270c:	05813403          	ld	s0,88(sp)
    80002710:	06010113          	add	sp,sp,96
    80002714:	00008067          	ret

0000000080002718 <barrier>:
    80002718:	fe010113          	add	sp,sp,-32
    8000271c:	00813c23          	sd	s0,24(sp)
    80002720:	02010413          	add	s0,sp,32
    80002724:	00050793          	mv	a5,a0
    80002728:	fef42623          	sw	a5,-20(s0)
    8000272c:	0ff0000f          	fence
    80002730:	00022783          	lw	a5,0(tp) # 0 <threadsense.4>
    80002734:	0017b793          	seqz	a5,a5
    80002738:	0ff7f793          	zext.b	a5,a5
    8000273c:	0007871b          	sext.w	a4,a5
    80002740:	00e22023          	sw	a4,0(tp) # 0 <threadsense.4>
    80002744:	00005797          	auipc	a5,0x5
    80002748:	6cc78793          	add	a5,a5,1740 # 80007e10 <count.1>
    8000274c:	00100713          	li	a4,1
    80002750:	0f50000f          	fence	iorw,ow
    80002754:	04e7a6af          	amoadd.w.aq	a3,a4,(a5)
    80002758:	0006879b          	sext.w	a5,a3
    8000275c:	0007871b          	sext.w	a4,a5
    80002760:	fec42783          	lw	a5,-20(s0)
    80002764:	fff7879b          	addw	a5,a5,-1
    80002768:	0007879b          	sext.w	a5,a5
    8000276c:	02f71263          	bne	a4,a5,80002790 <barrier+0x78>
    80002770:	00005797          	auipc	a5,0x5
    80002774:	6a078793          	add	a5,a5,1696 # 80007e10 <count.1>
    80002778:	0007a023          	sw	zero,0(a5)
    8000277c:	00022703          	lw	a4,0(tp) # 0 <threadsense.4>
    80002780:	00005797          	auipc	a5,0x5
    80002784:	69478793          	add	a5,a5,1684 # 80007e14 <sense.0>
    80002788:	00e7a023          	sw	a4,0(a5)
    8000278c:	0200006f          	j	800027ac <barrier+0x94>
    80002790:	00000013          	nop
    80002794:	00005797          	auipc	a5,0x5
    80002798:	68078793          	add	a5,a5,1664 # 80007e14 <sense.0>
    8000279c:	0007a783          	lw	a5,0(a5)
    800027a0:	0007871b          	sext.w	a4,a5
    800027a4:	00022783          	lw	a5,0(tp) # 0 <threadsense.4>
    800027a8:	fef716e3          	bne	a4,a5,80002794 <barrier+0x7c>
    800027ac:	0ff0000f          	fence
    800027b0:	00000013          	nop
    800027b4:	01813403          	ld	s0,24(sp)
    800027b8:	02010113          	add	sp,sp,32
    800027bc:	00008067          	ret

00000000800027c0 <lfsr>:
    800027c0:	fd010113          	add	sp,sp,-48
    800027c4:	02813423          	sd	s0,40(sp)
    800027c8:	03010413          	add	s0,sp,48
    800027cc:	fca43c23          	sd	a0,-40(s0)
    800027d0:	fd843783          	ld	a5,-40(s0)
    800027d4:	0017d713          	srl	a4,a5,0x1
    800027d8:	fd843783          	ld	a5,-40(s0)
    800027dc:	00f747b3          	xor	a5,a4,a5
    800027e0:	0017f793          	and	a5,a5,1
    800027e4:	fef43423          	sd	a5,-24(s0)
    800027e8:	fd843783          	ld	a5,-40(s0)
    800027ec:	0017d713          	srl	a4,a5,0x1
    800027f0:	fe843783          	ld	a5,-24(s0)
    800027f4:	03e79793          	sll	a5,a5,0x3e
    800027f8:	00f767b3          	or	a5,a4,a5
    800027fc:	00078513          	mv	a0,a5
    80002800:	02813403          	ld	s0,40(sp)
    80002804:	03010113          	add	sp,sp,48
    80002808:	00008067          	ret

000000008000280c <insn_len>:
    8000280c:	fe010113          	add	sp,sp,-32
    80002810:	00813c23          	sd	s0,24(sp)
    80002814:	02010413          	add	s0,sp,32
    80002818:	fea43423          	sd	a0,-24(s0)
    8000281c:	fe843783          	ld	a5,-24(s0)
    80002820:	0007d783          	lhu	a5,0(a5)
    80002824:	0007879b          	sext.w	a5,a5
    80002828:	0037f793          	and	a5,a5,3
    8000282c:	0007879b          	sext.w	a5,a5
    80002830:	00078663          	beqz	a5,8000283c <insn_len+0x30>
    80002834:	00400793          	li	a5,4
    80002838:	0080006f          	j	80002840 <insn_len+0x34>
    8000283c:	00200793          	li	a5,2
    80002840:	00078513          	mv	a0,a5
    80002844:	01813403          	ld	s0,24(sp)
    80002848:	02010113          	add	sp,sp,32
    8000284c:	00008067          	ret

0000000080002850 <syscall>:
    80002850:	f5010113          	add	sp,sp,-176
    80002854:	0a813423          	sd	s0,168(sp)
    80002858:	0b010413          	add	s0,sp,176
    8000285c:	f6a43c23          	sd	a0,-136(s0)
    80002860:	f6b43823          	sd	a1,-144(s0)
    80002864:	f6c43423          	sd	a2,-152(s0)
    80002868:	f6d43023          	sd	a3,-160(s0)
    8000286c:	ff040793          	add	a5,s0,-16
    80002870:	f4f43c23          	sd	a5,-168(s0)
    80002874:	f5843783          	ld	a5,-168(s0)
    80002878:	f9078793          	add	a5,a5,-112
    8000287c:	03f78793          	add	a5,a5,63
    80002880:	0067d793          	srl	a5,a5,0x6
    80002884:	00679793          	sll	a5,a5,0x6
    80002888:	f7843703          	ld	a4,-136(s0)
    8000288c:	00e7b023          	sd	a4,0(a5)
    80002890:	f7043703          	ld	a4,-144(s0)
    80002894:	00e7b423          	sd	a4,8(a5)
    80002898:	f6843703          	ld	a4,-152(s0)
    8000289c:	00e7b823          	sd	a4,16(a5)
    800028a0:	f6043703          	ld	a4,-160(s0)
    800028a4:	00e7bc23          	sd	a4,24(a5)
    800028a8:	0ff0000f          	fence
    800028ac:	00078693          	mv	a3,a5
    800028b0:	2b001713          	bset	a4,zero,0x30
    800028b4:	fff70713          	add	a4,a4,-1
    800028b8:	00e6f6b3          	and	a3,a3,a4
    800028bc:	ffffe717          	auipc	a4,0xffffe
    800028c0:	74470713          	add	a4,a4,1860 # 80001000 <tohost>
    800028c4:	00d73023          	sd	a3,0(a4)
    800028c8:	00000013          	nop
    800028cc:	ffffe717          	auipc	a4,0xffffe
    800028d0:	77470713          	add	a4,a4,1908 # 80001040 <fromhost>
    800028d4:	00073703          	ld	a4,0(a4)
    800028d8:	fe070ae3          	beqz	a4,800028cc <syscall+0x7c>
    800028dc:	ffffe717          	auipc	a4,0xffffe
    800028e0:	76470713          	add	a4,a4,1892 # 80001040 <fromhost>
    800028e4:	00073023          	sd	zero,0(a4)
    800028e8:	0ff0000f          	fence
    800028ec:	0007b783          	ld	a5,0(a5)
    800028f0:	00078513          	mv	a0,a5
    800028f4:	0a813403          	ld	s0,168(sp)
    800028f8:	0b010113          	add	sp,sp,176
    800028fc:	00008067          	ret

0000000080002900 <setStats>:
    80002900:	fb010113          	add	sp,sp,-80
    80002904:	04813423          	sd	s0,72(sp)
    80002908:	05010413          	add	s0,sp,80
    8000290c:	00050793          	mv	a5,a0
    80002910:	faf42e23          	sw	a5,-68(s0)
    80002914:	fc042e23          	sw	zero,-36(s0)
    80002918:	fdc42783          	lw	a5,-36(s0)
    8000291c:	0007871b          	sext.w	a4,a5
    80002920:	00100793          	li	a5,1
    80002924:	fee7cae3          	blt	a5,a4,80002918 <setStats+0x18>
    80002928:	b00027f3          	csrr	a5,mcycle
    8000292c:	fcf43823          	sd	a5,-48(s0)
    80002930:	fd043783          	ld	a5,-48(s0)
    80002934:	fef43423          	sd	a5,-24(s0)
    80002938:	fbc42783          	lw	a5,-68(s0)
    8000293c:	0007879b          	sext.w	a5,a5
    80002940:	04079463          	bnez	a5,80002988 <setStats+0x88>
    80002944:	00005717          	auipc	a4,0x5
    80002948:	4ac70713          	add	a4,a4,1196 # 80007df0 <counters>
    8000294c:	fdc42783          	lw	a5,-36(s0)
    80002950:	00379793          	sll	a5,a5,0x3
    80002954:	00f707b3          	add	a5,a4,a5
    80002958:	0007b783          	ld	a5,0(a5)
    8000295c:	fe843703          	ld	a4,-24(s0)
    80002960:	40f707b3          	sub	a5,a4,a5
    80002964:	fef43423          	sd	a5,-24(s0)
    80002968:	00005717          	auipc	a4,0x5
    8000296c:	49870713          	add	a4,a4,1176 # 80007e00 <counter_names>
    80002970:	fdc42783          	lw	a5,-36(s0)
    80002974:	00379793          	sll	a5,a5,0x3
    80002978:	00f707b3          	add	a5,a4,a5
    8000297c:	00001717          	auipc	a4,0x1
    80002980:	2c470713          	add	a4,a4,708 # 80003c40 <atol+0x16c>
    80002984:	00e7b023          	sd	a4,0(a5)
    80002988:	fdc42783          	lw	a5,-36(s0)
    8000298c:	0017871b          	addw	a4,a5,1
    80002990:	fce42e23          	sw	a4,-36(s0)
    80002994:	00005717          	auipc	a4,0x5
    80002998:	45c70713          	add	a4,a4,1116 # 80007df0 <counters>
    8000299c:	00379793          	sll	a5,a5,0x3
    800029a0:	00f707b3          	add	a5,a4,a5
    800029a4:	fe843703          	ld	a4,-24(s0)
    800029a8:	00e7b023          	sd	a4,0(a5)
    800029ac:	fdc42783          	lw	a5,-36(s0)
    800029b0:	0007871b          	sext.w	a4,a5
    800029b4:	00100793          	li	a5,1
    800029b8:	fee7cae3          	blt	a5,a4,800029ac <setStats+0xac>
    800029bc:	b02027f3          	csrr	a5,minstret
    800029c0:	fcf43423          	sd	a5,-56(s0)
    800029c4:	fc843783          	ld	a5,-56(s0)
    800029c8:	fef43023          	sd	a5,-32(s0)
    800029cc:	fbc42783          	lw	a5,-68(s0)
    800029d0:	0007879b          	sext.w	a5,a5
    800029d4:	04079463          	bnez	a5,80002a1c <setStats+0x11c>
    800029d8:	00005717          	auipc	a4,0x5
    800029dc:	41870713          	add	a4,a4,1048 # 80007df0 <counters>
    800029e0:	fdc42783          	lw	a5,-36(s0)
    800029e4:	00379793          	sll	a5,a5,0x3
    800029e8:	00f707b3          	add	a5,a4,a5
    800029ec:	0007b783          	ld	a5,0(a5)
    800029f0:	fe043703          	ld	a4,-32(s0)
    800029f4:	40f707b3          	sub	a5,a4,a5
    800029f8:	fef43023          	sd	a5,-32(s0)
    800029fc:	00005717          	auipc	a4,0x5
    80002a00:	40470713          	add	a4,a4,1028 # 80007e00 <counter_names>
    80002a04:	fdc42783          	lw	a5,-36(s0)
    80002a08:	00379793          	sll	a5,a5,0x3
    80002a0c:	00f707b3          	add	a5,a4,a5
    80002a10:	00001717          	auipc	a4,0x1
    80002a14:	23870713          	add	a4,a4,568 # 80003c48 <atol+0x174>
    80002a18:	00e7b023          	sd	a4,0(a5)
    80002a1c:	fdc42783          	lw	a5,-36(s0)
    80002a20:	0017871b          	addw	a4,a5,1
    80002a24:	fce42e23          	sw	a4,-36(s0)
    80002a28:	00005717          	auipc	a4,0x5
    80002a2c:	3c870713          	add	a4,a4,968 # 80007df0 <counters>
    80002a30:	00379793          	sll	a5,a5,0x3
    80002a34:	00f707b3          	add	a5,a4,a5
    80002a38:	fe043703          	ld	a4,-32(s0)
    80002a3c:	00e7b023          	sd	a4,0(a5)
    80002a40:	00000013          	nop
    80002a44:	04813403          	ld	s0,72(sp)
    80002a48:	05010113          	add	sp,sp,80
    80002a4c:	00008067          	ret

0000000080002a50 <getStats>:
    80002a50:	fe010113          	add	sp,sp,-32
    80002a54:	00813c23          	sd	s0,24(sp)
    80002a58:	02010413          	add	s0,sp,32
    80002a5c:	00050793          	mv	a5,a0
    80002a60:	fef42623          	sw	a5,-20(s0)
    80002a64:	00005717          	auipc	a4,0x5
    80002a68:	38c70713          	add	a4,a4,908 # 80007df0 <counters>
    80002a6c:	fec42783          	lw	a5,-20(s0)
    80002a70:	00379793          	sll	a5,a5,0x3
    80002a74:	00f707b3          	add	a5,a4,a5
    80002a78:	0007b783          	ld	a5,0(a5)
    80002a7c:	00078513          	mv	a0,a5
    80002a80:	01813403          	ld	s0,24(sp)
    80002a84:	02010113          	add	sp,sp,32
    80002a88:	00008067          	ret

0000000080002a8c <tohost_exit>:
    80002a8c:	fe010113          	add	sp,sp,-32
    80002a90:	00813c23          	sd	s0,24(sp)
    80002a94:	02010413          	add	s0,sp,32
    80002a98:	fea43423          	sd	a0,-24(s0)
    80002a9c:	fe843783          	ld	a5,-24(s0)
    80002aa0:	01179793          	sll	a5,a5,0x11
    80002aa4:	0107d793          	srl	a5,a5,0x10
    80002aa8:	0017e713          	or	a4,a5,1
    80002aac:	ffffe797          	auipc	a5,0xffffe
    80002ab0:	55478793          	add	a5,a5,1364 # 80001000 <tohost>
    80002ab4:	00e7b023          	sd	a4,0(a5)
    80002ab8:	00000013          	nop
    80002abc:	0000006f          	j	80002abc <tohost_exit+0x30>

0000000080002ac0 <handle_trap>:
    80002ac0:	fd010113          	add	sp,sp,-48
    80002ac4:	02113423          	sd	ra,40(sp)
    80002ac8:	02813023          	sd	s0,32(sp)
    80002acc:	03010413          	add	s0,sp,48
    80002ad0:	fea43423          	sd	a0,-24(s0)
    80002ad4:	feb43023          	sd	a1,-32(s0)
    80002ad8:	fcc43c23          	sd	a2,-40(s0)
    80002adc:	53900513          	li	a0,1337
    80002ae0:	fadff0ef          	jal	80002a8c <tohost_exit>

0000000080002ae4 <exit>:
    80002ae4:	fe010113          	add	sp,sp,-32
    80002ae8:	00113c23          	sd	ra,24(sp)
    80002aec:	00813823          	sd	s0,16(sp)
    80002af0:	02010413          	add	s0,sp,32
    80002af4:	00050793          	mv	a5,a0
    80002af8:	fef42623          	sw	a5,-20(s0)
    80002afc:	fec42783          	lw	a5,-20(s0)
    80002b00:	00078513          	mv	a0,a5
    80002b04:	f89ff0ef          	jal	80002a8c <tohost_exit>

0000000080002b08 <abort>:
    80002b08:	ff010113          	add	sp,sp,-16
    80002b0c:	00113423          	sd	ra,8(sp)
    80002b10:	00813023          	sd	s0,0(sp)
    80002b14:	01010413          	add	s0,sp,16
    80002b18:	08600513          	li	a0,134
    80002b1c:	fc9ff0ef          	jal	80002ae4 <exit>

0000000080002b20 <printstr>:
    80002b20:	fd010113          	add	sp,sp,-48
    80002b24:	02113423          	sd	ra,40(sp)
    80002b28:	02813023          	sd	s0,32(sp)
    80002b2c:	00913c23          	sd	s1,24(sp)
    80002b30:	03010413          	add	s0,sp,48
    80002b34:	fca43c23          	sd	a0,-40(s0)
    80002b38:	fd843483          	ld	s1,-40(s0)
    80002b3c:	fd843503          	ld	a0,-40(s0)
    80002b40:	5fd000ef          	jal	8000393c <strlen>
    80002b44:	00050793          	mv	a5,a0
    80002b48:	00078693          	mv	a3,a5
    80002b4c:	00048613          	mv	a2,s1
    80002b50:	00100593          	li	a1,1
    80002b54:	04000513          	li	a0,64
    80002b58:	cf9ff0ef          	jal	80002850 <syscall>
    80002b5c:	00000013          	nop
    80002b60:	02813083          	ld	ra,40(sp)
    80002b64:	02013403          	ld	s0,32(sp)
    80002b68:	01813483          	ld	s1,24(sp)
    80002b6c:	03010113          	add	sp,sp,48
    80002b70:	00008067          	ret

0000000080002b74 <thread_entry>:
    80002b74:	fe010113          	add	sp,sp,-32
    80002b78:	00813c23          	sd	s0,24(sp)
    80002b7c:	02010413          	add	s0,sp,32
    80002b80:	00050793          	mv	a5,a0
    80002b84:	00058713          	mv	a4,a1
    80002b88:	fef42623          	sw	a5,-20(s0)
    80002b8c:	00070793          	mv	a5,a4
    80002b90:	fef42423          	sw	a5,-24(s0)
    80002b94:	00000013          	nop
    80002b98:	fec42783          	lw	a5,-20(s0)
    80002b9c:	0007879b          	sext.w	a5,a5
    80002ba0:	fe079ce3          	bnez	a5,80002b98 <thread_entry+0x24>
    80002ba4:	00000013          	nop
    80002ba8:	00000013          	nop
    80002bac:	01813403          	ld	s0,24(sp)
    80002bb0:	02010113          	add	sp,sp,32
    80002bb4:	00008067          	ret
    80002bb8:	fe010113          	add	sp,sp,-32
    80002bbc:	00113c23          	sd	ra,24(sp)
    80002bc0:	00813823          	sd	s0,16(sp)
    80002bc4:	02010413          	add	s0,sp,32
    80002bc8:	00050793          	mv	a5,a0
    80002bcc:	feb43023          	sd	a1,-32(s0)
    80002bd0:	fef42623          	sw	a5,-20(s0)
    80002bd4:	00001517          	auipc	a0,0x1
    80002bd8:	08450513          	add	a0,a0,132 # 80003c58 <atol+0x184>
    80002bdc:	f45ff0ef          	jal	80002b20 <printstr>
    80002be0:	fff00793          	li	a5,-1
    80002be4:	00078513          	mv	a0,a5
    80002be8:	01813083          	ld	ra,24(sp)
    80002bec:	01013403          	ld	s0,16(sp)
    80002bf0:	02010113          	add	sp,sp,32
    80002bf4:	00008067          	ret

0000000080002bf8 <init_tls>:
    80002bf8:	fe010113          	add	sp,sp,-32
    80002bfc:	00113c23          	sd	ra,24(sp)
    80002c00:	00813823          	sd	s0,16(sp)
    80002c04:	02010413          	add	s0,sp,32
    80002c08:	00005717          	auipc	a4,0x5
    80002c0c:	21070713          	add	a4,a4,528 # 80007e18 <_tdata_begin>
    80002c10:	00005797          	auipc	a5,0x5
    80002c14:	20878793          	add	a5,a5,520 # 80007e18 <_tdata_begin>
    80002c18:	40f707b3          	sub	a5,a4,a5
    80002c1c:	fef43423          	sd	a5,-24(s0)
    80002c20:	00020793          	mv	a5,tp
    80002c24:	fe843603          	ld	a2,-24(s0)
    80002c28:	00005597          	auipc	a1,0x5
    80002c2c:	1f058593          	add	a1,a1,496 # 80007e18 <_tdata_begin>
    80002c30:	00078513          	mv	a0,a5
    80002c34:	331000ef          	jal	80003764 <memcpy>
    80002c38:	8e418713          	add	a4,gp,-1820 # 80007ec4 <_tbss_end>
    80002c3c:	00005797          	auipc	a5,0x5
    80002c40:	1dc78793          	add	a5,a5,476 # 80007e18 <_tdata_begin>
    80002c44:	40f707b3          	sub	a5,a4,a5
    80002c48:	fef43023          	sd	a5,-32(s0)
    80002c4c:	00020713          	mv	a4,tp
    80002c50:	fe843783          	ld	a5,-24(s0)
    80002c54:	00f707b3          	add	a5,a4,a5
    80002c58:	fe043603          	ld	a2,-32(s0)
    80002c5c:	00000593          	li	a1,0
    80002c60:	00078513          	mv	a0,a5
    80002c64:	3dd000ef          	jal	80003840 <memset>
    80002c68:	00000013          	nop
    80002c6c:	01813083          	ld	ra,24(sp)
    80002c70:	01013403          	ld	s0,16(sp)
    80002c74:	02010113          	add	sp,sp,32
    80002c78:	00008067          	ret

0000000080002c7c <_init>:
    80002c7c:	f5010113          	add	sp,sp,-176
    80002c80:	0a113423          	sd	ra,168(sp)
    80002c84:	0a813023          	sd	s0,160(sp)
    80002c88:	08913c23          	sd	s1,152(sp)
    80002c8c:	0b010413          	add	s0,sp,176
    80002c90:	00050793          	mv	a5,a0
    80002c94:	00058713          	mv	a4,a1
    80002c98:	f4f42e23          	sw	a5,-164(s0)
    80002c9c:	00070793          	mv	a5,a4
    80002ca0:	f4f42c23          	sw	a5,-168(s0)
    80002ca4:	fe040793          	add	a5,s0,-32
    80002ca8:	f4f43823          	sd	a5,-176(s0)
    80002cac:	f5043783          	ld	a5,-176(s0)
    80002cb0:	f8078793          	add	a5,a5,-128
    80002cb4:	03f78793          	add	a5,a5,63
    80002cb8:	0067d793          	srl	a5,a5,0x6
    80002cbc:	00679493          	sll	s1,a5,0x6
    80002cc0:	f39ff0ef          	jal	80002bf8 <init_tls>
    80002cc4:	f5842703          	lw	a4,-168(s0)
    80002cc8:	f5c42783          	lw	a5,-164(s0)
    80002ccc:	00070593          	mv	a1,a4
    80002cd0:	00078513          	mv	a0,a5
    80002cd4:	ea1ff0ef          	jal	80002b74 <thread_entry>
    80002cd8:	00000593          	li	a1,0
    80002cdc:	00000513          	li	a0,0
    80002ce0:	de4ff0ef          	jal	800022c4 <main>
    80002ce4:	00050793          	mv	a5,a0
    80002ce8:	fcf42823          	sw	a5,-48(s0)
    80002cec:	fc943c23          	sd	s1,-40(s0)
    80002cf0:	fc042a23          	sw	zero,-44(s0)
    80002cf4:	0840006f          	j	80002d78 <_init+0xfc>
    80002cf8:	00005717          	auipc	a4,0x5
    80002cfc:	0f870713          	add	a4,a4,248 # 80007df0 <counters>
    80002d00:	fd442783          	lw	a5,-44(s0)
    80002d04:	00379793          	sll	a5,a5,0x3
    80002d08:	00f707b3          	add	a5,a4,a5
    80002d0c:	0007b783          	ld	a5,0(a5)
    80002d10:	04078e63          	beqz	a5,80002d6c <_init+0xf0>
    80002d14:	00005717          	auipc	a4,0x5
    80002d18:	0ec70713          	add	a4,a4,236 # 80007e00 <counter_names>
    80002d1c:	fd442783          	lw	a5,-44(s0)
    80002d20:	00379793          	sll	a5,a5,0x3
    80002d24:	00f707b3          	add	a5,a4,a5
    80002d28:	0007b603          	ld	a2,0(a5)
    80002d2c:	00005717          	auipc	a4,0x5
    80002d30:	0c470713          	add	a4,a4,196 # 80007df0 <counters>
    80002d34:	fd442783          	lw	a5,-44(s0)
    80002d38:	00379793          	sll	a5,a5,0x3
    80002d3c:	00f707b3          	add	a5,a4,a5
    80002d40:	0007b783          	ld	a5,0(a5)
    80002d44:	00078693          	mv	a3,a5
    80002d48:	00001597          	auipc	a1,0x1
    80002d4c:	f2858593          	add	a1,a1,-216 # 80003c70 <atol+0x19c>
    80002d50:	fd843503          	ld	a0,-40(s0)
    80002d54:	179000ef          	jal	800036cc <sprintf>
    80002d58:	00050793          	mv	a5,a0
    80002d5c:	00078713          	mv	a4,a5
    80002d60:	fd843783          	ld	a5,-40(s0)
    80002d64:	00e787b3          	add	a5,a5,a4
    80002d68:	fcf43c23          	sd	a5,-40(s0)
    80002d6c:	fd442783          	lw	a5,-44(s0)
    80002d70:	0017879b          	addw	a5,a5,1
    80002d74:	fcf42a23          	sw	a5,-44(s0)
    80002d78:	fd442783          	lw	a5,-44(s0)
    80002d7c:	0007871b          	sext.w	a4,a5
    80002d80:	00100793          	li	a5,1
    80002d84:	f6e7dae3          	bge	a5,a4,80002cf8 <_init+0x7c>
    80002d88:	fd843783          	ld	a5,-40(s0)
    80002d8c:	00f48663          	beq	s1,a5,80002d98 <_init+0x11c>
    80002d90:	00048513          	mv	a0,s1
    80002d94:	d8dff0ef          	jal	80002b20 <printstr>
    80002d98:	fd042783          	lw	a5,-48(s0)
    80002d9c:	00078513          	mv	a0,a5
    80002da0:	d45ff0ef          	jal	80002ae4 <exit>

0000000080002da4 <puts>:
    80002da4:	fd010113          	add	sp,sp,-48
    80002da8:	02113423          	sd	ra,40(sp)
    80002dac:	02813023          	sd	s0,32(sp)
    80002db0:	03010413          	add	s0,sp,48
    80002db4:	fca43c23          	sd	a0,-40(s0)
    80002db8:	fd843783          	ld	a5,-40(s0)
    80002dbc:	fef43423          	sd	a5,-24(s0)
    80002dc0:	0200006f          	j	80002de0 <puts+0x3c>
    80002dc4:	fe843783          	ld	a5,-24(s0)
    80002dc8:	00178713          	add	a4,a5,1
    80002dcc:	fee43423          	sd	a4,-24(s0)
    80002dd0:	0007c783          	lbu	a5,0(a5)
    80002dd4:	0007879b          	sext.w	a5,a5
    80002dd8:	00078513          	mv	a0,a5
    80002ddc:	030000ef          	jal	80002e0c <putchar>
    80002de0:	fe843783          	ld	a5,-24(s0)
    80002de4:	0007c783          	lbu	a5,0(a5)
    80002de8:	fc079ee3          	bnez	a5,80002dc4 <puts+0x20>
    80002dec:	00a00513          	li	a0,10
    80002df0:	01c000ef          	jal	80002e0c <putchar>
    80002df4:	00000793          	li	a5,0
    80002df8:	00078513          	mv	a0,a5
    80002dfc:	02813083          	ld	ra,40(sp)
    80002e00:	02013403          	ld	s0,32(sp)
    80002e04:	03010113          	add	sp,sp,48
    80002e08:	00008067          	ret

0000000080002e0c <putchar>:
    80002e0c:	fe010113          	add	sp,sp,-32
    80002e10:	00113c23          	sd	ra,24(sp)
    80002e14:	00813823          	sd	s0,16(sp)
    80002e18:	02010413          	add	s0,sp,32
    80002e1c:	00050793          	mv	a5,a0
    80002e20:	fef42623          	sw	a5,-20(s0)
    80002e24:	08022783          	lw	a5,128(tp) # 80 <buflen.2>
    80002e28:	0017871b          	addw	a4,a5,1
    80002e2c:	0007069b          	sext.w	a3,a4
    80002e30:	08d22023          	sw	a3,128(tp) # 80 <buflen.2>
    80002e34:	fec42703          	lw	a4,-20(s0)
    80002e38:	0ff77713          	zext.b	a4,a4
    80002e3c:	04020693          	add	a3,tp,64 # 40 <buf.3>
    80002e40:	00f687b3          	add	a5,a3,a5
    80002e44:	00e78023          	sb	a4,0(a5)
    80002e48:	fec42783          	lw	a5,-20(s0)
    80002e4c:	0007871b          	sext.w	a4,a5
    80002e50:	00a00793          	li	a5,10
    80002e54:	00f70a63          	beq	a4,a5,80002e68 <putchar+0x5c>
    80002e58:	08022783          	lw	a5,128(tp) # 80 <buflen.2>
    80002e5c:	00078713          	mv	a4,a5
    80002e60:	04000793          	li	a5,64
    80002e64:	02f71263          	bne	a4,a5,80002e88 <putchar+0x7c>
    80002e68:	04020713          	add	a4,tp,64 # 40 <buf.3>
    80002e6c:	08022783          	lw	a5,128(tp) # 80 <buflen.2>
    80002e70:	00078693          	mv	a3,a5
    80002e74:	00070613          	mv	a2,a4
    80002e78:	00100593          	li	a1,1
    80002e7c:	04000513          	li	a0,64
    80002e80:	9d1ff0ef          	jal	80002850 <syscall>
    80002e84:	08022023          	sw	zero,128(tp) # 80 <buflen.2>
    80002e88:	00000793          	li	a5,0
    80002e8c:	00078513          	mv	a0,a5
    80002e90:	01813083          	ld	ra,24(sp)
    80002e94:	01013403          	ld	s0,16(sp)
    80002e98:	02010113          	add	sp,sp,32
    80002e9c:	00008067          	ret

0000000080002ea0 <printhex>:
    80002ea0:	fc010113          	add	sp,sp,-64
    80002ea4:	02113c23          	sd	ra,56(sp)
    80002ea8:	02813823          	sd	s0,48(sp)
    80002eac:	04010413          	add	s0,sp,64
    80002eb0:	fca43423          	sd	a0,-56(s0)
    80002eb4:	fe042623          	sw	zero,-20(s0)
    80002eb8:	06c0006f          	j	80002f24 <printhex+0x84>
    80002ebc:	fc843783          	ld	a5,-56(s0)
    80002ec0:	0ff7f793          	zext.b	a5,a5
    80002ec4:	00f7f793          	and	a5,a5,15
    80002ec8:	0ff7f713          	zext.b	a4,a5
    80002ecc:	fc843783          	ld	a5,-56(s0)
    80002ed0:	00f7f693          	and	a3,a5,15
    80002ed4:	00900793          	li	a5,9
    80002ed8:	00d7e663          	bltu	a5,a3,80002ee4 <printhex+0x44>
    80002edc:	03000793          	li	a5,48
    80002ee0:	0080006f          	j	80002ee8 <printhex+0x48>
    80002ee4:	05700793          	li	a5,87
    80002ee8:	00f00693          	li	a3,15
    80002eec:	fec42603          	lw	a2,-20(s0)
    80002ef0:	40c686bb          	subw	a3,a3,a2
    80002ef4:	0006869b          	sext.w	a3,a3
    80002ef8:	00e787bb          	addw	a5,a5,a4
    80002efc:	0ff7f713          	zext.b	a4,a5
    80002f00:	ff068793          	add	a5,a3,-16
    80002f04:	008787b3          	add	a5,a5,s0
    80002f08:	fee78423          	sb	a4,-24(a5)
    80002f0c:	fc843783          	ld	a5,-56(s0)
    80002f10:	0047d793          	srl	a5,a5,0x4
    80002f14:	fcf43423          	sd	a5,-56(s0)
    80002f18:	fec42783          	lw	a5,-20(s0)
    80002f1c:	0017879b          	addw	a5,a5,1
    80002f20:	fef42623          	sw	a5,-20(s0)
    80002f24:	fec42783          	lw	a5,-20(s0)
    80002f28:	0007871b          	sext.w	a4,a5
    80002f2c:	00f00793          	li	a5,15
    80002f30:	f8e7d6e3          	bge	a5,a4,80002ebc <printhex+0x1c>
    80002f34:	fe040423          	sb	zero,-24(s0)
    80002f38:	fd840793          	add	a5,s0,-40
    80002f3c:	00078513          	mv	a0,a5
    80002f40:	be1ff0ef          	jal	80002b20 <printstr>
    80002f44:	00000013          	nop
    80002f48:	03813083          	ld	ra,56(sp)
    80002f4c:	03013403          	ld	s0,48(sp)
    80002f50:	04010113          	add	sp,sp,64
    80002f54:	00008067          	ret

0000000080002f58 <printnum>:
    80002f58:	eb010113          	add	sp,sp,-336
    80002f5c:	14113423          	sd	ra,328(sp)
    80002f60:	14813023          	sd	s0,320(sp)
    80002f64:	15010413          	add	s0,sp,336
    80002f68:	eca43c23          	sd	a0,-296(s0)
    80002f6c:	ecb43823          	sd	a1,-304(s0)
    80002f70:	ecc43423          	sd	a2,-312(s0)
    80002f74:	00068613          	mv	a2,a3
    80002f78:	00070693          	mv	a3,a4
    80002f7c:	00078713          	mv	a4,a5
    80002f80:	00060793          	mv	a5,a2
    80002f84:	ecf42223          	sw	a5,-316(s0)
    80002f88:	00068793          	mv	a5,a3
    80002f8c:	ecf42023          	sw	a5,-320(s0)
    80002f90:	00070793          	mv	a5,a4
    80002f94:	eaf42e23          	sw	a5,-324(s0)
    80002f98:	fe042623          	sw	zero,-20(s0)
    80002f9c:	ec446783          	lwu	a5,-316(s0)
    80002fa0:	ec843703          	ld	a4,-312(s0)
    80002fa4:	02f776b3          	remu	a3,a4,a5
    80002fa8:	fec42783          	lw	a5,-20(s0)
    80002fac:	0017871b          	addw	a4,a5,1
    80002fb0:	fee42623          	sw	a4,-20(s0)
    80002fb4:	0006871b          	sext.w	a4,a3
    80002fb8:	00279793          	sll	a5,a5,0x2
    80002fbc:	ff078793          	add	a5,a5,-16
    80002fc0:	008787b3          	add	a5,a5,s0
    80002fc4:	eee7ac23          	sw	a4,-264(a5)
    80002fc8:	ec446783          	lwu	a5,-316(s0)
    80002fcc:	ec843703          	ld	a4,-312(s0)
    80002fd0:	00f76c63          	bltu	a4,a5,80002fe8 <printnum+0x90>
    80002fd4:	ec446783          	lwu	a5,-316(s0)
    80002fd8:	ec843703          	ld	a4,-312(s0)
    80002fdc:	02f757b3          	divu	a5,a4,a5
    80002fe0:	ecf43423          	sd	a5,-312(s0)
    80002fe4:	fb9ff06f          	j	80002f9c <printnum+0x44>
    80002fe8:	00000013          	nop
    80002fec:	0180006f          	j	80003004 <printnum+0xac>
    80002ff0:	ebc42703          	lw	a4,-324(s0)
    80002ff4:	ed843783          	ld	a5,-296(s0)
    80002ff8:	ed043583          	ld	a1,-304(s0)
    80002ffc:	00070513          	mv	a0,a4
    80003000:	000780e7          	jalr	a5
    80003004:	ec042783          	lw	a5,-320(s0)
    80003008:	fff7871b          	addw	a4,a5,-1
    8000300c:	ece42023          	sw	a4,-320(s0)
    80003010:	fec42703          	lw	a4,-20(s0)
    80003014:	0007071b          	sext.w	a4,a4
    80003018:	fcf74ce3          	blt	a4,a5,80002ff0 <printnum+0x98>
    8000301c:	0600006f          	j	8000307c <printnum+0x124>
    80003020:	fec42783          	lw	a5,-20(s0)
    80003024:	00279793          	sll	a5,a5,0x2
    80003028:	ff078793          	add	a5,a5,-16
    8000302c:	008787b3          	add	a5,a5,s0
    80003030:	ef87a703          	lw	a4,-264(a5)
    80003034:	fec42783          	lw	a5,-20(s0)
    80003038:	00279793          	sll	a5,a5,0x2
    8000303c:	ff078793          	add	a5,a5,-16
    80003040:	008787b3          	add	a5,a5,s0
    80003044:	ef87a783          	lw	a5,-264(a5)
    80003048:	00078693          	mv	a3,a5
    8000304c:	00900793          	li	a5,9
    80003050:	00d7f663          	bgeu	a5,a3,8000305c <printnum+0x104>
    80003054:	05700793          	li	a5,87
    80003058:	0080006f          	j	80003060 <printnum+0x108>
    8000305c:	03000793          	li	a5,48
    80003060:	00e787bb          	addw	a5,a5,a4
    80003064:	0007879b          	sext.w	a5,a5
    80003068:	0007871b          	sext.w	a4,a5
    8000306c:	ed843783          	ld	a5,-296(s0)
    80003070:	ed043583          	ld	a1,-304(s0)
    80003074:	00070513          	mv	a0,a4
    80003078:	000780e7          	jalr	a5
    8000307c:	fec42783          	lw	a5,-20(s0)
    80003080:	fff7871b          	addw	a4,a5,-1
    80003084:	fee42623          	sw	a4,-20(s0)
    80003088:	f8f04ce3          	bgtz	a5,80003020 <printnum+0xc8>
    8000308c:	00000013          	nop
    80003090:	00000013          	nop
    80003094:	14813083          	ld	ra,328(sp)
    80003098:	14013403          	ld	s0,320(sp)
    8000309c:	15010113          	add	sp,sp,336
    800030a0:	00008067          	ret

00000000800030a4 <getuint>:
    800030a4:	fe010113          	add	sp,sp,-32
    800030a8:	00813c23          	sd	s0,24(sp)
    800030ac:	02010413          	add	s0,sp,32
    800030b0:	fea43423          	sd	a0,-24(s0)
    800030b4:	00058793          	mv	a5,a1
    800030b8:	fef42223          	sw	a5,-28(s0)
    800030bc:	fe442783          	lw	a5,-28(s0)
    800030c0:	0007871b          	sext.w	a4,a5
    800030c4:	00100793          	li	a5,1
    800030c8:	02e7d063          	bge	a5,a4,800030e8 <getuint+0x44>
    800030cc:	fe843783          	ld	a5,-24(s0)
    800030d0:	0007b783          	ld	a5,0(a5)
    800030d4:	00878693          	add	a3,a5,8
    800030d8:	fe843703          	ld	a4,-24(s0)
    800030dc:	00d73023          	sd	a3,0(a4)
    800030e0:	0007b783          	ld	a5,0(a5)
    800030e4:	0480006f          	j	8000312c <getuint+0x88>
    800030e8:	fe442783          	lw	a5,-28(s0)
    800030ec:	0007879b          	sext.w	a5,a5
    800030f0:	02078063          	beqz	a5,80003110 <getuint+0x6c>
    800030f4:	fe843783          	ld	a5,-24(s0)
    800030f8:	0007b783          	ld	a5,0(a5)
    800030fc:	00878693          	add	a3,a5,8
    80003100:	fe843703          	ld	a4,-24(s0)
    80003104:	00d73023          	sd	a3,0(a4)
    80003108:	0007b783          	ld	a5,0(a5)
    8000310c:	0200006f          	j	8000312c <getuint+0x88>
    80003110:	fe843783          	ld	a5,-24(s0)
    80003114:	0007b783          	ld	a5,0(a5)
    80003118:	00878693          	add	a3,a5,8
    8000311c:	fe843703          	ld	a4,-24(s0)
    80003120:	00d73023          	sd	a3,0(a4)
    80003124:	0007a783          	lw	a5,0(a5)
    80003128:	080787bb          	zext.w	a5,a5
    8000312c:	00078513          	mv	a0,a5
    80003130:	01813403          	ld	s0,24(sp)
    80003134:	02010113          	add	sp,sp,32
    80003138:	00008067          	ret

000000008000313c <getint>:
    8000313c:	fe010113          	add	sp,sp,-32
    80003140:	00813c23          	sd	s0,24(sp)
    80003144:	02010413          	add	s0,sp,32
    80003148:	fea43423          	sd	a0,-24(s0)
    8000314c:	00058793          	mv	a5,a1
    80003150:	fef42223          	sw	a5,-28(s0)
    80003154:	fe442783          	lw	a5,-28(s0)
    80003158:	0007871b          	sext.w	a4,a5
    8000315c:	00100793          	li	a5,1
    80003160:	02e7d063          	bge	a5,a4,80003180 <getint+0x44>
    80003164:	fe843783          	ld	a5,-24(s0)
    80003168:	0007b783          	ld	a5,0(a5)
    8000316c:	00878693          	add	a3,a5,8
    80003170:	fe843703          	ld	a4,-24(s0)
    80003174:	00d73023          	sd	a3,0(a4)
    80003178:	0007b783          	ld	a5,0(a5)
    8000317c:	0440006f          	j	800031c0 <getint+0x84>
    80003180:	fe442783          	lw	a5,-28(s0)
    80003184:	0007879b          	sext.w	a5,a5
    80003188:	02078063          	beqz	a5,800031a8 <getint+0x6c>
    8000318c:	fe843783          	ld	a5,-24(s0)
    80003190:	0007b783          	ld	a5,0(a5)
    80003194:	00878693          	add	a3,a5,8
    80003198:	fe843703          	ld	a4,-24(s0)
    8000319c:	00d73023          	sd	a3,0(a4)
    800031a0:	0007b783          	ld	a5,0(a5)
    800031a4:	01c0006f          	j	800031c0 <getint+0x84>
    800031a8:	fe843783          	ld	a5,-24(s0)
    800031ac:	0007b783          	ld	a5,0(a5)
    800031b0:	00878693          	add	a3,a5,8
    800031b4:	fe843703          	ld	a4,-24(s0)
    800031b8:	00d73023          	sd	a3,0(a4)
    800031bc:	0007a783          	lw	a5,0(a5)
    800031c0:	00078513          	mv	a0,a5
    800031c4:	01813403          	ld	s0,24(sp)
    800031c8:	02010113          	add	sp,sp,32
    800031cc:	00008067          	ret

00000000800031d0 <vprintfmt>:
    800031d0:	f9010113          	add	sp,sp,-112
    800031d4:	06113423          	sd	ra,104(sp)
    800031d8:	06813023          	sd	s0,96(sp)
    800031dc:	04913c23          	sd	s1,88(sp)
    800031e0:	05213823          	sd	s2,80(sp)
    800031e4:	07010413          	add	s0,sp,112
    800031e8:	faa43423          	sd	a0,-88(s0)
    800031ec:	fab43023          	sd	a1,-96(s0)
    800031f0:	f8c43c23          	sd	a2,-104(s0)
    800031f4:	f8d43823          	sd	a3,-112(s0)
    800031f8:	0240006f          	j	8000321c <vprintfmt+0x4c>
    800031fc:	3e048263          	beqz	s1,800035e0 <vprintfmt+0x410>
    80003200:	f9843783          	ld	a5,-104(s0)
    80003204:	00178793          	add	a5,a5,1
    80003208:	f8f43c23          	sd	a5,-104(s0)
    8000320c:	fa843783          	ld	a5,-88(s0)
    80003210:	fa043583          	ld	a1,-96(s0)
    80003214:	00048513          	mv	a0,s1
    80003218:	000780e7          	jalr	a5
    8000321c:	f9843783          	ld	a5,-104(s0)
    80003220:	0007c783          	lbu	a5,0(a5)
    80003224:	0007849b          	sext.w	s1,a5
    80003228:	00048713          	mv	a4,s1
    8000322c:	02500793          	li	a5,37
    80003230:	fcf716e3          	bne	a4,a5,800031fc <vprintfmt+0x2c>
    80003234:	f9843783          	ld	a5,-104(s0)
    80003238:	00178793          	add	a5,a5,1
    8000323c:	f8f43c23          	sd	a5,-104(s0)
    80003240:	f9843783          	ld	a5,-104(s0)
    80003244:	faf43c23          	sd	a5,-72(s0)
    80003248:	02000793          	li	a5,32
    8000324c:	fcf403a3          	sb	a5,-57(s0)
    80003250:	fff00793          	li	a5,-1
    80003254:	fcf42623          	sw	a5,-52(s0)
    80003258:	fff00793          	li	a5,-1
    8000325c:	fcf42423          	sw	a5,-56(s0)
    80003260:	fc042823          	sw	zero,-48(s0)
    80003264:	fa042a23          	sw	zero,-76(s0)
    80003268:	f9843783          	ld	a5,-104(s0)
    8000326c:	00178713          	add	a4,a5,1
    80003270:	f8e43c23          	sd	a4,-104(s0)
    80003274:	0007c783          	lbu	a5,0(a5)
    80003278:	0007849b          	sext.w	s1,a5
    8000327c:	fdd4869b          	addw	a3,s1,-35
    80003280:	0006871b          	sext.w	a4,a3
    80003284:	05500793          	li	a5,85
    80003288:	32e7ec63          	bltu	a5,a4,800035c0 <vprintfmt+0x3f0>
    8000328c:	080687bb          	zext.w	a5,a3
    80003290:	00279713          	sll	a4,a5,0x2
    80003294:	00001797          	auipc	a5,0x1
    80003298:	9f478793          	add	a5,a5,-1548 # 80003c88 <atol+0x1b4>
    8000329c:	00f707b3          	add	a5,a4,a5
    800032a0:	0007a783          	lw	a5,0(a5)
    800032a4:	0007871b          	sext.w	a4,a5
    800032a8:	00001797          	auipc	a5,0x1
    800032ac:	9e078793          	add	a5,a5,-1568 # 80003c88 <atol+0x1b4>
    800032b0:	00f707b3          	add	a5,a4,a5
    800032b4:	00078067          	jr	a5
    800032b8:	02d00793          	li	a5,45
    800032bc:	fcf403a3          	sb	a5,-57(s0)
    800032c0:	fa9ff06f          	j	80003268 <vprintfmt+0x98>
    800032c4:	03000793          	li	a5,48
    800032c8:	fcf403a3          	sb	a5,-57(s0)
    800032cc:	f9dff06f          	j	80003268 <vprintfmt+0x98>
    800032d0:	fc042423          	sw	zero,-56(s0)
    800032d4:	fc842783          	lw	a5,-56(s0)
    800032d8:	00078713          	mv	a4,a5
    800032dc:	00070793          	mv	a5,a4
    800032e0:	0027979b          	sllw	a5,a5,0x2
    800032e4:	00e787bb          	addw	a5,a5,a4
    800032e8:	0017979b          	sllw	a5,a5,0x1
    800032ec:	0007879b          	sext.w	a5,a5
    800032f0:	00f487bb          	addw	a5,s1,a5
    800032f4:	0007879b          	sext.w	a5,a5
    800032f8:	fd07879b          	addw	a5,a5,-48
    800032fc:	fcf42423          	sw	a5,-56(s0)
    80003300:	f9843783          	ld	a5,-104(s0)
    80003304:	0007c783          	lbu	a5,0(a5)
    80003308:	0007849b          	sext.w	s1,a5
    8000330c:	00048713          	mv	a4,s1
    80003310:	02f00793          	li	a5,47
    80003314:	04e7dc63          	bge	a5,a4,8000336c <vprintfmt+0x19c>
    80003318:	00048713          	mv	a4,s1
    8000331c:	03900793          	li	a5,57
    80003320:	04e7c663          	blt	a5,a4,8000336c <vprintfmt+0x19c>
    80003324:	f9843783          	ld	a5,-104(s0)
    80003328:	00178793          	add	a5,a5,1
    8000332c:	f8f43c23          	sd	a5,-104(s0)
    80003330:	fa5ff06f          	j	800032d4 <vprintfmt+0x104>
    80003334:	f9043783          	ld	a5,-112(s0)
    80003338:	00878713          	add	a4,a5,8
    8000333c:	f8e43823          	sd	a4,-112(s0)
    80003340:	0007a783          	lw	a5,0(a5)
    80003344:	fcf42423          	sw	a5,-56(s0)
    80003348:	0280006f          	j	80003370 <vprintfmt+0x1a0>
    8000334c:	fcc42783          	lw	a5,-52(s0)
    80003350:	0007879b          	sext.w	a5,a5
    80003354:	f007dae3          	bgez	a5,80003268 <vprintfmt+0x98>
    80003358:	fc042623          	sw	zero,-52(s0)
    8000335c:	f0dff06f          	j	80003268 <vprintfmt+0x98>
    80003360:	00100793          	li	a5,1
    80003364:	faf42a23          	sw	a5,-76(s0)
    80003368:	f01ff06f          	j	80003268 <vprintfmt+0x98>
    8000336c:	00000013          	nop
    80003370:	fcc42783          	lw	a5,-52(s0)
    80003374:	0007879b          	sext.w	a5,a5
    80003378:	ee07d8e3          	bgez	a5,80003268 <vprintfmt+0x98>
    8000337c:	fc842783          	lw	a5,-56(s0)
    80003380:	fcf42623          	sw	a5,-52(s0)
    80003384:	fff00793          	li	a5,-1
    80003388:	fcf42423          	sw	a5,-56(s0)
    8000338c:	eddff06f          	j	80003268 <vprintfmt+0x98>
    80003390:	fd042783          	lw	a5,-48(s0)
    80003394:	0017879b          	addw	a5,a5,1
    80003398:	fcf42823          	sw	a5,-48(s0)
    8000339c:	ecdff06f          	j	80003268 <vprintfmt+0x98>
    800033a0:	f9043783          	ld	a5,-112(s0)
    800033a4:	00878713          	add	a4,a5,8
    800033a8:	f8e43823          	sd	a4,-112(s0)
    800033ac:	0007a703          	lw	a4,0(a5)
    800033b0:	fa843783          	ld	a5,-88(s0)
    800033b4:	fa043583          	ld	a1,-96(s0)
    800033b8:	00070513          	mv	a0,a4
    800033bc:	000780e7          	jalr	a5
    800033c0:	21c0006f          	j	800035dc <vprintfmt+0x40c>
    800033c4:	f9043783          	ld	a5,-112(s0)
    800033c8:	00878713          	add	a4,a5,8
    800033cc:	f8e43823          	sd	a4,-112(s0)
    800033d0:	0007b903          	ld	s2,0(a5)
    800033d4:	00091663          	bnez	s2,800033e0 <vprintfmt+0x210>
    800033d8:	00001917          	auipc	s2,0x1
    800033dc:	8a890913          	add	s2,s2,-1880 # 80003c80 <atol+0x1ac>
    800033e0:	fcc42783          	lw	a5,-52(s0)
    800033e4:	0007879b          	sext.w	a5,a5
    800033e8:	08f05a63          	blez	a5,8000347c <vprintfmt+0x2ac>
    800033ec:	fc744783          	lbu	a5,-57(s0)
    800033f0:	0ff7f713          	zext.b	a4,a5
    800033f4:	02d00793          	li	a5,45
    800033f8:	08f70263          	beq	a4,a5,8000347c <vprintfmt+0x2ac>
    800033fc:	fcc42483          	lw	s1,-52(s0)
    80003400:	fc842783          	lw	a5,-56(s0)
    80003404:	00078593          	mv	a1,a5
    80003408:	00090513          	mv	a0,s2
    8000340c:	580000ef          	jal	8000398c <strnlen>
    80003410:	00050793          	mv	a5,a0
    80003414:	0007879b          	sext.w	a5,a5
    80003418:	40f487bb          	subw	a5,s1,a5
    8000341c:	0007879b          	sext.w	a5,a5
    80003420:	fcf42623          	sw	a5,-52(s0)
    80003424:	0280006f          	j	8000344c <vprintfmt+0x27c>
    80003428:	fc744783          	lbu	a5,-57(s0)
    8000342c:	0007871b          	sext.w	a4,a5
    80003430:	fa843783          	ld	a5,-88(s0)
    80003434:	fa043583          	ld	a1,-96(s0)
    80003438:	00070513          	mv	a0,a4
    8000343c:	000780e7          	jalr	a5
    80003440:	fcc42783          	lw	a5,-52(s0)
    80003444:	fff7879b          	addw	a5,a5,-1
    80003448:	fcf42623          	sw	a5,-52(s0)
    8000344c:	fcc42783          	lw	a5,-52(s0)
    80003450:	0007879b          	sext.w	a5,a5
    80003454:	fcf04ae3          	bgtz	a5,80003428 <vprintfmt+0x258>
    80003458:	0240006f          	j	8000347c <vprintfmt+0x2ac>
    8000345c:	fa843783          	ld	a5,-88(s0)
    80003460:	fa043583          	ld	a1,-96(s0)
    80003464:	00048513          	mv	a0,s1
    80003468:	000780e7          	jalr	a5
    8000346c:	00190913          	add	s2,s2,1
    80003470:	fcc42783          	lw	a5,-52(s0)
    80003474:	fff7879b          	addw	a5,a5,-1
    80003478:	fcf42623          	sw	a5,-52(s0)
    8000347c:	00094783          	lbu	a5,0(s2)
    80003480:	0007849b          	sext.w	s1,a5
    80003484:	04048463          	beqz	s1,800034cc <vprintfmt+0x2fc>
    80003488:	fc842783          	lw	a5,-56(s0)
    8000348c:	0007879b          	sext.w	a5,a5
    80003490:	fc07c6e3          	bltz	a5,8000345c <vprintfmt+0x28c>
    80003494:	fc842783          	lw	a5,-56(s0)
    80003498:	fff7879b          	addw	a5,a5,-1
    8000349c:	fcf42423          	sw	a5,-56(s0)
    800034a0:	fc842783          	lw	a5,-56(s0)
    800034a4:	0007879b          	sext.w	a5,a5
    800034a8:	fa07dae3          	bgez	a5,8000345c <vprintfmt+0x28c>
    800034ac:	0200006f          	j	800034cc <vprintfmt+0x2fc>
    800034b0:	fa843783          	ld	a5,-88(s0)
    800034b4:	fa043583          	ld	a1,-96(s0)
    800034b8:	02000513          	li	a0,32
    800034bc:	000780e7          	jalr	a5
    800034c0:	fcc42783          	lw	a5,-52(s0)
    800034c4:	fff7879b          	addw	a5,a5,-1
    800034c8:	fcf42623          	sw	a5,-52(s0)
    800034cc:	fcc42783          	lw	a5,-52(s0)
    800034d0:	0007879b          	sext.w	a5,a5
    800034d4:	fcf04ee3          	bgtz	a5,800034b0 <vprintfmt+0x2e0>
    800034d8:	1040006f          	j	800035dc <vprintfmt+0x40c>
    800034dc:	fd042703          	lw	a4,-48(s0)
    800034e0:	f9040793          	add	a5,s0,-112
    800034e4:	00070593          	mv	a1,a4
    800034e8:	00078513          	mv	a0,a5
    800034ec:	c51ff0ef          	jal	8000313c <getint>
    800034f0:	00050793          	mv	a5,a0
    800034f4:	fcf43c23          	sd	a5,-40(s0)
    800034f8:	fd843783          	ld	a5,-40(s0)
    800034fc:	0207d063          	bgez	a5,8000351c <vprintfmt+0x34c>
    80003500:	fa843783          	ld	a5,-88(s0)
    80003504:	fa043583          	ld	a1,-96(s0)
    80003508:	02d00513          	li	a0,45
    8000350c:	000780e7          	jalr	a5
    80003510:	fd843783          	ld	a5,-40(s0)
    80003514:	40f007b3          	neg	a5,a5
    80003518:	fcf43c23          	sd	a5,-40(s0)
    8000351c:	00a00793          	li	a5,10
    80003520:	fcf42a23          	sw	a5,-44(s0)
    80003524:	0640006f          	j	80003588 <vprintfmt+0x3b8>
    80003528:	00a00793          	li	a5,10
    8000352c:	fcf42a23          	sw	a5,-44(s0)
    80003530:	0400006f          	j	80003570 <vprintfmt+0x3a0>
    80003534:	00800793          	li	a5,8
    80003538:	fcf42a23          	sw	a5,-44(s0)
    8000353c:	0340006f          	j	80003570 <vprintfmt+0x3a0>
    80003540:	00100793          	li	a5,1
    80003544:	fcf42823          	sw	a5,-48(s0)
    80003548:	fa843783          	ld	a5,-88(s0)
    8000354c:	fa043583          	ld	a1,-96(s0)
    80003550:	03000513          	li	a0,48
    80003554:	000780e7          	jalr	a5
    80003558:	fa843783          	ld	a5,-88(s0)
    8000355c:	fa043583          	ld	a1,-96(s0)
    80003560:	07800513          	li	a0,120
    80003564:	000780e7          	jalr	a5
    80003568:	01000793          	li	a5,16
    8000356c:	fcf42a23          	sw	a5,-44(s0)
    80003570:	fd042703          	lw	a4,-48(s0)
    80003574:	f9040793          	add	a5,s0,-112
    80003578:	00070593          	mv	a1,a4
    8000357c:	00078513          	mv	a0,a5
    80003580:	b25ff0ef          	jal	800030a4 <getuint>
    80003584:	fca43c23          	sd	a0,-40(s0)
    80003588:	fd442683          	lw	a3,-44(s0)
    8000358c:	fc744783          	lbu	a5,-57(s0)
    80003590:	0007879b          	sext.w	a5,a5
    80003594:	fcc42703          	lw	a4,-52(s0)
    80003598:	fd843603          	ld	a2,-40(s0)
    8000359c:	fa043583          	ld	a1,-96(s0)
    800035a0:	fa843503          	ld	a0,-88(s0)
    800035a4:	9b5ff0ef          	jal	80002f58 <printnum>
    800035a8:	0340006f          	j	800035dc <vprintfmt+0x40c>
    800035ac:	fa843783          	ld	a5,-88(s0)
    800035b0:	fa043583          	ld	a1,-96(s0)
    800035b4:	00048513          	mv	a0,s1
    800035b8:	000780e7          	jalr	a5
    800035bc:	0200006f          	j	800035dc <vprintfmt+0x40c>
    800035c0:	fa843783          	ld	a5,-88(s0)
    800035c4:	fa043583          	ld	a1,-96(s0)
    800035c8:	02500513          	li	a0,37
    800035cc:	000780e7          	jalr	a5
    800035d0:	fb843783          	ld	a5,-72(s0)
    800035d4:	f8f43c23          	sd	a5,-104(s0)
    800035d8:	00000013          	nop
    800035dc:	c41ff06f          	j	8000321c <vprintfmt+0x4c>
    800035e0:	00000013          	nop
    800035e4:	06813083          	ld	ra,104(sp)
    800035e8:	06013403          	ld	s0,96(sp)
    800035ec:	05813483          	ld	s1,88(sp)
    800035f0:	05013903          	ld	s2,80(sp)
    800035f4:	07010113          	add	sp,sp,112
    800035f8:	00008067          	ret

00000000800035fc <printf>:
    800035fc:	f9010113          	add	sp,sp,-112
    80003600:	02113423          	sd	ra,40(sp)
    80003604:	02813023          	sd	s0,32(sp)
    80003608:	03010413          	add	s0,sp,48
    8000360c:	fca43c23          	sd	a0,-40(s0)
    80003610:	00b43423          	sd	a1,8(s0)
    80003614:	00c43823          	sd	a2,16(s0)
    80003618:	00d43c23          	sd	a3,24(s0)
    8000361c:	02e43023          	sd	a4,32(s0)
    80003620:	02f43423          	sd	a5,40(s0)
    80003624:	03043823          	sd	a6,48(s0)
    80003628:	03143c23          	sd	a7,56(s0)
    8000362c:	04040793          	add	a5,s0,64
    80003630:	fcf43823          	sd	a5,-48(s0)
    80003634:	fd043783          	ld	a5,-48(s0)
    80003638:	fc878793          	add	a5,a5,-56
    8000363c:	fef43423          	sd	a5,-24(s0)
    80003640:	fe843783          	ld	a5,-24(s0)
    80003644:	00078693          	mv	a3,a5
    80003648:	fd843603          	ld	a2,-40(s0)
    8000364c:	00000593          	li	a1,0
    80003650:	fffff517          	auipc	a0,0xfffff
    80003654:	7bc50513          	add	a0,a0,1980 # 80002e0c <putchar>
    80003658:	b79ff0ef          	jal	800031d0 <vprintfmt>
    8000365c:	00000793          	li	a5,0
    80003660:	00078513          	mv	a0,a5
    80003664:	02813083          	ld	ra,40(sp)
    80003668:	02013403          	ld	s0,32(sp)
    8000366c:	07010113          	add	sp,sp,112
    80003670:	00008067          	ret

0000000080003674 <sprintf_putch>:
    80003674:	fd010113          	add	sp,sp,-48
    80003678:	02813423          	sd	s0,40(sp)
    8000367c:	03010413          	add	s0,sp,48
    80003680:	00050793          	mv	a5,a0
    80003684:	fcb43823          	sd	a1,-48(s0)
    80003688:	fcf42e23          	sw	a5,-36(s0)
    8000368c:	fd043783          	ld	a5,-48(s0)
    80003690:	fef43423          	sd	a5,-24(s0)
    80003694:	fe843783          	ld	a5,-24(s0)
    80003698:	0007b783          	ld	a5,0(a5)
    8000369c:	fdc42703          	lw	a4,-36(s0)
    800036a0:	0ff77713          	zext.b	a4,a4
    800036a4:	00e78023          	sb	a4,0(a5)
    800036a8:	fe843783          	ld	a5,-24(s0)
    800036ac:	0007b783          	ld	a5,0(a5)
    800036b0:	00178713          	add	a4,a5,1
    800036b4:	fe843783          	ld	a5,-24(s0)
    800036b8:	00e7b023          	sd	a4,0(a5)
    800036bc:	00000013          	nop
    800036c0:	02813403          	ld	s0,40(sp)
    800036c4:	03010113          	add	sp,sp,48
    800036c8:	00008067          	ret

00000000800036cc <sprintf>:
    800036cc:	f9010113          	add	sp,sp,-112
    800036d0:	02113c23          	sd	ra,56(sp)
    800036d4:	02813823          	sd	s0,48(sp)
    800036d8:	04010413          	add	s0,sp,64
    800036dc:	fca43c23          	sd	a0,-40(s0)
    800036e0:	fcb43823          	sd	a1,-48(s0)
    800036e4:	00c43023          	sd	a2,0(s0)
    800036e8:	00d43423          	sd	a3,8(s0)
    800036ec:	00e43823          	sd	a4,16(s0)
    800036f0:	00f43c23          	sd	a5,24(s0)
    800036f4:	03043023          	sd	a6,32(s0)
    800036f8:	03143423          	sd	a7,40(s0)
    800036fc:	fd843783          	ld	a5,-40(s0)
    80003700:	fef43423          	sd	a5,-24(s0)
    80003704:	03040793          	add	a5,s0,48
    80003708:	fcf43423          	sd	a5,-56(s0)
    8000370c:	fc843783          	ld	a5,-56(s0)
    80003710:	fd078793          	add	a5,a5,-48
    80003714:	fef43023          	sd	a5,-32(s0)
    80003718:	fe043703          	ld	a4,-32(s0)
    8000371c:	fd840793          	add	a5,s0,-40
    80003720:	00070693          	mv	a3,a4
    80003724:	fd043603          	ld	a2,-48(s0)
    80003728:	00078593          	mv	a1,a5
    8000372c:	00000517          	auipc	a0,0x0
    80003730:	f4850513          	add	a0,a0,-184 # 80003674 <sprintf_putch>
    80003734:	a9dff0ef          	jal	800031d0 <vprintfmt>
    80003738:	fd843783          	ld	a5,-40(s0)
    8000373c:	00078023          	sb	zero,0(a5)
    80003740:	fd843703          	ld	a4,-40(s0)
    80003744:	fe843783          	ld	a5,-24(s0)
    80003748:	40f707b3          	sub	a5,a4,a5
    8000374c:	0007879b          	sext.w	a5,a5
    80003750:	00078513          	mv	a0,a5
    80003754:	03813083          	ld	ra,56(sp)
    80003758:	03013403          	ld	s0,48(sp)
    8000375c:	07010113          	add	sp,sp,112
    80003760:	00008067          	ret

0000000080003764 <memcpy>:
    80003764:	fb010113          	add	sp,sp,-80
    80003768:	04813423          	sd	s0,72(sp)
    8000376c:	05010413          	add	s0,sp,80
    80003770:	fca43423          	sd	a0,-56(s0)
    80003774:	fcb43023          	sd	a1,-64(s0)
    80003778:	fac43c23          	sd	a2,-72(s0)
    8000377c:	fc843703          	ld	a4,-56(s0)
    80003780:	fc043783          	ld	a5,-64(s0)
    80003784:	00f76733          	or	a4,a4,a5
    80003788:	fb843783          	ld	a5,-72(s0)
    8000378c:	00f767b3          	or	a5,a4,a5
    80003790:	0077f793          	and	a5,a5,7
    80003794:	04079863          	bnez	a5,800037e4 <memcpy+0x80>
    80003798:	fc043783          	ld	a5,-64(s0)
    8000379c:	fef43423          	sd	a5,-24(s0)
    800037a0:	fc843783          	ld	a5,-56(s0)
    800037a4:	fef43023          	sd	a5,-32(s0)
    800037a8:	0240006f          	j	800037cc <memcpy+0x68>
    800037ac:	fe843703          	ld	a4,-24(s0)
    800037b0:	00870793          	add	a5,a4,8
    800037b4:	fef43423          	sd	a5,-24(s0)
    800037b8:	fe043783          	ld	a5,-32(s0)
    800037bc:	00878693          	add	a3,a5,8
    800037c0:	fed43023          	sd	a3,-32(s0)
    800037c4:	00073703          	ld	a4,0(a4)
    800037c8:	00e7b023          	sd	a4,0(a5)
    800037cc:	fc843703          	ld	a4,-56(s0)
    800037d0:	fb843783          	ld	a5,-72(s0)
    800037d4:	00f707b3          	add	a5,a4,a5
    800037d8:	fe043703          	ld	a4,-32(s0)
    800037dc:	fcf768e3          	bltu	a4,a5,800037ac <memcpy+0x48>
    800037e0:	04c0006f          	j	8000382c <memcpy+0xc8>
    800037e4:	fc043783          	ld	a5,-64(s0)
    800037e8:	fcf43c23          	sd	a5,-40(s0)
    800037ec:	fc843783          	ld	a5,-56(s0)
    800037f0:	fcf43823          	sd	a5,-48(s0)
    800037f4:	0240006f          	j	80003818 <memcpy+0xb4>
    800037f8:	fd843703          	ld	a4,-40(s0)
    800037fc:	00170793          	add	a5,a4,1
    80003800:	fcf43c23          	sd	a5,-40(s0)
    80003804:	fd043783          	ld	a5,-48(s0)
    80003808:	00178693          	add	a3,a5,1
    8000380c:	fcd43823          	sd	a3,-48(s0)
    80003810:	00074703          	lbu	a4,0(a4)
    80003814:	00e78023          	sb	a4,0(a5)
    80003818:	fc843703          	ld	a4,-56(s0)
    8000381c:	fb843783          	ld	a5,-72(s0)
    80003820:	00f707b3          	add	a5,a4,a5
    80003824:	fd043703          	ld	a4,-48(s0)
    80003828:	fcf768e3          	bltu	a4,a5,800037f8 <memcpy+0x94>
    8000382c:	fc843783          	ld	a5,-56(s0)
    80003830:	00078513          	mv	a0,a5
    80003834:	04813403          	ld	s0,72(sp)
    80003838:	05010113          	add	sp,sp,80
    8000383c:	00008067          	ret

0000000080003840 <memset>:
    80003840:	fb010113          	add	sp,sp,-80
    80003844:	04813423          	sd	s0,72(sp)
    80003848:	05010413          	add	s0,sp,80
    8000384c:	fca43423          	sd	a0,-56(s0)
    80003850:	00058793          	mv	a5,a1
    80003854:	fac43c23          	sd	a2,-72(s0)
    80003858:	fcf42223          	sw	a5,-60(s0)
    8000385c:	fc843703          	ld	a4,-56(s0)
    80003860:	fb843783          	ld	a5,-72(s0)
    80003864:	00f767b3          	or	a5,a4,a5
    80003868:	0077f793          	and	a5,a5,7
    8000386c:	08079263          	bnez	a5,800038f0 <memset+0xb0>
    80003870:	fc442783          	lw	a5,-60(s0)
    80003874:	0ff7f793          	zext.b	a5,a5
    80003878:	fcf43c23          	sd	a5,-40(s0)
    8000387c:	fd843783          	ld	a5,-40(s0)
    80003880:	00879793          	sll	a5,a5,0x8
    80003884:	fd843703          	ld	a4,-40(s0)
    80003888:	00f767b3          	or	a5,a4,a5
    8000388c:	fcf43c23          	sd	a5,-40(s0)
    80003890:	fd843783          	ld	a5,-40(s0)
    80003894:	01079793          	sll	a5,a5,0x10
    80003898:	fd843703          	ld	a4,-40(s0)
    8000389c:	00f767b3          	or	a5,a4,a5
    800038a0:	fcf43c23          	sd	a5,-40(s0)
    800038a4:	fd843783          	ld	a5,-40(s0)
    800038a8:	02079793          	sll	a5,a5,0x20
    800038ac:	fd843703          	ld	a4,-40(s0)
    800038b0:	00f767b3          	or	a5,a4,a5
    800038b4:	fcf43c23          	sd	a5,-40(s0)
    800038b8:	fc843783          	ld	a5,-56(s0)
    800038bc:	fef43423          	sd	a5,-24(s0)
    800038c0:	0180006f          	j	800038d8 <memset+0x98>
    800038c4:	fe843783          	ld	a5,-24(s0)
    800038c8:	00878713          	add	a4,a5,8
    800038cc:	fee43423          	sd	a4,-24(s0)
    800038d0:	fd843703          	ld	a4,-40(s0)
    800038d4:	00e7b023          	sd	a4,0(a5)
    800038d8:	fc843703          	ld	a4,-56(s0)
    800038dc:	fb843783          	ld	a5,-72(s0)
    800038e0:	00f707b3          	add	a5,a4,a5
    800038e4:	fe843703          	ld	a4,-24(s0)
    800038e8:	fcf76ee3          	bltu	a4,a5,800038c4 <memset+0x84>
    800038ec:	03c0006f          	j	80003928 <memset+0xe8>
    800038f0:	fc843783          	ld	a5,-56(s0)
    800038f4:	fef43023          	sd	a5,-32(s0)
    800038f8:	01c0006f          	j	80003914 <memset+0xd4>
    800038fc:	fe043783          	ld	a5,-32(s0)
    80003900:	00178713          	add	a4,a5,1
    80003904:	fee43023          	sd	a4,-32(s0)
    80003908:	fc442703          	lw	a4,-60(s0)
    8000390c:	0ff77713          	zext.b	a4,a4
    80003910:	00e78023          	sb	a4,0(a5)
    80003914:	fc843703          	ld	a4,-56(s0)
    80003918:	fb843783          	ld	a5,-72(s0)
    8000391c:	00f707b3          	add	a5,a4,a5
    80003920:	fe043703          	ld	a4,-32(s0)
    80003924:	fcf76ce3          	bltu	a4,a5,800038fc <memset+0xbc>
    80003928:	fc843783          	ld	a5,-56(s0)
    8000392c:	00078513          	mv	a0,a5
    80003930:	04813403          	ld	s0,72(sp)
    80003934:	05010113          	add	sp,sp,80
    80003938:	00008067          	ret

000000008000393c <strlen>:
    8000393c:	fd010113          	add	sp,sp,-48
    80003940:	02813423          	sd	s0,40(sp)
    80003944:	03010413          	add	s0,sp,48
    80003948:	fca43c23          	sd	a0,-40(s0)
    8000394c:	fd843783          	ld	a5,-40(s0)
    80003950:	fef43423          	sd	a5,-24(s0)
    80003954:	0100006f          	j	80003964 <strlen+0x28>
    80003958:	fe843783          	ld	a5,-24(s0)
    8000395c:	00178793          	add	a5,a5,1
    80003960:	fef43423          	sd	a5,-24(s0)
    80003964:	fe843783          	ld	a5,-24(s0)
    80003968:	0007c783          	lbu	a5,0(a5)
    8000396c:	fe0796e3          	bnez	a5,80003958 <strlen+0x1c>
    80003970:	fe843703          	ld	a4,-24(s0)
    80003974:	fd843783          	ld	a5,-40(s0)
    80003978:	40f707b3          	sub	a5,a4,a5
    8000397c:	00078513          	mv	a0,a5
    80003980:	02813403          	ld	s0,40(sp)
    80003984:	03010113          	add	sp,sp,48
    80003988:	00008067          	ret

000000008000398c <strnlen>:
    8000398c:	fd010113          	add	sp,sp,-48
    80003990:	02813423          	sd	s0,40(sp)
    80003994:	03010413          	add	s0,sp,48
    80003998:	fca43c23          	sd	a0,-40(s0)
    8000399c:	fcb43823          	sd	a1,-48(s0)
    800039a0:	fd843783          	ld	a5,-40(s0)
    800039a4:	fef43423          	sd	a5,-24(s0)
    800039a8:	0100006f          	j	800039b8 <strnlen+0x2c>
    800039ac:	fe843783          	ld	a5,-24(s0)
    800039b0:	00178793          	add	a5,a5,1
    800039b4:	fef43423          	sd	a5,-24(s0)
    800039b8:	fd043783          	ld	a5,-48(s0)
    800039bc:	fff78713          	add	a4,a5,-1
    800039c0:	fce43823          	sd	a4,-48(s0)
    800039c4:	00078863          	beqz	a5,800039d4 <strnlen+0x48>
    800039c8:	fe843783          	ld	a5,-24(s0)
    800039cc:	0007c783          	lbu	a5,0(a5)
    800039d0:	fc079ee3          	bnez	a5,800039ac <strnlen+0x20>
    800039d4:	fe843703          	ld	a4,-24(s0)
    800039d8:	fd843783          	ld	a5,-40(s0)
    800039dc:	40f707b3          	sub	a5,a4,a5
    800039e0:	00078513          	mv	a0,a5
    800039e4:	02813403          	ld	s0,40(sp)
    800039e8:	03010113          	add	sp,sp,48
    800039ec:	00008067          	ret

00000000800039f0 <strcmp>:
    800039f0:	fd010113          	add	sp,sp,-48
    800039f4:	02813423          	sd	s0,40(sp)
    800039f8:	03010413          	add	s0,sp,48
    800039fc:	fca43c23          	sd	a0,-40(s0)
    80003a00:	fcb43823          	sd	a1,-48(s0)
    80003a04:	fd843783          	ld	a5,-40(s0)
    80003a08:	00178713          	add	a4,a5,1
    80003a0c:	fce43c23          	sd	a4,-40(s0)
    80003a10:	0007c783          	lbu	a5,0(a5)
    80003a14:	fef407a3          	sb	a5,-17(s0)
    80003a18:	fd043783          	ld	a5,-48(s0)
    80003a1c:	00178713          	add	a4,a5,1
    80003a20:	fce43823          	sd	a4,-48(s0)
    80003a24:	0007c783          	lbu	a5,0(a5)
    80003a28:	fef40723          	sb	a5,-18(s0)
    80003a2c:	fef44783          	lbu	a5,-17(s0)
    80003a30:	0ff7f793          	zext.b	a5,a5
    80003a34:	00078e63          	beqz	a5,80003a50 <strcmp+0x60>
    80003a38:	fef44783          	lbu	a5,-17(s0)
    80003a3c:	00078713          	mv	a4,a5
    80003a40:	fee44783          	lbu	a5,-18(s0)
    80003a44:	0ff77713          	zext.b	a4,a4
    80003a48:	0ff7f793          	zext.b	a5,a5
    80003a4c:	faf70ce3          	beq	a4,a5,80003a04 <strcmp+0x14>
    80003a50:	fef44783          	lbu	a5,-17(s0)
    80003a54:	0007871b          	sext.w	a4,a5
    80003a58:	fee44783          	lbu	a5,-18(s0)
    80003a5c:	0007879b          	sext.w	a5,a5
    80003a60:	40f707bb          	subw	a5,a4,a5
    80003a64:	0007879b          	sext.w	a5,a5
    80003a68:	00078513          	mv	a0,a5
    80003a6c:	02813403          	ld	s0,40(sp)
    80003a70:	03010113          	add	sp,sp,48
    80003a74:	00008067          	ret

0000000080003a78 <strcpy>:
    80003a78:	fd010113          	add	sp,sp,-48
    80003a7c:	02813423          	sd	s0,40(sp)
    80003a80:	03010413          	add	s0,sp,48
    80003a84:	fca43c23          	sd	a0,-40(s0)
    80003a88:	fcb43823          	sd	a1,-48(s0)
    80003a8c:	fd843783          	ld	a5,-40(s0)
    80003a90:	fef43423          	sd	a5,-24(s0)
    80003a94:	00000013          	nop
    80003a98:	fd043703          	ld	a4,-48(s0)
    80003a9c:	00170793          	add	a5,a4,1
    80003aa0:	fcf43823          	sd	a5,-48(s0)
    80003aa4:	fe843783          	ld	a5,-24(s0)
    80003aa8:	00178693          	add	a3,a5,1
    80003aac:	fed43423          	sd	a3,-24(s0)
    80003ab0:	00074703          	lbu	a4,0(a4)
    80003ab4:	00e78023          	sb	a4,0(a5)
    80003ab8:	0007c783          	lbu	a5,0(a5)
    80003abc:	fc079ee3          	bnez	a5,80003a98 <strcpy+0x20>
    80003ac0:	fd843783          	ld	a5,-40(s0)
    80003ac4:	00078513          	mv	a0,a5
    80003ac8:	02813403          	ld	s0,40(sp)
    80003acc:	03010113          	add	sp,sp,48
    80003ad0:	00008067          	ret

0000000080003ad4 <atol>:
    80003ad4:	fd010113          	add	sp,sp,-48
    80003ad8:	02813423          	sd	s0,40(sp)
    80003adc:	03010413          	add	s0,sp,48
    80003ae0:	fca43c23          	sd	a0,-40(s0)
    80003ae4:	fe043423          	sd	zero,-24(s0)
    80003ae8:	fe042223          	sw	zero,-28(s0)
    80003aec:	0100006f          	j	80003afc <atol+0x28>
    80003af0:	fd843783          	ld	a5,-40(s0)
    80003af4:	00178793          	add	a5,a5,1
    80003af8:	fcf43c23          	sd	a5,-40(s0)
    80003afc:	fd843783          	ld	a5,-40(s0)
    80003b00:	0007c783          	lbu	a5,0(a5)
    80003b04:	00078713          	mv	a4,a5
    80003b08:	02000793          	li	a5,32
    80003b0c:	fef702e3          	beq	a4,a5,80003af0 <atol+0x1c>
    80003b10:	fd843783          	ld	a5,-40(s0)
    80003b14:	0007c783          	lbu	a5,0(a5)
    80003b18:	00078713          	mv	a4,a5
    80003b1c:	02d00793          	li	a5,45
    80003b20:	00f70c63          	beq	a4,a5,80003b38 <atol+0x64>
    80003b24:	fd843783          	ld	a5,-40(s0)
    80003b28:	0007c783          	lbu	a5,0(a5)
    80003b2c:	00078713          	mv	a4,a5
    80003b30:	02b00793          	li	a5,43
    80003b34:	06f71c63          	bne	a4,a5,80003bac <atol+0xd8>
    80003b38:	fd843783          	ld	a5,-40(s0)
    80003b3c:	0007c783          	lbu	a5,0(a5)
    80003b40:	0007871b          	sext.w	a4,a5
    80003b44:	02d00793          	li	a5,45
    80003b48:	40f707b3          	sub	a5,a4,a5
    80003b4c:	0017b793          	seqz	a5,a5
    80003b50:	0ff7f793          	zext.b	a5,a5
    80003b54:	fef42223          	sw	a5,-28(s0)
    80003b58:	fd843783          	ld	a5,-40(s0)
    80003b5c:	00178793          	add	a5,a5,1
    80003b60:	fcf43c23          	sd	a5,-40(s0)
    80003b64:	0480006f          	j	80003bac <atol+0xd8>
    80003b68:	fe843703          	ld	a4,-24(s0)
    80003b6c:	00070793          	mv	a5,a4
    80003b70:	00279793          	sll	a5,a5,0x2
    80003b74:	00e787b3          	add	a5,a5,a4
    80003b78:	00179793          	sll	a5,a5,0x1
    80003b7c:	fef43423          	sd	a5,-24(s0)
    80003b80:	fd843783          	ld	a5,-40(s0)
    80003b84:	00178713          	add	a4,a5,1
    80003b88:	fce43c23          	sd	a4,-40(s0)
    80003b8c:	0007c783          	lbu	a5,0(a5)
    80003b90:	0007879b          	sext.w	a5,a5
    80003b94:	fd07879b          	addw	a5,a5,-48
    80003b98:	0007879b          	sext.w	a5,a5
    80003b9c:	00078713          	mv	a4,a5
    80003ba0:	fe843783          	ld	a5,-24(s0)
    80003ba4:	00e787b3          	add	a5,a5,a4
    80003ba8:	fef43423          	sd	a5,-24(s0)
    80003bac:	fd843783          	ld	a5,-40(s0)
    80003bb0:	0007c783          	lbu	a5,0(a5)
    80003bb4:	fa079ae3          	bnez	a5,80003b68 <atol+0x94>
    80003bb8:	fe442783          	lw	a5,-28(s0)
    80003bbc:	0007879b          	sext.w	a5,a5
    80003bc0:	00078863          	beqz	a5,80003bd0 <atol+0xfc>
    80003bc4:	fe843783          	ld	a5,-24(s0)
    80003bc8:	40f007b3          	neg	a5,a5
    80003bcc:	0080006f          	j	80003bd4 <atol+0x100>
    80003bd0:	fe843783          	ld	a5,-24(s0)
    80003bd4:	00078513          	mv	a0,a5
    80003bd8:	02813403          	ld	s0,40(sp)
    80003bdc:	03010113          	add	sp,sp,48
    80003be0:	00008067          	ret
