	.file	"syscalls.c"
	.option nopic
	.attribute arch, "rv64i2p1_m2p0_a2p1_f2p2_d2p2_zicsr2p0_zifencei2p0_zba1p0_zbb1p0_zbc1p0_zbs1p0"
	.attribute unaligned_access, 0
	.attribute stack_align, 16
	.text
.Ltext0:
	.cfi_sections	.debug_frame
	.file 0 "/home/heshds/working_dir/regsw_tests/matmul" "/home/heshds/working_dir/regsw_tests/common/syscalls.c"
	.align	2
	.globl	sprintf_putch
	.hidden	sprintf_putch
	.type	sprintf_putch, @function
sprintf_putch:
.LFB29:
	.file 1 "/home/heshds/working_dir/regsw_tests/common/syscalls.c"
	.loc 1 412 1
	.cfi_startproc
.LVL0:
	.loc 1 413 3
	.loc 1 414 3
	.loc 1 414 4 is_stmt 0
	ld	a5,0(a1)
	.loc 1 414 10
	sb	a0,0(a5)
	.loc 1 415 3 is_stmt 1
	.loc 1 415 10 is_stmt 0
	ld	a5,0(a1)
	addi	a5,a5,1
	sd	a5,0(a1)
	.loc 1 416 1
	ret
	.cfi_endproc
.LFE29:
	.size	sprintf_putch, .-sprintf_putch
	.align	2
	.globl	putchar
	.hidden	putchar
	.type	putchar, @function
putchar:
.LFB22:
	.loc 1 177 1 is_stmt 1
	.cfi_startproc
.LVL1:
	.loc 1 179 3
	.loc 1 180 3
	.loc 1 182 3
	.loc 1 182 13 is_stmt 0
	lui	a1,%tprel_hi(buflen.0)
	add	a4,a1,tp,%tprel_add(buflen.0)
	lw	a6,%tprel_lo(buflen.0)(a4)
	.loc 1 182 17
	lui	a2,%tprel_hi(.LANCHOR0)
	add	a5,a2,tp,%tprel_add(.LANCHOR0)
	addi	a5,a5,%tprel_lo(.LANCHOR0)
	add	a5,a5,a6
	.loc 1 177 1
	addi	sp,sp,-112
	.cfi_def_cfa_offset 112
	.loc 1 182 13
	addiw	a3,a6,1
	sw	a3,%tprel_lo(buflen.0)(a4)
	.loc 1 182 17
	sb	a0,0(a5)
	.loc 1 184 3 is_stmt 1
	.loc 1 177 1 is_stmt 0
	addi	a4,sp,63
	.loc 1 184 6
	li	a5,10
	.loc 1 177 1
	andi	a4,a4,-64
	.loc 1 184 6
	beq	a0,a5,.L4
	.loc 1 184 18 discriminator 1
	li	a5,64
	beq	a3,a5,.L4
	.loc 1 191 3 is_stmt 1
	.loc 1 192 1 is_stmt 0
	li	a0,0
.LVL2:
	addi	sp,sp,112
	.cfi_remember_state
	.cfi_def_cfa_offset 0
	jr	ra
.LVL3:
.L4:
	.cfi_restore_state
	.loc 1 186 5 is_stmt 1
.LBB21:
.LBB22:
	.loc 1 32 16 is_stmt 0
	li	a5,64
	sd	a5,0(a4)
.LBE22:
.LBE21:
	.loc 1 186 5
	add	a2,a2,tp,%tprel_add(.LANCHOR0)
.LBB26:
.LBB23:
	.loc 1 33 16
	li	a5,1
	sd	a5,8(a4)
.LBE23:
.LBE26:
	.loc 1 186 5
	addi	a2,a2,%tprel_lo(.LANCHOR0)
.LVL4:
.LBB27:
.LBB24:
	.loc 1 31 3 is_stmt 1
	.loc 1 32 3
	.loc 1 33 3
	.loc 1 34 3
	.loc 1 34 16 is_stmt 0
	sd	a2,16(a4)
	.loc 1 35 3 is_stmt 1
	.loc 1 35 16 is_stmt 0
	sd	a3,24(a4)
	.loc 1 37 3 is_stmt 1
	fence	iorw,iorw
	.loc 1 47 3
	.loc 1 47 65 is_stmt 0
	bseti	a5,zero,48
	addi	a5,a5,-64
	and	a5,a4,a5
	.loc 1 47 10
	sd	a5,tohost,a3
.LVL5:
	.loc 1 48 3 is_stmt 1
	lla	a3,fromhost
.L6:
	.loc 1 48 19 discriminator 1
	ld	a5,0(a3)
	beq	a5,zero,.L6
	.loc 1 50 3
	.loc 1 50 12 is_stmt 0
	sd	zero,fromhost,a5
	.loc 1 53 3 is_stmt 1
	fence	iorw,iorw
	.loc 1 55 3
.LBE24:
.LBE27:
	.loc 1 187 12 is_stmt 0
	add	a1,a1,tp,%tprel_add(buflen.0)
	sw	zero,%tprel_lo(buflen.0)(a1)
.LBB28:
.LBB25:
	.loc 1 55 19
	ld	a5,0(a4)
.LVL6:
.LBE25:
.LBE28:
	.loc 1 187 5 is_stmt 1
	.loc 1 191 3
	.loc 1 192 1 is_stmt 0
	li	a0,0
.LVL7:
	addi	sp,sp,112
	.cfi_def_cfa_offset 0
	jr	ra
	.cfi_endproc
.LFE22:
	.size	putchar, .-putchar
	.section	.rodata.str1.8,"aMS",@progbits,1
	.align	3
.LC0:
	.string	"(null)"
	.text
	.align	2
	.type	vprintfmt.constprop.1, @function
vprintfmt.constprop.1:
.LFB44:
	.loc 1 249 13 is_stmt 1
	.cfi_startproc
.LVL8:
	addi	sp,sp,-288
	.cfi_def_cfa_offset 288
	sd	s0,280(sp)
	sd	s1,272(sp)
	.loc 1 259 42 is_stmt 0
	li	a6,37
	.loc 1 275 5
	li	t0,85
	lla	t6,.L19
	.loc 1 251 3 is_stmt 1
	.loc 1 252 3
	.loc 1 253 3
	.loc 1 254 3
	.loc 1 255 3
	.loc 1 256 3
	.loc 1 258 3
	.loc 1 259 5
	.loc 1 259 42
	.cfi_offset 8, -8
	.cfi_offset 9, -16
	j	.L105
.LVL9:
.L14:
	.loc 1 260 7
	.loc 1 260 10 is_stmt 0
	beq	a4,zero,.L96
	.loc 1 262 7 is_stmt 1
.LBB67:
.LBB68:
	.loc 1 414 4 is_stmt 0
	ld	a4,0(a0)
.LVL10:
.LBE68:
.LBE67:
	.loc 1 262 10
	addi	a1,a1,1
.LVL11:
	.loc 1 263 7 is_stmt 1
.LBB70:
.LBB69:
	.loc 1 413 3
	.loc 1 414 3
	.loc 1 414 10 is_stmt 0
	sb	a5,0(a4)
	.loc 1 415 3 is_stmt 1
	.loc 1 415 10 is_stmt 0
	ld	a5,0(a0)
.LVL12:
	addi	a5,a5,1
	sd	a5,0(a0)
.LVL13:
.L105:
.LBE69:
.LBE70:
	.loc 1 259 42 is_stmt 1
	.loc 1 259 18 is_stmt 0
	lbu	a5,0(a1)
	.loc 1 259 16
	sext.w	a4,a5
.LVL14:
	.loc 1 259 42
	bne	a5,a6,.L14
	.loc 1 265 5 is_stmt 1
	.loc 1 275 18 is_stmt 0
	lbu	a3,1(a1)
	.loc 1 265 8
	addi	t1,a1,1
.LVL15:
	.loc 1 268 5 is_stmt 1
	.loc 1 269 5
	.loc 1 270 5
	.loc 1 271 5
	.loc 1 272 5
	.loc 1 273 5
	.loc 1 265 8 is_stmt 0
	mv	a4,t1
.LVL16:
	.loc 1 269 10
	li	s1,32
	.loc 1 271 15
	li	a7,-1
	.loc 1 270 11
	li	s0,-1
	.loc 1 272 11
	li	t5,0
.LVL17:
.L15:
	.loc 1 275 5 is_stmt 1
	addiw	a5,a3,-35
	andi	a5,a5,0xff
	.loc 1 275 19 is_stmt 0
	addi	a1,a4,1
.LVL18:
	.loc 1 275 5
	bgtu	a5,t0,.L17
.LVL19:
.L109:
	sh2add	a5,a5,t6
	lw	a5,0(a5)
	add	a5,a5,t6
	jr	a5
	.section	.rodata
	.align	2
	.align	2
.L19:
	.word	.L32-.L19
	.word	.L17-.L19
	.word	.L31-.L19
	.word	.L17-.L19
	.word	.L17-.L19
	.word	.L17-.L19
	.word	.L17-.L19
	.word	.L30-.L19
	.word	.L17-.L19
	.word	.L17-.L19
	.word	.L28-.L19
	.word	.L29-.L19
	.word	.L17-.L19
	.word	.L28-.L19
	.word	.L27-.L19
	.word	.L27-.L19
	.word	.L27-.L19
	.word	.L27-.L19
	.word	.L27-.L19
	.word	.L27-.L19
	.word	.L27-.L19
	.word	.L27-.L19
	.word	.L27-.L19
	.word	.L17-.L19
	.word	.L17-.L19
	.word	.L17-.L19
	.word	.L17-.L19
	.word	.L17-.L19
	.word	.L17-.L19
	.word	.L17-.L19
	.word	.L17-.L19
	.word	.L17-.L19
	.word	.L17-.L19
	.word	.L17-.L19
	.word	.L17-.L19
	.word	.L17-.L19
	.word	.L17-.L19
	.word	.L17-.L19
	.word	.L17-.L19
	.word	.L17-.L19
	.word	.L17-.L19
	.word	.L17-.L19
	.word	.L17-.L19
	.word	.L17-.L19
	.word	.L17-.L19
	.word	.L17-.L19
	.word	.L17-.L19
	.word	.L17-.L19
	.word	.L17-.L19
	.word	.L17-.L19
	.word	.L17-.L19
	.word	.L17-.L19
	.word	.L17-.L19
	.word	.L17-.L19
	.word	.L17-.L19
	.word	.L17-.L19
	.word	.L17-.L19
	.word	.L17-.L19
	.word	.L17-.L19
	.word	.L17-.L19
	.word	.L17-.L19
	.word	.L17-.L19
	.word	.L17-.L19
	.word	.L17-.L19
	.word	.L26-.L19
	.word	.L25-.L19
	.word	.L17-.L19
	.word	.L17-.L19
	.word	.L17-.L19
	.word	.L17-.L19
	.word	.L17-.L19
	.word	.L17-.L19
	.word	.L17-.L19
	.word	.L24-.L19
	.word	.L17-.L19
	.word	.L17-.L19
	.word	.L23-.L19
	.word	.L22-.L19
	.word	.L17-.L19
	.word	.L17-.L19
	.word	.L21-.L19
	.word	.L17-.L19
	.word	.L76-.L19
	.word	.L17-.L19
	.word	.L17-.L19
	.word	.L18-.L19
	.text
.LVL20:
.L96:
	.loc 1 398 1
	ld	s0,280(sp)
	.cfi_remember_state
	.cfi_restore 8
	ld	s1,272(sp)
	.cfi_restore 9
	addi	sp,sp,288
	.cfi_def_cfa_offset 0
	jr	ra
.LVL21:
.L28:
	.cfi_restore_state
	.loc 1 284 7 is_stmt 1
	.loc 1 285 7
	.loc 1 284 12 is_stmt 0
	mv	s1,a3
	.loc 1 285 7
	lbu	a3,1(a4)
	.loc 1 275 19
	mv	a4,a1
.LVL22:
	.loc 1 275 5 is_stmt 1
	.loc 1 275 19 is_stmt 0
	addi	a1,a4,1
.LVL23:
	.loc 1 275 5
	addiw	a5,a3,-35
	andi	a5,a5,0xff
	bleu	a5,t0,.L109
.LVL24:
.L17:
	.loc 1 393 7 is_stmt 1
.LBB71:
.LBB72:
	.loc 1 413 3
	.loc 1 414 3
	.loc 1 414 4 is_stmt 0
	ld	a5,0(a0)
.LBE72:
.LBE71:
	.loc 1 394 11
	mv	a1,t1
.LVL25:
.L100:
.LBB75:
.LBB73:
	.loc 1 414 10
	li	a4,37
	sb	a4,0(a5)
	.loc 1 415 3 is_stmt 1
	.loc 1 415 10 is_stmt 0
	ld	a5,0(a0)
	addi	a5,a5,1
	sd	a5,0(a0)
.LBE73:
.LBE75:
	.loc 1 394 7 is_stmt 1
.LVL26:
	.loc 1 395 7
.LBB76:
.LBB74:
	.loc 1 416 1 is_stmt 0
	j	.L105
.LVL27:
.L27:
.LBE74:
.LBE76:
	.loc 1 298 9 is_stmt 1
	.loc 1 298 19 is_stmt 0
	addiw	a7,a3,-48
.LVL28:
	.loc 1 299 9 is_stmt 1
	.loc 1 299 14 is_stmt 0
	lbu	a3,1(a4)
	.loc 1 300 12
	li	a5,9
	addiw	a4,a3,-48
	.loc 1 299 12
	sext.w	t2,a3
.LVL29:
	.loc 1 300 9 is_stmt 1
	.loc 1 300 12 is_stmt 0
	bgtu	a4,a5,.L77
	sd	s2,264(sp)
	.cfi_offset 18, -24
	.loc 1 275 19
	mv	a4,a1
	.loc 1 300 12
	li	s2,9
.LVL30:
.L35:
	.loc 1 297 29 is_stmt 1
	.loc 1 299 14 is_stmt 0
	lbu	a3,1(a4)
	.loc 1 298 31
	slliw	a5,a7,2
	addw	a5,a5,a7
	slliw	a5,a5,1
	.loc 1 298 36
	addw	a5,a5,t2
	.loc 1 300 12
	addiw	a1,a3,-48
	.loc 1 297 29
	addi	a4,a4,1
.LVL31:
	.loc 1 297 7 is_stmt 1
	.loc 1 298 9
	.loc 1 298 19 is_stmt 0
	addiw	a7,a5,-48
.LVL32:
	.loc 1 299 9 is_stmt 1
	.loc 1 299 12 is_stmt 0
	sext.w	t2,a3
.LVL33:
	.loc 1 300 9 is_stmt 1
	.loc 1 300 12 is_stmt 0
	bleu	a1,s2,.L35
	ld	s2,264(sp)
	.cfi_restore 18
.LVL34:
.L34:
	.loc 1 319 7 is_stmt 1
	.loc 1 319 10 is_stmt 0
	bge	s0,zero,.L15
	.loc 1 320 15
	mv	s0,a7
.LVL35:
	.loc 1 320 38
	li	a7,-1
	j	.L15
.LVL36:
.L32:
	.loc 1 315 7 is_stmt 1
	.loc 1 316 7
	.loc 1 299 14 is_stmt 0
	lbu	a3,1(a4)
	.loc 1 275 19
	mv	a4,a1
	.loc 1 316 7
	j	.L15
.LVL37:
.L31:
	.loc 1 388 7 is_stmt 1
.LBB77:
.LBB78:
	.loc 1 413 3
	.loc 1 414 3
	.loc 1 414 4 is_stmt 0
	ld	a5,0(a0)
	j	.L100
.LVL38:
.L30:
.LBE78:
.LBE77:
	.loc 1 306 7 is_stmt 1
	.loc 1 306 17 is_stmt 0
	lw	a7,0(a2)
	.loc 1 307 7 is_stmt 1
	.loc 1 299 14 is_stmt 0
	lbu	a3,1(a4)
	.loc 1 306 17
	addi	a2,a2,8
.LVL39:
	.loc 1 275 19
	mv	a4,a1
	.loc 1 307 7
	j	.L34
.L22:
	.loc 1 371 7 is_stmt 1
	.loc 1 371 7
	.loc 1 371 51
	.loc 1 372 7
.LVL40:
	.loc 1 373 7
.LBB79:
.LBB80:
	.loc 1 413 3
	.loc 1 414 3
	.loc 1 414 4 is_stmt 0
	ld	a5,0(a0)
	.loc 1 414 10
	li	a4,48
.LBE80:
.LBE79:
.LBB82:
.LBB83:
	.loc 1 415 10
	li	t1,16
.LVL41:
.LBE83:
.LBE82:
.LBB85:
.LBB81:
	.loc 1 414 10
	sb	a4,0(a5)
	.loc 1 415 3 is_stmt 1
	.loc 1 415 4 is_stmt 0
	ld	a5,0(a0)
	addi	a4,a2,8
	.loc 1 415 10
	addi	a3,a5,1
	sd	a3,0(a0)
.LVL42:
.LBE81:
.LBE85:
	.loc 1 374 7 is_stmt 1
.LBB86:
.LBB84:
	.loc 1 413 3
	.loc 1 414 3
	.loc 1 414 10 is_stmt 0
	li	a3,120
	sb	a3,1(a5)
	.loc 1 415 3 is_stmt 1
	.loc 1 415 10 is_stmt 0
	ld	a5,0(a0)
	addi	a5,a5,1
	sd	a5,0(a0)
.LVL43:
.LBE84:
.LBE86:
	.loc 1 379 7 is_stmt 1
	.loc 1 381 7
.LBB87:
.LBB88:
	.loc 1 231 3
	.loc 1 233 8
.L62:
	.loc 1 234 5
	.loc 1 234 12 is_stmt 0
	ld	a3,0(a2)
	mv	a2,a4
.LVL44:
.L61:
.LBE88:
.LBE87:
	.loc 1 383 7 is_stmt 1
.LBB91:
.LBB92:
	.loc 1 211 3
	.loc 1 212 3
	.loc 1 214 3
	.loc 1 216 5
	.loc 1 216 23 is_stmt 0
	remu	a4,a3,t1
	addi	t5,sp,4
	.loc 1 216 13
	li	a7,1
	.loc 1 216 17
	sw	a4,0(sp)
	.loc 1 217 5 is_stmt 1
	.loc 1 217 8 is_stmt 0
	bltu	a3,t1,.L110
.LVL45:
.L69:
	.loc 1 219 5 is_stmt 1
	.loc 1 219 9 is_stmt 0
	divu	a3,a3,t1
.LVL46:
	.loc 1 214 9 is_stmt 1
	.loc 1 214 3
	.loc 1 216 5
	.loc 1 217 8 is_stmt 0
	addi	t5,t5,4
	mv	a4,a7
	.loc 1 216 13
	addiw	a7,a7,1
.LVL47:
	.loc 1 216 23
	remu	t2,a3,t1
	.loc 1 216 17
	sw	t2,-4(t5)
	.loc 1 217 5 is_stmt 1
	.loc 1 217 8 is_stmt 0
	bgeu	a3,t1,.L69
.LVL48:
.L68:
	.loc 1 222 18 is_stmt 1
	.loc 1 222 15 is_stmt 0
	addiw	a3,s0,-1
.LVL49:
	addiw	t1,a7,-1
	.loc 1 222 18
	ble	s0,a7,.L67
.LVL50:
.L70:
	.loc 1 223 5 is_stmt 1
.LBB93:
.LBB94:
	.loc 1 413 3
	.loc 1 414 3
	.loc 1 414 10 is_stmt 0
	sb	s1,0(a5)
	.loc 1 415 3 is_stmt 1
	.loc 1 415 10 is_stmt 0
	ld	a5,0(a0)
.LBE94:
.LBE93:
	.loc 1 222 15
	addiw	a3,a3,-1
.LVL51:
.LBB96:
.LBB95:
	.loc 1 415 10
	addi	a5,a5,1
	sd	a5,0(a0)
.LVL52:
.LBE95:
.LBE96:
	.loc 1 222 18 is_stmt 1
	bne	a3,t1,.L70
.LVL53:
.L67:
	addi	t1,sp,-4
	.loc 1 226 51 is_stmt 0
	li	a7,9
	sh2add	a4,a4,sp
	j	.L74
.LVL54:
.L111:
.LBB97:
.LBB98:
	.loc 1 413 3 is_stmt 1
	.loc 1 414 3
.LBE98:
.LBE97:
	.loc 1 226 21 is_stmt 0 discriminator 4
	addiw	a3,a3,87
.LVL55:
.L102:
.LBB102:
.LBB99:
	.loc 1 414 10
	sb	a3,0(a5)
	.loc 1 415 3 is_stmt 1
	.loc 1 415 10 is_stmt 0
	ld	a5,0(a0)
.LBE99:
.LBE102:
	.loc 1 225 16
	addi	a4,a4,-4
.LBB103:
.LBB100:
	.loc 1 415 10
	addi	a5,a5,1
	sd	a5,0(a0)
.LVL56:
.LBE100:
.LBE103:
	.loc 1 225 16 is_stmt 1
	beq	a4,t1,.L105
.LVL57:
.L74:
	.loc 1 226 5
	.loc 1 226 15 is_stmt 0
	lw	a3,0(a4)
	.loc 1 226 51
	bgtu	a3,a7,.L111
.LVL58:
.LBB104:
.LBB101:
	.loc 1 413 3 is_stmt 1
	.loc 1 414 3
.LBE101:
.LBE104:
	.loc 1 226 21 is_stmt 0 discriminator 4
	addiw	a3,a3,48
.LVL59:
	j	.L102
.LVL60:
.L25:
.LBE92:
.LBE91:
	.loc 1 350 7 is_stmt 1
.LBB106:
.LBB107:
	.loc 1 241 3
	.loc 1 241 6 is_stmt 0
	li	a5,1
.LBE107:
.LBE106:
	.loc 1 306 17
	addi	a4,a2,8
.LBB110:
.LBB108:
	.loc 1 241 6
	bgt	t5,a5,.L108
	.loc 1 243 8 is_stmt 1
	.loc 1 243 11 is_stmt 0
	beq	t5,zero,.L59
.L108:
	.loc 1 244 5 is_stmt 1
.LVL61:
	.loc 1 244 12 is_stmt 0
	ld	a3,0(a2)
.LVL62:
.L58:
.LBE108:
.LBE110:
	.loc 1 351 7 is_stmt 1
.LBB111:
.LBB112:
	.loc 1 414 4 is_stmt 0
	ld	a5,0(a0)
.LBE112:
.LBE111:
	.loc 1 351 10
	blt	a3,zero,.L60
	.loc 1 350 11 discriminator 1
	mv	a2,a4
	li	t1,10
.LVL63:
	j	.L61
.LVL64:
.L24:
	.loc 1 325 7 is_stmt 1
	.loc 1 299 14 is_stmt 0
	lbu	a3,1(a4)
	.loc 1 325 12
	addiw	t5,t5,1
.LVL65:
	.loc 1 326 7 is_stmt 1
	.loc 1 275 19 is_stmt 0
	mv	a4,a1
	.loc 1 326 7
	j	.L15
.LVL66:
.L18:
	.loc 1 275 5
	li	t1,16
.LVL67:
.L20:
	.loc 1 381 7 is_stmt 1
.LBB118:
.LBB89:
	.loc 1 231 3
	.loc 1 231 6 is_stmt 0
	li	a3,1
.LBE89:
.LBE118:
.LBB119:
.LBB113:
	.loc 1 414 4
	ld	a5,0(a0)
.LBE113:
.LBE119:
	.loc 1 306 17
	addi	a4,a2,8
.LBB120:
.LBB90:
	.loc 1 231 6
	bgt	t5,a3,.L62
	.loc 1 233 8 is_stmt 1
	.loc 1 233 11 is_stmt 0
	bne	t5,zero,.L62
	.loc 1 236 5 is_stmt 1
.LVL68:
	.loc 1 236 12 is_stmt 0 discriminator 1
	lwu	a3,0(a2)
	.loc 1 236 12
	mv	a2,a4
	j	.L61
.LVL69:
.L21:
.LBE90:
.LBE120:
	.loc 1 335 7 is_stmt 1
	.loc 1 335 14 is_stmt 0
	ld	a3,0(a2)
	addi	a2,a2,8
.LVL70:
	.loc 1 335 10 discriminator 1
	beq	a3,zero,.L37
.LVL71:
	.loc 1 337 7 is_stmt 1
	.loc 1 337 10 is_stmt 0
	ble	s0,zero,.L97
	.loc 1 337 21 discriminator 1
	li	a5,45
	bne	s1,a5,.L106
.LVL72:
	.loc 1 340 32 is_stmt 1 discriminator 1
	.loc 1 340 20 is_stmt 0 discriminator 1
	lbu	a5,0(a3)
.LVL73:
	.loc 1 340 32 discriminator 1
	bne	a5,zero,.L42
	j	.L43
.LVL74:
.L37:
	.loc 1 336 9 is_stmt 1
	.loc 1 337 7
	.loc 1 336 11 is_stmt 0
	lla	a3,.LC0
	.loc 1 340 20 discriminator 1
	li	a5,40
	.loc 1 337 10
	ble	s0,zero,.L42
	.loc 1 337 21 discriminator 1
	li	a4,45
	.loc 1 336 11
	lla	a3,.LC0
	.loc 1 340 20 discriminator 1
	li	a5,40
	.loc 1 337 21 discriminator 1
	beq	s1,a4,.L42
.LVL75:
.L106:
	.loc 1 338 9 is_stmt 1
	.loc 1 338 20 is_stmt 0
	sext.w	t5,s0
.LVL76:
.LBB121:
.LBB122:
	.loc 1 476 3 is_stmt 1
	.loc 1 477 3
	.loc 1 477 14
	.loc 1 476 15 is_stmt 0
	mv	a5,a3
	.loc 1 477 14
	add	t1,a3,a7
.LVL77:
	bne	a7,zero,.L44
	j	.L41
.LVL78:
.L46:
	.loc 1 478 5 is_stmt 1
	.loc 1 478 6 is_stmt 0
	addi	a5,a5,1
.LVL79:
	.loc 1 477 14 is_stmt 1
	beq	a5,t1,.L107
.LVL80:
.L44:
	.loc 1 477 14 is_stmt 0 discriminator 1
	lbu	a4,0(a5)
	bne	a4,zero,.L46
.LVL81:
.L107:
	.loc 1 479 12
	sub	a5,a5,a3
.LVL82:
.LBE122:
.LBE121:
	.loc 1 338 20 discriminator 1
	subw	s0,t5,a5
.LBB124:
.LBB123:
	.loc 1 479 3 is_stmt 1
.LVL83:
.LBE123:
.LBE124:
	.loc 1 338 52 discriminator 1
	ble	s0,zero,.L97
.LVL84:
.L41:
.LBB125:
.LBB114:
	.loc 1 414 4 is_stmt 0
	ld	a5,0(a0)
.L48:
.LVL85:
.LBE114:
.LBE125:
	.loc 1 339 11 is_stmt 1
.LBB126:
.LBB127:
	.loc 1 413 3
	.loc 1 414 3
	.loc 1 414 10 is_stmt 0
	sb	s1,0(a5)
	.loc 1 415 3 is_stmt 1
	.loc 1 415 10 is_stmt 0
	ld	a5,0(a0)
.LBE127:
.LBE126:
	.loc 1 338 62 discriminator 3
	addiw	s0,s0,-1
.LBB129:
.LBB128:
	.loc 1 415 10
	addi	a5,a5,1
	sd	a5,0(a0)
.LVL86:
.LBE128:
.LBE129:
	.loc 1 338 62 is_stmt 1 discriminator 3
	.loc 1 338 52 discriminator 1
	bne	s0,zero,.L48
.LVL87:
.L97:
	.loc 1 340 32 discriminator 1
	.loc 1 340 20 is_stmt 0 discriminator 1
	lbu	a5,0(a3)
.LVL88:
	.loc 1 340 32 discriminator 1
	beq	a5,zero,.L105
.LVL89:
.L42:
	.loc 1 340 50 discriminator 4
	li	t1,-1
	.loc 1 340 32 discriminator 2
	bge	a7,zero,.L51
	.loc 1 341 9 is_stmt 1
.LVL90:
.LBB130:
.LBB131:
	.loc 1 413 3
	.loc 1 414 3
	.loc 1 414 4 is_stmt 0
	ld	a4,0(a0)
.LBE131:
.LBE130:
	.loc 1 342 10
	addi	a7,a3,1
	.loc 1 340 77 discriminator 5
	addiw	s0,s0,-1
.LBB138:
.LBB132:
	.loc 1 414 10
	sb	a5,0(a4)
	.loc 1 415 3 is_stmt 1
	.loc 1 415 10 is_stmt 0
	ld	a5,0(a0)
.LVL91:
.LBE132:
.LBE138:
	.loc 1 340 77 discriminator 5
	mv	t1,s0
	mv	a4,a7
.LVL92:
.LBB139:
.LBB133:
	.loc 1 415 10
	addi	a5,a5,1
	sd	a5,0(a0)
.LVL93:
.LBE133:
.LBE139:
	.loc 1 342 9 is_stmt 1
	.loc 1 340 77 discriminator 5
	.loc 1 340 32 discriminator 1
	.loc 1 340 20 is_stmt 0 discriminator 1
	lbu	a3,1(a3)
.LVL94:
	.loc 1 340 32 discriminator 1
	beq	a3,zero,.L53
.LVL95:
.L52:
	.loc 1 341 9 is_stmt 1
.LBB140:
.LBB134:
	.loc 1 413 3
	.loc 1 414 3
	.loc 1 414 10 is_stmt 0
	sb	a3,0(a5)
	.loc 1 415 3 is_stmt 1
	.loc 1 415 10 is_stmt 0
	ld	a5,0(a0)
.LBE134:
.LBE140:
	.loc 1 342 10
	addi	a4,a4,1
.LVL96:
.LBB141:
.LBB135:
	.loc 1 415 10
	addi	a5,a5,1
	sd	a5,0(a0)
.LVL97:
.LBE135:
.LBE141:
	.loc 1 342 9 is_stmt 1
	.loc 1 340 77 discriminator 5
	.loc 1 340 32 discriminator 1
	.loc 1 340 20 is_stmt 0 discriminator 1
	lbu	a3,0(a4)
.LVL98:
	.loc 1 340 32 discriminator 1
	bne	a3,zero,.L52
	subw	a5,a7,a4
.LVL99:
	.loc 1 340 77 discriminator 5
	addw	s0,a5,t1
.LVL100:
.L53:
	.loc 1 344 20 is_stmt 1 discriminator 1
	ble	s0,zero,.L105
.LVL101:
.L43:
.LBB142:
.LBB143:
	.loc 1 414 4 is_stmt 0
	ld	a5,0(a0)
	.loc 1 414 10
	li	a4,32
.L56:
.LVL102:
.LBE143:
.LBE142:
	.loc 1 345 9 is_stmt 1
.LBB146:
.LBB144:
	.loc 1 413 3
	.loc 1 414 3
	.loc 1 414 10 is_stmt 0
	sb	a4,0(a5)
	.loc 1 415 3 is_stmt 1
	.loc 1 415 10 is_stmt 0
	ld	a5,0(a0)
.LBE144:
.LBE146:
	.loc 1 344 30 discriminator 2
	addiw	s0,s0,-1
.LBB147:
.LBB145:
	.loc 1 415 10
	addi	a5,a5,1
	sd	a5,0(a0)
.LVL103:
.LBE145:
.LBE147:
	.loc 1 344 30 is_stmt 1 discriminator 2
	.loc 1 344 20 discriminator 1
	bne	s0,zero,.L56
	j	.L105
.LVL104:
.L51:
	.loc 1 340 50 is_stmt 0 discriminator 4
	addiw	a7,a7,-1
.LVL105:
	beq	a7,t1,.L53
	.loc 1 341 9 is_stmt 1
.LVL106:
.LBB148:
.LBB136:
	.loc 1 413 3
	.loc 1 414 3
	.loc 1 414 4 is_stmt 0
	ld	a4,0(a0)
.LBE136:
.LBE148:
	.loc 1 342 10
	addi	a3,a3,1
	.loc 1 340 77 discriminator 5
	addiw	s0,s0,-1
.LBB149:
.LBB137:
	.loc 1 414 10
	sb	a5,0(a4)
	.loc 1 415 3 is_stmt 1
	.loc 1 415 10 is_stmt 0
	ld	a5,0(a0)
	addi	a5,a5,1
	sd	a5,0(a0)
.LVL107:
.LBE137:
.LBE149:
	.loc 1 342 9 is_stmt 1
	.loc 1 340 77 discriminator 5
	.loc 1 340 32 discriminator 1
	.loc 1 340 20 is_stmt 0 discriminator 1
	lbu	a5,0(a3)
.LVL108:
	.loc 1 340 32 discriminator 1
	bne	a5,zero,.L51
	j	.L53
.LVL109:
.L29:
	.loc 1 310 7 is_stmt 1
	.loc 1 299 14 is_stmt 0
	lbu	a3,1(a4)
	.loc 1 310 10
	max	s0,s0,zero
	.loc 1 275 19
	mv	a4,a1
	.loc 1 310 10
	sext.w	s0,s0
.LVL110:
	.loc 1 312 7 is_stmt 1
	j	.L15
.LVL111:
.L26:
	.loc 1 330 7
.LBB150:
.LBB115:
	.loc 1 413 3
	.loc 1 414 3
	.loc 1 414 10 is_stmt 0
	lw	a4,0(a2)
	.loc 1 414 4
	ld	a5,0(a0)
.LBE115:
.LBE150:
	.loc 1 330 7
	addi	a2,a2,8
.LVL112:
.LBB151:
.LBB116:
	.loc 1 414 10
	sb	a4,0(a5)
	.loc 1 415 3 is_stmt 1
	.loc 1 415 10 is_stmt 0
	ld	a5,0(a0)
	addi	a5,a5,1
	sd	a5,0(a0)
.LVL113:
.LBE116:
.LBE151:
	.loc 1 331 7 is_stmt 1
.LBB152:
.LBB117:
	.loc 1 416 1 is_stmt 0
	j	.L105
.LVL114:
.L110:
.LBE117:
.LBE152:
.LBB153:
.LBB105:
	.loc 1 217 8
	li	a4,0
	j	.L68
.LVL115:
.L59:
.LBE105:
.LBE153:
.LBB154:
.LBB109:
	.loc 1 246 5 is_stmt 1
	.loc 1 246 12 is_stmt 0 discriminator 1
	lw	a3,0(a2)
	.loc 1 246 12
	j	.L58
.LVL116:
.L76:
.LBE109:
.LBE154:
	.loc 1 275 5
	li	t1,10
.LVL117:
	j	.L20
.LVL118:
.L23:
	li	t1,8
.LVL119:
	j	.L20
.LVL120:
.L60:
	.loc 1 352 9 is_stmt 1
.LBB155:
.LBB156:
	.loc 1 413 3
	.loc 1 414 3
	.loc 1 414 10 is_stmt 0
	li	a2,45
	sb	a2,0(a5)
	.loc 1 415 3 is_stmt 1
	.loc 1 415 10 is_stmt 0
	ld	a5,0(a0)
.LBE156:
.LBE155:
	.loc 1 353 15
	neg	a3,a3
.LVL121:
	.loc 1 353 13
	mv	a2,a4
.LBB158:
.LBB157:
	.loc 1 415 10
	addi	a5,a5,1
	sd	a5,0(a0)
.LVL122:
.LBE157:
.LBE158:
	.loc 1 353 9 is_stmt 1
	.loc 1 353 13 is_stmt 0
	li	t1,10
.LVL123:
	j	.L61
.LVL124:
.L77:
	.loc 1 275 19
	mv	a4,a1
	j	.L34
	.cfi_endproc
.LFE44:
	.size	vprintfmt.constprop.1, .-vprintfmt.constprop.1
	.align	2
	.type	vprintfmt.constprop.0, @function
vprintfmt.constprop.0:
.LFB46:
	.loc 1 249 13 is_stmt 1
	.cfi_startproc
.LVL125:
	addi	sp,sp,-1184
	.cfi_def_cfa_offset 1184
	addi	a4,sp,335
	andi	a4,a4,-64
.LBB221:
.LBB222:
.LBB223:
.LBB224:
	.loc 1 47 65 is_stmt 0
	bseti	a5,zero,48
.LBE224:
.LBE223:
	.loc 1 182 17
	lui	a2,%tprel_hi(.LANCHOR0)
.LBB231:
.LBB225:
	.loc 1 47 65
	addi	a5,a5,-64
.LBE225:
.LBE231:
	.loc 1 182 17
	add	a2,a2,tp,%tprel_add(.LANCHOR0)
.LBB232:
.LBB226:
	.loc 1 47 14
	addi	a7,a4,704
.LBE226:
.LBE232:
	.loc 1 182 13
	lui	a3,%tprel_hi(buflen.0)
.LBE222:
.LBE221:
	.loc 1 249 13
	sd	s3,1152(sp)
	sd	s10,1096(sp)
	sd	s11,1088(sp)
	.cfi_offset 19, -32
	.cfi_offset 26, -88
	.cfi_offset 27, -96
.LBB243:
.LBB237:
.LBB233:
.LBB227:
	.loc 1 47 65
	and	s3,a7,a5
.LBE227:
.LBE233:
.LBE237:
.LBE243:
	.loc 1 249 13
	sd	s0,1176(sp)
	sd	s1,1168(sp)
	sd	s2,1160(sp)
	sd	s4,1144(sp)
	.loc 1 259 42
	li	a6,37
.LBB244:
.LBB238:
	.loc 1 182 13
	add	a3,a3,tp,%tprel_add(buflen.0)
	.loc 1 182 17
	addi	a2,a2,%tprel_lo(.LANCHOR0)
	.loc 1 184 6
	li	s10,10
.LBB234:
.LBB228:
	.loc 1 47 10
	lla	s11,tohost
	lla	a5,fromhost
.LVL126:
	.cfi_offset 8, -8
	.cfi_offset 9, -16
	.cfi_offset 18, -24
	.cfi_offset 20, -40
.L113:
.LBE228:
.LBE234:
.LBE238:
.LBE244:
	.loc 1 251 3 is_stmt 1
	.loc 1 252 3
	.loc 1 253 3
	.loc 1 254 3
	.loc 1 255 3
	.loc 1 256 3
	.loc 1 258 3
	.loc 1 259 5
	.loc 1 259 42
	.loc 1 259 18 is_stmt 0
	lbu	t5,0(a0)
	.loc 1 259 16
	sext.w	t6,t5
.LVL127:
	.loc 1 259 42
	beq	t5,a6,.L114
.LBB245:
.LBB239:
.LBB235:
.LBB229:
	.loc 1 32 16
	li	t0,64
	.loc 1 33 16
	li	t2,1
.L119:
.LBE229:
.LBE235:
.LBE239:
.LBE245:
	.loc 1 260 7 is_stmt 1
	.loc 1 260 10 is_stmt 0
	beq	t6,zero,.L258
	.loc 1 262 7 is_stmt 1
.LBB246:
.LBB240:
	.loc 1 182 13 is_stmt 0
	lw	t1,%tprel_lo(buflen.0)(a3)
.LBE240:
.LBE246:
	.loc 1 262 10
	addi	a0,a0,1
.LVL128:
	.loc 1 263 7 is_stmt 1
.LBB247:
.LBB241:
	.loc 1 179 3
	.loc 1 180 3
	.loc 1 182 3
	.loc 1 182 13 is_stmt 0
	addiw	a7,t1,1
	.loc 1 182 17
	add	t1,a2,t1
	.loc 1 182 13
	sw	a7,%tprel_lo(buflen.0)(a3)
	.loc 1 182 17
	sb	t5,0(t1)
	.loc 1 184 3 is_stmt 1
	.loc 1 184 6 is_stmt 0
	beq	t6,s10,.L116
	.loc 1 184 18 discriminator 1
	beq	a7,t0,.L116
.L117:
.LVL129:
.LBE241:
.LBE247:
	.loc 1 259 42 is_stmt 1
	.loc 1 259 18 is_stmt 0
	lbu	t5,0(a0)
	.loc 1 259 16
	sext.w	t6,t5
.LVL130:
	.loc 1 259 42
	bne	t5,a6,.L119
.L114:
	.loc 1 265 5 is_stmt 1
	.loc 1 275 18 is_stmt 0
	lbu	s0,1(a0)
	.loc 1 265 8
	addi	t0,a0,1
.LVL131:
	.loc 1 268 5 is_stmt 1
	.loc 1 269 5
	.loc 1 270 5
	.loc 1 271 5
	.loc 1 272 5
	.loc 1 273 5
	.loc 1 265 8 is_stmt 0
	mv	t6,t0
.LVL132:
	.loc 1 269 10
	li	s2,32
	.loc 1 271 15
	li	a7,-1
	.loc 1 270 11
	li	t1,-1
	.loc 1 272 11
	li	t2,0
	.loc 1 275 5
	li	s1,85
.LVL133:
.L120:
	.loc 1 275 5 is_stmt 1
	addiw	t5,s0,-35
	andi	t5,t5,0xff
	.loc 1 275 19 is_stmt 0
	addi	a0,t6,1
.LVL134:
	.loc 1 275 5
	bgtu	t5,s1,.L122
.LVL135:
.L271:
	lla	s4,.L124
	sh2add	t5,t5,s4
	lw	t5,0(t5)
	add	t5,t5,s4
	jr	t5
	.section	.rodata
	.align	2
	.align	2
.L124:
	.word	.L137-.L124
	.word	.L122-.L124
	.word	.L136-.L124
	.word	.L122-.L124
	.word	.L122-.L124
	.word	.L122-.L124
	.word	.L122-.L124
	.word	.L135-.L124
	.word	.L122-.L124
	.word	.L122-.L124
	.word	.L133-.L124
	.word	.L134-.L124
	.word	.L122-.L124
	.word	.L133-.L124
	.word	.L132-.L124
	.word	.L132-.L124
	.word	.L132-.L124
	.word	.L132-.L124
	.word	.L132-.L124
	.word	.L132-.L124
	.word	.L132-.L124
	.word	.L132-.L124
	.word	.L132-.L124
	.word	.L122-.L124
	.word	.L122-.L124
	.word	.L122-.L124
	.word	.L122-.L124
	.word	.L122-.L124
	.word	.L122-.L124
	.word	.L122-.L124
	.word	.L122-.L124
	.word	.L122-.L124
	.word	.L122-.L124
	.word	.L122-.L124
	.word	.L122-.L124
	.word	.L122-.L124
	.word	.L122-.L124
	.word	.L122-.L124
	.word	.L122-.L124
	.word	.L122-.L124
	.word	.L122-.L124
	.word	.L122-.L124
	.word	.L122-.L124
	.word	.L122-.L124
	.word	.L122-.L124
	.word	.L122-.L124
	.word	.L122-.L124
	.word	.L122-.L124
	.word	.L122-.L124
	.word	.L122-.L124
	.word	.L122-.L124
	.word	.L122-.L124
	.word	.L122-.L124
	.word	.L122-.L124
	.word	.L122-.L124
	.word	.L122-.L124
	.word	.L122-.L124
	.word	.L122-.L124
	.word	.L122-.L124
	.word	.L122-.L124
	.word	.L122-.L124
	.word	.L122-.L124
	.word	.L122-.L124
	.word	.L122-.L124
	.word	.L131-.L124
	.word	.L130-.L124
	.word	.L122-.L124
	.word	.L122-.L124
	.word	.L122-.L124
	.word	.L122-.L124
	.word	.L122-.L124
	.word	.L122-.L124
	.word	.L122-.L124
	.word	.L129-.L124
	.word	.L122-.L124
	.word	.L122-.L124
	.word	.L128-.L124
	.word	.L127-.L124
	.word	.L122-.L124
	.word	.L122-.L124
	.word	.L126-.L124
	.word	.L122-.L124
	.word	.L208-.L124
	.word	.L122-.L124
	.word	.L122-.L124
	.word	.L123-.L124
	.text
.LVL136:
.L116:
.LBB248:
.LBB242:
	.loc 1 186 5 is_stmt 1
.LBB236:
.LBB230:
	.loc 1 31 3
	.loc 1 32 3
	.loc 1 32 16 is_stmt 0
	sd	t0,704(a4)
	.loc 1 33 3 is_stmt 1
	.loc 1 33 16 is_stmt 0
	sd	t2,712(a4)
	.loc 1 34 3 is_stmt 1
	.loc 1 34 16 is_stmt 0
	sd	a2,720(a4)
	.loc 1 35 3 is_stmt 1
	.loc 1 35 16 is_stmt 0
	sd	a7,728(a4)
	.loc 1 37 3 is_stmt 1
	fence	iorw,iorw
	.loc 1 47 3
	.loc 1 47 10 is_stmt 0
	sd	s3,0(s11)
	.loc 1 48 3 is_stmt 1
.LVL137:
.L118:
	.loc 1 48 19 discriminator 1
	ld	a7,0(a5)
	beq	a7,zero,.L118
	.loc 1 50 3
	.loc 1 50 12 is_stmt 0
	sd	zero,fromhost,a7
	.loc 1 53 3 is_stmt 1
	fence	iorw,iorw
	.loc 1 55 3
	.loc 1 55 19 is_stmt 0
	ld	a7,704(a4)
.LVL138:
.LBE230:
.LBE236:
	.loc 1 187 5 is_stmt 1
	.loc 1 187 12 is_stmt 0
	sw	zero,%tprel_lo(buflen.0)(a3)
	j	.L117
.LVL139:
.L258:
.LBE242:
.LBE248:
	.loc 1 398 1
	ld	s0,1176(sp)
	.cfi_remember_state
	.cfi_restore 8
	ld	s1,1168(sp)
	.cfi_restore 9
	ld	s2,1160(sp)
	.cfi_restore 18
	ld	s3,1152(sp)
	.cfi_restore 19
	ld	s4,1144(sp)
	.cfi_restore 20
	ld	s10,1096(sp)
	.cfi_restore 26
	ld	s11,1088(sp)
	.cfi_restore 27
	addi	sp,sp,1184
	.cfi_def_cfa_offset 0
	jr	ra
.LVL140:
.L133:
	.cfi_restore_state
	.loc 1 284 7 is_stmt 1
	.loc 1 285 7
	.loc 1 284 12 is_stmt 0
	mv	s2,s0
	.loc 1 285 7
	lbu	s0,1(t6)
	.loc 1 275 19
	mv	t6,a0
.LVL141:
	.loc 1 275 5 is_stmt 1
	.loc 1 275 19 is_stmt 0
	addi	a0,t6,1
.LVL142:
	.loc 1 275 5
	addiw	t5,s0,-35
	andi	t5,t5,0xff
	bleu	t5,s1,.L271
.LVL143:
.L122:
	.loc 1 393 7 is_stmt 1
.LBB249:
.LBB250:
	.loc 1 179 3
	.loc 1 180 3
	.loc 1 182 3
	.loc 1 182 13 is_stmt 0
	lui	t6,%tprel_hi(buflen.0)
	add	t5,t6,tp,%tprel_add(buflen.0)
	lw	a7,%tprel_lo(buflen.0)(t5)
.LVL144:
	.loc 1 182 17
	lui	s0,%tprel_hi(.LANCHOR0)
	add	a0,s0,tp,%tprel_add(.LANCHOR0)
.LVL145:
	.loc 1 182 13
	addiw	t1,a7,1
	.loc 1 182 17
	addi	a0,a0,%tprel_lo(.LANCHOR0)
	add	a7,a0,a7
	.loc 1 182 13
	sw	t1,%tprel_lo(buflen.0)(t5)
	.loc 1 182 17
	li	t5,37
	sb	t5,0(a7)
	.loc 1 184 3 is_stmt 1
	.loc 1 184 18 is_stmt 0 discriminator 1
	li	a7,64
	beq	t1,a7,.L272
.LBE250:
.LBE249:
	.loc 1 394 11
	mv	a0,t0
	j	.L113
.LVL146:
.L132:
	.loc 1 298 9 is_stmt 1
	.loc 1 298 19 is_stmt 0
	addiw	a7,s0,-48
.LVL147:
	.loc 1 299 9 is_stmt 1
	.loc 1 299 14 is_stmt 0
	lbu	s0,1(t6)
.LVL148:
	.loc 1 300 12
	li	t6,9
	addiw	s4,s0,-48
	.loc 1 299 12
	sext.w	t5,s0
.LVL149:
	.loc 1 300 9 is_stmt 1
	.loc 1 300 12 is_stmt 0
	bgtu	s4,t6,.L209
	sd	s5,1136(sp)
	.loc 1 275 19
	mv	t6,a0
	.cfi_offset 21, -48
	.loc 1 300 12
	li	s5,9
.LVL150:
.L140:
	.loc 1 297 29 is_stmt 1
	.loc 1 299 14 is_stmt 0
	lbu	s0,1(t6)
	.loc 1 298 31
	slliw	a0,a7,2
	addw	a0,a0,a7
	slliw	a0,a0,1
	.loc 1 298 36
	addw	a0,a0,t5
	.loc 1 300 12
	addiw	s4,s0,-48
	.loc 1 297 29
	addi	t6,t6,1
.LVL151:
	.loc 1 297 7 is_stmt 1
	.loc 1 298 9
	.loc 1 298 19 is_stmt 0
	addiw	a7,a0,-48
.LVL152:
	.loc 1 299 9 is_stmt 1
	.loc 1 299 12 is_stmt 0
	sext.w	t5,s0
.LVL153:
	.loc 1 300 9 is_stmt 1
	.loc 1 300 12 is_stmt 0
	bleu	s4,s5,.L140
	ld	s5,1136(sp)
	.cfi_restore 21
.LVL154:
.L139:
	.loc 1 319 7 is_stmt 1
	.loc 1 319 10 is_stmt 0
	bge	t1,zero,.L120
	.loc 1 320 15
	mv	t1,a7
	.loc 1 320 38
	li	a7,-1
.LVL155:
	j	.L120
.LVL156:
.L137:
	.loc 1 315 7 is_stmt 1
	.loc 1 316 7
	.loc 1 299 14 is_stmt 0
	lbu	s0,1(t6)
	.loc 1 275 19
	mv	t6,a0
	.loc 1 316 7
	j	.L120
.LVL157:
.L136:
	.loc 1 388 7 is_stmt 1
.LBB254:
.LBB255:
	.loc 1 179 3
	.loc 1 180 3
	.loc 1 182 3
	.loc 1 182 13 is_stmt 0
	lui	t6,%tprel_hi(buflen.0)
	add	t0,t6,tp,%tprel_add(buflen.0)
.LVL158:
	lw	t1,%tprel_lo(buflen.0)(t0)
	.loc 1 182 17
	lui	s0,%tprel_hi(.LANCHOR0)
	add	a7,s0,tp,%tprel_add(.LANCHOR0)
.LVL159:
	.loc 1 182 13
	addiw	t5,t1,1
	.loc 1 182 17
	addi	a7,a7,%tprel_lo(.LANCHOR0)
	add	t1,a7,t1
	.loc 1 182 13
	sw	t5,%tprel_lo(buflen.0)(t0)
	.loc 1 182 17
	li	t0,37
	sb	t0,0(t1)
	.loc 1 184 3 is_stmt 1
	.loc 1 184 18 is_stmt 0 discriminator 1
	li	t1,64
	bne	t5,t1,.L113
	.loc 1 186 5 is_stmt 1
.LVL160:
.LBB256:
.LBB257:
	.loc 1 31 3
	.loc 1 32 3
	.loc 1 32 16 is_stmt 0
	sd	t5,64(a4)
	.loc 1 33 3 is_stmt 1
	.loc 1 33 16 is_stmt 0
	li	t1,1
	sd	t1,72(a4)
	.loc 1 34 3 is_stmt 1
	.loc 1 34 16 is_stmt 0
	sd	a7,80(a4)
	.loc 1 35 3 is_stmt 1
	.loc 1 35 16 is_stmt 0
	sd	t5,88(a4)
	.loc 1 37 3 is_stmt 1
	fence	iorw,iorw
	.loc 1 47 3
	.loc 1 47 65 is_stmt 0
	bseti	t1,zero,48
	addi	t1,t1,-64
	.loc 1 47 14
	addi	a7,a4,64
.LVL161:
	.loc 1 47 65
	and	a7,a7,t1
	.loc 1 47 10
	sd	a7,tohost,t1
	.loc 1 48 3 is_stmt 1
	lla	a7,fromhost
.L204:
	.loc 1 48 19 discriminator 1
	ld	t1,0(a7)
	beq	t1,zero,.L204
	.loc 1 50 3
	.loc 1 50 12 is_stmt 0
	sd	zero,fromhost,a7
	.loc 1 53 3 is_stmt 1
	fence	iorw,iorw
	.loc 1 55 3
.LBE257:
.LBE256:
	.loc 1 187 12 is_stmt 0
	add	t6,t6,tp,%tprel_add(buflen.0)
.LBB259:
.LBB258:
	.loc 1 55 19
	ld	a7,64(a4)
.LVL162:
.LBE258:
.LBE259:
	.loc 1 187 5 is_stmt 1
	.loc 1 187 12 is_stmt 0
	sw	zero,%tprel_lo(buflen.0)(t6)
	j	.L113
.LVL163:
.L135:
.LBE255:
.LBE254:
	.loc 1 306 7 is_stmt 1
	.loc 1 306 17 is_stmt 0
	lw	a7,0(a1)
.LVL164:
	.loc 1 307 7 is_stmt 1
	.loc 1 299 14 is_stmt 0
	lbu	s0,1(t6)
	.loc 1 306 17
	addi	a1,a1,8
.LVL165:
	.loc 1 275 19
	mv	t6,a0
	.loc 1 307 7
	j	.L139
.LVL166:
.L127:
.LBB260:
.LBB261:
	.loc 1 182 13
	lui	t6,%tprel_hi(buflen.0)
	add	s1,t6,tp,%tprel_add(buflen.0)
	lw	t0,%tprel_lo(buflen.0)(s1)
.LVL167:
	.loc 1 182 17
	lui	s0,%tprel_hi(.LANCHOR0)
	add	t5,s0,tp,%tprel_add(.LANCHOR0)
	addi	t5,t5,%tprel_lo(.LANCHOR0)
	sd	s5,1136(sp)
	sd	s6,1128(sp)
	sd	s7,1120(sp)
	sd	s8,1112(sp)
	sd	s9,1104(sp)
.LBE261:
.LBE260:
	.loc 1 371 7 is_stmt 1
	.loc 1 371 7
	.loc 1 371 51
	.loc 1 372 7
.LVL168:
	.loc 1 373 7
.LBB266:
.LBB264:
	.loc 1 179 3
	.loc 1 180 3
	.loc 1 182 3
	.loc 1 182 17 is_stmt 0
	add	s4,t5,t0
	.loc 1 182 13
	addiw	a7,t0,1
.LVL169:
	.loc 1 182 17
	li	t2,48
	sb	t2,0(s4)
	.loc 1 184 3 is_stmt 1
	.loc 1 182 13 is_stmt 0
	sw	a7,%tprel_lo(buflen.0)(s1)
	.loc 1 184 18 discriminator 1
	li	s4,64
	.cfi_offset 21, -48
	.cfi_offset 22, -56
	.cfi_offset 23, -64
	.cfi_offset 24, -72
	.cfi_offset 25, -80
	beq	a7,s4,.L273
	.loc 1 191 3 is_stmt 1
.LVL170:
.LBE264:
.LBE266:
	.loc 1 374 7
.LBB267:
.LBB268:
	.loc 1 179 3
	.loc 1 180 3
	.loc 1 182 3
	.loc 1 182 13 is_stmt 0
	addiw	t2,t0,2
	sw	t2,%tprel_lo(buflen.0)(s1)
	.loc 1 182 17
	add	t0,t5,a7
	.loc 1 182 13
	sext.w	a7,t2
	.loc 1 182 17
	li	t2,120
	sb	t2,0(t0)
	.loc 1 184 3 is_stmt 1
	.loc 1 184 18 is_stmt 0 discriminator 1
	bne	a7,s4,.L217
	.loc 1 186 5 is_stmt 1
.LVL171:
.LBB269:
.LBB270:
	.loc 1 31 3
	.loc 1 32 3
	.loc 1 32 16 is_stmt 0
	sd	a7,256(a4)
	.loc 1 33 3 is_stmt 1
	.loc 1 33 16 is_stmt 0
	li	t0,1
	sd	t0,264(a4)
	.loc 1 34 3 is_stmt 1
	.loc 1 34 16 is_stmt 0
	sd	t5,272(a4)
	.loc 1 35 3 is_stmt 1
	.loc 1 35 16 is_stmt 0
	sd	a7,280(a4)
	.loc 1 37 3 is_stmt 1
	fence	iorw,iorw
	.loc 1 47 3
	.loc 1 47 65 is_stmt 0
	bseti	t5,zero,48
.LVL172:
	addi	t5,t5,-64
	.loc 1 47 14
	addi	a7,a4,256
	.loc 1 47 65
	and	a7,a7,t5
	.loc 1 47 10
	sd	a7,tohost,t5
	.loc 1 48 3 is_stmt 1
	lla	a7,fromhost
.L186:
	.loc 1 48 19 discriminator 1
	ld	t5,0(a7)
	beq	t5,zero,.L186
	.loc 1 50 3
	.loc 1 50 12 is_stmt 0
	sd	zero,fromhost,a7
	.loc 1 53 3 is_stmt 1
	fence	iorw,iorw
	.loc 1 55 3
	.loc 1 55 19 is_stmt 0
	ld	t5,256(a4)
.LVL173:
.LBE270:
.LBE269:
	.loc 1 187 5 is_stmt 1
	.loc 1 187 12 is_stmt 0
	add	a7,t6,tp,%tprel_add(buflen.0)
	sw	zero,%tprel_lo(buflen.0)(a7)
.LVL174:
.LBE268:
.LBE267:
.LBB274:
.LBB275:
	.loc 1 233 8 is_stmt 1
.LBE275:
.LBE274:
.LBB281:
.LBB271:
	.loc 1 187 12 is_stmt 0
	li	t0,16
	li	a7,0
	addi	s1,a1,8
.L185:
.LBE271:
.LBE281:
.LBB282:
.LBB276:
	.loc 1 234 5 is_stmt 1
.LVL175:
	.loc 1 234 12 is_stmt 0
	ld	t5,0(a1)
	mv	a1,s1
	j	.L180
.LVL176:
.L130:
	.cfi_restore 21
	.cfi_restore 22
	.cfi_restore 23
	.cfi_restore 24
	.cfi_restore 25
	sd	s5,1136(sp)
	sd	s6,1128(sp)
	sd	s7,1120(sp)
	sd	s8,1112(sp)
	sd	s9,1104(sp)
.LBE276:
.LBE282:
	.loc 1 350 7 is_stmt 1
.LVL177:
.LBB283:
.LBB284:
	.loc 1 241 3
	.loc 1 241 6 is_stmt 0
	li	a7,1
.LVL178:
.LBE284:
.LBE283:
	.loc 1 306 17
	addi	t0,a1,8
.LVL179:
	.cfi_offset 21, -48
	.cfi_offset 22, -56
	.cfi_offset 23, -64
	.cfi_offset 24, -72
	.cfi_offset 25, -80
.LBB287:
.LBB285:
	.loc 1 241 6
	bgt	t2,a7,.L270
	.loc 1 243 8 is_stmt 1
	.loc 1 243 11 is_stmt 0
	beq	t2,zero,.L178
.L270:
	.loc 1 244 5 is_stmt 1
.LVL180:
	.loc 1 244 12 is_stmt 0
	ld	t5,0(a1)
.LVL181:
.L177:
.LBE285:
.LBE287:
	.loc 1 351 7 is_stmt 1
.LBB288:
.LBB289:
	.loc 1 182 13 is_stmt 0
	lui	t6,%tprel_hi(buflen.0)
	add	t2,t6,tp,%tprel_add(buflen.0)
.LVL182:
	lw	a7,%tprel_lo(buflen.0)(t2)
.LBE289:
.LBE288:
	.loc 1 351 10
	blt	t5,zero,.L179
	.loc 1 350 11 discriminator 1
	mv	a1,t0
	lui	s0,%tprel_hi(.LANCHOR0)
	li	t0,10
.LVL183:
.L180:
	.loc 1 383 7 is_stmt 1
.LBB306:
.LBB307:
	.loc 1 211 3
	.loc 1 212 3
	.loc 1 214 3
	.loc 1 216 5
	.loc 1 216 23 is_stmt 0
	remu	s1,t5,t0
	addi	s4,sp,20
	.loc 1 216 13
	li	t2,1
	.loc 1 216 17
	sw	s1,16(sp)
	.loc 1 217 5 is_stmt 1
	.loc 1 217 8 is_stmt 0
	bltu	t5,t0,.L274
.LVL184:
.L193:
	.loc 1 219 5 is_stmt 1
	.loc 1 219 9 is_stmt 0
	divu	t5,t5,t0
.LVL185:
	.loc 1 214 9 is_stmt 1
	.loc 1 214 3
	.loc 1 216 5
	.loc 1 217 8 is_stmt 0
	addi	s4,s4,4
	mv	s1,t2
	.loc 1 216 13
	addiw	t2,t2,1
.LVL186:
	.loc 1 216 23
	remu	s5,t5,t0
	.loc 1 216 17
	sw	s5,-4(s4)
	.loc 1 217 5 is_stmt 1
	.loc 1 217 8 is_stmt 0
	bgeu	t5,t0,.L193
.LVL187:
.L192:
	.loc 1 222 18 is_stmt 1
	.loc 1 222 15 is_stmt 0
	addiw	t5,t1,-1
.LVL188:
	addiw	s5,t2,-1
	.loc 1 222 18
	ble	t1,t2,.L191
.LBB308:
.LBB309:
.LBB310:
.LBB311:
	.loc 1 47 65
	bseti	t1,zero,48
.LVL189:
	addi	t1,t1,-64
.LBE311:
.LBE310:
	.loc 1 182 17
	add	t2,s0,tp,%tprel_add(.LANCHOR0)
.LBB315:
.LBB312:
	.loc 1 47 14
	addi	s6,a4,192
	.loc 1 47 65
	and	s6,s6,t1
.LBE312:
.LBE315:
	.loc 1 182 13
	add	s4,t6,tp,%tprel_add(buflen.0)
	.loc 1 182 17
	addi	t2,t2,%tprel_lo(.LANCHOR0)
	.loc 1 184 18 discriminator 1
	li	t0,64
.LBB316:
.LBB313:
	.loc 1 33 16
	li	s8,1
	.loc 1 47 10
	lla	s7,tohost
	lla	t1,fromhost
	j	.L196
.LVL190:
.L194:
.LBE313:
.LBE316:
.LBE309:
.LBE308:
	.loc 1 222 18 is_stmt 1
	.loc 1 222 15 is_stmt 0
	addiw	t5,t5,-1
.LVL191:
	.loc 1 222 18
	beq	s5,t5,.L191
.LVL192:
.L196:
	.loc 1 223 5 is_stmt 1
.LBB320:
.LBB318:
	.loc 1 179 3
	.loc 1 180 3
	.loc 1 182 3
	.loc 1 182 13 is_stmt 0
	addiw	s9,a7,1
	.loc 1 182 17
	add	a7,t2,a7
	sb	s2,0(a7)
	.loc 1 184 3 is_stmt 1
	.loc 1 182 13 is_stmt 0
	sw	s9,%tprel_lo(buflen.0)(s4)
	sext.w	a7,s9
	.loc 1 184 18 discriminator 1
	bne	a7,t0,.L194
	.loc 1 186 5 is_stmt 1
.LVL193:
.LBB317:
.LBB314:
	.loc 1 31 3
	.loc 1 32 3
	.loc 1 32 16 is_stmt 0
	sd	t0,192(a4)
	.loc 1 33 3 is_stmt 1
	.loc 1 33 16 is_stmt 0
	sd	s8,200(a4)
	.loc 1 34 3 is_stmt 1
	.loc 1 34 16 is_stmt 0
	sd	t2,208(a4)
	.loc 1 35 3 is_stmt 1
	.loc 1 35 16 is_stmt 0
	sd	t0,216(a4)
	.loc 1 37 3 is_stmt 1
	fence	iorw,iorw
	.loc 1 47 3
	.loc 1 47 10 is_stmt 0
	sd	s6,0(s7)
	.loc 1 48 3 is_stmt 1
.L195:
	.loc 1 48 19 discriminator 1
	ld	a7,0(t1)
	beq	a7,zero,.L195
	.loc 1 50 3
	.loc 1 50 12 is_stmt 0
	sd	zero,fromhost,a7
	.loc 1 53 3 is_stmt 1
	fence	iorw,iorw
	.loc 1 55 3
	.loc 1 55 19 is_stmt 0
	ld	a7,192(a4)
.LVL194:
.LBE314:
.LBE317:
	.loc 1 187 5 is_stmt 1
	.loc 1 187 12 is_stmt 0
	sw	zero,%tprel_lo(buflen.0)(s4)
.LBE318:
.LBE320:
	.loc 1 222 15
	addiw	t5,t5,-1
.LVL195:
.LBB321:
.LBB319:
	.loc 1 187 12
	li	a7,0
.LVL196:
.LBE319:
.LBE321:
	.loc 1 222 18 is_stmt 1
	bne	s5,t5,.L196
.LVL197:
.L191:
.LBB322:
.LBB323:
.LBB324:
.LBB325:
	.loc 1 47 65 is_stmt 0
	bseti	t1,zero,48
	addi	t1,t1,-64
	.loc 1 47 14
	addi	s5,a4,128
.LBE325:
.LBE324:
	.loc 1 186 5
	add	t0,s0,tp,%tprel_add(.LANCHOR0)
.LBB329:
.LBB326:
	.loc 1 47 65
	and	s5,s5,t1
	addi	t1,sp,16
.LBE326:
.LBE329:
	.loc 1 187 12
	add	t2,t6,tp,%tprel_add(buflen.0)
	addi	s4,sp,12
.LBE323:
.LBE322:
	.loc 1 226 51
	li	s2,9
.LVL198:
.LBB338:
.LBB332:
	.loc 1 186 5
	addi	t0,t0,%tprel_lo(.LANCHOR0)
.LBB330:
.LBB327:
	.loc 1 32 16
	li	s0,64
	.loc 1 33 16
	li	s7,1
	.loc 1 47 10
	lla	s6,tohost
	lla	t5,fromhost
.LBE327:
.LBE330:
	.loc 1 184 6
	li	s8,10
	sh2add	t6,s1,t1
	j	.L202
.LVL199:
.L277:
	.loc 1 179 3 is_stmt 1
	.loc 1 180 3
	.loc 1 182 3
	.loc 1 182 17 is_stmt 0
	add	a7,t0,a7
.LBE332:
.LBE338:
	.loc 1 226 21 discriminator 4
	addiw	t1,t1,48
.LVL200:
.LBB339:
.LBB333:
	.loc 1 182 13
	sw	s1,%tprel_lo(buflen.0)(t2)
	.loc 1 182 17
	sb	t1,0(a7)
	.loc 1 184 3 is_stmt 1
.LVL201:
.L198:
	mv	a7,s1
	.loc 1 184 18 is_stmt 0 discriminator 1
	beq	s1,s0,.L275
.LBE333:
.LBE339:
	.loc 1 225 16 is_stmt 1
	addi	t6,t6,-4
	beq	s4,t6,.L276
.LVL202:
.L202:
	.loc 1 226 5
	.loc 1 226 15 is_stmt 0
	lw	t1,0(t6)
.LBB340:
.LBB334:
	.loc 1 182 13
	addiw	s1,a7,1
.LBE334:
.LBE340:
	.loc 1 226 51
	bleu	t1,s2,.L277
	.loc 1 226 21 discriminator 4
	addiw	t1,t1,87
.LVL203:
.LBB341:
.LBB335:
	.loc 1 179 3 is_stmt 1
	.loc 1 180 3
	.loc 1 182 3
	.loc 1 182 17 is_stmt 0
	add	a7,t0,a7
	.loc 1 182 13
	sw	s1,%tprel_lo(buflen.0)(t2)
	.loc 1 182 17
	sb	t1,0(a7)
	.loc 1 184 3 is_stmt 1
	.loc 1 184 6 is_stmt 0
	bne	t1,s8,.L198
.LVL204:
.L199:
	.loc 1 186 5 is_stmt 1
.LBB331:
.LBB328:
	.loc 1 31 3
	.loc 1 32 3
	.loc 1 32 16 is_stmt 0
	sd	s0,128(a4)
	.loc 1 33 3 is_stmt 1
	.loc 1 33 16 is_stmt 0
	sd	s7,136(a4)
	.loc 1 34 3 is_stmt 1
	.loc 1 34 16 is_stmt 0
	sd	t0,144(a4)
	.loc 1 35 3 is_stmt 1
	.loc 1 35 16 is_stmt 0
	sd	s1,152(a4)
	.loc 1 37 3 is_stmt 1
	fence	iorw,iorw
	.loc 1 47 3
	.loc 1 47 10 is_stmt 0
	sd	s5,0(s6)
	.loc 1 48 3 is_stmt 1
.L201:
	.loc 1 48 19 discriminator 1
	ld	a7,0(t5)
	beq	a7,zero,.L201
	.loc 1 50 3
	.loc 1 50 12 is_stmt 0
	sd	zero,fromhost,a7
	.loc 1 53 3 is_stmt 1
	fence	iorw,iorw
	.loc 1 55 3
	.loc 1 55 19 is_stmt 0
	ld	a7,128(a4)
.LVL205:
.LBE328:
.LBE331:
	.loc 1 187 5 is_stmt 1
	.loc 1 187 12 is_stmt 0
	sw	zero,%tprel_lo(buflen.0)(t2)
.LBE335:
.LBE341:
	.loc 1 225 16
	addi	t6,t6,-4
.LBB342:
.LBB336:
	.loc 1 187 12
	li	a7,0
.LBE336:
.LBE342:
	.loc 1 225 16 is_stmt 1
	bne	s4,t6,.L202
.LVL206:
.L276:
	ld	s5,1136(sp)
	.cfi_restore 21
	ld	s6,1128(sp)
	.cfi_restore 22
	ld	s7,1120(sp)
	.cfi_restore 23
	ld	s8,1112(sp)
	.cfi_restore 24
	ld	s9,1104(sp)
	.cfi_restore 25
	j	.L113
.LVL207:
.L129:
.LBE307:
.LBE306:
	.loc 1 325 7
	.loc 1 299 14 is_stmt 0
	lbu	s0,1(t6)
	.loc 1 325 12
	addiw	t2,t2,1
.LVL208:
	.loc 1 326 7 is_stmt 1
	.loc 1 275 19 is_stmt 0
	mv	t6,a0
.LVL209:
	.loc 1 326 7
	j	.L120
.LVL210:
.L123:
	sd	s5,1136(sp)
	sd	s6,1128(sp)
	sd	s7,1120(sp)
	sd	s8,1112(sp)
	sd	s9,1104(sp)
	.loc 1 275 5
	li	t0,16
.LVL211:
	.cfi_offset 21, -48
	.cfi_offset 22, -56
	.cfi_offset 23, -64
	.cfi_offset 24, -72
	.cfi_offset 25, -80
.L125:
	.loc 1 381 7 is_stmt 1
.LBB346:
.LBB277:
	.loc 1 231 3
.LBE277:
.LBE346:
.LBB347:
.LBB298:
	.loc 1 182 13 is_stmt 0
	lui	t6,%tprel_hi(buflen.0)
	add	a7,t6,tp,%tprel_add(buflen.0)
.LVL212:
.LBE298:
.LBE347:
.LBB348:
.LBB278:
	.loc 1 231 6
	li	t5,1
.LBE278:
.LBE348:
.LBB349:
.LBB299:
	.loc 1 182 13
	lw	a7,%tprel_lo(buflen.0)(a7)
.LBE299:
.LBE349:
	.loc 1 306 17
	addi	s1,a1,8
.LBB350:
.LBB279:
	.loc 1 231 6
	bgt	t2,t5,.L278
.LVL213:
	.loc 1 233 8 is_stmt 1
	lui	s0,%tprel_hi(.LANCHOR0)
	.loc 1 233 11 is_stmt 0
	bne	t2,zero,.L185
	.loc 1 236 5 is_stmt 1
.LVL214:
	.loc 1 236 12 is_stmt 0 discriminator 1
	lwu	t5,0(a1)
	lui	s0,%tprel_hi(.LANCHOR0)
	.loc 1 236 12
	mv	a1,s1
	j	.L180
.LVL215:
.L126:
	.cfi_restore 21
	.cfi_restore 22
	.cfi_restore 23
	.cfi_restore 24
	.cfi_restore 25
.LBE279:
.LBE350:
	.loc 1 335 14
	ld	t2,0(a1)
.LVL216:
	sd	s5,1136(sp)
	sd	s6,1128(sp)
	sd	s7,1120(sp)
	.loc 1 335 7 is_stmt 1
	.loc 1 335 14 is_stmt 0
	addi	t0,a1,8
.LVL217:
	.cfi_offset 21, -48
	.cfi_offset 22, -56
	.cfi_offset 23, -64
	.loc 1 335 10 discriminator 1
	beq	t2,zero,.L145
.LVL218:
	.loc 1 337 7 is_stmt 1
	.loc 1 337 10 is_stmt 0
	ble	t1,zero,.L259
	.loc 1 337 21 discriminator 1
	li	a1,45
	bne	s2,a1,.L279
.LVL219:
	.loc 1 340 32 is_stmt 1 discriminator 1
	.loc 1 340 20 is_stmt 0 discriminator 1
	lbu	a1,0(t2)
	.loc 1 340 18 discriminator 1
	sext.w	t5,a1
.LVL220:
	.loc 1 340 32 discriminator 1
	bne	a1,zero,.L266
	j	.L151
.LVL221:
.L259:
	.loc 1 340 32 is_stmt 1 discriminator 1
	.loc 1 340 20 is_stmt 0 discriminator 1
	lbu	a1,0(t2)
	.loc 1 340 18 discriminator 1
	sext.w	t5,a1
.LVL222:
	.loc 1 340 32 discriminator 1
	beq	a1,zero,.L160
.LVL223:
.L266:
	sd	s8,1112(sp)
	sd	s9,1104(sp)
.LVL224:
	.cfi_offset 24, -72
	.cfi_offset 25, -80
.L150:
.LBB351:
.LBB352:
.LBB353:
.LBB354:
	.loc 1 47 65
	bseti	t6,zero,48
	.loc 1 47 14
	addi	s8,a4,512
	.loc 1 47 65
	addi	t6,t6,-64
.LBE354:
.LBE353:
	.loc 1 182 17
	lui	s0,%tprel_hi(.LANCHOR0)
.LBB363:
.LBB355:
	.loc 1 47 65
	and	s8,s8,t6
.LBE355:
.LBE363:
	.loc 1 182 17
	add	s4,s0,tp,%tprel_add(.LANCHOR0)
	sd	s8,8(sp)
.LVL225:
	.loc 1 182 13
	lui	s0,%tprel_hi(buflen.0)
	add	s2,s0,tp,%tprel_add(buflen.0)
.LVL226:
.LBE352:
.LBE351:
	.loc 1 340 50 discriminator 4
	li	s7,-1
.LBB376:
.LBB371:
	.loc 1 182 17
	addi	s4,s4,%tprel_lo(.LANCHOR0)
	.loc 1 184 6
	li	s6,10
.LBB364:
.LBB356:
	.loc 1 32 16
	li	s5,64
	.loc 1 33 16
	li	s9,1
	lla	s0,fromhost
.LBE356:
.LBE364:
.LBE371:
.LBE376:
	.loc 1 340 32 discriminator 2
	blt	a7,zero,.L215
.LVL227:
.L281:
	.loc 1 340 50 discriminator 4
	addiw	s8,a7,-1
.LVL228:
	beq	s8,s7,.L166
.LVL229:
.L172:
	.loc 1 341 9 is_stmt 1
.LBB377:
.LBB372:
	.loc 1 179 3
	.loc 1 180 3
	.loc 1 182 3
	.loc 1 182 13 is_stmt 0
	lw	s1,%tprel_lo(buflen.0)(s2)
	addiw	t6,s1,1
	.loc 1 182 17
	add	s1,s4,s1
	.loc 1 182 13
	sw	t6,%tprel_lo(buflen.0)(s2)
	.loc 1 182 17
	sb	a1,0(s1)
	.loc 1 184 3 is_stmt 1
	.loc 1 184 6 is_stmt 0
	beq	t5,s6,.L162
	.loc 1 184 18 discriminator 1
	beq	t6,s5,.L162
.LVL230:
.L163:
	.loc 1 191 3 is_stmt 1
.LBE372:
.LBE377:
	.loc 1 342 9
	.loc 1 340 20 is_stmt 0 discriminator 1
	lbu	a1,1(t2)
	.loc 1 340 77 discriminator 5
	addiw	t1,t1,-1
	mv	t6,t1
	.loc 1 342 10
	addi	t2,t2,1
.LVL231:
	.loc 1 340 77 is_stmt 1 discriminator 5
	.loc 1 340 32 discriminator 1
	.loc 1 340 18 is_stmt 0 discriminator 1
	sext.w	t5,a1
.LVL232:
	.loc 1 340 32 discriminator 1
	beq	a1,zero,.L166
	blt	a7,zero,.L280
	mv	a7,s8
.LVL233:
	.loc 1 340 32 discriminator 2
	bge	a7,zero,.L281
.LVL234:
.L215:
	mv	s8,a7
	j	.L172
.LVL235:
.L134:
	.cfi_restore 21
	.cfi_restore 22
	.cfi_restore 23
	.cfi_restore 24
	.cfi_restore 25
	.loc 1 310 7 is_stmt 1
	.loc 1 299 14 is_stmt 0
	lbu	s0,1(t6)
	.loc 1 310 10
	max	t1,t1,zero
	.loc 1 275 19
	mv	t6,a0
	.loc 1 310 10
	sext.w	t1,t1
.LVL236:
	.loc 1 312 7 is_stmt 1
	j	.L120
.LVL237:
.L131:
	.loc 1 330 7
.LBB378:
.LBB300:
	.loc 1 182 13 is_stmt 0
	lui	t6,%tprel_hi(buflen.0)
	add	t0,t6,tp,%tprel_add(buflen.0)
.LVL238:
	lw	t2,%tprel_lo(buflen.0)(t0)
.LVL239:
	.loc 1 182 17
	lui	s0,%tprel_hi(.LANCHOR0)
.LBE300:
.LBE378:
	.loc 1 330 7
	lw	t5,0(a1)
.LBB379:
.LBB301:
	.loc 1 179 3 is_stmt 1
	.loc 1 180 3
	.loc 1 182 3
	.loc 1 182 17 is_stmt 0
	add	t1,s0,tp,%tprel_add(.LANCHOR0)
	addi	t1,t1,%tprel_lo(.LANCHOR0)
	add	t1,t1,t2
	.loc 1 182 13
	addiw	a7,t2,1
.LVL240:
	.loc 1 182 17
	sb	t5,0(t1)
	.loc 1 184 3 is_stmt 1
	.loc 1 182 13 is_stmt 0
	sw	a7,%tprel_lo(buflen.0)(t0)
	.loc 1 184 6
	li	t1,10
	beq	t5,t1,.L141
	.loc 1 184 18 discriminator 1
	li	t1,64
	beq	a7,t1,.L141
.LBE301:
.LBE379:
	.loc 1 330 7
	addi	a1,a1,8
.LVL241:
	j	.L113
.LVL242:
.L141:
.LBB380:
.LBB302:
	.loc 1 186 5 is_stmt 1
.LBB290:
.LBB291:
	.loc 1 32 16 is_stmt 0
	li	t1,64
	sd	t1,640(a4)
	.loc 1 33 16
	li	t5,1
.LBE291:
.LBE290:
	.loc 1 186 5
	add	t1,s0,tp,%tprel_add(.LANCHOR0)
.LBB295:
.LBB292:
	.loc 1 33 16
	sd	t5,648(a4)
.LBE292:
.LBE295:
	.loc 1 186 5
	addi	t1,t1,%tprel_lo(.LANCHOR0)
.LVL243:
.LBB296:
.LBB293:
	.loc 1 31 3 is_stmt 1
	.loc 1 32 3
	.loc 1 33 3
	.loc 1 34 3
	.loc 1 34 16 is_stmt 0
	sd	t1,656(a4)
	.loc 1 35 3 is_stmt 1
	.loc 1 35 16 is_stmt 0
	sd	a7,664(a4)
	.loc 1 37 3 is_stmt 1
	fence	iorw,iorw
	.loc 1 47 3
	.loc 1 47 65 is_stmt 0
	bseti	t1,zero,48
.LVL244:
	addi	t1,t1,-64
	.loc 1 47 14
	addi	a7,a4,640
.LVL245:
	.loc 1 47 65
	and	a7,a7,t1
	.loc 1 47 10
	sd	a7,tohost,t1
.LVL246:
	.loc 1 48 3 is_stmt 1
	lla	a7,fromhost
.L143:
	.loc 1 48 19 discriminator 1
	ld	t1,0(a7)
	beq	t1,zero,.L143
	.loc 1 50 3
	.loc 1 50 12 is_stmt 0
	sd	zero,fromhost,a7
	.loc 1 53 3 is_stmt 1
	fence	iorw,iorw
	.loc 1 55 3
.LBE293:
.LBE296:
	.loc 1 187 12 is_stmt 0
	add	t6,t6,tp,%tprel_add(buflen.0)
.LBB297:
.LBB294:
	.loc 1 55 19
	ld	a7,640(a4)
.LVL247:
.LBE294:
.LBE297:
	.loc 1 187 5 is_stmt 1
	.loc 1 187 12 is_stmt 0
	sw	zero,%tprel_lo(buflen.0)(t6)
.LBE302:
.LBE380:
	.loc 1 330 7
	addi	a1,a1,8
.LVL248:
	j	.L113
.LVL249:
.L275:
	.cfi_offset 21, -48
	.cfi_offset 22, -56
	.cfi_offset 23, -64
	.cfi_offset 24, -72
	.cfi_offset 25, -80
.LBB381:
.LBB344:
.LBB343:
.LBB337:
	li	s1,64
	j	.L199
.LVL250:
.L162:
.LBE337:
.LBE343:
.LBE344:
.LBE381:
.LBB382:
.LBB373:
	.loc 1 186 5 is_stmt 1
.LBB365:
.LBB357:
	.loc 1 31 3
	.loc 1 32 3
	.loc 1 32 16 is_stmt 0
	sd	s5,512(a4)
	.loc 1 33 3 is_stmt 1
	.loc 1 33 16 is_stmt 0
	sd	s9,520(a4)
	.loc 1 34 3 is_stmt 1
	.loc 1 34 16 is_stmt 0
	sd	s4,528(a4)
	.loc 1 35 3 is_stmt 1
	.loc 1 35 16 is_stmt 0
	sd	t6,536(a4)
	.loc 1 37 3 is_stmt 1
	fence	iorw,iorw
	.loc 1 47 3
	.loc 1 47 10 is_stmt 0
	ld	t5,8(sp)
.LVL251:
	lla	a1,tohost
	sd	t5,0(a1)
	.loc 1 48 3 is_stmt 1
.L164:
	.loc 1 48 19 discriminator 1
	ld	a1,0(s0)
	beq	a1,zero,.L164
	.loc 1 50 3
	.loc 1 50 12 is_stmt 0
	sd	zero,fromhost,a1
	.loc 1 53 3 is_stmt 1
	fence	iorw,iorw
	.loc 1 55 3
	.loc 1 55 19 is_stmt 0
	ld	a1,512(a4)
.LVL252:
.LBE357:
.LBE365:
	.loc 1 187 5 is_stmt 1
	.loc 1 187 12 is_stmt 0
	sw	zero,%tprel_lo(buflen.0)(s2)
	j	.L163
.LVL253:
.L280:
	.loc 1 182 17
	lui	t1,%tprel_hi(.LANCHOR0)
.LVL254:
.LBB366:
.LBB358:
	.loc 1 47 65
	bseti	a7,zero,48
.LBE358:
.LBE366:
	.loc 1 182 17
	add	s2,t1,tp,%tprel_add(.LANCHOR0)
.LBB367:
.LBB359:
	.loc 1 47 14
	addi	s5,a4,512
.LBE359:
.LBE367:
	.loc 1 182 13
	lui	t1,%tprel_hi(buflen.0)
.LBB368:
.LBB360:
	.loc 1 47 65
	addi	a7,a7,-64
.LBE360:
.LBE368:
	.loc 1 182 13
	add	s1,t1,tp,%tprel_add(buflen.0)
.LBE373:
.LBE382:
	.loc 1 340 32 discriminator 1
	mv	s0,t2
.LBB383:
.LBB374:
	.loc 1 182 17
	addi	s2,s2,%tprel_lo(.LANCHOR0)
	.loc 1 184 6
	li	s6,10
.LBB369:
.LBB361:
	.loc 1 32 16
	li	s4,64
	.loc 1 33 16
	li	s8,1
.LVL255:
	.loc 1 47 65
	and	s5,s5,a7
	.loc 1 47 10
	lla	s7,tohost
	lla	t1,fromhost
	j	.L170
.LVL256:
.L168:
.LBE361:
.LBE369:
	.loc 1 191 3 is_stmt 1
.LBE374:
.LBE383:
	.loc 1 342 9
	.loc 1 340 20 is_stmt 0 discriminator 1
	lbu	a1,1(s0)
	.loc 1 342 10
	addi	s0,s0,1
.LVL257:
	.loc 1 340 77 is_stmt 1 discriminator 5
	.loc 1 340 32 discriminator 1
	.loc 1 340 18 is_stmt 0 discriminator 1
	sext.w	t5,a1
.LVL258:
	.loc 1 340 32 discriminator 1
	beq	a1,zero,.L282
.LVL259:
.L170:
	.loc 1 341 9 is_stmt 1
.LBB384:
.LBB375:
	.loc 1 179 3
	.loc 1 180 3
	.loc 1 182 3
	.loc 1 182 13 is_stmt 0
	lw	s9,%tprel_lo(buflen.0)(s1)
	addiw	a7,s9,1
	.loc 1 182 17
	add	s9,s2,s9
	.loc 1 182 13
	sw	a7,%tprel_lo(buflen.0)(s1)
	.loc 1 182 17
	sb	a1,0(s9)
	.loc 1 184 3 is_stmt 1
	.loc 1 184 6 is_stmt 0
	beq	t5,s6,.L167
	.loc 1 184 18 discriminator 1
	bne	a7,s4,.L168
.L167:
	.loc 1 186 5 is_stmt 1
.LVL260:
.LBB370:
.LBB362:
	.loc 1 31 3
	.loc 1 32 3
	.loc 1 32 16 is_stmt 0
	sd	s4,512(a4)
	.loc 1 33 3 is_stmt 1
	.loc 1 33 16 is_stmt 0
	sd	s8,520(a4)
	.loc 1 34 3 is_stmt 1
	.loc 1 34 16 is_stmt 0
	sd	s2,528(a4)
	.loc 1 35 3 is_stmt 1
	.loc 1 35 16 is_stmt 0
	sd	a7,536(a4)
	.loc 1 37 3 is_stmt 1
	fence	iorw,iorw
	.loc 1 47 3
	.loc 1 47 10 is_stmt 0
	sd	s5,0(s7)
	.loc 1 48 3 is_stmt 1
.L169:
	.loc 1 48 19 discriminator 1
	ld	a1,0(t1)
	beq	a1,zero,.L169
	.loc 1 50 3
	.loc 1 50 12 is_stmt 0
	sd	zero,fromhost,a1
	.loc 1 53 3 is_stmt 1
	fence	iorw,iorw
	.loc 1 55 3
	.loc 1 55 19 is_stmt 0
	ld	a1,512(a4)
.LVL261:
.LBE362:
.LBE370:
	.loc 1 187 5 is_stmt 1
	.loc 1 187 12 is_stmt 0
	sw	zero,%tprel_lo(buflen.0)(s1)
	j	.L168
.LVL262:
.L278:
.LBE375:
.LBE384:
.LBB385:
.LBB280:
	.loc 1 232 5 is_stmt 1
	.loc 1 232 12 is_stmt 0
	ld	t5,0(a1)
	lui	s0,%tprel_hi(.LANCHOR0)
	mv	a1,s1
.LVL263:
	j	.L180
.LVL264:
.L282:
	addw	t1,t6,t2
.LVL265:
.LBE280:
.LBE385:
	.loc 1 340 77 discriminator 5
	subw	t1,t1,s0
.LVL266:
.L166:
	.loc 1 344 20 is_stmt 1 discriminator 1
	ld	s8,1112(sp)
	.cfi_restore 24
	ld	s9,1104(sp)
	.cfi_restore 25
	ble	t1,zero,.L160
.LVL267:
.L151:
.LBB386:
.LBB387:
	.loc 1 182 13 is_stmt 0
	lui	t6,%tprel_hi(buflen.0)
	lui	s0,%tprel_hi(.LANCHOR0)
.LBB388:
.LBB389:
	.loc 1 47 65
	bseti	a7,zero,48
.LBE389:
.LBE388:
	.loc 1 182 17
	add	s0,s0,tp,%tprel_add(.LANCHOR0)
.LBB395:
.LBB390:
	.loc 1 47 65
	addi	a7,a7,-64
.LBE390:
.LBE395:
	.loc 1 182 13
	add	t6,t6,tp,%tprel_add(buflen.0)
.LBB396:
.LBB391:
	.loc 1 47 14
	addi	s1,a4,448
.LBE391:
.LBE396:
	.loc 1 182 17
	addi	s2,s0,%tprel_lo(.LANCHOR0)
.LBB397:
.LBB392:
	.loc 1 47 65
	and	s1,s1,a7
.LBE392:
.LBE397:
	.loc 1 182 13
	lw	a1,%tprel_lo(buflen.0)(t6)
	.loc 1 182 17
	li	t2,32
	.loc 1 184 18 discriminator 1
	li	s0,64
.LBB398:
.LBB393:
	.loc 1 33 16
	li	s5,1
	.loc 1 47 10
	lla	s4,tohost
	lla	a7,fromhost
	j	.L175
.LVL268:
.L173:
.LBE393:
.LBE398:
	.loc 1 191 3 is_stmt 1
.LBE387:
.LBE386:
	.loc 1 344 30 discriminator 2
	addiw	t1,t1,-1
.LVL269:
	.loc 1 344 20 discriminator 1
	beq	t1,zero,.L160
.LVL270:
.L175:
	.loc 1 345 9
.LBB402:
.LBB400:
	.loc 1 179 3
	.loc 1 180 3
	.loc 1 182 3
	.loc 1 182 13 is_stmt 0
	addiw	t5,a1,1
	.loc 1 182 17
	add	a1,s2,a1
	sb	t2,0(a1)
	.loc 1 184 3 is_stmt 1
	.loc 1 182 13 is_stmt 0
	sw	t5,%tprel_lo(buflen.0)(t6)
	sext.w	a1,t5
	.loc 1 184 18 discriminator 1
	bne	a1,s0,.L173
	.loc 1 186 5 is_stmt 1
.LVL271:
.LBB399:
.LBB394:
	.loc 1 31 3
	.loc 1 32 3
	.loc 1 32 16 is_stmt 0
	sd	s0,448(a4)
	.loc 1 33 3 is_stmt 1
	.loc 1 33 16 is_stmt 0
	sd	s5,456(a4)
	.loc 1 34 3 is_stmt 1
	.loc 1 34 16 is_stmt 0
	sd	s2,464(a4)
	.loc 1 35 3 is_stmt 1
	.loc 1 35 16 is_stmt 0
	sd	s0,472(a4)
	.loc 1 37 3 is_stmt 1
	fence	iorw,iorw
	.loc 1 47 3
	.loc 1 47 10 is_stmt 0
	sd	s1,0(s4)
	.loc 1 48 3 is_stmt 1
.L174:
	.loc 1 48 19 discriminator 1
	ld	a1,0(a7)
	beq	a1,zero,.L174
	.loc 1 50 3
	.loc 1 50 12 is_stmt 0
	sd	zero,fromhost,a1
	.loc 1 53 3 is_stmt 1
	fence	iorw,iorw
	.loc 1 55 3
	.loc 1 55 19 is_stmt 0
	ld	a1,448(a4)
.LVL272:
.LBE394:
.LBE399:
	.loc 1 187 5 is_stmt 1
	.loc 1 187 12 is_stmt 0
	sw	zero,%tprel_lo(buflen.0)(t6)
.LBE400:
.LBE402:
	.loc 1 344 30 discriminator 2
	addiw	t1,t1,-1
.LBB403:
.LBB401:
	.loc 1 187 12
	li	a1,0
	.loc 1 191 3 is_stmt 1
.LVL273:
.LBE401:
.LBE403:
	.loc 1 344 30 discriminator 2
	.loc 1 344 20 discriminator 1
	bne	t1,zero,.L175
.LVL274:
.L160:
	ld	s5,1136(sp)
	.cfi_restore 21
	ld	s6,1128(sp)
	.cfi_restore 22
	ld	s7,1120(sp)
	.cfi_restore 23
	.loc 1 335 14 is_stmt 0
	mv	a1,t0
	j	.L113
.LVL275:
.L274:
	.cfi_offset 21, -48
	.cfi_offset 22, -56
	.cfi_offset 23, -64
	.cfi_offset 24, -72
	.cfi_offset 25, -80
.LBB404:
.LBB345:
	.loc 1 217 8
	li	s1,0
	j	.L192
.LVL276:
.L178:
.LBE345:
.LBE404:
.LBB405:
.LBB286:
	.loc 1 246 5 is_stmt 1
	.loc 1 246 12 is_stmt 0 discriminator 1
	lw	t5,0(a1)
	.loc 1 246 12
	j	.L177
.LVL277:
.L272:
	.cfi_restore 21
	.cfi_restore 22
	.cfi_restore 23
	.cfi_restore 24
	.cfi_restore 25
.LBE286:
.LBE405:
.LBB406:
.LBB253:
	.loc 1 186 5 is_stmt 1
.LBB251:
.LBB252:
	.loc 1 31 3
	.loc 1 32 3
	.loc 1 32 16 is_stmt 0
	sd	t1,0(a4)
	.loc 1 33 3 is_stmt 1
	.loc 1 33 16 is_stmt 0
	li	a7,1
	sd	a7,8(a4)
	.loc 1 34 3 is_stmt 1
	.loc 1 34 16 is_stmt 0
	sd	a0,16(a4)
	.loc 1 35 3 is_stmt 1
	.loc 1 35 16 is_stmt 0
	sd	t1,24(a4)
	.loc 1 37 3 is_stmt 1
	fence	iorw,iorw
	.loc 1 47 3
	.loc 1 47 65 is_stmt 0
	bseti	a0,zero,48
.LVL278:
	addi	a0,a0,-64
	and	a0,a4,a0
	.loc 1 47 10
	sd	a0,tohost,a7
	.loc 1 48 3 is_stmt 1
	lla	a7,fromhost
.L206:
	.loc 1 48 19 discriminator 1
	ld	a0,0(a7)
	beq	a0,zero,.L206
	.loc 1 50 3
	.loc 1 50 12 is_stmt 0
	sd	zero,fromhost,a0
	.loc 1 53 3 is_stmt 1
	fence	iorw,iorw
	.loc 1 55 3
	.loc 1 55 19 is_stmt 0
	ld	a0,0(a4)
.LVL279:
.LBE252:
.LBE251:
	.loc 1 187 5 is_stmt 1
	.loc 1 187 12 is_stmt 0
	add	t6,t6,tp,%tprel_add(buflen.0)
	sw	zero,%tprel_lo(buflen.0)(t6)
.LBE253:
.LBE406:
	.loc 1 394 11
	mv	a0,t0
	j	.L113
.LVL280:
.L217:
	.cfi_offset 21, -48
	.cfi_offset 22, -56
	.cfi_offset 23, -64
	.cfi_offset 24, -72
	.cfi_offset 25, -80
.LBB407:
.LBB272:
	li	t0,16
	addi	s1,a1,8
	j	.L185
.LVL281:
.L208:
	.cfi_restore 21
	.cfi_restore 22
	.cfi_restore 23
	.cfi_restore 24
	.cfi_restore 25
	sd	s5,1136(sp)
	sd	s6,1128(sp)
	sd	s7,1120(sp)
	sd	s8,1112(sp)
	sd	s9,1104(sp)
.LBE272:
.LBE407:
	.loc 1 275 5
	li	t0,10
.LVL282:
	.cfi_remember_state
	.cfi_offset 21, -48
	.cfi_offset 22, -56
	.cfi_offset 23, -64
	.cfi_offset 24, -72
	.cfi_offset 25, -80
	j	.L125
.LVL283:
.L128:
	.cfi_restore_state
	sd	s5,1136(sp)
	sd	s6,1128(sp)
	sd	s7,1120(sp)
	sd	s8,1112(sp)
	sd	s9,1104(sp)
	li	t0,8
.LVL284:
	.cfi_offset 21, -48
	.cfi_offset 22, -56
	.cfi_offset 23, -64
	.cfi_offset 24, -72
	.cfi_offset 25, -80
	j	.L125
.LVL285:
.L179:
.LBB408:
.LBB409:
	.loc 1 182 17
	lui	s0,%tprel_hi(.LANCHOR0)
	add	a1,s0,tp,%tprel_add(.LANCHOR0)
	.loc 1 182 13
	addiw	s1,a7,1
	.loc 1 182 17
	addi	a1,a1,%tprel_lo(.LANCHOR0)
	add	s4,a1,a7
	.loc 1 182 13
	sw	s1,%tprel_lo(buflen.0)(t2)
	.loc 1 182 17
	li	t2,45
	sb	t2,0(s4)
	.loc 1 182 13
	sext.w	a7,s1
.LBE409:
.LBE408:
	.loc 1 352 9 is_stmt 1
.LVL286:
.LBB414:
.LBB412:
	.loc 1 179 3
	.loc 1 180 3
	.loc 1 182 3
	.loc 1 184 3
	.loc 1 184 18 is_stmt 0 discriminator 1
	li	t2,64
	beq	a7,t2,.L283
.L181:
	.loc 1 191 3 is_stmt 1
.LVL287:
.LBE412:
.LBE414:
	.loc 1 353 9
	.loc 1 353 13 is_stmt 0
	mv	a1,t0
	.loc 1 353 15
	neg	t5,t5
.LVL288:
	.loc 1 353 13
	li	t0,10
.LVL289:
	j	.L180
.LVL290:
.L273:
.LBB415:
.LBB265:
	.loc 1 186 5 is_stmt 1
.LBB262:
.LBB263:
	.loc 1 31 3
	.loc 1 32 3
	.loc 1 32 16 is_stmt 0
	sd	a7,320(a4)
	.loc 1 33 3 is_stmt 1
	.loc 1 33 16 is_stmt 0
	li	t0,1
	sd	t0,328(a4)
	.loc 1 34 3 is_stmt 1
	.loc 1 34 16 is_stmt 0
	sd	t5,336(a4)
	.loc 1 35 3 is_stmt 1
	.loc 1 35 16 is_stmt 0
	sd	a7,344(a4)
	.loc 1 37 3 is_stmt 1
	fence	iorw,iorw
	.loc 1 47 3
	.loc 1 47 65 is_stmt 0
	bseti	t5,zero,48
.LVL291:
	addi	t5,t5,-64
	.loc 1 47 14
	addi	a7,a4,320
	.loc 1 47 65
	and	a7,a7,t5
	.loc 1 47 10
	sd	a7,tohost,t5
	.loc 1 48 3 is_stmt 1
	lla	a7,fromhost
.L184:
	.loc 1 48 19 discriminator 1
	ld	t5,0(a7)
	beq	t5,zero,.L184
	.loc 1 50 3
	.loc 1 50 12 is_stmt 0
	sd	zero,fromhost,a7
	.loc 1 53 3 is_stmt 1
	fence	iorw,iorw
	.loc 1 55 3
	.loc 1 55 19 is_stmt 0
	ld	t0,320(a4)
.LVL292:
.LBE263:
.LBE262:
	.loc 1 187 5 is_stmt 1
	.loc 1 191 3
.LBE265:
.LBE415:
	.loc 1 374 7
.LBB416:
.LBB273:
	.loc 1 179 3
	.loc 1 180 3
	.loc 1 182 3
	.loc 1 182 13 is_stmt 0
	add	t5,t6,tp,%tprel_add(buflen.0)
	li	t0,1
	.loc 1 182 17
	add	a7,s0,tp,%tprel_add(.LANCHOR0)
	.loc 1 182 13
	sw	t0,%tprel_lo(buflen.0)(t5)
	.loc 1 182 17
	li	t5,120
	sb	t5,%tprel_lo(.LANCHOR0)(a7)
	.loc 1 184 3 is_stmt 1
	.loc 1 182 17 is_stmt 0
	li	t0,16
	li	a7,1
	addi	s1,a1,8
	j	.L185
.LVL293:
.L145:
	.cfi_restore 24
	.cfi_restore 25
.LBE273:
.LBE416:
	.loc 1 336 9 is_stmt 1
	.loc 1 337 7
	.loc 1 337 10 is_stmt 0
	ble	t1,zero,.L269
	.loc 1 337 21 discriminator 1
	li	a1,45
	bne	s2,a1,.L284
.L269:
	sd	s8,1112(sp)
	sd	s9,1104(sp)
	.cfi_offset 24, -72
	.cfi_offset 25, -80
	.loc 1 336 11
	lla	t2,.LC0
	.loc 1 340 18 discriminator 1
	li	t5,40
	.loc 1 340 20 discriminator 1
	li	a1,40
	j	.L150
.LVL294:
.L279:
	.cfi_restore 24
	.cfi_restore 25
	.loc 1 338 9 is_stmt 1
	.loc 1 338 20 is_stmt 0
	sext.w	t5,t1
.LVL295:
.LBB417:
.LBB418:
	.loc 1 476 3 is_stmt 1
	.loc 1 477 3
	.loc 1 477 14
	beq	a7,zero,.L149
.LVL296:
.L148:
	.loc 1 476 15 is_stmt 0
	mv	a1,t2
	.loc 1 477 14
	add	t6,t2,a7
	j	.L152
.LVL297:
.L154:
	.loc 1 478 5 is_stmt 1
	.loc 1 478 6 is_stmt 0
	addi	a1,a1,1
.LVL298:
	.loc 1 477 14 is_stmt 1
	beq	a1,t6,.L268
.LVL299:
.L152:
	.loc 1 477 14 is_stmt 0 discriminator 1
	lbu	t1,0(a1)
	bne	t1,zero,.L154
.LVL300:
.L268:
	.loc 1 479 12
	sub	a1,a1,t2
.LVL301:
.LBE418:
.LBE417:
	.loc 1 338 20 discriminator 1
	subw	t1,t5,a1
.LBB422:
.LBB419:
	.loc 1 479 3 is_stmt 1
.LVL302:
.LBE419:
.LBE422:
	.loc 1 338 52 discriminator 1
	ble	t1,zero,.L259
.LVL303:
.L149:
.LBB423:
.LBB303:
	.loc 1 182 13 is_stmt 0
	lui	t6,%tprel_hi(buflen.0)
	lui	s0,%tprel_hi(.LANCHOR0)
.LBE303:
.LBE423:
.LBB424:
.LBB425:
.LBB426:
.LBB427:
	.loc 1 47 65
	bseti	t5,zero,48
	addi	t5,t5,-64
.LBE427:
.LBE426:
.LBE425:
.LBE424:
.LBB437:
.LBB304:
	.loc 1 182 13
	add	t6,t6,tp,%tprel_add(buflen.0)
.LBE304:
.LBE437:
.LBB438:
.LBB434:
	.loc 1 182 17
	add	s0,s0,tp,%tprel_add(.LANCHOR0)
.LBB431:
.LBB428:
	.loc 1 47 14
	addi	s1,a4,576
	.loc 1 47 65
	and	s1,s1,t5
.LBE428:
.LBE431:
.LBE434:
.LBE438:
.LBB439:
.LBB305:
	.loc 1 182 13
	lw	a1,%tprel_lo(buflen.0)(t6)
.LBE305:
.LBE439:
.LBB440:
.LBB435:
	.loc 1 182 17
	addi	s4,s0,%tprel_lo(.LANCHOR0)
	.loc 1 184 18 discriminator 1
	li	s5,64
.LBB432:
.LBB429:
	.loc 1 33 16
	li	s6,1
	.loc 1 47 10
	lla	s7,tohost
	lla	t5,fromhost
	j	.L158
.LVL304:
.L156:
.LBE429:
.LBE432:
	.loc 1 191 3 is_stmt 1
.LBE435:
.LBE440:
	.loc 1 338 62 discriminator 3
	addiw	t1,t1,-1
.LVL305:
	.loc 1 338 52 discriminator 1
	beq	t1,zero,.L259
.LVL306:
.L158:
	.loc 1 339 11
.LBB441:
.LBB436:
	.loc 1 179 3
	.loc 1 180 3
	.loc 1 182 3
	.loc 1 182 13 is_stmt 0
	addiw	s0,a1,1
	.loc 1 182 17
	add	a1,s4,a1
	sb	s2,0(a1)
	.loc 1 184 3 is_stmt 1
	.loc 1 182 13 is_stmt 0
	sw	s0,%tprel_lo(buflen.0)(t6)
	sext.w	a1,s0
	.loc 1 184 18 discriminator 1
	bne	a1,s5,.L156
	.loc 1 186 5 is_stmt 1
.LVL307:
.LBB433:
.LBB430:
	.loc 1 31 3
	.loc 1 32 3
	.loc 1 32 16 is_stmt 0
	sd	s5,576(a4)
	.loc 1 33 3 is_stmt 1
	.loc 1 33 16 is_stmt 0
	sd	s6,584(a4)
	.loc 1 34 3 is_stmt 1
	.loc 1 34 16 is_stmt 0
	sd	s4,592(a4)
	.loc 1 35 3 is_stmt 1
	.loc 1 35 16 is_stmt 0
	sd	s5,600(a4)
	.loc 1 37 3 is_stmt 1
	fence	iorw,iorw
	.loc 1 47 3
	.loc 1 47 10 is_stmt 0
	sd	s1,0(s7)
	.loc 1 48 3 is_stmt 1
.L157:
	.loc 1 48 19 discriminator 1
	ld	a1,0(t5)
	beq	a1,zero,.L157
	.loc 1 50 3
	.loc 1 50 12 is_stmt 0
	sd	zero,fromhost,a1
	.loc 1 53 3 is_stmt 1
	fence	iorw,iorw
	.loc 1 55 3
	.loc 1 55 19 is_stmt 0
	ld	a1,576(a4)
.LVL308:
.LBE430:
.LBE433:
	.loc 1 187 5 is_stmt 1
	.loc 1 187 12 is_stmt 0
	sw	zero,%tprel_lo(buflen.0)(t6)
	li	a1,0
	j	.L156
.LVL309:
.L283:
	.cfi_offset 24, -72
	.cfi_offset 25, -80
.LBE436:
.LBE441:
.LBB442:
.LBB413:
	.loc 1 186 5 is_stmt 1
.LBB410:
.LBB411:
	.loc 1 31 3
	.loc 1 32 3
	.loc 1 32 16 is_stmt 0
	sd	a7,384(a4)
	.loc 1 33 3 is_stmt 1
	.loc 1 33 16 is_stmt 0
	li	t2,1
	sd	t2,392(a4)
	.loc 1 34 3 is_stmt 1
	.loc 1 34 16 is_stmt 0
	sd	a1,400(a4)
	.loc 1 35 3 is_stmt 1
	.loc 1 35 16 is_stmt 0
	sd	a7,408(a4)
	.loc 1 37 3 is_stmt 1
	fence	iorw,iorw
	.loc 1 47 3
	.loc 1 47 65 is_stmt 0
	bseti	a7,zero,48
	addi	a7,a7,-64
	.loc 1 47 14
	addi	a1,a4,384
.LVL310:
	.loc 1 47 65
	and	a1,a1,a7
	.loc 1 47 10
	sd	a1,tohost,a7
	.loc 1 48 3 is_stmt 1
	lla	a7,fromhost
.L182:
	.loc 1 48 19 discriminator 1
	ld	a1,0(a7)
	beq	a1,zero,.L182
	.loc 1 50 3
	.loc 1 50 12 is_stmt 0
	sd	zero,fromhost,a1
	.loc 1 53 3 is_stmt 1
	fence	iorw,iorw
	.loc 1 55 3
	.loc 1 55 19 is_stmt 0
	ld	a1,384(a4)
.LVL311:
.LBE411:
.LBE410:
	.loc 1 187 5 is_stmt 1
	.loc 1 187 12 is_stmt 0
	li	a7,0
	add	a1,t6,tp,%tprel_add(buflen.0)
	sw	zero,%tprel_lo(buflen.0)(a1)
	j	.L181
.LVL312:
.L209:
	.cfi_restore 21
	.cfi_restore 22
	.cfi_restore 23
	.cfi_restore 24
	.cfi_restore 25
.LBE413:
.LBE442:
	.loc 1 275 19
	mv	t6,a0
	j	.L139
.LVL313:
.L284:
	.cfi_offset 21, -48
	.cfi_offset 22, -56
	.cfi_offset 23, -64
	.loc 1 338 9 is_stmt 1
	.loc 1 338 20 is_stmt 0
	sext.w	t5,t1
.LVL314:
.LBB443:
.LBB420:
	.loc 1 476 3 is_stmt 1
	.loc 1 477 3
	.loc 1 477 14
.LBE420:
.LBE443:
	.loc 1 336 11 is_stmt 0
	lla	t2,.LC0
.LBB444:
.LBB421:
	.loc 1 477 14
	bne	a7,zero,.L148
	j	.L149
.LBE421:
.LBE444:
	.cfi_endproc
.LFE46:
	.size	vprintfmt.constprop.0, .-vprintfmt.constprop.0
	.section	.rodata.str1.8
	.align	3
.LC1:
	.string	"mcycle"
	.align	3
.LC2:
	.string	"minstret"
	.text
	.align	2
	.globl	setStats
	.hidden	setStats
	.type	setStats, @function
setStats:
.LFB10:
	.loc 1 63 1 is_stmt 1
	.cfi_startproc
.LVL315:
	.loc 1 64 3
	.loc 1 72 3
.LBB445:
	.loc 1 72 3
	.loc 1 72 3 discriminator 1
	.loc 1 72 3 discriminator 2
.LBB446:
	.loc 1 72 3 discriminator 2
	.loc 1 72 3 discriminator 2
 #APP
# 72 "/home/heshds/working_dir/regsw_tests/common/syscalls.c" 1
	csrr a4, mcycle
# 0 "" 2
.LVL316:
	.loc 1 72 3 discriminator 2
 #NO_APP
.LBE446:
	.loc 1 72 3 discriminator 2
	.loc 1 72 3 is_stmt 0 discriminator 3
	lla	a5,.LANCHOR1
	.loc 1 72 3 discriminator 2
	beq	a0,zero,.L286
	.loc 1 72 3 is_stmt 1 discriminator 5
.LVL317:
	sd	a4,0(a5)
.LBE445:
	.loc 1 72 3 discriminator 5
	.loc 1 73 3
.LBB447:
	.loc 1 73 3
	.loc 1 73 3 discriminator 1
	.loc 1 73 3 discriminator 2
.LBB448:
	.loc 1 73 3 discriminator 2
	.loc 1 73 3 discriminator 2
 #APP
# 73 "/home/heshds/working_dir/regsw_tests/common/syscalls.c" 1
	csrr a4, minstret
# 0 "" 2
.LVL318:
	.loc 1 73 3 discriminator 2
 #NO_APP
.LBE448:
	.loc 1 73 3 discriminator 2
	.loc 1 73 3 discriminator 5
	sd	a4,8(a5)
.LBE447:
	.loc 1 73 3 discriminator 5
	.loc 1 76 1 is_stmt 0
	ret
.LVL319:
.L286:
.LBB450:
	.loc 1 72 3 is_stmt 1 discriminator 3
	ld	a3,0(a5)
	lla	a2,.LC1
	sd	a2,16(a5)
	sub	a4,a4,a3
.LVL320:
	.loc 1 72 3 discriminator 3
	.loc 1 72 3 discriminator 5
	sd	a4,0(a5)
.LBE450:
	.loc 1 72 3 discriminator 5
	.loc 1 73 3
.LBB451:
	.loc 1 73 3
	.loc 1 73 3 discriminator 1
	.loc 1 73 3 discriminator 2
.LBB449:
	.loc 1 73 3 discriminator 2
	.loc 1 73 3 discriminator 2
 #APP
# 73 "/home/heshds/working_dir/regsw_tests/common/syscalls.c" 1
	csrr a4, minstret
# 0 "" 2
.LVL321:
	.loc 1 73 3 discriminator 2
 #NO_APP
.LBE449:
	.loc 1 73 3 discriminator 2
	.loc 1 73 3 discriminator 3
	ld	a3,8(a5)
	lla	a2,.LC2
	sd	a2,24(a5)
	sub	a4,a4,a3
.LVL322:
	.loc 1 73 3 discriminator 3
	.loc 1 73 3 discriminator 5
	sd	a4,8(a5)
.LBE451:
	.loc 1 73 3 discriminator 5
	.loc 1 76 1 is_stmt 0
	ret
	.cfi_endproc
.LFE10:
	.size	setStats, .-setStats
	.align	2
	.globl	getStats
	.hidden	getStats
	.type	getStats, @function
getStats:
.LFB11:
	.loc 1 79 1 is_stmt 1
	.cfi_startproc
.LVL323:
	.loc 1 80 3
	.loc 1 80 18 is_stmt 0
	lla	a5,.LANCHOR1
	sh3add	a0,a0,a5
.LVL324:
	.loc 1 81 1
	ld	a0,0(a0)
	ret
	.cfi_endproc
.LFE11:
	.size	getStats, .-getStats
	.align	2
	.globl	tohost_exit
	.hidden	tohost_exit
	.type	tohost_exit, @function
tohost_exit:
.LFB12:
	.loc 1 84 1 is_stmt 1
	.cfi_startproc
.LVL325:
	.loc 1 88 3
	.loc 1 88 32 is_stmt 0
	slli	a5,a0,17
	.loc 1 88 39
	srli	a5,a5,16
	.loc 1 88 46
	ori	a5,a5,1
	.loc 1 88 10
	sd	a5,tohost,a4
	.loc 1 93 3 is_stmt 1
 #APP
# 93 "/home/heshds/working_dir/regsw_tests/common/syscalls.c" 1
	nop
	
# 0 "" 2
 #NO_APP
.L290:
	.loc 1 96 3
	.loc 1 96 9
	.loc 1 96 3
	.loc 1 96 9
	j	.L290
	.cfi_endproc
.LFE12:
	.size	tohost_exit, .-tohost_exit
	.align	2
	.weak	handle_trap
	.hidden	handle_trap
	.type	handle_trap, @function
handle_trap:
.LFB13:
	.loc 1 100 1
	.cfi_startproc
.LVL326:
	.loc 1 101 3
	.loc 1 100 1 is_stmt 0
	addi	sp,sp,-16
	.cfi_def_cfa_offset 16
	.loc 1 101 3
	li	a0,1337
.LVL327:
	.loc 1 100 1
	sd	ra,8(sp)
	.cfi_offset 1, -8
	.loc 1 101 3
	call	tohost_exit
.LVL328:
	.cfi_endproc
.LFE13:
	.size	handle_trap, .-handle_trap
	.align	2
	.globl	exit
	.hidden	exit
	.type	exit, @function
exit:
.LFB14:
	.loc 1 105 1 is_stmt 1
	.cfi_startproc
.LVL329:
	.loc 1 106 3
	.loc 1 105 1 is_stmt 0
	addi	sp,sp,-16
	.cfi_def_cfa_offset 16
	sd	ra,8(sp)
	.cfi_offset 1, -8
	.loc 1 106 3
	call	tohost_exit
.LVL330:
	.cfi_endproc
.LFE14:
	.size	exit, .-exit
	.align	2
	.globl	abort
	.hidden	abort
	.type	abort, @function
abort:
.LFB15:
	.loc 1 110 1 is_stmt 1
	.cfi_startproc
	.loc 1 111 3
.LVL331:
.LBB452:
.LBB453:
	.loc 1 106 3
.LBE453:
.LBE452:
	.loc 1 110 1 is_stmt 0
	addi	sp,sp,-16
	.cfi_def_cfa_offset 16
.LBB456:
.LBB454:
	.loc 1 106 3
	li	a0,134
.LBE454:
.LBE456:
	.loc 1 110 1
	sd	ra,8(sp)
	.cfi_offset 1, -8
.LBB457:
.LBB455:
	.loc 1 106 3
	call	tohost_exit
.LVL332:
.LBE455:
.LBE457:
	.cfi_endproc
.LFE15:
	.size	abort, .-abort
	.align	2
	.globl	printstr
	.hidden	printstr
	.type	printstr, @function
printstr:
.LFB16:
	.loc 1 115 1 is_stmt 1
	.cfi_startproc
.LVL333:
	.loc 1 117 3
.LBB464:
.LBB465:
	.loc 1 468 3
	.loc 1 469 3
	.loc 1 469 10
	lbu	a5,0(a0)
.LBE465:
.LBE464:
	.loc 1 115 1 is_stmt 0
	addi	sp,sp,-112
	.cfi_def_cfa_offset 112
	.loc 1 115 1
	addi	a3,sp,63
	andi	a3,a3,-64
.LBB468:
.LBB466:
	.loc 1 469 10
	beq	a5,zero,.L301
	.loc 1 468 15
	mv	a5,a0
.LVL334:
.L299:
	.loc 1 470 5 is_stmt 1
	.loc 1 469 10 is_stmt 0
	lbu	a4,1(a5)
	.loc 1 470 6
	addi	a5,a5,1
.LVL335:
	.loc 1 469 10 is_stmt 1
	bne	a4,zero,.L299
	.loc 1 471 12 is_stmt 0
	sub	a5,a5,a0
.LVL336:
.L298:
	.loc 1 471 3 is_stmt 1
.LBE466:
.LBE468:
.LBB469:
.LBB470:
	.loc 1 31 3
	.loc 1 32 3
	.loc 1 32 16 is_stmt 0
	li	a4,64
	sd	a4,0(a3)
	.loc 1 33 3 is_stmt 1
	.loc 1 33 16 is_stmt 0
	li	a4,1
	sd	a4,8(a3)
	.loc 1 34 3 is_stmt 1
	.loc 1 34 16 is_stmt 0
	sd	a0,16(a3)
	.loc 1 35 3 is_stmt 1
	.loc 1 35 16 is_stmt 0
	sd	a5,24(a3)
	.loc 1 37 3 is_stmt 1
	fence	iorw,iorw
	.loc 1 47 3
	.loc 1 47 65 is_stmt 0
	bseti	a5,zero,48
	addi	a5,a5,-64
	and	a5,a3,a5
	.loc 1 47 10
	sd	a5,tohost,a4
	.loc 1 48 3 is_stmt 1
	lla	a4,fromhost
.L300:
	.loc 1 48 19 discriminator 1
	ld	a5,0(a4)
	beq	a5,zero,.L300
	.loc 1 50 3
	.loc 1 50 12 is_stmt 0
	sd	zero,fromhost,a5
	.loc 1 53 3 is_stmt 1
	fence	iorw,iorw
	.loc 1 55 3
	.loc 1 55 19 is_stmt 0
	ld	a5,0(a3)
.LVL337:
.LBE470:
.LBE469:
	.loc 1 119 1
	addi	sp,sp,112
	.cfi_remember_state
	.cfi_def_cfa_offset 0
	jr	ra
.LVL338:
.L301:
	.cfi_restore_state
.LBB471:
.LBB467:
	.loc 1 469 10
	li	a5,0
	j	.L298
.LBE467:
.LBE471:
	.cfi_endproc
.LFE16:
	.size	printstr, .-printstr
	.align	2
	.weak	thread_entry
	.hidden	thread_entry
	.type	thread_entry, @function
thread_entry:
.LFB17:
	.loc 1 122 1 is_stmt 1
	.cfi_startproc
.LVL339:
	.loc 1 125 3
	beq	a0,zero,.L306
.L308:
	.loc 1 125 14 discriminator 1
	.loc 1 125 14 discriminator 1
	j	.L308
.L306:
	.loc 1 126 1 is_stmt 0
	ret
	.cfi_endproc
.LFE17:
	.size	thread_entry, .-thread_entry
	.section	.rodata.str1.8
	.align	3
.LC3:
	.string	"Implement main(), foo!\n"
	.section	.text.startup,"ax",@progbits
	.align	2
	.weak	main
	.hidden	main
	.type	main, @function
main:
.LFB18:
	.loc 1 129 1 is_stmt 1
	.cfi_startproc
.LVL340:
	.loc 1 131 3
	.loc 1 129 1 is_stmt 0
	addi	sp,sp,-16
	.cfi_def_cfa_offset 16
	.loc 1 131 3
	lla	a0,.LC3
.LVL341:
	.loc 1 129 1
	sd	ra,8(sp)
	.cfi_offset 1, -8
	.loc 1 131 3
	call	printstr
.LVL342:
	.loc 1 132 3 is_stmt 1
	.loc 1 133 1 is_stmt 0
	ld	ra,8(sp)
	.cfi_restore 1
	li	a0,-1
	addi	sp,sp,16
	.cfi_def_cfa_offset 0
	jr	ra
	.cfi_endproc
.LFE18:
	.size	main, .-main
	.text
	.align	2
	.globl	puts
	.hidden	puts
	.type	puts, @function
puts:
.LFB21:
	.loc 1 165 1 is_stmt 1
	.cfi_startproc
.LVL343:
	.loc 1 166 3
	.loc 1 168 3
	.loc 1 168 10
	.loc 1 165 1 is_stmt 0
	addi	sp,sp,-208
	.cfi_def_cfa_offset 208
	sd	s0,200(sp)
	sd	s2,184(sp)
	sd	s1,192(sp)
	.loc 1 168 10
	lbu	a3,0(a0)
.LBB480:
.LBB481:
	.loc 1 186 5
	lui	t0,%tprel_hi(.LANCHOR0)
	.cfi_offset 8, -8
	.cfi_offset 18, -24
	.cfi_offset 9, -16
	.loc 1 182 13
	lui	s0,%tprel_hi(buflen.0)
	.loc 1 186 5
	add	t1,t0,tp,%tprel_add(.LANCHOR0)
	.loc 1 182 13
	add	a7,s0,tp,%tprel_add(buflen.0)
.LBE481:
.LBE480:
	.loc 1 165 1
	addi	a6,sp,63
.LBB498:
.LBB492:
	.loc 1 182 13
	lw	a1,%tprel_lo(buflen.0)(a7)
.LBE492:
.LBE498:
	.loc 1 165 1
	andi	a6,a6,-64
.LBB499:
.LBB493:
	.loc 1 186 5
	addi	s2,t1,%tprel_lo(.LANCHOR0)
.LBE493:
.LBE499:
	.loc 1 168 10
	beq	a3,zero,.L312
.LBB500:
.LBB501:
.LBB502:
.LBB503:
	.loc 1 47 65
	bseti	a5,zero,48
	.loc 1 47 14
	addi	t2,a6,64
	.loc 1 47 65
	addi	a5,a5,-64
	sd	s3,176(sp)
	.cfi_offset 19, -32
	lla	s1,tohost
	lla	a4,fromhost
.LBE503:
.LBE502:
	.loc 1 182 17
	addi	t1,t1,%tprel_lo(.LANCHOR0)
	.loc 1 184 6
	li	t6,10
.LBB507:
.LBB504:
	.loc 1 32 16
	li	t5,64
	.loc 1 33 16
	li	s3,1
	.loc 1 47 65
	and	t2,t2,a5
	j	.L316
.LVL344:
.L326:
.LBE504:
.LBE507:
.LBE501:
.LBE500:
	.loc 1 168 10
	lbu	a3,0(a0)
.LVL345:
.LBB513:
.LBB494:
	.loc 1 182 13
	addiw	a2,a1,2
.LVL346:
	mv	a1,a5
.LVL347:
.LBE494:
.LBE513:
	.loc 1 168 10 is_stmt 1
	beq	a3,zero,.L325
.L316:
	.loc 1 169 5
.LBB514:
.LBB510:
	.loc 1 182 13 is_stmt 0
	addiw	a5,a1,1
	.loc 1 182 17
	add	a2,t1,a1
	.loc 1 182 13
	sw	a5,%tprel_lo(buflen.0)(a7)
	.loc 1 182 17
	sb	a3,0(a2)
.LBE510:
.LBE514:
	.loc 1 169 15
	addi	a0,a0,1
.LVL348:
.LBB515:
.LBB511:
	.loc 1 179 3 is_stmt 1
	.loc 1 180 3
	.loc 1 182 3
	.loc 1 184 3
	.loc 1 184 6 is_stmt 0
	beq	a3,t6,.L313
	.loc 1 184 18 discriminator 1
	bne	a5,t5,.L326
.L313:
	.loc 1 186 5 is_stmt 1
.LVL349:
.LBB508:
.LBB505:
	.loc 1 31 3
	.loc 1 32 3
	.loc 1 32 16 is_stmt 0
	sd	t5,64(a6)
	.loc 1 33 3 is_stmt 1
	.loc 1 33 16 is_stmt 0
	sd	s3,72(a6)
	.loc 1 34 3 is_stmt 1
	.loc 1 34 16 is_stmt 0
	sd	s2,80(a6)
	.loc 1 35 3 is_stmt 1
	.loc 1 35 16 is_stmt 0
	sd	a5,88(a6)
	.loc 1 37 3 is_stmt 1
	fence	iorw,iorw
	.loc 1 47 3
	.loc 1 47 10 is_stmt 0
	sd	t2,0(s1)
	.loc 1 48 3 is_stmt 1
.LVL350:
.L315:
	.loc 1 48 19 discriminator 1
	ld	a5,0(a4)
	beq	a5,zero,.L315
	.loc 1 50 3
	.loc 1 50 12 is_stmt 0
	sd	zero,fromhost,a5
	.loc 1 53 3 is_stmt 1
	fence	iorw,iorw
	.loc 1 55 3
.LBE505:
.LBE508:
.LBE511:
.LBE515:
	.loc 1 168 10 is_stmt 0
	lbu	a3,0(a0)
.LVL351:
.LBB516:
.LBB512:
.LBB509:
.LBB506:
	.loc 1 55 19
	ld	a5,64(a6)
.LVL352:
.LBE506:
.LBE509:
	.loc 1 187 5 is_stmt 1
	.loc 1 187 12 is_stmt 0
	sw	zero,%tprel_lo(buflen.0)(a7)
	li	a2,1
.LVL353:
	li	a1,0
.LVL354:
.LBE512:
.LBE516:
	.loc 1 168 10 is_stmt 1
	bne	a3,zero,.L316
.L325:
	ld	s3,176(sp)
	.cfi_restore 19
.L317:
	.loc 1 171 3
.LVL355:
.LBB517:
.LBB495:
	.loc 1 179 3
	.loc 1 180 3
	.loc 1 182 3
.LBB482:
.LBB483:
	.loc 1 32 16 is_stmt 0
	li	a5,64
	sd	a5,0(a6)
	.loc 1 33 16
	li	a3,1
.LBE483:
.LBE482:
	.loc 1 182 17
	add	a5,t0,tp,%tprel_add(.LANCHOR0)
.LBB488:
.LBB484:
	.loc 1 33 16
	sd	a3,8(a6)
.LBE484:
.LBE488:
	.loc 1 182 17
	addi	a5,a5,%tprel_lo(.LANCHOR0)
	.loc 1 182 13
	add	a3,s0,tp,%tprel_add(buflen.0)
.LBB489:
.LBB485:
	.loc 1 34 16
	sd	s2,16(a6)
.LBE485:
.LBE489:
	.loc 1 182 13
	sw	a2,%tprel_lo(buflen.0)(a3)
	.loc 1 182 17
	add	a5,a5,a1
	li	a3,10
	sb	a3,0(a5)
	.loc 1 184 3 is_stmt 1
	.loc 1 186 5
.LVL356:
.LBB490:
.LBB486:
	.loc 1 31 3
	.loc 1 32 3
	.loc 1 33 3
	.loc 1 34 3
	.loc 1 35 3
	.loc 1 35 16 is_stmt 0
	sd	a2,24(a6)
	.loc 1 37 3 is_stmt 1
	fence	iorw,iorw
	.loc 1 47 3
	.loc 1 47 65 is_stmt 0
	bseti	a5,zero,48
	addi	a5,a5,-64
	and	a5,a6,a5
	.loc 1 47 10
	sd	a5,0(s1)
	.loc 1 48 3 is_stmt 1
.L318:
	.loc 1 48 19 discriminator 1
	ld	a5,0(a4)
	beq	a5,zero,.L318
	.loc 1 50 3
	.loc 1 50 12 is_stmt 0
	sd	zero,fromhost,a5
	.loc 1 53 3 is_stmt 1
	fence	iorw,iorw
	.loc 1 55 3
.LBE486:
.LBE490:
	.loc 1 187 12 is_stmt 0
	add	s0,s0,tp,%tprel_add(buflen.0)
	sw	zero,%tprel_lo(buflen.0)(s0)
.LBE495:
.LBE517:
	.loc 1 173 1
	ld	s0,200(sp)
	.cfi_remember_state
	.cfi_restore 8
	ld	s1,192(sp)
	.cfi_restore 9
	ld	s2,184(sp)
	.cfi_restore 18
.LBB518:
.LBB496:
.LBB491:
.LBB487:
	.loc 1 55 19
	ld	a5,0(a6)
.LVL357:
.LBE487:
.LBE491:
	.loc 1 187 5 is_stmt 1
	.loc 1 191 3
.LBE496:
.LBE518:
	.loc 1 172 3
	.loc 1 173 1 is_stmt 0
	li	a0,0
.LVL358:
	addi	sp,sp,208
	.cfi_def_cfa_offset 0
	jr	ra
.LVL359:
.L312:
	.cfi_restore_state
.LBB519:
.LBB497:
	.loc 1 182 13
	addiw	a2,a1,1
	lla	s1,tohost
	lla	a4,fromhost
	j	.L317
.LBE497:
.LBE519:
	.cfi_endproc
.LFE21:
	.size	puts, .-puts
	.align	2
	.globl	printhex
	.hidden	printhex
	.type	printhex, @function
printhex:
.LFB23:
	.loc 1 195 1 is_stmt 1
	.cfi_startproc
.LVL360:
	.loc 1 196 3
	.loc 1 197 3
	.loc 1 198 3
	.loc 1 198 17 discriminator 1
	.loc 1 200 5
	.loc 1 195 1 is_stmt 0
	addi	sp,sp,-208
	.cfi_def_cfa_offset 208
	sd	s2,184(sp)
	.loc 1 200 20
	andi	a2,a0,15
	.loc 1 195 1
	addi	a3,sp,95
	sd	s0,200(sp)
	sd	s1,192(sp)
	sd	s3,176(sp)
	sd	s4,168(sp)
	sd	s5,160(sp)
	sd	s6,152(sp)
	.cfi_offset 18, -24
	.cfi_offset 8, -8
	.cfi_offset 9, -16
	.cfi_offset 19, -32
	.cfi_offset 20, -40
	.cfi_offset 21, -48
	.cfi_offset 22, -56
	.loc 1 200 27
	li	a4,9
	.loc 1 195 1
	andi	a3,a3,-64
	.loc 1 200 20
	mv	s2,a2
	.loc 1 200 27 discriminator 2
	li	a5,87
	.loc 1 200 27
	bgtu	a2,a4,.L328
	li	a5,48
.L328:
	.loc 1 201 7
	srli	s0,a0,4
	.loc 1 200 20
	andi	a2,s0,15
	.loc 1 200 27
	li	a4,9
	.loc 1 200 27 discriminator 4
	add	s2,s2,a5
	.loc 1 201 5 is_stmt 1
.LVL361:
	.loc 1 198 24 discriminator 2
	.loc 1 198 17 discriminator 1
	.loc 1 200 5
	.loc 1 200 20 is_stmt 0
	mv	s0,a2
.LVL362:
	.loc 1 200 27 discriminator 1
	li	a5,48
	.loc 1 200 27
	bgtu	a2,a4,.L367
	.loc 1 201 7
	srli	t2,a0,8
	.loc 1 200 20
	andi	a2,t2,15
	.loc 1 200 27
	li	a4,9
	.loc 1 200 27 discriminator 4
	add	s0,s0,a5
	.loc 1 201 5 is_stmt 1
.LVL363:
	.loc 1 198 24 discriminator 2
	.loc 1 198 17 discriminator 1
	.loc 1 200 5
	.loc 1 200 20 is_stmt 0
	mv	t2,a2
.LVL364:
	.loc 1 200 27 discriminator 1
	li	a5,48
	.loc 1 200 27
	bgtu	a2,a4,.L368
.LVL365:
.L330:
	.loc 1 201 7
	srli	t0,a0,12
	.loc 1 200 20
	andi	a2,t0,15
	.loc 1 200 27
	li	a4,9
	.loc 1 200 27 discriminator 4
	add	t2,t2,a5
	.loc 1 201 5 is_stmt 1
.LVL366:
	.loc 1 198 24 discriminator 2
	.loc 1 198 17 discriminator 1
	.loc 1 200 5
	.loc 1 200 20 is_stmt 0
	mv	t0,a2
.LVL367:
	.loc 1 200 27 discriminator 1
	li	a5,48
	.loc 1 200 27
	bgtu	a2,a4,.L369
.LVL368:
.L331:
	.loc 1 201 7
	srli	t6,a0,16
	.loc 1 200 20
	andi	a2,t6,15
	.loc 1 200 27
	li	a4,9
	.loc 1 200 27 discriminator 4
	add	t0,t0,a5
	.loc 1 201 5 is_stmt 1
.LVL369:
	.loc 1 198 24 discriminator 2
	.loc 1 198 17 discriminator 1
	.loc 1 200 5
	.loc 1 200 20 is_stmt 0
	mv	t6,a2
.LVL370:
	.loc 1 200 27 discriminator 1
	li	a5,48
	.loc 1 200 27
	bgtu	a2,a4,.L370
.LVL371:
.L332:
	.loc 1 201 7
	srli	t5,a0,20
	.loc 1 200 20
	andi	a2,t5,15
	.loc 1 200 27
	li	a4,9
	.loc 1 200 27 discriminator 4
	add	t6,t6,a5
	.loc 1 201 5 is_stmt 1
.LVL372:
	.loc 1 198 24 discriminator 2
	.loc 1 198 17 discriminator 1
	.loc 1 200 5
	.loc 1 200 20 is_stmt 0
	mv	t5,a2
.LVL373:
	.loc 1 200 27 discriminator 1
	li	a5,48
	.loc 1 200 27
	bgtu	a2,a4,.L371
.LVL374:
.L333:
	.loc 1 201 7
	srli	t1,a0,24
	.loc 1 200 20
	andi	a1,t1,15
	.loc 1 200 27
	li	a2,9
	.loc 1 200 27 discriminator 4
	add	t5,t5,a5
	.loc 1 201 5 is_stmt 1
.LVL375:
	.loc 1 198 24 discriminator 2
	.loc 1 198 17 discriminator 1
	.loc 1 200 5
	.loc 1 200 20 is_stmt 0
	mv	t1,a1
.LVL376:
	.loc 1 200 27 discriminator 1
	li	a4,48
	.loc 1 200 27
	bgtu	a1,a2,.L372
.LVL377:
.L334:
	.loc 1 200 20
	srliw	a5,a0,28
	.loc 1 200 27
	li	a2,9
	.loc 1 200 27 discriminator 4
	add	t1,t1,a4
	.loc 1 201 5 is_stmt 1
.LVL378:
	.loc 1 198 24 discriminator 2
	.loc 1 198 17 discriminator 1
	.loc 1 200 5
	.loc 1 200 20 is_stmt 0
	mv	s1,a5
	.loc 1 200 27 discriminator 1
	li	a4,48
	.loc 1 200 27
	bgtu	a5,a2,.L373
.LVL379:
.L335:
	.loc 1 201 7
	srli	a7,a0,32
	.loc 1 200 20
	andi	a1,a7,15
	.loc 1 200 27
	li	a2,9
	.loc 1 200 27 discriminator 4
	add	s1,s1,a4
	.loc 1 201 5 is_stmt 1
.LVL380:
	.loc 1 198 24 discriminator 2
	.loc 1 198 17 discriminator 1
	.loc 1 200 5
	.loc 1 200 20 is_stmt 0
	mv	a7,a1
.LVL381:
	.loc 1 200 27 discriminator 1
	li	a5,48
	.loc 1 200 27
	bgtu	a1,a2,.L374
.LVL382:
.L336:
	.loc 1 201 7
	srli	a6,a0,36
	.loc 1 200 20
	andi	a2,a6,15
	.loc 1 200 27
	li	a4,9
	.loc 1 200 27 discriminator 4
	add	a7,a7,a5
	.loc 1 201 5 is_stmt 1
.LVL383:
	.loc 1 198 24 discriminator 2
	.loc 1 198 17 discriminator 1
	.loc 1 200 5
	.loc 1 200 20 is_stmt 0
	mv	a6,a2
.LVL384:
	.loc 1 200 27 discriminator 1
	li	a5,48
	.loc 1 200 27
	bgtu	a2,a4,.L375
.LVL385:
.L337:
	.loc 1 201 7
	srli	a1,a0,40
	.loc 1 200 20
	andi	s3,a1,15
	.loc 1 200 27
	li	a2,9
	.loc 1 200 27 discriminator 4
	add	a6,a6,a5
	.loc 1 201 5 is_stmt 1
.LVL386:
	.loc 1 198 24 discriminator 2
	.loc 1 198 17 discriminator 1
	.loc 1 200 5
	.loc 1 200 20 is_stmt 0
	mv	a1,s3
.LVL387:
	.loc 1 200 27 discriminator 1
	li	a4,48
	.loc 1 200 27
	bgtu	s3,a2,.L376
.LVL388:
.L338:
	.loc 1 201 7
	srli	a5,a0,44
	.loc 1 200 20
	andi	s4,a5,15
	.loc 1 200 27
	li	s3,9
	.loc 1 200 27 discriminator 4
	add	a1,a1,a4
	.loc 1 201 5 is_stmt 1
.LVL389:
	.loc 1 198 24 discriminator 2
	.loc 1 198 17 discriminator 1
	.loc 1 200 5
	.loc 1 200 27 is_stmt 0 discriminator 1
	li	a2,48
	.loc 1 200 20
	mv	a4,s4
	.loc 1 200 27
	bgtu	s4,s3,.L377
.L339:
	.loc 1 201 7
	srli	a5,a0,48
.LVL390:
	.loc 1 200 20
	andi	s5,a5,15
	.loc 1 200 27
	li	s4,9
	.loc 1 200 27 discriminator 4
	add	s3,a4,a2
	.loc 1 201 5 is_stmt 1
.LVL391:
	.loc 1 198 24 discriminator 2
	.loc 1 198 17 discriminator 1
	.loc 1 200 5
	.loc 1 200 20 is_stmt 0
	mv	a4,s5
	.loc 1 200 27 discriminator 1
	li	a2,48
	.loc 1 200 27
	bgtu	s5,s4,.L378
.L340:
	.loc 1 201 7
	srli	a5,a0,52
.LVL392:
	.loc 1 200 20
	andi	s6,a5,15
	.loc 1 200 27
	li	s5,9
	.loc 1 200 27 discriminator 4
	add	a2,a4,a2
	.loc 1 201 5 is_stmt 1
.LVL393:
	.loc 1 198 24 discriminator 2
	.loc 1 198 17 discriminator 1
	.loc 1 200 5
	.loc 1 200 27 is_stmt 0 discriminator 1
	li	s4,48
	.loc 1 200 20
	mv	a4,s6
	.loc 1 200 27
	bgtu	s6,s5,.L379
.L341:
	.loc 1 201 7
	srli	a5,a0,56
.LVL394:
	.loc 1 200 20
	andi	s6,a5,15
	.loc 1 200 27
	li	s5,9
	.loc 1 200 27 discriminator 4
	add	a4,a4,s4
	.loc 1 201 5 is_stmt 1
.LVL395:
	.loc 1 198 24 discriminator 2
	.loc 1 198 17 discriminator 1
	.loc 1 200 5
	.loc 1 200 20 is_stmt 0
	mv	a5,s6
.LVL396:
	.loc 1 200 27 discriminator 1
	li	s4,48
	.loc 1 200 27
	bgtu	s6,s5,.L380
.LVL397:
.L342:
	.loc 1 201 7
	srli	s6,a0,60
	.loc 1 200 27
	li	s5,9
	.loc 1 200 27 discriminator 4
	add	a5,a5,s4
	.loc 1 201 5 is_stmt 1
.LVL398:
	.loc 1 198 24 discriminator 2
	.loc 1 198 17 discriminator 1
	.loc 1 200 5
	.loc 1 200 27 is_stmt 0
	bleu	s6,s5,.L381
.LVL399:
.L343:
	.loc 1 200 27 discriminator 4
	addi	a0,s6,87
	.loc 1 201 5 is_stmt 1
	.loc 1 198 24 discriminator 2
.LVL400:
	.loc 1 198 17 discriminator 1
	.loc 1 203 3
	.loc 1 205 3
.LBB526:
.LBB527:
	.loc 1 117 3
	addi	s4,sp,8
.LVL401:
.LBB528:
.LBB529:
	.loc 1 468 3
	.loc 1 469 3
	.loc 1 469 10
.L344:
.LBE529:
.LBE528:
.LBE527:
.LBE526:
	.loc 1 200 15 is_stmt 0 discriminator 4
	sb	a5,9(sp)
	sb	s2,23(sp)
	sb	s0,22(sp)
	sb	t2,21(sp)
	sb	t0,20(sp)
	sb	t6,19(sp)
	sb	t5,18(sp)
	sb	t1,17(sp)
	sb	s1,16(sp)
	sb	a7,15(sp)
	sb	a6,14(sp)
	sb	a1,13(sp)
	sb	s3,12(sp)
	sb	a2,11(sp)
	sb	a4,10(sp)
	sb	a0,8(sp)
	.loc 1 203 11
	sb	zero,24(sp)
.LBB545:
.LBB542:
.LBB533:
.LBB530:
	.loc 1 468 15
	mv	a5,s4
.LVL402:
.L345:
	.loc 1 470 5 is_stmt 1
	.loc 1 469 10 is_stmt 0
	lbu	a4,1(a5)
	.loc 1 470 6
	addi	a5,a5,1
.LVL403:
	.loc 1 469 10 is_stmt 1
	bne	a4,zero,.L345
.LBE530:
.LBE533:
.LBB534:
.LBB535:
	.loc 1 32 16 is_stmt 0
	li	a4,64
	sd	a4,0(a3)
	.loc 1 33 16
	li	a4,1
	sd	a4,8(a3)
	.loc 1 34 16
	sd	s4,16(a3)
.LBE535:
.LBE534:
.LBB538:
.LBB531:
	.loc 1 471 12
	sub	a5,a5,s4
.LVL404:
	.loc 1 471 3 is_stmt 1
.LBE531:
.LBE538:
.LBB539:
.LBB536:
	.loc 1 31 3
	.loc 1 32 3
	.loc 1 33 3
	.loc 1 34 3
	.loc 1 35 3
	.loc 1 35 16 is_stmt 0
	sd	a5,24(a3)
.LVL405:
	.loc 1 37 3 is_stmt 1
	fence	iorw,iorw
	.loc 1 47 3
	.loc 1 47 65 is_stmt 0
	bseti	a5,zero,48
	addi	a5,a5,-64
	and	a5,a3,a5
	.loc 1 47 10
	sd	a5,tohost,a4
	.loc 1 48 3 is_stmt 1
	lla	a4,fromhost
.L346:
	.loc 1 48 19 discriminator 1
	ld	a5,0(a4)
	beq	a5,zero,.L346
	.loc 1 50 3
	.loc 1 50 12 is_stmt 0
	sd	zero,fromhost,a5
	.loc 1 53 3 is_stmt 1
	fence	iorw,iorw
	.loc 1 55 3
.LBE536:
.LBE539:
.LBE542:
.LBE545:
	.loc 1 206 1 is_stmt 0
	ld	s0,200(sp)
	.cfi_remember_state
	.cfi_restore 8
	ld	s1,192(sp)
	.cfi_restore 9
	ld	s2,184(sp)
	.cfi_restore 18
	ld	s3,176(sp)
	.cfi_restore 19
	ld	s4,168(sp)
	.cfi_restore 20
.LVL406:
	ld	s5,160(sp)
	.cfi_restore 21
	ld	s6,152(sp)
	.cfi_restore 22
.LBB546:
.LBB543:
.LBB540:
.LBB537:
	.loc 1 55 19
	ld	a5,0(a3)
.LVL407:
.LBE537:
.LBE540:
.LBE543:
.LBE546:
	.loc 1 206 1
	addi	sp,sp,208
	.cfi_def_cfa_offset 0
	jr	ra
.LVL408:
.L381:
	.cfi_restore_state
	.loc 1 200 27 discriminator 4
	addi	a0,s6,48
	.loc 1 201 5 is_stmt 1
	.loc 1 198 24 discriminator 2
.LVL409:
	.loc 1 198 17 discriminator 1
	.loc 1 203 3
	.loc 1 205 3
.LBB547:
.LBB544:
	.loc 1 117 3
	addi	s4,sp,8
.LVL410:
.LBB541:
.LBB532:
	.loc 1 468 3
	.loc 1 469 3
	.loc 1 469 10
	j	.L344
.LVL411:
.L380:
.LBE532:
.LBE541:
.LBE544:
.LBE547:
	.loc 1 200 27 is_stmt 0 discriminator 2
	li	s4,87
	.loc 1 201 7
	srli	s6,a0,60
	.loc 1 200 27
	li	s5,9
	.loc 1 200 27 discriminator 4
	add	a5,a5,s4
	.loc 1 201 5 is_stmt 1
.LVL412:
	.loc 1 198 24 discriminator 2
	.loc 1 198 17 discriminator 1
	.loc 1 200 5
	.loc 1 200 27 is_stmt 0
	bgtu	s6,s5,.L343
	j	.L381
.LVL413:
.L379:
	.loc 1 201 7
	srli	a5,a0,56
.LVL414:
	.loc 1 200 27 discriminator 2
	li	s4,87
	.loc 1 200 20
	andi	s6,a5,15
	.loc 1 200 27
	li	s5,9
	.loc 1 200 27 discriminator 4
	add	a4,a4,s4
	.loc 1 201 5 is_stmt 1
.LVL415:
	.loc 1 198 24 discriminator 2
	.loc 1 198 17 discriminator 1
	.loc 1 200 5
	.loc 1 200 20 is_stmt 0
	mv	a5,s6
.LVL416:
	.loc 1 200 27 discriminator 1
	li	s4,48
	.loc 1 200 27
	bleu	s6,s5,.L342
	j	.L380
.LVL417:
.L378:
	.loc 1 201 7
	srli	a5,a0,52
.LVL418:
	.loc 1 200 27 discriminator 2
	li	a2,87
	.loc 1 200 20
	andi	s6,a5,15
	.loc 1 200 27
	li	s5,9
	.loc 1 200 27 discriminator 4
	add	a2,a4,a2
	.loc 1 201 5 is_stmt 1
.LVL419:
	.loc 1 198 24 discriminator 2
	.loc 1 198 17 discriminator 1
	.loc 1 200 5
	.loc 1 200 27 is_stmt 0 discriminator 1
	li	s4,48
	.loc 1 200 20
	mv	a4,s6
	.loc 1 200 27
	bleu	s6,s5,.L341
	j	.L379
.LVL420:
.L377:
	.loc 1 201 7
	srli	a5,a0,48
.LVL421:
	.loc 1 200 27 discriminator 2
	li	a2,87
	.loc 1 200 20
	andi	s5,a5,15
	.loc 1 200 27
	li	s4,9
	.loc 1 200 27 discriminator 4
	add	s3,a4,a2
	.loc 1 201 5 is_stmt 1
.LVL422:
	.loc 1 198 24 discriminator 2
	.loc 1 198 17 discriminator 1
	.loc 1 200 5
	.loc 1 200 20 is_stmt 0
	mv	a4,s5
	.loc 1 200 27 discriminator 1
	li	a2,48
	.loc 1 200 27
	bleu	s5,s4,.L340
	j	.L378
.LVL423:
.L376:
	.loc 1 201 7
	srli	a5,a0,44
	.loc 1 200 27 discriminator 2
	li	a4,87
	.loc 1 200 20
	andi	s4,a5,15
	.loc 1 200 27
	li	s3,9
	.loc 1 200 27 discriminator 4
	add	a1,a1,a4
	.loc 1 201 5 is_stmt 1
.LVL424:
	.loc 1 198 24 discriminator 2
	.loc 1 198 17 discriminator 1
	.loc 1 200 5
	.loc 1 200 27 is_stmt 0 discriminator 1
	li	a2,48
	.loc 1 200 20
	mv	a4,s4
	.loc 1 200 27
	bleu	s4,s3,.L339
	j	.L377
.LVL425:
.L375:
	.loc 1 201 7
	srli	a1,a0,40
	.loc 1 200 27 discriminator 2
	li	a5,87
	.loc 1 200 20
	andi	s3,a1,15
	.loc 1 200 27
	li	a2,9
	.loc 1 200 27 discriminator 4
	add	a6,a6,a5
	.loc 1 201 5 is_stmt 1
.LVL426:
	.loc 1 198 24 discriminator 2
	.loc 1 198 17 discriminator 1
	.loc 1 200 5
	.loc 1 200 20 is_stmt 0
	mv	a1,s3
.LVL427:
	.loc 1 200 27 discriminator 1
	li	a4,48
	.loc 1 200 27
	bleu	s3,a2,.L338
	j	.L376
.LVL428:
.L374:
	.loc 1 201 7
	srli	a6,a0,36
	.loc 1 200 27 discriminator 2
	li	a5,87
	.loc 1 200 20
	andi	a2,a6,15
	.loc 1 200 27
	li	a4,9
	.loc 1 200 27 discriminator 4
	add	a7,a7,a5
	.loc 1 201 5 is_stmt 1
.LVL429:
	.loc 1 198 24 discriminator 2
	.loc 1 198 17 discriminator 1
	.loc 1 200 5
	.loc 1 200 20 is_stmt 0
	mv	a6,a2
.LVL430:
	.loc 1 200 27 discriminator 1
	li	a5,48
	.loc 1 200 27
	bleu	a2,a4,.L337
	j	.L375
.LVL431:
.L373:
	.loc 1 201 7
	srli	a7,a0,32
	.loc 1 200 27 discriminator 2
	li	a4,87
	.loc 1 200 20
	andi	a1,a7,15
	.loc 1 200 27
	li	a2,9
	.loc 1 200 27 discriminator 4
	add	s1,s1,a4
	.loc 1 201 5 is_stmt 1
.LVL432:
	.loc 1 198 24 discriminator 2
	.loc 1 198 17 discriminator 1
	.loc 1 200 5
	.loc 1 200 20 is_stmt 0
	mv	a7,a1
.LVL433:
	.loc 1 200 27 discriminator 1
	li	a5,48
	.loc 1 200 27
	bleu	a1,a2,.L336
	j	.L374
.LVL434:
.L372:
	.loc 1 200 27 discriminator 2
	li	a4,87
	.loc 1 200 20
	srliw	a5,a0,28
	.loc 1 200 27
	li	a2,9
	.loc 1 200 27 discriminator 4
	add	t1,t1,a4
	.loc 1 201 5 is_stmt 1
.LVL435:
	.loc 1 198 24 discriminator 2
	.loc 1 198 17 discriminator 1
	.loc 1 200 5
	.loc 1 200 20 is_stmt 0
	mv	s1,a5
	.loc 1 200 27 discriminator 1
	li	a4,48
	.loc 1 200 27
	bleu	a5,a2,.L335
	j	.L373
.LVL436:
.L371:
	.loc 1 201 7
	srli	t1,a0,24
	.loc 1 200 27 discriminator 2
	li	a5,87
	.loc 1 200 20
	andi	a1,t1,15
	.loc 1 200 27
	li	a2,9
	.loc 1 200 27 discriminator 4
	add	t5,t5,a5
	.loc 1 201 5 is_stmt 1
.LVL437:
	.loc 1 198 24 discriminator 2
	.loc 1 198 17 discriminator 1
	.loc 1 200 5
	.loc 1 200 20 is_stmt 0
	mv	t1,a1
.LVL438:
	.loc 1 200 27 discriminator 1
	li	a4,48
	.loc 1 200 27
	bleu	a1,a2,.L334
	j	.L372
.LVL439:
.L370:
	.loc 1 201 7
	srli	t5,a0,20
	.loc 1 200 27 discriminator 2
	li	a5,87
	.loc 1 200 20
	andi	a2,t5,15
	.loc 1 200 27
	li	a4,9
	.loc 1 200 27 discriminator 4
	add	t6,t6,a5
	.loc 1 201 5 is_stmt 1
.LVL440:
	.loc 1 198 24 discriminator 2
	.loc 1 198 17 discriminator 1
	.loc 1 200 5
	.loc 1 200 20 is_stmt 0
	mv	t5,a2
.LVL441:
	.loc 1 200 27 discriminator 1
	li	a5,48
	.loc 1 200 27
	bleu	a2,a4,.L333
	j	.L371
.LVL442:
.L369:
	.loc 1 201 7
	srli	t6,a0,16
	.loc 1 200 27 discriminator 2
	li	a5,87
	.loc 1 200 20
	andi	a2,t6,15
	.loc 1 200 27
	li	a4,9
	.loc 1 200 27 discriminator 4
	add	t0,t0,a5
	.loc 1 201 5 is_stmt 1
.LVL443:
	.loc 1 198 24 discriminator 2
	.loc 1 198 17 discriminator 1
	.loc 1 200 5
	.loc 1 200 20 is_stmt 0
	mv	t6,a2
.LVL444:
	.loc 1 200 27 discriminator 1
	li	a5,48
	.loc 1 200 27
	bleu	a2,a4,.L332
	j	.L370
.LVL445:
.L368:
	.loc 1 201 7
	srli	t0,a0,12
	.loc 1 200 27 discriminator 2
	li	a5,87
	.loc 1 200 20
	andi	a2,t0,15
	.loc 1 200 27
	li	a4,9
	.loc 1 200 27 discriminator 4
	add	t2,t2,a5
	.loc 1 201 5 is_stmt 1
.LVL446:
	.loc 1 198 24 discriminator 2
	.loc 1 198 17 discriminator 1
	.loc 1 200 5
	.loc 1 200 20 is_stmt 0
	mv	t0,a2
.LVL447:
	.loc 1 200 27 discriminator 1
	li	a5,48
	.loc 1 200 27
	bleu	a2,a4,.L331
	j	.L369
.LVL448:
.L367:
	.loc 1 201 7
	srli	t2,a0,8
	.loc 1 200 27 discriminator 2
	li	a5,87
	.loc 1 200 20
	andi	a2,t2,15
	.loc 1 200 27
	li	a4,9
	.loc 1 200 27 discriminator 4
	add	s0,s0,a5
	.loc 1 201 5 is_stmt 1
.LVL449:
	.loc 1 198 24 discriminator 2
	.loc 1 198 17 discriminator 1
	.loc 1 200 5
	.loc 1 200 20 is_stmt 0
	mv	t2,a2
.LVL450:
	.loc 1 200 27 discriminator 1
	li	a5,48
	.loc 1 200 27
	bleu	a2,a4,.L330
	j	.L368
	.cfi_endproc
.LFE23:
	.size	printhex, .-printhex
	.align	2
	.globl	printf
	.hidden	printf
	.type	printf, @function
printf:
.LFB28:
	.loc 1 401 1 is_stmt 1
	.cfi_startproc
.LVL451:
	.loc 1 402 3
	.loc 1 403 3
	.loc 1 401 1 is_stmt 0
	addi	sp,sp,-96
	.cfi_def_cfa_offset 96
	.loc 1 403 3
	addi	t1,sp,40
	.loc 1 401 1
	sd	a1,40(sp)
	.loc 1 405 3
	mv	a1,t1
	.loc 1 401 1
	sd	ra,24(sp)
	.cfi_offset 1, -72
	.loc 1 401 1
	sd	a2,48(sp)
	sd	a3,56(sp)
	sd	a4,64(sp)
	sd	a5,72(sp)
	sd	a6,80(sp)
	sd	a7,88(sp)
	.loc 1 403 3
	sd	t1,8(sp)
	.loc 1 405 3 is_stmt 1
	call	vprintfmt.constprop.0
.LVL452:
	.loc 1 407 3
	.loc 1 408 3
	.loc 1 409 1 is_stmt 0
	ld	ra,24(sp)
	.cfi_restore 1
	li	a0,0
	addi	sp,sp,96
	.cfi_def_cfa_offset 0
	jr	ra
	.cfi_endproc
.LFE28:
	.size	printf, .-printf
	.align	2
	.globl	sprintf
	.hidden	sprintf
	.type	sprintf, @function
sprintf:
.LFB30:
	.loc 1 419 1 is_stmt 1
	.cfi_startproc
.LVL453:
	.loc 1 420 3
	.loc 1 421 3
	.loc 1 419 1 is_stmt 0
	addi	sp,sp,-96
	.cfi_def_cfa_offset 96
	.loc 1 422 3
	addi	t5,sp,48
	.loc 1 419 1
	sd	s0,32(sp)
	sd	a0,8(sp)
	.cfi_offset 8, -64
	.loc 1 421 9
	mv	s0,a0
	.loc 1 419 1
	sd	a2,48(sp)
	.loc 1 424 3
	addi	a0,sp,8
.LVL454:
	mv	a2,t5
	.loc 1 419 1
	sd	ra,40(sp)
	.cfi_offset 1, -56
	.loc 1 419 1
	sd	a3,56(sp)
	sd	a4,64(sp)
	sd	a5,72(sp)
	sd	a6,80(sp)
	sd	a7,88(sp)
.LVL455:
	.loc 1 422 3 is_stmt 1
	sd	t5,24(sp)
	.loc 1 424 3
	call	vprintfmt.constprop.1
.LVL456:
	.loc 1 425 3
	ld	a0,8(sp)
	.loc 1 425 8 is_stmt 0
	sb	zero,0(a0)
	.loc 1 427 3 is_stmt 1
	.loc 1 428 3
	.loc 1 429 1 is_stmt 0
	ld	ra,40(sp)
	.cfi_restore 1
	subw	a0,a0,s0
	ld	s0,32(sp)
	.cfi_restore 8
.LVL457:
	addi	sp,sp,96
	.cfi_def_cfa_offset 0
	jr	ra
	.cfi_endproc
.LFE30:
	.size	sprintf, .-sprintf
	.align	2
	.globl	memcpy
	.hidden	memcpy
	.type	memcpy, @function
memcpy:
.LFB31:
	.loc 1 432 1 is_stmt 1
	.cfi_startproc
.LVL458:
	.loc 1 433 42 is_stmt 0
	or	a5,a1,a2
	or	a5,a5,a0
	.loc 1 433 49
	andi	a5,a5,7
	.loc 1 433 27
	mv	a4,a1
	.loc 1 433 3 is_stmt 1
	.loc 1 433 9 is_stmt 0
	mv	a6,a0
.LBB554:
	.loc 1 441 29
	add	a3,a0,a2
.LBE554:
	.loc 1 433 6
	beq	a5,zero,.L387
.LVL459:
.LBB555:
	.loc 1 441 14 is_stmt 1
	bleu	a3,a0,.L410
	addi	a5,a2,-1
	li	a7,7
	bleu	a5,a7,.L409
	or	a5,a0,a1
	andi	a5,a5,7
	bne	a5,zero,.L409
	addi	a5,a1,1
	sub	a7,a0,a5
	sltiu	a7,a7,7
	bne	a7,zero,.L391
	andi	a7,a2,-8
	add	a1,a1,a7
.LVL460:
.L392:
	.loc 1 442 7
	.loc 1 442 14 is_stmt 0
	ld	a5,0(a4)
	addi	a4,a4,8
	addi	a6,a6,8
	.loc 1 442 12
	sd	a5,-8(a6)
	.loc 1 441 14 is_stmt 1
	bne	a1,a4,.L392
	add	a5,a0,a7
	beq	a2,a7,.L399
.LVL461:
	.loc 1 442 7
	.loc 1 442 14 is_stmt 0
	lbu	a2,0(a1)
.LVL462:
	.loc 1 442 9
	addi	a4,a5,1
.LVL463:
	.loc 1 442 12
	sb	a2,0(a5)
	.loc 1 441 14 is_stmt 1
	bleu	a3,a4,.L399
	.loc 1 442 7
.LVL464:
	.loc 1 442 14 is_stmt 0
	lbu	a2,1(a1)
	.loc 1 442 9
	addi	a4,a5,2
.LVL465:
	.loc 1 442 12
	sb	a2,1(a5)
	.loc 1 441 14 is_stmt 1
	bleu	a3,a4,.L399
	.loc 1 442 7
.LVL466:
	.loc 1 442 14 is_stmt 0
	lbu	a2,2(a1)
	.loc 1 442 9
	addi	a4,a5,3
.LVL467:
	.loc 1 442 12
	sb	a2,2(a5)
	.loc 1 441 14 is_stmt 1
	bleu	a3,a4,.L399
	.loc 1 442 7
.LVL468:
	.loc 1 442 14 is_stmt 0
	lbu	a2,3(a1)
	.loc 1 442 9
	addi	a4,a5,4
.LVL469:
	.loc 1 442 12
	sb	a2,3(a5)
	.loc 1 441 14 is_stmt 1
	bleu	a3,a4,.L399
	.loc 1 442 7
.LVL470:
	.loc 1 442 14 is_stmt 0
	lbu	a2,4(a1)
	.loc 1 442 9
	addi	a4,a5,5
.LVL471:
	.loc 1 442 12
	sb	a2,4(a5)
	.loc 1 441 14 is_stmt 1
	bleu	a3,a4,.L399
	.loc 1 442 7
.LVL472:
	.loc 1 442 14 is_stmt 0
	lbu	a2,5(a1)
	.loc 1 442 9
	addi	a4,a5,6
.LVL473:
	.loc 1 442 12
	sb	a2,5(a5)
	.loc 1 441 14 is_stmt 1
	bleu	a3,a4,.L399
	.loc 1 442 7
.LVL474:
	.loc 1 442 14 is_stmt 0
	lbu	a4,6(a1)
	.loc 1 442 12
	sb	a4,6(a5)
	.loc 1 441 14 is_stmt 1
	ret
.LVL475:
.L387:
.LBE555:
.LBB556:
.LBB557:
	.loc 1 436 14
	bleu	a3,a0,.L399
	.loc 1 435 16 is_stmt 0
	mv	a5,a0
.LVL476:
.L390:
	.loc 1 437 7 is_stmt 1
	.loc 1 437 14 is_stmt 0
	ld	a4,0(a1)
	.loc 1 437 9
	addi	a5,a5,8
.LVL477:
	.loc 1 437 16
	addi	a1,a1,8
.LVL478:
	.loc 1 437 12
	sd	a4,-8(a5)
	.loc 1 436 14 is_stmt 1
	bgtu	a3,a5,.L390
	ret
.LVL479:
.L409:
	addi	a5,a1,1
.L391:
	add	a1,a1,a2
.LVL480:
.LBE557:
.LBE556:
.LBB558:
	.loc 1 440 11 is_stmt 0
	mv	a4,a0
.LVL481:
	j	.L395
.LVL482:
.L411:
	addi	a5,a5,1
.LVL483:
.L395:
	.loc 1 442 7 is_stmt 1
	.loc 1 442 14 is_stmt 0
	lbu	a3,-1(a5)
	.loc 1 442 9
	addi	a4,a4,1
.LVL484:
	.loc 1 442 12
	sb	a3,-1(a4)
	.loc 1 441 14 is_stmt 1
	bne	a5,a1,.L411
.LVL485:
.L399:
.LBE558:
	.loc 1 445 1 is_stmt 0
	ret
.LVL486:
.L410:
	ret
	.cfi_endproc
.LFE31:
	.size	memcpy, .-memcpy
	.align	2
	.globl	memset
	.hidden	memset
	.type	memset, @function
memset:
.LFB32:
	.loc 1 448 1 is_stmt 1
	.cfi_startproc
.LVL487:
	addi	sp,sp,-16
	.cfi_def_cfa_offset 16
	.loc 1 449 25 is_stmt 0
	or	a5,a0,a2
	.loc 1 448 1
	sd	s0,0(sp)
	sd	ra,8(sp)
	.cfi_offset 8, -16
	.cfi_offset 1, -8
	.loc 1 449 32
	andi	a5,a5,7
	.loc 1 449 3 is_stmt 1
	.loc 1 448 1 is_stmt 0
	mv	s0,a0
.LBB564:
	.loc 1 460 29
	add	a4,a0,a2
.LBE564:
	.loc 1 449 6
	beq	a5,zero,.L413
.LVL488:
.LBB565:
	.loc 1 460 14 is_stmt 1
	bleu	a4,a0,.L417
	.loc 1 461 12 is_stmt 0
	andi	a1,a1,0xff
.LVL489:
	call	memset
.LVL490:
.LBE565:
	.loc 1 463 3 is_stmt 1
.L417:
	.loc 1 464 1 is_stmt 0
	ld	ra,8(sp)
	.cfi_remember_state
	.cfi_restore 1
	mv	a0,s0
	ld	s0,0(sp)
	.cfi_restore 8
.LVL491:
	addi	sp,sp,16
	.cfi_def_cfa_offset 0
	jr	ra
.LVL492:
.L413:
	.cfi_restore_state
.LBB566:
.LBB567:
	.loc 1 450 5 is_stmt 1
	.loc 1 451 5
	.loc 1 452 5
	.loc 1 453 5
	li	a5,16842752
	addi	a5,a5,257
	slli	a5,a5,16
	addi	a5,a5,257
	slli	a5,a5,16
	.loc 1 450 15 is_stmt 0
	andi	a1,a1,0xff
.LVL493:
	addi	a5,a5,257
	mul	a1,a1,a5
.LVL494:
	.loc 1 455 5 is_stmt 1
	.loc 1 456 5
	.loc 1 456 14
	bleu	a4,a0,.L417
	.loc 1 455 16 is_stmt 0
	mv	a5,a0
.LVL495:
.L416:
	.loc 1 457 7 is_stmt 1
	.loc 1 457 9 is_stmt 0
	addi	a5,a5,8
.LVL496:
	.loc 1 457 12
	sd	a1,-8(a5)
	.loc 1 456 14 is_stmt 1
	bgtu	a4,a5,.L416
.LBE567:
.LBE566:
	.loc 1 464 1 is_stmt 0
	ld	ra,8(sp)
	.cfi_restore 1
	mv	a0,s0
	ld	s0,0(sp)
	.cfi_restore 8
.LVL497:
	addi	sp,sp,16
	.cfi_def_cfa_offset 0
	jr	ra
	.cfi_endproc
.LFE32:
	.size	memset, .-memset
	.section	.rodata.str1.8
	.align	3
.LC5:
	.string	"%s = %zu\n"
	.text
	.align	2
	.globl	_init
	.hidden	_init
	.type	_init, @function
_init:
.LFB20:
	.loc 1 146 1 is_stmt 1
	.cfi_startproc
.LVL498:
	.loc 1 147 3
.LBB573:
.LBB574:
	.loc 1 137 3
	.loc 1 138 3
	.loc 1 139 3
.LBE574:
.LBE573:
	.loc 1 146 1 is_stmt 0
	addi	sp,sp,-176
	.cfi_def_cfa_offset 176
.LBB580:
.LBB575:
	.loc 1 139 35
	lla	a5,_tdata_begin
.LBE575:
.LBE580:
	.loc 1 146 1
	sd	s4,128(sp)
	.cfi_offset 20, -48
.LBB581:
.LBB576:
	.loc 1 139 35
	lla	s4,_tdata_end
.LBE576:
.LBE581:
	.loc 1 146 1
	sd	s3,136(sp)
	.cfi_offset 19, -40
.LBB582:
.LBB577:
	.loc 1 139 35
	sub	s3,s4,a5
.LVL499:
	.loc 1 140 3 is_stmt 1
.LBE577:
.LBE582:
	.loc 1 146 1 is_stmt 0
	sd	s1,152(sp)
	sd	s2,144(sp)
	.cfi_offset 9, -24
	.cfi_offset 18, -32
	mv	s1,a0
	mv	s2,a1
.LBB583:
.LBB578:
	.loc 1 140 3
	mv	a0,tp
.LVL500:
	mv	a1,a5
.LVL501:
	mv	a2,s3
.LBE578:
.LBE583:
	.loc 1 146 1
	sd	ra,168(sp)
	sd	s0,160(sp)
	sd	s5,120(sp)
	.cfi_offset 1, -8
	.cfi_offset 8, -16
	.cfi_offset 21, -56
.LBB584:
.LBB579:
	.loc 1 140 3
	mv	s5,tp
	call	memcpy
.LVL502:
	.loc 1 141 3 is_stmt 1
	.loc 1 142 3
	.loc 1 141 33 is_stmt 0
	lla	a2,_tbss_end
	.loc 1 142 3
	sub	a2,a2,s4
.LVL503:
	li	a1,0
	add	a0,s5,s3
	call	memset
.LVL504:
.LBE579:
.LBE584:
	.loc 1 148 3 is_stmt 1
	mv	a1,s2
	mv	a0,s1
	call	thread_entry
.LVL505:
	.loc 1 151 3
	.loc 1 151 13 is_stmt 0
	li	a1,0
	li	a0,0
	call	main
.LVL506:
.LBB585:
	.loc 1 156 17
	lla	s2,.LANCHOR1
.LVL507:
	ld	a3,0(s2)
.LBE585:
	.loc 1 146 1
	addi	s0,sp,63
	andi	s0,s0,-64
	.loc 1 151 13
	mv	s1,a0
.LVL508:
	.loc 1 153 3 is_stmt 1
	.loc 1 154 3
	.loc 1 155 3
.LBB586:
	.loc 1 155 8
	.loc 1 155 21 discriminator 1
	.loc 1 156 5
	.loc 1 156 8 is_stmt 0
	bne	a3,zero,.L432
	.loc 1 155 38 is_stmt 1 discriminator 2
.LVL509:
	.loc 1 155 21 discriminator 1
	.loc 1 156 5
	.loc 1 156 17 is_stmt 0
	ld	a3,8(s2)
	.loc 1 156 8
	bne	a3,zero,.L433
.LVL510:
.L424:
.LBE586:
	.loc 1 161 3 is_stmt 1
.LBB587:
.LBB588:
	.loc 1 106 3
	mv	a0,s1
	call	tohost_exit
.LVL511:
.L433:
.LBE588:
.LBE587:
	.loc 1 154 9 is_stmt 0
	mv	s3,s0
.LVL512:
.L425:
.LBB589:
	.loc 1 157 7 is_stmt 1
	.loc 1 157 15 is_stmt 0
	ld	a2,24(s2)
	mv	a0,s3
	lla	a1,.LC5
	call	sprintf
.LVL513:
	.loc 1 157 12 discriminator 1
	add	s3,s3,a0
.LVL514:
.L422:
	.loc 1 155 38 is_stmt 1 discriminator 2
	.loc 1 155 21 discriminator 1
.LBE589:
	.loc 1 158 3
	.loc 1 158 6 is_stmt 0
	beq	s0,s3,.L424
	.loc 1 159 5 is_stmt 1
	mv	a0,s0
	call	printstr
.LVL515:
	j	.L424
.LVL516:
.L432:
.LBB590:
	.loc 1 157 7
	.loc 1 157 15 is_stmt 0
	ld	a2,16(s2)
	lla	a1,.LC5
	mv	a0,s0
	call	sprintf
.LVL517:
	.loc 1 156 17
	ld	a3,8(s2)
	.loc 1 157 12 discriminator 1
	add	s3,s0,a0
.LVL518:
	.loc 1 155 38 is_stmt 1 discriminator 2
	.loc 1 155 21 discriminator 1
	.loc 1 156 5
	.loc 1 156 8 is_stmt 0
	beq	a3,zero,.L422
	j	.L425
.LBE590:
	.cfi_endproc
.LFE20:
	.size	_init, .-_init
	.align	2
	.globl	strlen
	.hidden	strlen
	.type	strlen, @function
strlen:
.LFB33:
	.loc 1 467 1 is_stmt 1
	.cfi_startproc
.LVL519:
	.loc 1 468 3
	.loc 1 469 3
	.loc 1 469 10
	lbu	a5,0(a0)
	beq	a5,zero,.L437
	.loc 1 468 15 is_stmt 0
	mv	a5,a0
.LVL520:
.L436:
	.loc 1 470 5 is_stmt 1
	.loc 1 469 10 is_stmt 0
	lbu	a4,1(a5)
	.loc 1 470 6
	addi	a5,a5,1
.LVL521:
	.loc 1 469 10 is_stmt 1
	bne	a4,zero,.L436
	.loc 1 471 12 is_stmt 0
	sub	a0,a5,a0
.LVL522:
	ret
.LVL523:
.L437:
	.loc 1 469 10
	li	a0,0
.LVL524:
	.loc 1 471 3 is_stmt 1
	.loc 1 472 1 is_stmt 0
	ret
	.cfi_endproc
.LFE33:
	.size	strlen, .-strlen
	.align	2
	.globl	strnlen
	.hidden	strnlen
	.type	strnlen, @function
strnlen:
.LFB34:
	.loc 1 475 1 is_stmt 1
	.cfi_startproc
.LVL525:
	.loc 1 476 3
	.loc 1 477 3
	.loc 1 477 14
	add	a3,a0,a1
	.loc 1 476 15 is_stmt 0
	mv	a5,a0
	.loc 1 477 14
	bne	a1,zero,.L442
	j	.L446
.LVL526:
.L443:
	.loc 1 478 6
	addi	a5,a5,1
.LVL527:
	.loc 1 477 14 is_stmt 1
	beq	a3,a5,.L447
.LVL528:
.L442:
	.loc 1 478 5
	.loc 1 477 14 is_stmt 0 discriminator 1
	lbu	a4,0(a5)
	bne	a4,zero,.L443
	.loc 1 479 12
	sub	a0,a5,a0
.LVL529:
	.loc 1 479 3 is_stmt 1
	.loc 1 480 1 is_stmt 0
	ret
.LVL530:
.L447:
	.loc 1 479 12
	sub	a0,a3,a0
.LVL531:
	ret
.LVL532:
.L446:
	.loc 1 477 14
	li	a0,0
.LVL533:
	ret
	.cfi_endproc
.LFE34:
	.size	strnlen, .-strnlen
	.align	2
	.globl	strcmp
	.hidden	strcmp
	.type	strcmp, @function
strcmp:
.LFB35:
	.loc 1 483 1 is_stmt 1
	.cfi_startproc
.LVL534:
.L450:
	.loc 1 484 3
	.loc 1 486 3
	.loc 1 487 5
	.loc 1 487 8 is_stmt 0
	lbu	a5,0(a0)
	.loc 1 488 13
	addi	a1,a1,1
	.loc 1 487 13
	addi	a0,a0,1
.LVL535:
	.loc 1 488 5 is_stmt 1
	.loc 1 488 8 is_stmt 0
	lbu	a4,-1(a1)
.LVL536:
	.loc 1 489 20 is_stmt 1 discriminator 2
	beq	a5,zero,.L451
	.loc 1 489 20 is_stmt 0 discriminator 1
	beq	a5,a4,.L450
	.loc 1 491 13
	sext.w	a0,a5
.LVL537:
.L449:
	.loc 1 491 3 is_stmt 1
	.loc 1 492 1 is_stmt 0
	subw	a0,a0,a4
	ret
.LVL538:
.L451:
	li	a0,0
.LVL539:
	j	.L449
	.cfi_endproc
.LFE35:
	.size	strcmp, .-strcmp
	.align	2
	.globl	strcpy
	.hidden	strcpy
	.type	strcpy, @function
strcpy:
.LFB36:
	.loc 1 495 1 is_stmt 1
	.cfi_startproc
.LVL540:
	.loc 1 496 3
	.loc 1 497 3
	.loc 1 496 9 is_stmt 0
	mv	a5,a0
.LVL541:
.L454:
	.loc 1 497 10 is_stmt 1 discriminator 1
	.loc 1 497 18 is_stmt 0 discriminator 1
	lbu	a4,0(a1)
	.loc 1 497 13 discriminator 1
	addi	a5,a5,1
.LVL542:
	.loc 1 497 22 discriminator 1
	addi	a1,a1,1
.LVL543:
	.loc 1 497 16 discriminator 1
	sb	a4,-1(a5)
	.loc 1 497 10 discriminator 1
	bne	a4,zero,.L454
	.loc 1 499 3 is_stmt 1
	.loc 1 500 1 is_stmt 0
	ret
	.cfi_endproc
.LFE36:
	.size	strcpy, .-strcpy
	.align	2
	.globl	atol
	.hidden	atol
	.type	atol, @function
atol:
.LFB37:
	.loc 1 503 1 is_stmt 1
	.cfi_startproc
.LVL544:
	.loc 1 504 3
	.loc 1 505 3
	.loc 1 507 3
	.loc 1 507 10 is_stmt 0
	lbu	a4,0(a0)
	.loc 1 507 15
	li	a3,32
	.loc 1 503 1
	mv	a5,a0
	.loc 1 507 15 is_stmt 1
	bne	a4,a3,.L457
.LVL545:
.L458:
	.loc 1 508 5
	.loc 1 507 10 is_stmt 0
	lbu	a4,1(a5)
	.loc 1 508 8
	addi	a5,a5,1
.LVL546:
	.loc 1 507 15 is_stmt 1
	beq	a4,a3,.L458
.L457:
	.loc 1 510 3
	.loc 1 510 6 is_stmt 0
	li	a3,45
	beq	a4,a3,.L475
	.loc 1 510 19 discriminator 1
	li	a3,43
	beq	a4,a3,.L476
	.loc 1 515 10 is_stmt 1
	.loc 1 505 7 is_stmt 0
	li	a2,0
	.loc 1 515 10
	beq	a4,zero,.L467
.LVL547:
.L460:
	.loc 1 505 7
	li	a0,0
.LVL548:
.L464:
	.loc 1 516 5 is_stmt 1
	.loc 1 517 16 is_stmt 0
	addi	a5,a5,1
.LVL549:
	.loc 1 517 19
	addiw	a3,a4,-48
	.loc 1 515 10
	lbu	a4,0(a5)
	.loc 1 516 9
	sh2add	a0,a0,a0
.LVL550:
	.loc 1 517 5 is_stmt 1
	.loc 1 517 9 is_stmt 0
	sh1add	a0,a0,a3
.LVL551:
	.loc 1 515 10 is_stmt 1
	bne	a4,zero,.L464
	.loc 1 520 3
	.loc 1 520 22 is_stmt 0
	beq	a2,zero,.L456
	.loc 1 520 22 discriminator 1
	neg	a0,a0
.LVL552:
	ret
.LVL553:
.L476:
	.loc 1 511 5 is_stmt 1
	.loc 1 512 5
	.loc 1 515 10 is_stmt 0
	lbu	a4,1(a5)
	.loc 1 512 8
	addi	a5,a5,1
.LVL554:
	.loc 1 515 10 is_stmt 1
	beq	a4,zero,.L467
	.loc 1 511 10 is_stmt 0
	li	a2,0
	j	.L460
.L475:
	.loc 1 511 5 is_stmt 1
.LVL555:
	.loc 1 512 5
	.loc 1 515 10
	lbu	a4,1(a5)
	.loc 1 511 10 is_stmt 0
	li	a2,1
	.loc 1 512 8
	addi	a5,a5,1
.LVL556:
	.loc 1 515 10
	bne	a4,zero,.L460
.LVL557:
.L467:
	.loc 1 520 22 discriminator 2
	li	a0,0
.LVL558:
.L456:
	.loc 1 521 1
	ret
	.cfi_endproc
.LFE37:
	.size	atol, .-atol
	.bss
	.align	3
	.set	.LANCHOR1,. + 0
	.type	counters, @object
	.size	counters, 16
counters:
	.zero	16
	.type	counter_names, @object
	.size	counter_names, 16
counter_names:
	.zero	16
	.section	.tbss,"awT",@nobits
	.align	6
	.set	.LANCHOR0,. + 0
	.type	buf.1, @object
	.size	buf.1, 64
buf.1:
	.zero	64
	.type	buflen.0, @object
	.size	buflen.0, 4
buflen.0:
	.zero	4
	.text
.Letext0:
	.file 2 "/opt/dev/cva6_riscv_regsw/riscv-none-elf/include/machine/_default_types.h"
	.file 3 "/opt/dev/cva6_riscv_regsw/riscv-none-elf/include/sys/_stdint.h"
	.file 4 "/opt/dev/cva6_riscv_regsw/lib/gcc/riscv-none-elf/13.1.0/include/stddef.h"
	.file 5 "/opt/dev/cva6_riscv_regsw/lib/gcc/riscv-none-elf/13.1.0/include/stdarg.h"
	.file 6 "/opt/dev/cva6_riscv_regsw/riscv-none-elf/include/string.h"
	.file 7 "/opt/dev/cva6_riscv_regsw/riscv-none-elf/include/stdio.h"
	.file 8 "<built-in>"