
tmn_regsw:     file format elf64-littleriscv


Disassembly of section .plt:

0000000000010b30 <_PROCEDURE_LINKAGE_TABLE_>:
   10b30:	97 c3 01 00 33 03 c3 41 03 be 03 4c 13 03 43 fd     ....3..A...L..C.
   10b40:	93 82 03 4c 13 53 13 00 83 b2 82 00 67 00 0e 00     ...L.S......g...

0000000000010b50 <fprintf@plt>:
   10b50:	0001ce17          	auipc	t3,0x1c
   10b54:	4b0e3e03          	ld	t3,1200(t3) # 2d000 <fprintf@GLIBC_2.27>
   10b58:	000e0367          	jalr	t1,t3
   10b5c:	00000013          	nop

0000000000010b60 <fwrite@plt>:
   10b60:	0001ce17          	auipc	t3,0x1c
   10b64:	4a8e3e03          	ld	t3,1192(t3) # 2d008 <fwrite@GLIBC_2.27>
   10b68:	000e0367          	jalr	t1,t3
   10b6c:	00000013          	nop

0000000000010b70 <fseek@plt>:
   10b70:	0001ce17          	auipc	t3,0x1c
   10b74:	4a0e3e03          	ld	t3,1184(t3) # 2d010 <fseek@GLIBC_2.27>
   10b78:	000e0367          	jalr	t1,t3
   10b7c:	00000013          	nop

0000000000010b80 <malloc@plt>:
   10b80:	0001ce17          	auipc	t3,0x1c
   10b84:	498e3e03          	ld	t3,1176(t3) # 2d018 <malloc@GLIBC_2.27>
   10b88:	000e0367          	jalr	t1,t3
   10b8c:	00000013          	nop

0000000000010b90 <strtol@plt>:
   10b90:	0001ce17          	auipc	t3,0x1c
   10b94:	490e3e03          	ld	t3,1168(t3) # 2d020 <strtol@GLIBC_2.27>
   10b98:	000e0367          	jalr	t1,t3
   10b9c:	00000013          	nop

0000000000010ba0 <__libc_start_main@plt>:
   10ba0:	0001ce17          	auipc	t3,0x1c
   10ba4:	488e3e03          	ld	t3,1160(t3) # 2d028 <__libc_start_main@GLIBC_2.27>
   10ba8:	000e0367          	jalr	t1,t3
   10bac:	00000013          	nop

0000000000010bb0 <fputc@plt>:
   10bb0:	0001ce17          	auipc	t3,0x1c
   10bb4:	480e3e03          	ld	t3,1152(t3) # 2d030 <fputc@GLIBC_2.27>
   10bb8:	000e0367          	jalr	t1,t3
   10bbc:	00000013          	nop

0000000000010bc0 <fflush@plt>:
   10bc0:	0001ce17          	auipc	t3,0x1c
   10bc4:	478e3e03          	ld	t3,1144(t3) # 2d038 <fflush@GLIBC_2.27>
   10bc8:	000e0367          	jalr	t1,t3
   10bcc:	00000013          	nop

0000000000010bd0 <memcpy@plt>:
   10bd0:	0001ce17          	auipc	t3,0x1c
   10bd4:	470e3e03          	ld	t3,1136(t3) # 2d040 <memcpy@GLIBC_2.27>
   10bd8:	000e0367          	jalr	t1,t3
   10bdc:	00000013          	nop

0000000000010be0 <strcpy@plt>:
   10be0:	0001ce17          	auipc	t3,0x1c
   10be4:	468e3e03          	ld	t3,1128(t3) # 2d048 <strcpy@GLIBC_2.27>
   10be8:	000e0367          	jalr	t1,t3
   10bec:	00000013          	nop

0000000000010bf0 <fread@plt>:
   10bf0:	0001ce17          	auipc	t3,0x1c
   10bf4:	460e3e03          	ld	t3,1120(t3) # 2d050 <fread@GLIBC_2.27>
   10bf8:	000e0367          	jalr	t1,t3
   10bfc:	00000013          	nop

0000000000010c00 <putc@plt>:
   10c00:	0001ce17          	auipc	t3,0x1c
   10c04:	458e3e03          	ld	t3,1112(t3) # 2d058 <putc@GLIBC_2.27>
   10c08:	000e0367          	jalr	t1,t3
   10c0c:	00000013          	nop

0000000000010c10 <__assert_fail@plt>:
   10c10:	0001ce17          	auipc	t3,0x1c
   10c14:	450e3e03          	ld	t3,1104(t3) # 2d060 <__assert_fail@GLIBC_2.27>
   10c18:	000e0367          	jalr	t1,t3
   10c1c:	00000013          	nop

0000000000010c20 <log10@plt>:
   10c20:	0001ce17          	auipc	t3,0x1c
   10c24:	448e3e03          	ld	t3,1096(t3) # 2d068 <log10@GLIBC_2.27>
   10c28:	000e0367          	jalr	t1,t3
   10c2c:	00000013          	nop

0000000000010c30 <strtod@plt>:
   10c30:	0001ce17          	auipc	t3,0x1c
   10c34:	440e3e03          	ld	t3,1088(t3) # 2d070 <strtod@GLIBC_2.27>
   10c38:	000e0367          	jalr	t1,t3
   10c3c:	00000013          	nop

0000000000010c40 <exit@plt>:
   10c40:	0001ce17          	auipc	t3,0x1c
   10c44:	438e3e03          	ld	t3,1080(t3) # 2d078 <exit@GLIBC_2.27>
   10c48:	000e0367          	jalr	t1,t3
   10c4c:	00000013          	nop

0000000000010c50 <printf@plt>:
   10c50:	0001ce17          	auipc	t3,0x1c
   10c54:	430e3e03          	ld	t3,1072(t3) # 2d080 <printf@GLIBC_2.27>
   10c58:	000e0367          	jalr	t1,t3
   10c5c:	00000013          	nop

0000000000010c60 <calloc@plt>:
   10c60:	0001ce17          	auipc	t3,0x1c
   10c64:	428e3e03          	ld	t3,1064(t3) # 2d088 <calloc@GLIBC_2.27>
   10c68:	000e0367          	jalr	t1,t3
   10c6c:	00000013          	nop

0000000000010c70 <rewind@plt>:
   10c70:	0001ce17          	auipc	t3,0x1c
   10c74:	420e3e03          	ld	t3,1056(t3) # 2d090 <rewind@GLIBC_2.27>
   10c78:	000e0367          	jalr	t1,t3
   10c7c:	00000013          	nop

0000000000010c80 <fclose@plt>:
   10c80:	0001ce17          	auipc	t3,0x1c
   10c84:	418e3e03          	ld	t3,1048(t3) # 2d098 <fclose@GLIBC_2.27>
   10c88:	000e0367          	jalr	t1,t3
   10c8c:	00000013          	nop

0000000000010c90 <fopen@plt>:
   10c90:	0001ce17          	auipc	t3,0x1c
   10c94:	410e3e03          	ld	t3,1040(t3) # 2d0a0 <fopen@GLIBC_2.27>
   10c98:	000e0367          	jalr	t1,t3
   10c9c:	00000013          	nop

0000000000010ca0 <memset@plt>:
   10ca0:	0001ce17          	auipc	t3,0x1c
   10ca4:	408e3e03          	ld	t3,1032(t3) # 2d0a8 <memset@GLIBC_2.27>
   10ca8:	000e0367          	jalr	t1,t3
   10cac:	00000013          	nop

0000000000010cb0 <free@plt>:
   10cb0:	0001ce17          	auipc	t3,0x1c
   10cb4:	400e3e03          	ld	t3,1024(t3) # 2d0b0 <free@GLIBC_2.27>
   10cb8:	000e0367          	jalr	t1,t3
   10cbc:	00000013          	nop

Disassembly of section .text:

0000000000010cc0 <_start>:
   10cc0:	02e000ef          	jal	10cee <load_gp>
   10cc4:	87aa                	mv	a5,a0
   10cc6:	0001c517          	auipc	a0,0x1c
   10cca:	32253503          	ld	a0,802(a0) # 2cfe8 <main@@Base+0x1c24c>
   10cce:	6582                	ld	a1,0(sp)
   10cd0:	0030                	add	a2,sp,8
   10cd2:	ff017113          	and	sp,sp,-16
   10cd6:	00019697          	auipc	a3,0x19
   10cda:	d3668693          	add	a3,a3,-714 # 29a0c <__libc_csu_init>
   10cde:	00019717          	auipc	a4,0x19
   10ce2:	d8670713          	add	a4,a4,-634 # 29a64 <__libc_csu_fini>
   10ce6:	880a                	mv	a6,sp
   10ce8:	eb9ff0ef          	jal	10ba0 <__libc_start_main@plt>
   10cec:	9002                	ebreak

0000000000010cee <load_gp>:
   10cee:	0001f197          	auipc	gp,0x1f
   10cf2:	b1a18193          	add	gp,gp,-1254 # 2f808 <__global_pointer$>
   10cf6:	8082                	ret
	...

0000000000010cfa <deregister_tm_clones>:
   10cfa:	3b818793          	add	a5,gp,952 # 2fbc0 <__TMC_END__>
   10cfe:	3b818713          	add	a4,gp,952 # 2fbc0 <__TMC_END__>
   10d02:	00f70863          	beq	a4,a5,10d12 <deregister_tm_clones+0x18>
   10d06:	00000793          	li	a5,0
   10d0a:	c781                	beqz	a5,10d12 <deregister_tm_clones+0x18>
   10d0c:	3b818513          	add	a0,gp,952 # 2fbc0 <__TMC_END__>
   10d10:	8782                	jr	a5
   10d12:	8082                	ret

0000000000010d14 <register_tm_clones>:
   10d14:	3b818793          	add	a5,gp,952 # 2fbc0 <__TMC_END__>
   10d18:	3b818593          	add	a1,gp,952 # 2fbc0 <__TMC_END__>
   10d1c:	8d9d                	sub	a1,a1,a5
   10d1e:	4035d793          	sra	a5,a1,0x3
   10d22:	91fd                	srl	a1,a1,0x3f
   10d24:	95be                	add	a1,a1,a5
   10d26:	8585                	sra	a1,a1,0x1
   10d28:	c599                	beqz	a1,10d36 <register_tm_clones+0x22>
   10d2a:	00000793          	li	a5,0
   10d2e:	c781                	beqz	a5,10d36 <register_tm_clones+0x22>
   10d30:	3b818513          	add	a0,gp,952 # 2fbc0 <__TMC_END__>
   10d34:	8782                	jr	a5
   10d36:	8082                	ret

0000000000010d38 <__do_global_dtors_aux>:
   10d38:	1141                	add	sp,sp,-16
   10d3a:	e022                	sd	s0,0(sp)
   10d3c:	5f81c783          	lbu	a5,1528(gp) # 2fe00 <completed.0>
   10d40:	e406                	sd	ra,8(sp)
   10d42:	e791                	bnez	a5,10d4e <__do_global_dtors_aux+0x16>
   10d44:	fb7ff0ef          	jal	10cfa <deregister_tm_clones>
   10d48:	4785                	li	a5,1
   10d4a:	5ef18c23          	sb	a5,1528(gp) # 2fe00 <completed.0>
   10d4e:	60a2                	ld	ra,8(sp)
   10d50:	6402                	ld	s0,0(sp)
   10d52:	0141                	add	sp,sp,16
   10d54:	8082                	ret

0000000000010d56 <frame_dummy>:
   10d56:	bf7d                	j	10d14 <register_tm_clones>

0000000000010d58 <get_regsw_hits>:
   10d58:	00000513          	li	a0,0
   10d5c:	00008067          	ret

0000000000010d60 <get_regsw_misses>:
   10d60:	00000513          	li	a0,0
   10d64:	00008067          	ret

0000000000010d68 <clear_regsw_cache>:
   10d68:	00008067          	ret

0000000000010d6c <get_cycles>:
   10d6c:	00000513          	li	a0,0
   10d70:	00008067          	ret

0000000000010d74 <get_li>:
   10d74:	00000513          	li	a0,0
   10d78:	00008067          	ret

0000000000010d7c <get_ld>:
   10d7c:	00000513          	li	a0,0
   10d80:	00008067          	ret

0000000000010d84 <get_lw>:
   10d84:	00000513          	li	a0,0
   10d88:	00008067          	ret

0000000000010d8c <get_sd>:
   10d8c:	00000513          	li	a0,0
   10d90:	00008067          	ret

0000000000010d94 <get_sw>:
   10d94:	00000513          	li	a0,0
   10d98:	00008067          	ret

0000000000010d9c <main>:
   10d9c:	e8010113          	add	sp,sp,-384
   10da0:	16113c23          	sd	ra,376(sp)
   10da4:	16813823          	sd	s0,368(sp)
   10da8:	16913423          	sd	s1,360(sp)
   10dac:	17213023          	sd	s2,352(sp)
   10db0:	15313c23          	sd	s3,344(sp)
   10db4:	15413823          	sd	s4,336(sp)
   10db8:	15513423          	sd	s5,328(sp)
   10dbc:	15613023          	sd	s6,320(sp)
   10dc0:	13713c23          	sd	s7,312(sp)
   10dc4:	13813823          	sd	s8,304(sp)
   10dc8:	13913423          	sd	s9,296(sp)
   10dcc:	13a13023          	sd	s10,288(sp)
   10dd0:	11b13c23          	sd	s11,280(sp)
   10dd4:	10813827          	fsd	fs0,272(sp)
   10dd8:	10913427          	fsd	fs1,264(sp)
   10ddc:	11213027          	fsd	fs2,256(sp)
   10de0:	0f313c27          	fsd	fs3,248(sp)
   10de4:	00058993          	mv	s3,a1
   10de8:	00050b13          	mv	s6,a0
   10dec:	05000513          	li	a0,80
   10df0:	d91ff0ef          	jal	10b80 <malloc@plt>
   10df4:	00050913          	mv	s2,a0
   10df8:	03800513          	li	a0,56
   10dfc:	d85ff0ef          	jal	10b80 <malloc@plt>
   10e00:	0ea13023          	sd	a0,224(sp)
   10e04:	03800513          	li	a0,56
   10e08:	d79ff0ef          	jal	10b80 <malloc@plt>
   10e0c:	06a13023          	sd	a0,96(sp)
   10e10:	03800513          	li	a0,56
   10e14:	d6dff0ef          	jal	10b80 <malloc@plt>
   10e18:	00050d93          	mv	s11,a0
   10e1c:	01000513          	li	a0,16
   10e20:	d61ff0ef          	jal	10b80 <malloc@plt>
   10e24:	06a13c23          	sd	a0,120(sp)
   10e28:	01000513          	li	a0,16
   10e2c:	d55ff0ef          	jal	10b80 <malloc@plt>
   10e30:	04a13c23          	sd	a0,88(sp)
   10e34:	01000513          	li	a0,16
   10e38:	d49ff0ef          	jal	10b80 <malloc@plt>
   10e3c:	04a13423          	sd	a0,72(sp)
   10e40:	06400513          	li	a0,100
   10e44:	d3dff0ef          	jal	10b80 <malloc@plt>
   10e48:	00050a93          	mv	s5,a0
   10e4c:	06400513          	li	a0,100
   10e50:	d31ff0ef          	jal	10b80 <malloc@plt>
   10e54:	00050b93          	mv	s7,a0
   10e58:	06400513          	li	a0,100
   10e5c:	d25ff0ef          	jal	10b80 <malloc@plt>
   10e60:	00050c13          	mv	s8,a0
   10e64:	06400513          	li	a0,100
   10e68:	d19ff0ef          	jal	10b80 <malloc@plt>
   10e6c:	5f01b683          	ld	a3,1520(gp) # 2fdf8 <stdout@GLIBC_2.27>
   10e70:	02a13423          	sd	a0,40(sp)
   10e74:	0002a537          	lui	a0,0x2a
   10e78:	b6750513          	add	a0,a0,-1177 # 29b67 <_IO_stdin_used+0xff>
   10e7c:	04600593          	li	a1,70
   10e80:	00100613          	li	a2,1
   10e84:	00100713          	li	a4,1
   10e88:	0ce13023          	sd	a4,192(sp)
   10e8c:	cd5ff0ef          	jal	10b60 <fwrite@plt>
   10e90:	5f01b683          	ld	a3,1520(gp) # 2fdf8 <stdout@GLIBC_2.27>
   10e94:	0002a537          	lui	a0,0x2a
   10e98:	bae50513          	add	a0,a0,-1106 # 29bae <_IO_stdin_used+0x146>
   10e9c:	0ad00593          	li	a1,173
   10ea0:	00100613          	li	a2,1
   10ea4:	cbdff0ef          	jal	10b60 <fwrite@plt>
   10ea8:	5601ac23          	sw	zero,1400(gp) # 2fd80 <headerlength>
   10eac:	1a9020ef          	jal	13854 <init_idctref>
   10eb0:	5601ae23          	sw	zero,1404(gp) # 2fd84 <advanced>
   10eb4:	5801a023          	sw	zero,1408(gp) # 2fd88 <syntax_arith_coding>
   10eb8:	02092223          	sw	zero,36(s2)
   10ebc:	5801a223          	sw	zero,1412(gp) # 2fd8c <mv_outside_frame>
   10ec0:	5801a423          	sw	zero,1416(gp) # 2fd90 <long_vectors>
   10ec4:	5801a623          	sw	zero,1420(gp) # 2fd94 <pb_frames>
   10ec8:	00200413          	li	s0,2
   10ecc:	04892223          	sw	s0,68(s2)
   10ed0:	00892c23          	sw	s0,24(s2)
   10ed4:	41200537          	lui	a0,0x41200
   10ed8:	00a92a23          	sw	a0,20(s2)
   10edc:	07513823          	sd	s5,112(sp)
   10ee0:	000a8023          	sb	zero,0(s5)
   10ee4:	0002a5b7          	lui	a1,0x2a
   10ee8:	c5c58593          	add	a1,a1,-932 # 29c5c <_IO_stdin_used+0x1f4>
   10eec:	00d00613          	li	a2,13
   10ef0:	03713c23          	sd	s7,56(sp)
   10ef4:	000b8513          	mv	a0,s7
   10ef8:	cd9ff0ef          	jal	10bd0 <memcpy@plt>
   10efc:	0002a5b7          	lui	a1,0x2a
   10f00:	c6958593          	add	a1,a1,-919 # 29c69 <_IO_stdin_used+0x201>
   10f04:	00a00613          	li	a2,10
   10f08:	00a00c93          	li	s9,10
   10f0c:	000c0513          	mv	a0,s8
   10f10:	cc1ff0ef          	jal	10bd0 <memcpy@plt>
   10f14:	5801a823          	sw	zero,1424(gp) # 2fd98 <trace>
   10f18:	00f00513          	li	a0,15
   10f1c:	02a92c23          	sw	a0,56(s2)
   10f20:	02092e23          	sw	zero,60(s2)
   10f24:	02092423          	sw	zero,40(s2)
   10f28:	00092423          	sw	zero,8(s2)
   10f2c:	0f213823          	sd	s2,240(sp)
   10f30:	04092623          	sw	zero,76(s2)
   10f34:	41f00537          	lui	a0,0x41f00
   10f38:	03b13023          	sd	s11,32(sp)
   10f3c:	3c8b4663          	blt	s6,s0,11308 <main+0x56c>
   10f40:	02013823          	sd	zero,48(sp)
   10f44:	08013423          	sd	zero,136(sp)
   10f48:	08013023          	sd	zero,128(sp)
   10f4c:	0e013423          	sd	zero,232(sp)
   10f50:	04013023          	sd	zero,64(sp)
   10f54:	00300493          	li	s1,3
   10f58:	00a00c93          	li	s9,10
   10f5c:	00100913          	li	s2,1
   10f60:	f0050453          	fmv.w.x	fs0,a0
   10f64:	02d00a13          	li	s4,45
   10f68:	03600a93          	li	s5,54
   10f6c:	0002abb7          	lui	s7,0x2a
   10f70:	a6cb8b93          	add	s7,s7,-1428 # 29a6c <_IO_stdin_used+0x4>
   10f74:	00a00d13          	li	s10,10
   10f78:	00100513          	li	a0,1
   10f7c:	0ca13023          	sd	a0,192(sp)
   10f80:	0180006f          	j	10f98 <main+0x1fc>
   10f84:	00100593          	li	a1,1
   10f88:	58b1a823          	sw	a1,1424(gp) # 2fd98 <trace>
   10f8c:	08813423          	sd	s0,136(sp)
   10f90:	0019091b          	addw	s2,s2,1
   10f94:	4b695263          	bge	s2,s6,11438 <main+0x69c>
   10f98:	00391513          	sll	a0,s2,0x3
   10f9c:	00a98533          	add	a0,s3,a0
   10fa0:	00053583          	ld	a1,0(a0) # 41f00000 <__BSS_END__+0x41ecfff8>
   10fa4:	0005c603          	lbu	a2,0(a1)
   10fa8:	08813403          	ld	s0,136(sp)
   10fac:	ff4610e3          	bne	a2,s4,10f8c <main+0x1f0>
   10fb0:	00158613          	add	a2,a1,1
   10fb4:	00c53023          	sd	a2,0(a0)
   10fb8:	0015c603          	lbu	a2,1(a1)
   10fbc:	fbe60513          	add	a0,a2,-66
   10fc0:	00aaf463          	bgeu	s5,a0,10fc8 <main+0x22c>
   10fc4:	37c0106f          	j	12340 <main+0x15a4>
   10fc8:	00251513          	sll	a0,a0,0x2
   10fcc:	01750533          	add	a0,a0,s7
   10fd0:	00052503          	lw	a0,0(a0)
   10fd4:	00100593          	li	a1,1
   10fd8:	08b13423          	sd	a1,136(sp)
   10fdc:	00050067          	jr	a0
   10fe0:	0019091b          	addw	s2,s2,1
   10fe4:	00391513          	sll	a0,s2,0x3
   10fe8:	00a98533          	add	a0,s3,a0
   10fec:	00053583          	ld	a1,0(a0)
   10ff0:	03813503          	ld	a0,56(sp)
   10ff4:	bedff0ef          	jal	10be0 <strcpy@plt>
   10ff8:	f95ff06f          	j	10f8c <main+0x1f0>
   10ffc:	0019091b          	addw	s2,s2,1
   11000:	00391513          	sll	a0,s2,0x3
   11004:	00a98533          	add	a0,s3,a0
   11008:	00053503          	ld	a0,0(a0)
   1100c:	00a00613          	li	a2,10
   11010:	00000593          	li	a1,0
   11014:	b7dff0ef          	jal	10b90 <strtol@plt>
   11018:	0f013583          	ld	a1,240(sp)
   1101c:	02a5ac23          	sw	a0,56(a1)
   11020:	f6dff06f          	j	10f8c <main+0x1f0>
   11024:	00100513          	li	a0,1
   11028:	08a13023          	sd	a0,128(sp)
   1102c:	f61ff06f          	j	10f8c <main+0x1f0>
   11030:	0019091b          	addw	s2,s2,1
   11034:	00391513          	sll	a0,s2,0x3
   11038:	00a98533          	add	a0,s3,a0
   1103c:	00053503          	ld	a0,0(a0)
   11040:	00a00613          	li	a2,10
   11044:	00000593          	li	a1,0
   11048:	b49ff0ef          	jal	10b90 <strtol@plt>
   1104c:	0ea13423          	sd	a0,232(sp)
   11050:	f3dff06f          	j	10f8c <main+0x1f0>
   11054:	0019091b          	addw	s2,s2,1
   11058:	00391513          	sll	a0,s2,0x3
   1105c:	00a98533          	add	a0,s3,a0
   11060:	00053503          	ld	a0,0(a0)
   11064:	00a00613          	li	a2,10
   11068:	00000593          	li	a1,0
   1106c:	b25ff0ef          	jal	10b90 <strtol@plt>
   11070:	02a13823          	sd	a0,48(sp)
   11074:	f19ff06f          	j	10f8c <main+0x1f0>
   11078:	0019091b          	addw	s2,s2,1
   1107c:	00391513          	sll	a0,s2,0x3
   11080:	00a98533          	add	a0,s3,a0
   11084:	00053503          	ld	a0,0(a0)
   11088:	00a00613          	li	a2,10
   1108c:	00000593          	li	a1,0
   11090:	b01ff0ef          	jal	10b90 <strtol@plt>
   11094:	d0057453          	fcvt.s.w	fs0,a0
   11098:	ef5ff06f          	j	10f8c <main+0x1f0>
   1109c:	0019091b          	addw	s2,s2,1
   110a0:	00391513          	sll	a0,s2,0x3
   110a4:	00a98533          	add	a0,s3,a0
   110a8:	00053503          	ld	a0,0(a0)
   110ac:	00a00613          	li	a2,10
   110b0:	00000593          	li	a1,0
   110b4:	addff0ef          	jal	10b90 <strtol@plt>
   110b8:	0f013583          	ld	a1,240(sp)
   110bc:	04a5a223          	sw	a0,68(a1)
   110c0:	ecdff06f          	j	10f8c <main+0x1f0>
   110c4:	0019091b          	addw	s2,s2,1
   110c8:	00391513          	sll	a0,s2,0x3
   110cc:	00a98533          	add	a0,s3,a0
   110d0:	00053503          	ld	a0,0(a0)
   110d4:	00a00613          	li	a2,10
   110d8:	00000593          	li	a1,0
   110dc:	ab5ff0ef          	jal	10b90 <strtol@plt>
   110e0:	04a13023          	sd	a0,64(sp)
   110e4:	ea9ff06f          	j	10f8c <main+0x1f0>
   110e8:	00100513          	li	a0,1
   110ec:	0f013583          	ld	a1,240(sp)
   110f0:	02a5a223          	sw	a0,36(a1)
   110f4:	58a1a223          	sw	a0,1412(gp) # 2fd8c <mv_outside_frame>
   110f8:	58a1a423          	sw	a0,1416(gp) # 2fd90 <long_vectors>
   110fc:	e91ff06f          	j	10f8c <main+0x1f0>
   11100:	0019091b          	addw	s2,s2,1
   11104:	00391513          	sll	a0,s2,0x3
   11108:	00a98533          	add	a0,s3,a0
   1110c:	00053583          	ld	a1,0(a0)
   11110:	07013503          	ld	a0,112(sp)
   11114:	acdff0ef          	jal	10be0 <strcpy@plt>
   11118:	e75ff06f          	j	10f8c <main+0x1f0>
   1111c:	0019091b          	addw	s2,s2,1
   11120:	00391513          	sll	a0,s2,0x3
   11124:	00a98533          	add	a0,s3,a0
   11128:	00053503          	ld	a0,0(a0)
   1112c:	00a00613          	li	a2,10
   11130:	00000593          	li	a1,0
   11134:	a5dff0ef          	jal	10b90 <strtol@plt>
   11138:	56a1ac23          	sw	a0,1400(gp) # 2fd80 <headerlength>
   1113c:	e51ff06f          	j	10f8c <main+0x1f0>
   11140:	00100593          	li	a1,1
   11144:	58b1a023          	sw	a1,1408(gp) # 2fd88 <syntax_arith_coding>
   11148:	e45ff06f          	j	10f8c <main+0x1f0>
   1114c:	0019091b          	addw	s2,s2,1
   11150:	00391513          	sll	a0,s2,0x3
   11154:	00a98533          	add	a0,s3,a0
   11158:	00053503          	ld	a0,0(a0)
   1115c:	00a00613          	li	a2,10
   11160:	00000593          	li	a1,0
   11164:	a2dff0ef          	jal	10b90 <strtol@plt>
   11168:	0015049b          	addw	s1,a0,1
   1116c:	e21ff06f          	j	10f8c <main+0x1f0>
   11170:	0019091b          	addw	s2,s2,1
   11174:	00391513          	sll	a0,s2,0x3
   11178:	00a98533          	add	a0,s3,a0
   1117c:	00053503          	ld	a0,0(a0)
   11180:	00a00613          	li	a2,10
   11184:	00000593          	li	a1,0
   11188:	a09ff0ef          	jal	10b90 <strtol@plt>
   1118c:	00050c93          	mv	s9,a0
   11190:	00050d9b          	sext.w	s11,a0
   11194:	02000513          	li	a0,32
   11198:	deadeae3          	bltu	s11,a0,10f8c <main+0x1f0>
   1119c:	5e81b683          	ld	a3,1512(gp) # 2fdf0 <stderr@GLIBC_2.27>
   111a0:	0002a537          	lui	a0,0x2a
   111a4:	c7350513          	add	a0,a0,-909 # 29c73 <_IO_stdin_used+0x20b>
   111a8:	01e00593          	li	a1,30
   111ac:	00100613          	li	a2,1
   111b0:	9b1ff0ef          	jal	10b60 <fwrite@plt>
   111b4:	01b02533          	sgtz	a0,s11
   111b8:	40a00533          	neg	a0,a0
   111bc:	01b57cb3          	and	s9,a0,s11
   111c0:	01f00513          	li	a0,31
   111c4:	dcacc4e3          	blt	s9,a0,10f8c <main+0x1f0>
   111c8:	01f00c93          	li	s9,31
   111cc:	dc1ff06f          	j	10f8c <main+0x1f0>
   111d0:	0019091b          	addw	s2,s2,1
   111d4:	00391513          	sll	a0,s2,0x3
   111d8:	00a98533          	add	a0,s3,a0
   111dc:	00053503          	ld	a0,0(a0)
   111e0:	00a00613          	li	a2,10
   111e4:	00000593          	li	a1,0
   111e8:	9a9ff0ef          	jal	10b90 <strtol@plt>
   111ec:	0f013583          	ld	a1,240(sp)
   111f0:	02a5ae23          	sw	a0,60(a1)
   111f4:	d99ff06f          	j	10f8c <main+0x1f0>
   111f8:	00100593          	li	a1,1
   111fc:	56b1ae23          	sw	a1,1404(gp) # 2fd84 <advanced>
   11200:	58b1a223          	sw	a1,1412(gp) # 2fd8c <mv_outside_frame>
   11204:	d89ff06f          	j	10f8c <main+0x1f0>
   11208:	0019091b          	addw	s2,s2,1
   1120c:	00391513          	sll	a0,s2,0x3
   11210:	00a98533          	add	a0,s3,a0
   11214:	00053503          	ld	a0,0(a0)
   11218:	00a00613          	li	a2,10
   1121c:	00000593          	li	a1,0
   11220:	971ff0ef          	jal	10b90 <strtol@plt>
   11224:	00050d13          	mv	s10,a0
   11228:	00050d9b          	sext.w	s11,a0
   1122c:	02000513          	li	a0,32
   11230:	d4adeee3          	bltu	s11,a0,10f8c <main+0x1f0>
   11234:	5e81b683          	ld	a3,1512(gp) # 2fdf0 <stderr@GLIBC_2.27>
   11238:	0002a537          	lui	a0,0x2a
   1123c:	c7350513          	add	a0,a0,-909 # 29c73 <_IO_stdin_used+0x20b>
   11240:	01e00593          	li	a1,30
   11244:	00100613          	li	a2,1
   11248:	919ff0ef          	jal	10b60 <fwrite@plt>
   1124c:	01b02533          	sgtz	a0,s11
   11250:	40a00533          	neg	a0,a0
   11254:	01b57d33          	and	s10,a0,s11
   11258:	01f00513          	li	a0,31
   1125c:	d2ad48e3          	blt	s10,a0,10f8c <main+0x1f0>
   11260:	01f00d13          	li	s10,31
   11264:	d29ff06f          	j	10f8c <main+0x1f0>
   11268:	00100593          	li	a1,1
   1126c:	58b1a623          	sw	a1,1420(gp) # 2fd94 <pb_frames>
   11270:	d1dff06f          	j	10f8c <main+0x1f0>
   11274:	0019091b          	addw	s2,s2,1
   11278:	00391513          	sll	a0,s2,0x3
   1127c:	00a98533          	add	a0,s3,a0
   11280:	00053503          	ld	a0,0(a0)
   11284:	00a00613          	li	a2,10
   11288:	00000593          	li	a1,0
   1128c:	905ff0ef          	jal	10b90 <strtol@plt>
   11290:	00150513          	add	a0,a0,1
   11294:	0ca13023          	sd	a0,192(sp)
   11298:	cf5ff06f          	j	10f8c <main+0x1f0>
   1129c:	0019091b          	addw	s2,s2,1
   112a0:	00391513          	sll	a0,s2,0x3
   112a4:	00a98533          	add	a0,s3,a0
   112a8:	00053503          	ld	a0,0(a0)
   112ac:	00000593          	li	a1,0
   112b0:	981ff0ef          	jal	10c30 <strtod@plt>
   112b4:	401577d3          	fcvt.s.d	fa5,fa0
   112b8:	0f013503          	ld	a0,240(sp)
   112bc:	00f52a27          	fsw	fa5,20(a0)
   112c0:	ccdff06f          	j	10f8c <main+0x1f0>
   112c4:	0019091b          	addw	s2,s2,1
   112c8:	00391513          	sll	a0,s2,0x3
   112cc:	00a98533          	add	a0,s3,a0
   112d0:	00053583          	ld	a1,0(a0)
   112d4:	000c0513          	mv	a0,s8
   112d8:	909ff0ef          	jal	10be0 <strcpy@plt>
   112dc:	cb1ff06f          	j	10f8c <main+0x1f0>
   112e0:	0019091b          	addw	s2,s2,1
   112e4:	00391513          	sll	a0,s2,0x3
   112e8:	00a98533          	add	a0,s3,a0
   112ec:	00053503          	ld	a0,0(a0)
   112f0:	00a00613          	li	a2,10
   112f4:	00000593          	li	a1,0
   112f8:	899ff0ef          	jal	10b90 <strtol@plt>
   112fc:	0f013583          	ld	a1,240(sp)
   11300:	00a5ac23          	sw	a0,24(a1)
   11304:	c89ff06f          	j	10f8c <main+0x1f0>
   11308:	00000b93          	li	s7,0
   1130c:	08013423          	sd	zero,136(sp)
   11310:	08013023          	sd	zero,128(sp)
   11314:	0e013423          	sd	zero,232(sp)
   11318:	04013023          	sd	zero,64(sp)
   1131c:	00300a93          	li	s5,3
   11320:	f0050453          	fmv.w.x	fs0,a0
   11324:	00a00d13          	li	s10,10
   11328:	0f013b03          	ld	s6,240(sp)
   1132c:	5f01b683          	ld	a3,1520(gp) # 2fdf8 <stdout@GLIBC_2.27>
   11330:	0002a537          	lui	a0,0x2a
   11334:	cc750513          	add	a0,a0,-825 # 29cc7 <_IO_stdin_used+0x25f>
   11338:	02000593          	li	a1,32
   1133c:	00100613          	li	a2,1
   11340:	821ff0ef          	jal	10b60 <fwrite@plt>
   11344:	05800513          	li	a0,88
   11348:	09000593          	li	a1,144
   1134c:	0b000613          	li	a2,176
   11350:	58c1aa23          	sw	a2,1428(gp) # 2fd9c <pels>
   11354:	07013603          	ld	a2,112(sp)
   11358:	00064603          	lbu	a2,0(a2)
   1135c:	58b1ac23          	sw	a1,1432(gp) # 2fda0 <lines>
   11360:	58a1ae23          	sw	a0,1436(gp) # 2fda4 <cpels>
   11364:	00061463          	bnez	a2,1136c <main+0x5d0>
   11368:	7210006f          	j	12288 <main+0x14ec>
   1136c:	017b2623          	sw	s7,12(s6)
   11370:	0c013503          	ld	a0,192(sp)
   11374:	d00574d3          	fcvt.s.w	fs1,a0
   11378:	18947953          	fdiv.s	fs2,fs0,fs1
   1137c:	c0091453          	fcvt.w.s	s0,fs2,rtz
   11380:	008b2823          	sw	s0,16(s6)
   11384:	555170ef          	jal	290d8 <InitializeRateControl>
   11388:	000d051b          	sext.w	a0,s10
   1138c:	000c849b          	sext.w	s1,s9
   11390:	00050463          	beqz	a0,11398 <main+0x5fc>
   11394:	02049a63          	bnez	s1,113c8 <main+0x62c>
   11398:	5e81b683          	ld	a3,1512(gp) # 2fdf0 <stderr@GLIBC_2.27>
   1139c:	0002a537          	lui	a0,0x2a
   113a0:	d9650513          	add	a0,a0,-618 # 29d96 <_IO_stdin_used+0x32e>
   113a4:	00800593          	li	a1,8
   113a8:	00100613          	li	a2,1
   113ac:	fb4ff0ef          	jal	10b60 <fwrite@plt>
   113b0:	5e81b683          	ld	a3,1512(gp) # 2fdf0 <stderr@GLIBC_2.27>
   113b4:	0002a537          	lui	a0,0x2a
   113b8:	d9f50513          	add	a0,a0,-609 # 29d9f <_IO_stdin_used+0x337>
   113bc:	03600593          	li	a1,54
   113c0:	00100613          	li	a2,1
   113c4:	f9cff0ef          	jal	10b60 <fwrite@plt>
   113c8:	41c80537          	lui	a0,0x41c80
   113cc:	f00507d3          	fmv.w.x	fa5,a0
   113d0:	a0f42553          	feq.s	a0,fs0,fa5
   113d4:	02051663          	bnez	a0,11400 <main+0x664>
   113d8:	41f00537          	lui	a0,0x41f00
   113dc:	f00507d3          	fmv.w.x	fa5,a0
   113e0:	a0f42553          	feq.s	a0,fs0,fa5
   113e4:	00051e63          	bnez	a0,11400 <main+0x664>
   113e8:	5e81b683          	ld	a3,1512(gp) # 2fdf0 <stderr@GLIBC_2.27>
   113ec:	0002a537          	lui	a0,0x2a
   113f0:	dd650513          	add	a0,a0,-554 # 29dd6 <_IO_stdin_used+0x36e>
   113f4:	03500593          	li	a1,53
   113f8:	00100613          	li	a2,1
   113fc:	f64ff0ef          	jal	10b60 <fwrite@plt>
   11400:	00cb2503          	lw	a0,12(s6)
   11404:	420409d3          	fcvt.d.s	fs3,fs0
   11408:	08051a63          	bnez	a0,1149c <main+0x700>
   1140c:	0c013503          	ld	a0,192(sp)
   11410:	03550533          	mul	a0,a0,s5
   11414:	d00577d3          	fcvt.s.w	fa5,a0
   11418:	5f01b503          	ld	a0,1520(gp) # 2fdf8 <stdout@GLIBC_2.27>
   1141c:	18f477d3          	fdiv.s	fa5,fs0,fa5
   11420:	420787d3          	fcvt.d.s	fa5,fa5
   11424:	e2078653          	fmv.x.d	a2,fa5
   11428:	0002a5b7          	lui	a1,0x2a
   1142c:	e0c58593          	add	a1,a1,-500 # 29e0c <_IO_stdin_used+0x3a4>
   11430:	f20ff0ef          	jal	10b50 <fprintf@plt>
   11434:	0800006f          	j	114b4 <main+0x718>
   11438:	0f013b03          	ld	s6,240(sp)
   1143c:	018b2503          	lw	a0,24(s6)
   11440:	fff50513          	add	a0,a0,-1
   11444:	00400593          	li	a1,4
   11448:	00a5f463          	bgeu	a1,a0,11450 <main+0x6b4>
   1144c:	7110006f          	j	1235c <main+0x15c0>
   11450:	00251513          	sll	a0,a0,0x2
   11454:	0002a5b7          	lui	a1,0x2a
   11458:	b4858593          	add	a1,a1,-1208 # 29b48 <_IO_stdin_used+0xe0>
   1145c:	00b50533          	add	a0,a0,a1
   11460:	00052503          	lw	a0,0(a0)
   11464:	02013d83          	ld	s11,32(sp)
   11468:	03013b83          	ld	s7,48(sp)
   1146c:	00048a93          	mv	s5,s1
   11470:	00050067          	jr	a0
   11474:	5f01b683          	ld	a3,1520(gp) # 2fdf8 <stdout@GLIBC_2.27>
   11478:	0002a537          	lui	a0,0x2a
   1147c:	ca650513          	add	a0,a0,-858 # 29ca6 <_IO_stdin_used+0x23e>
   11480:	02000593          	li	a1,32
   11484:	00100613          	li	a2,1
   11488:	ed8ff0ef          	jal	10b60 <fwrite@plt>
   1148c:	04000513          	li	a0,64
   11490:	06000593          	li	a1,96
   11494:	08000613          	li	a2,128
   11498:	eb9ff06f          	j	11350 <main+0x5b4>
   1149c:	5f01b683          	ld	a3,1520(gp) # 2fdf8 <stdout@GLIBC_2.27>
   114a0:	0002a537          	lui	a0,0x2a
   114a4:	e2950513          	add	a0,a0,-471 # 29e29 <_IO_stdin_used+0x3c1>
   114a8:	02000593          	li	a1,32
   114ac:	00100613          	li	a2,1
   114b0:	eb0ff0ef          	jal	10b60 <fwrite@plt>
   114b4:	5f01b503          	ld	a0,1520(gp) # 2fdf8 <stdout@GLIBC_2.27>
   114b8:	e2098653          	fmv.x.d	a2,fs3
   114bc:	0002a5b7          	lui	a1,0x2a
   114c0:	e4a58593          	add	a1,a1,-438 # 29e4a <_IO_stdin_used+0x3e2>
   114c4:	e8cff0ef          	jal	10b50 <fprintf@plt>
   114c8:	5f01b503          	ld	a0,1520(gp) # 2fdf8 <stdout@GLIBC_2.27>
   114cc:	420907d3          	fcvt.d.s	fa5,fs2
   114d0:	e2078653          	fmv.x.d	a2,fa5
   114d4:	0002a5b7          	lui	a1,0x2a
   114d8:	e6758593          	add	a1,a1,-409 # 29e67 <_IO_stdin_used+0x3ff>
   114dc:	e74ff0ef          	jal	10b50 <fprintf@plt>
   114e0:	0002a5b7          	lui	a1,0x2a
   114e4:	e8558593          	add	a1,a1,-379 # 29e85 <_IO_stdin_used+0x41d>
   114e8:	03813903          	ld	s2,56(sp)
   114ec:	00090513          	mv	a0,s2
   114f0:	fa0ff0ef          	jal	10c90 <fopen@plt>
   114f4:	5aa1b023          	sd	a0,1440(gp) # 2fda8 <streamfile>
   114f8:	00091463          	bnez	s2,11500 <main+0x764>
   114fc:	5b10006f          	j	122ac <main+0x1510>
   11500:	1f5170ef          	jal	28ef4 <initbits>
   11504:	5901a503          	lw	a0,1424(gp) # 2fd98 <trace>
   11508:	02050c63          	beqz	a0,11540 <main+0x7a4>
   1150c:	0002a5b7          	lui	a1,0x2a
   11510:	ea358593          	add	a1,a1,-349 # 29ea3 <_IO_stdin_used+0x43b>
   11514:	00c00613          	li	a2,12
   11518:	02813903          	ld	s2,40(sp)
   1151c:	00090513          	mv	a0,s2
   11520:	eb0ff0ef          	jal	10bd0 <memcpy@plt>
   11524:	0002a5b7          	lui	a1,0x2a
   11528:	b6558593          	add	a1,a1,-1179 # 29b65 <_IO_stdin_used+0xfd>
   1152c:	00090513          	mv	a0,s2
   11530:	f60ff0ef          	jal	10c90 <fopen@plt>
   11534:	5aa1b423          	sd	a0,1448(gp) # 2fdb0 <tf>
   11538:	00051463          	bnez	a0,11540 <main+0x7a4>
   1153c:	5ad0006f          	j	122e8 <main+0x154c>
   11540:	0002a5b7          	lui	a1,0x2a
   11544:	e8558593          	add	a1,a1,-379 # 29e85 <_IO_stdin_used+0x41d>
   11548:	000c0513          	mv	a0,s8
   1154c:	f44ff0ef          	jal	10c90 <fopen@plt>
   11550:	00051463          	bnez	a0,11558 <main+0x7bc>
   11554:	5790006f          	j	122cc <main+0x1530>
   11558:	f28ff0ef          	jal	10c80 <fclose@plt>
   1155c:	08013503          	ld	a0,128(sp)
   11560:	02050263          	beqz	a0,11584 <main+0x7e8>
   11564:	0002a537          	lui	a0,0x2a
   11568:	b5c50513          	add	a0,a0,-1188 # 29b5c <_IO_stdin_used+0xf4>
   1156c:	0002a5b7          	lui	a1,0x2a
   11570:	e8558593          	add	a1,a1,-379 # 29e85 <_IO_stdin_used+0x41d>
   11574:	f1cff0ef          	jal	10c90 <fopen@plt>
   11578:	00051463          	bnez	a0,11580 <main+0x7e4>
   1157c:	58d0006f          	j	12308 <main+0x156c>
   11580:	f00ff0ef          	jal	10c80 <fclose@plt>
   11584:	5781a603          	lw	a2,1400(gp) # 2fd80 <headerlength>
   11588:	04012583          	lw	a1,64(sp)
   1158c:	07013503          	ld	a0,112(sp)
   11590:	305010ef          	jal	13094 <ReadImage>
   11594:	5e81b683          	ld	a3,1512(gp) # 2fdf0 <stderr@GLIBC_2.27>
   11598:	00050913          	mv	s2,a0
   1159c:	0002a537          	lui	a0,0x2a
   115a0:	f0c50513          	add	a0,a0,-244 # 29f0c <_IO_stdin_used+0x4a4>
   115a4:	00a00593          	li	a1,10
   115a8:	00100613          	li	a2,1
   115ac:	db4ff0ef          	jal	10b60 <fwrite@plt>
   115b0:	00090513          	mv	a0,s2
   115b4:	44d010ef          	jal	13200 <FillImage>
   115b8:	000b2e23          	sw	zero,28(s6)
   115bc:	039b2623          	sw	s9,44(s6)
   115c0:	00050a13          	mv	s4,a0
   115c4:	00048593          	mv	a1,s1
   115c8:	0e013903          	ld	s2,224(sp)
   115cc:	00090613          	mv	a2,s2
   115d0:	000b0693          	mv	a3,s6
   115d4:	204070ef          	jal	187d8 <CodeOneIntra>
   115d8:	5b41a583          	lw	a1,1460(gp) # 2fdbc <arith_used>
   115dc:	00050493          	mv	s1,a0
   115e0:	00058c63          	beqz	a1,115f8 <main+0x85c>
   115e4:	0b8180ef          	jal	2969c <encoder_flush>
   115e8:	02092583          	lw	a1,32(s2)
   115ec:	00a58533          	add	a0,a1,a0
   115f0:	02a92023          	sw	a0,32(s2)
   115f4:	5a01aa23          	sw	zero,1460(gp) # 2fdbc <arith_used>
   115f8:	289170ef          	jal	29080 <alignbits>
   115fc:	02092583          	lw	a1,32(s2)
   11600:	5f01b683          	ld	a3,1520(gp) # 2fdf8 <stdout@GLIBC_2.27>
   11604:	00a58533          	add	a0,a1,a0
   11608:	02a92023          	sw	a0,32(s2)
   1160c:	0002a537          	lui	a0,0x2a
   11610:	f1750513          	add	a0,a0,-233 # 29f17 <_IO_stdin_used+0x4af>
   11614:	00f00593          	li	a1,15
   11618:	00100613          	li	a2,1
   1161c:	d44ff0ef          	jal	10b60 <fwrite@plt>
   11620:	000a0513          	mv	a0,s4
   11624:	00048593          	mv	a1,s1
   11628:	07813983          	ld	s3,120(sp)
   1162c:	00098613          	mv	a2,s3
   11630:	08013683          	ld	a3,128(sp)
   11634:	011140ef          	jal	25e44 <ComputeSNR>
   11638:	00090513          	mv	a0,s2
   1163c:	460170ef          	jal	28a9c <AddBitsPicture>
   11640:	0009a787          	flw	fa5,0(s3)
   11644:	5f01b503          	ld	a0,1520(gp) # 2fdf8 <stdout@GLIBC_2.27>
   11648:	420787d3          	fcvt.d.s	fa5,fa5
   1164c:	e2078653          	fmv.x.d	a2,fa5
   11650:	0002b5b7          	lui	a1,0x2b
   11654:	8cf58593          	add	a1,a1,-1841 # 2a8cf <_IO_stdin_used+0xe67>
   11658:	cf8ff0ef          	jal	10b50 <fprintf@plt>
   1165c:	0089a787          	flw	fa5,8(s3)
   11660:	5f01b503          	ld	a0,1520(gp) # 2fdf8 <stdout@GLIBC_2.27>
   11664:	420787d3          	fcvt.d.s	fa5,fa5
   11668:	e2078653          	fmv.x.d	a2,fa5
   1166c:	0002b5b7          	lui	a1,0x2b
   11670:	8de58593          	add	a1,a1,-1826 # 2a8de <_IO_stdin_used+0xe76>
   11674:	cdcff0ef          	jal	10b50 <fprintf@plt>
   11678:	0049a787          	flw	fa5,4(s3)
   1167c:	5f01b503          	ld	a0,1520(gp) # 2fdf8 <stdout@GLIBC_2.27>
   11680:	420787d3          	fcvt.d.s	fa5,fa5
   11684:	e2078653          	fmv.x.d	a2,fa5
   11688:	0002b5b7          	lui	a1,0x2b
   1168c:	8ed58593          	add	a1,a1,-1811 # 2a8ed <_IO_stdin_used+0xe85>
   11690:	cc0ff0ef          	jal	10b50 <fprintf@plt>
   11694:	5f01b683          	ld	a3,1520(gp) # 2fdf8 <stdout@GLIBC_2.27>
   11698:	0002a537          	lui	a0,0x2a
   1169c:	05150513          	add	a0,a0,81 # 2a051 <_IO_stdin_used+0x5e9>
   116a0:	00f00593          	li	a1,15
   116a4:	00100613          	li	a2,1
   116a8:	cb8ff0ef          	jal	10b60 <fwrite@plt>
   116ac:	00100593          	li	a1,1
   116b0:	00100613          	li	a2,1
   116b4:	00090513          	mv	a0,s2
   116b8:	56d000ef          	jal	12424 <PrintResult>
   116bc:	03800613          	li	a2,56
   116c0:	000d8513          	mv	a0,s11
   116c4:	00090593          	mv	a1,s2
   116c8:	d08ff0ef          	jal	10bd0 <memcpy@plt>
   116cc:	06013503          	ld	a0,96(sp)
   116d0:	284170ef          	jal	28954 <ZeroBits>
   116d4:	05813503          	ld	a0,88(sp)
   116d8:	288170ef          	jal	28960 <ZeroRes>
   116dc:	04813503          	ld	a0,72(sp)
   116e0:	280170ef          	jal	28960 <ZeroRes>
   116e4:	5901a503          	lw	a0,1424(gp) # 2fd98 <trace>
   116e8:	06050a63          	beqz	a0,1175c <main+0x9c0>
   116ec:	02813903          	ld	s2,40(sp)
   116f0:	000902a3          	sb	zero,5(s2)
   116f4:	06500513          	li	a0,101
   116f8:	00a90223          	sb	a0,4(s2)
   116fc:	06300513          	li	a0,99
   11700:	00a901a3          	sb	a0,3(s2)
   11704:	06100513          	li	a0,97
   11708:	00a90123          	sb	a0,2(s2)
   1170c:	07200593          	li	a1,114
   11710:	5a81b503          	ld	a0,1448(gp) # 2fdb0 <tf>
   11714:	00b900a3          	sb	a1,1(s2)
   11718:	07400593          	li	a1,116
   1171c:	00b90023          	sb	a1,0(s2)
   11720:	d60ff0ef          	jal	10c80 <fclose@plt>
   11724:	0002a5b7          	lui	a1,0x2a
   11728:	b6558593          	add	a1,a1,-1179 # 29b65 <_IO_stdin_used+0xfd>
   1172c:	00090513          	mv	a0,s2
   11730:	d60ff0ef          	jal	10c90 <fopen@plt>
   11734:	5aa1b423          	sd	a0,1448(gp) # 2fdb0 <tf>
   11738:	02051263          	bnez	a0,1175c <main+0x9c0>
   1173c:	5e81b683          	ld	a3,1512(gp) # 2fdf0 <stderr@GLIBC_2.27>
   11740:	0002a537          	lui	a0,0x2a
   11744:	f2d50513          	add	a0,a0,-211 # 29f2d <_IO_stdin_used+0x4c5>
   11748:	02500593          	li	a1,37
   1174c:	00100613          	li	a2,1
   11750:	c10ff0ef          	jal	10b60 <fwrite@plt>
   11754:	fff00513          	li	a0,-1
   11758:	ce8ff0ef          	jal	10c40 <exit@plt>
   1175c:	3f800537          	lui	a0,0x3f800
   11760:	d00477d3          	fcvt.s.w	fa5,s0
   11764:	00cb2583          	lw	a1,12(s6)
   11768:	f0050753          	fmv.w.x	fa4,a0
   1176c:	18f77953          	fdiv.s	fs2,fa4,fa5
   11770:	028da603          	lw	a2,40(s11)
   11774:	d005f7d3          	fcvt.s.w	fa5,a1
   11778:	10f977d3          	fmul.s	fa5,fs2,fa5
   1177c:	c0079553          	fcvt.w.s	a0,fa5,rtz
   11780:	40a609bb          	subw	s3,a2,a0
   11784:	00059663          	bnez	a1,11790 <main+0x9f4>
   11788:	000a8913          	mv	s2,s5
   1178c:	0180006f          	j	117a4 <main+0xa08>
   11790:	00100913          	li	s2,1
   11794:	02a9c863          	blt	s3,a0,117c4 <main+0xa28>
   11798:	40a989bb          	subw	s3,s3,a0
   1179c:	0019091b          	addw	s2,s2,1
   117a0:	fea9dce3          	bge	s3,a0,11798 <main+0x9fc>
   117a4:	10100513          	li	a0,257
   117a8:	00a94e63          	blt	s2,a0,117c4 <main+0xa28>
   117ac:	5e81b683          	ld	a3,1512(gp) # 2fdf0 <stderr@GLIBC_2.27>
   117b0:	0002a537          	lui	a0,0x2a
   117b4:	f5350513          	add	a0,a0,-173 # 29f53 <_IO_stdin_used+0x4eb>
   117b8:	01900593          	li	a1,25
   117bc:	00100613          	li	a2,1
   117c0:	ba0ff0ef          	jal	10b60 <fwrite@plt>
   117c4:	58c1a503          	lw	a0,1420(gp) # 2fd94 <pb_frames>
   117c8:	00100593          	li	a1,1
   117cc:	00bb2e23          	sw	a1,28(s6)
   117d0:	03ab2623          	sw	s10,44(s6)
   117d4:	00051c63          	bnez	a0,117ec <main+0xa50>
   117d8:	0c013823          	sd	zero,208(sp)
   117dc:	000a8413          	mv	s0,s5
   117e0:	08813503          	ld	a0,136(sp)
   117e4:	00050e63          	beqz	a0,11800 <main+0xa64>
   117e8:	01c0006f          	j	11804 <main+0xa68>
   117ec:	020b2423          	sw	zero,40(s6)
   117f0:	0d513823          	sd	s5,208(sp)
   117f4:	000a8413          	mv	s0,s5
   117f8:	08813503          	ld	a0,136(sp)
   117fc:	00051463          	bnez	a0,11804 <main+0xa68>
   11800:	00100413          	li	s0,1
   11804:	01513823          	sd	s5,16(sp)
   11808:	00805c63          	blez	s0,11820 <main+0xa84>
   1180c:	00048513          	mv	a0,s1
   11810:	000c0593          	mv	a1,s8
   11814:	381010ef          	jal	13394 <WriteImage>
   11818:	fff4041b          	addw	s0,s0,-1
   1181c:	fe0418e3          	bnez	s0,1180c <main+0xa70>
   11820:	04013503          	ld	a0,64(sp)
   11824:	00a90abb          	addw	s5,s2,a0
   11828:	0e812503          	lw	a0,232(sp)
   1182c:	03713823          	sd	s7,48(sp)
   11830:	000b8b9b          	sext.w	s7,s7
   11834:	05713823          	sd	s7,80(sp)
   11838:	06a13423          	sd	a0,104(sp)
   1183c:	01213c23          	sd	s2,24(sp)
   11840:	23555263          	bge	a0,s5,11a64 <main+0xcc8>
   11844:	0a013023          	sd	zero,160(sp)
   11848:	0a013423          	sd	zero,168(sp)
   1184c:	0a013823          	sd	zero,176(sp)
   11850:	000a0913          	mv	s2,s4
   11854:	0f213823          	sd	s2,240(sp)
   11858:	5a01b503          	ld	a0,1440(gp) # 2fda8 <streamfile>
   1185c:	c24ff0ef          	jal	10c80 <fclose@plt>
   11860:	5901a503          	lw	a0,1424(gp) # 2fd98 <trace>
   11864:	00050663          	beqz	a0,11870 <main+0xad4>
   11868:	5a81b503          	ld	a0,1448(gp) # 2fdb0 <tf>
   1186c:	c14ff0ef          	jal	10c80 <fclose@plt>
   11870:	5f01b683          	ld	a3,1520(gp) # 2fdf8 <stdout@GLIBC_2.27>
   11874:	0002a537          	lui	a0,0x2a
   11878:	00250513          	add	a0,a0,2 # 2a002 <_IO_stdin_used+0x59a>
   1187c:	01100593          	li	a1,17
   11880:	00100613          	li	a2,1
   11884:	adcff0ef          	jal	10b60 <fwrite@plt>
   11888:	5f01b503          	ld	a0,1520(gp) # 2fdf8 <stdout@GLIBC_2.27>
   1188c:	0002a5b7          	lui	a1,0x2a
   11890:	01458593          	add	a1,a1,20 # 2a014 <_IO_stdin_used+0x5ac>
   11894:	0b013d83          	ld	s11,176(sp)
   11898:	000d8613          	mv	a2,s11
   1189c:	07013683          	ld	a3,112(sp)
   118a0:	ab0ff0ef          	jal	10b50 <fprintf@plt>
   118a4:	0e013b83          	ld	s7,224(sp)
   118a8:	02013a03          	ld	s4,32(sp)
   118ac:	01813583          	ld	a1,24(sp)
   118b0:	0a0d84e3          	beqz	s11,12158 <main+0x13bc>
   118b4:	04013503          	ld	a0,64(sp)
   118b8:	40aa843b          	subw	s0,s5,a0
   118bc:	40b40d3b          	subw	s10,s0,a1
   118c0:	08813503          	ld	a0,136(sp)
   118c4:	00050e63          	beqz	a0,118e0 <main+0xb44>
   118c8:	5f01b503          	ld	a0,1520(gp) # 2fdf8 <stdout@GLIBC_2.27>
   118cc:	0002a5b7          	lui	a1,0x2a
   118d0:	02958593          	add	a1,a1,41 # 2a029 <_IO_stdin_used+0x5c1>
   118d4:	000d0613          	mv	a2,s10
   118d8:	01013683          	ld	a3,16(sp)
   118dc:	a74ff0ef          	jal	10b50 <fprintf@plt>
   118e0:	5f01b683          	ld	a3,1520(gp) # 2fdf8 <stdout@GLIBC_2.27>
   118e4:	0002a537          	lui	a0,0x2a
   118e8:	05150513          	add	a0,a0,81 # 2a051 <_IO_stdin_used+0x5e9>
   118ec:	00f00593          	li	a1,15
   118f0:	00100613          	li	a2,1
   118f4:	a6cff0ef          	jal	10b60 <fwrite@plt>
   118f8:	58c1a503          	lw	a0,1420(gp) # 2fd94 <pb_frames>
   118fc:	0a050463          	beqz	a0,119a4 <main+0xc08>
   11900:	0a813503          	ld	a0,168(sp)
   11904:	0a050063          	beqz	a0,119a4 <main+0xc08>
   11908:	5f01b503          	ld	a0,1520(gp) # 2fdf8 <stdout@GLIBC_2.27>
   1190c:	0002a5b7          	lui	a1,0x2a
   11910:	06158593          	add	a1,a1,97 # 2a061 <_IO_stdin_used+0x5f9>
   11914:	0a813903          	ld	s2,168(sp)
   11918:	00090613          	mv	a2,s2
   1191c:	a34ff0ef          	jal	10b50 <fprintf@plt>
   11920:	04813a83          	ld	s5,72(sp)
   11924:	000aa787          	flw	fa5,0(s5)
   11928:	5f01b503          	ld	a0,1520(gp) # 2fdf8 <stdout@GLIBC_2.27>
   1192c:	d0197953          	fcvt.s.wu	fs2,s2
   11930:	1927f7d3          	fdiv.s	fa5,fa5,fs2
   11934:	420787d3          	fcvt.d.s	fa5,fa5
   11938:	e2078653          	fmv.x.d	a2,fa5
   1193c:	0002b5b7          	lui	a1,0x2b
   11940:	8cf58593          	add	a1,a1,-1841 # 2a8cf <_IO_stdin_used+0xe67>
   11944:	a0cff0ef          	jal	10b50 <fprintf@plt>
   11948:	008aa787          	flw	fa5,8(s5)
   1194c:	5f01b503          	ld	a0,1520(gp) # 2fdf8 <stdout@GLIBC_2.27>
   11950:	1927f7d3          	fdiv.s	fa5,fa5,fs2
   11954:	420787d3          	fcvt.d.s	fa5,fa5
   11958:	e2078653          	fmv.x.d	a2,fa5
   1195c:	0002b5b7          	lui	a1,0x2b
   11960:	8de58593          	add	a1,a1,-1826 # 2a8de <_IO_stdin_used+0xe76>
   11964:	9ecff0ef          	jal	10b50 <fprintf@plt>
   11968:	004aa787          	flw	fa5,4(s5)
   1196c:	5f01b503          	ld	a0,1520(gp) # 2fdf8 <stdout@GLIBC_2.27>
   11970:	1927f7d3          	fdiv.s	fa5,fa5,fs2
   11974:	420787d3          	fcvt.d.s	fa5,fa5
   11978:	e2078653          	fmv.x.d	a2,fa5
   1197c:	0002b5b7          	lui	a1,0x2b
   11980:	8ed58593          	add	a1,a1,-1811 # 2a8ed <_IO_stdin_used+0xe85>
   11984:	9ccff0ef          	jal	10b50 <fprintf@plt>
   11988:	5f01b683          	ld	a3,1520(gp) # 2fdf8 <stdout@GLIBC_2.27>
   1198c:	02013a03          	ld	s4,32(sp)
   11990:	0002a537          	lui	a0,0x2a
   11994:	05150513          	add	a0,a0,81 # 2a051 <_IO_stdin_used+0x5e9>
   11998:	00f00593          	li	a1,15
   1199c:	00100613          	li	a2,1
   119a0:	9c0ff0ef          	jal	10b60 <fwrite@plt>
   119a4:	5f01b503          	ld	a0,1520(gp) # 2fdf8 <stdout@GLIBC_2.27>
   119a8:	0002a5b7          	lui	a1,0x2a
   119ac:	07758593          	add	a1,a1,119 # 2a077 <_IO_stdin_used+0x60f>
   119b0:	0a013a83          	ld	s5,160(sp)
   119b4:	000a8613          	mv	a2,s5
   119b8:	998ff0ef          	jal	10b50 <fprintf@plt>
   119bc:	05813903          	ld	s2,88(sp)
   119c0:	00092787          	flw	fa5,0(s2)
   119c4:	5f01b503          	ld	a0,1520(gp) # 2fdf8 <stdout@GLIBC_2.27>
   119c8:	d01af953          	fcvt.s.wu	fs2,s5
   119cc:	1927f7d3          	fdiv.s	fa5,fa5,fs2
   119d0:	420787d3          	fcvt.d.s	fa5,fa5
   119d4:	e2078653          	fmv.x.d	a2,fa5
   119d8:	0002b5b7          	lui	a1,0x2b
   119dc:	8cf58593          	add	a1,a1,-1841 # 2a8cf <_IO_stdin_used+0xe67>
   119e0:	970ff0ef          	jal	10b50 <fprintf@plt>
   119e4:	00892787          	flw	fa5,8(s2)
   119e8:	5f01b503          	ld	a0,1520(gp) # 2fdf8 <stdout@GLIBC_2.27>
   119ec:	1927f7d3          	fdiv.s	fa5,fa5,fs2
   119f0:	420787d3          	fcvt.d.s	fa5,fa5
   119f4:	e2078653          	fmv.x.d	a2,fa5
   119f8:	0002b5b7          	lui	a1,0x2b
   119fc:	8de58593          	add	a1,a1,-1826 # 2a8de <_IO_stdin_used+0xe76>
   11a00:	950ff0ef          	jal	10b50 <fprintf@plt>
   11a04:	00492787          	flw	fa5,4(s2)
   11a08:	5f01b503          	ld	a0,1520(gp) # 2fdf8 <stdout@GLIBC_2.27>
   11a0c:	1927f7d3          	fdiv.s	fa5,fa5,fs2
   11a10:	420787d3          	fcvt.d.s	fa5,fa5
   11a14:	e2078653          	fmv.x.d	a2,fa5
   11a18:	0002b5b7          	lui	a1,0x2b
   11a1c:	8ed58593          	add	a1,a1,-1811 # 2a8ed <_IO_stdin_used+0xe85>
   11a20:	930ff0ef          	jal	10b50 <fprintf@plt>
   11a24:	5f01b683          	ld	a3,1520(gp) # 2fdf8 <stdout@GLIBC_2.27>
   11a28:	0002a537          	lui	a0,0x2a
   11a2c:	05150513          	add	a0,a0,81 # 2a051 <_IO_stdin_used+0x5e9>
   11a30:	00f00593          	li	a1,15
   11a34:	00100613          	li	a2,1
   11a38:	928ff0ef          	jal	10b60 <fwrite@plt>
   11a3c:	06013503          	ld	a0,96(sp)
   11a40:	000a8593          	mv	a1,s5
   11a44:	000d8613          	mv	a2,s11
   11a48:	1dd000ef          	jal	12424 <PrintResult>
   11a4c:	05013503          	ld	a0,80(sp)
   11a50:	5c051663          	bnez	a0,1201c <main+0x1280>
   11a54:	00cb2503          	lw	a0,12(s6)
   11a58:	5c051263          	bnez	a0,1201c <main+0x1280>
   11a5c:	d00d79d3          	fcvt.s.w	fs3,s10
   11a60:	5f40006f          	j	12054 <main+0x12b8>
   11a64:	00000d93          	li	s11,0
   11a68:	0c013423          	sd	zero,200(sp)
   11a6c:	00000593          	li	a1,0
   11a70:	0a013823          	sd	zero,176(sp)
   11a74:	0a013423          	sd	zero,168(sp)
   11a78:	0a013023          	sd	zero,160(sp)
   11a7c:	0f413423          	sd	s4,232(sp)
   11a80:	0c913c23          	sd	s1,216(sp)
   11a84:	00100c93          	li	s9,1
   11a88:	00090b93          	mv	s7,s2
   11a8c:	01013503          	ld	a0,16(sp)
   11a90:	0aa13c23          	sd	a0,184(sp)
   11a94:	1200006f          	j	11bb4 <main+0xe18>
   11a98:	01603533          	snez	a0,s6
   11a9c:	0b013583          	ld	a1,176(sp)
   11aa0:	00b505b3          	add	a1,a0,a1
   11aa4:	0015859b          	addw	a1,a1,1
   11aa8:	0ab13823          	sd	a1,176(sp)
   11aac:	0a813583          	ld	a1,168(sp)
   11ab0:	00a585bb          	addw	a1,a1,a0
   11ab4:	0ab13423          	sd	a1,168(sp)
   11ab8:	0a013503          	ld	a0,160(sp)
   11abc:	0015051b          	addw	a0,a0,1
   11ac0:	0aa13023          	sd	a0,160(sp)
   11ac4:	00090513          	mv	a0,s2
   11ac8:	00048593          	mv	a1,s1
   11acc:	07813b03          	ld	s6,120(sp)
   11ad0:	000b0613          	mv	a2,s6
   11ad4:	08013683          	ld	a3,128(sp)
   11ad8:	36c140ef          	jal	25e44 <ComputeSNR>
   11adc:	5f01b683          	ld	a3,1520(gp) # 2fdf8 <stdout@GLIBC_2.27>
   11ae0:	01500593          	li	a1,21
   11ae4:	00100613          	li	a2,1
   11ae8:	0002a537          	lui	a0,0x2a
   11aec:	fec50513          	add	a0,a0,-20 # 29fec <_IO_stdin_used+0x584>
   11af0:	870ff0ef          	jal	10b60 <fwrite@plt>
   11af4:	05813503          	ld	a0,88(sp)
   11af8:	000b0593          	mv	a1,s6
   11afc:	000d0613          	mv	a2,s10
   11b00:	759160ef          	jal	28a58 <AddRes>
   11b04:	000b2787          	flw	fa5,0(s6)
   11b08:	5f01b503          	ld	a0,1520(gp) # 2fdf8 <stdout@GLIBC_2.27>
   11b0c:	420787d3          	fcvt.d.s	fa5,fa5
   11b10:	e2078653          	fmv.x.d	a2,fa5
   11b14:	0002b5b7          	lui	a1,0x2b
   11b18:	8cf58593          	add	a1,a1,-1841 # 2a8cf <_IO_stdin_used+0xe67>
   11b1c:	834ff0ef          	jal	10b50 <fprintf@plt>
   11b20:	008b2787          	flw	fa5,8(s6)
   11b24:	5f01b503          	ld	a0,1520(gp) # 2fdf8 <stdout@GLIBC_2.27>
   11b28:	420787d3          	fcvt.d.s	fa5,fa5
   11b2c:	e2078653          	fmv.x.d	a2,fa5
   11b30:	0002b5b7          	lui	a1,0x2b
   11b34:	8de58593          	add	a1,a1,-1826 # 2a8de <_IO_stdin_used+0xe76>
   11b38:	818ff0ef          	jal	10b50 <fprintf@plt>
   11b3c:	004b2787          	flw	fa5,4(s6)
   11b40:	5f01b503          	ld	a0,1520(gp) # 2fdf8 <stdout@GLIBC_2.27>
   11b44:	420787d3          	fcvt.d.s	fa5,fa5
   11b48:	e2078653          	fmv.x.d	a2,fa5
   11b4c:	0002b5b7          	lui	a1,0x2b
   11b50:	8ed58593          	add	a1,a1,-1811 # 2a8ed <_IO_stdin_used+0xe85>
   11b54:	ffdfe0ef          	jal	10b50 <fprintf@plt>
   11b58:	5f01b683          	ld	a3,1520(gp) # 2fdf8 <stdout@GLIBC_2.27>
   11b5c:	00f00593          	li	a1,15
   11b60:	00100613          	li	a2,1
   11b64:	0002a537          	lui	a0,0x2a
   11b68:	05150513          	add	a0,a0,81 # 2a051 <_IO_stdin_used+0x5e9>
   11b6c:	ff5fe0ef          	jal	10b60 <fwrite@plt>
   11b70:	00100593          	li	a1,1
   11b74:	00100613          	li	a2,1
   11b78:	0e013503          	ld	a0,224(sp)
   11b7c:	0a9000ef          	jal	12424 <PrintResult>
   11b80:	0e813503          	ld	a0,232(sp)
   11b84:	165010ef          	jal	134e8 <FreeImage>
   11b88:	0d813503          	ld	a0,216(sp)
   11b8c:	15d010ef          	jal	134e8 <FreeImage>
   11b90:	5f01b503          	ld	a0,1520(gp) # 2fdf8 <stdout@GLIBC_2.27>
   11b94:	82cff0ef          	jal	10bc0 <fflush@plt>
   11b98:	015b8abb          	addw	s5,s7,s5
   11b9c:	0f213423          	sd	s2,232(sp)
   11ba0:	0c913c23          	sd	s1,216(sp)
   11ba4:	000d0b13          	mv	s6,s10
   11ba8:	06813503          	ld	a0,104(sp)
   11bac:	09013583          	ld	a1,144(sp)
   11bb0:	cb5542e3          	blt	a0,s5,11854 <main+0xab8>
   11bb4:	09913c23          	sd	s9,152(sp)
   11bb8:	02cb2d03          	lw	s10,44(s6)
   11bbc:	0c059463          	bnez	a1,11c84 <main+0xee8>
   11bc0:	028b2503          	lw	a0,40(s6)
   11bc4:	000a8593          	mv	a1,s5
   11bc8:	0d013c83          	ld	s9,208(sp)
   11bcc:	06050263          	beqz	a0,11c30 <main+0xe94>
   11bd0:	0c013503          	ld	a0,192(sp)
   11bd4:	02ab853b          	mulw	a0,s7,a0
   11bd8:	04ab2423          	sw	a0,72(s6)
   11bdc:	00900593          	li	a1,9
   11be0:	00b54e63          	blt	a0,a1,11bfc <main+0xe60>
   11be4:	5f01b683          	ld	a3,1520(gp) # 2fdf8 <stdout@GLIBC_2.27>
   11be8:	01f00593          	li	a1,31
   11bec:	00100613          	li	a2,1
   11bf0:	0002a537          	lui	a0,0x2a
   11bf4:	f6d50513          	add	a0,a0,-147 # 29f6d <_IO_stdin_used+0x505>
   11bf8:	f69fe0ef          	jal	10b60 <fwrite@plt>
   11bfc:	5781a603          	lw	a2,1400(gp) # 2fd80 <headerlength>
   11c00:	07013503          	ld	a0,112(sp)
   11c04:	000a8593          	mv	a1,s5
   11c08:	48c010ef          	jal	13094 <ReadImage>
   11c0c:	5f4010ef          	jal	13200 <FillImage>
   11c10:	015b85bb          	addw	a1,s7,s5
   11c14:	0ca13423          	sd	a0,200(sp)
   11c18:	06813503          	ld	a0,104(sp)
   11c1c:	00b55663          	bge	a0,a1,11c28 <main+0xe8c>
   11c20:	020b2423          	sw	zero,40(s6)
   11c24:	000a8593          	mv	a1,s5
   11c28:	0b713c23          	sd	s7,184(sp)
   11c2c:	000b8c93          	mv	s9,s7
   11c30:	5781a603          	lw	a2,1400(gp) # 2fd80 <headerlength>
   11c34:	07013503          	ld	a0,112(sp)
   11c38:	45c010ef          	jal	13094 <ReadImage>
   11c3c:	5c4010ef          	jal	13200 <FillImage>
   11c40:	028b2583          	lw	a1,40(s6)
   11c44:	00050913          	mv	s2,a0
   11c48:	08058263          	beqz	a1,11ccc <main+0xf30>
   11c4c:	048b2503          	lw	a0,72(s6)
   11c50:	00800593          	li	a1,8
   11c54:	04a5cc63          	blt	a1,a0,11cac <main+0xf10>
   11c58:	038b2783          	lw	a5,56(s6)
   11c5c:	00090513          	mv	a0,s2
   11c60:	0c813583          	ld	a1,200(sp)
   11c64:	0e813603          	ld	a2,232(sp)
   11c68:	0b813683          	ld	a3,184(sp)
   11c6c:	000c8713          	mv	a4,s9
   11c70:	17d000ef          	jal	125ec <NextTwoPB>
   11c74:	02050c63          	beqz	a0,11cac <main+0xf10>
   11c78:	08013823          	sd	zero,144(sp)
   11c7c:	015c8abb          	addw	s5,s9,s5
   11c80:	0500006f          	j	11cd0 <main+0xf34>
   11c84:	5781a603          	lw	a2,1400(gp) # 2fd80 <headerlength>
   11c88:	07013503          	ld	a0,112(sp)
   11c8c:	000a8593          	mv	a1,s5
   11c90:	404010ef          	jal	13094 <ReadImage>
   11c94:	56c010ef          	jal	13200 <FillImage>
   11c98:	00050913          	mv	s2,a0
   11c9c:	08013823          	sd	zero,144(sp)
   11ca0:	020b2423          	sw	zero,40(s6)
   11ca4:	0d013c83          	ld	s9,208(sp)
   11ca8:	0280006f          	j	11cd0 <main+0xf34>
   11cac:	020b2423          	sw	zero,40(s6)
   11cb0:	00090513          	mv	a0,s2
   11cb4:	035010ef          	jal	134e8 <FreeImage>
   11cb8:	00100513          	li	a0,1
   11cbc:	08a13823          	sd	a0,144(sp)
   11cc0:	0b813b83          	ld	s7,184(sp)
   11cc4:	0c813903          	ld	s2,200(sp)
   11cc8:	0080006f          	j	11cd0 <main+0xf34>
   11ccc:	08013823          	sd	zero,144(sp)
   11cd0:	000b0713          	mv	a4,s6
   11cd4:	028b2b03          	lw	s6,40(s6)
   11cd8:	001b3513          	seqz	a0,s6
   11cdc:	fff50513          	add	a0,a0,-1
   11ce0:	01957533          	and	a0,a0,s9
   11ce4:	0175053b          	addw	a0,a0,s7
   11ce8:	0c013583          	ld	a1,192(sp)
   11cec:	02b505b3          	mul	a1,a0,a1
   11cf0:	41f5d61b          	sraw	a2,a1,0x1f
   11cf4:	00872683          	lw	a3,8(a4)
   11cf8:	0186561b          	srlw	a2,a2,0x18
   11cfc:	00c58633          	add	a2,a1,a2
   11d00:	f0067613          	and	a2,a2,-256
   11d04:	00d585b3          	add	a1,a1,a3
   11d08:	40c585bb          	subw	a1,a1,a2
   11d0c:	00b72423          	sw	a1,8(a4)
   11d10:	10100593          	li	a1,257
   11d14:	02b54263          	blt	a0,a1,11d38 <main+0xf9c>
   11d18:	5f01b683          	ld	a3,1520(gp) # 2fdf8 <stdout@GLIBC_2.27>
   11d1c:	01900593          	li	a1,25
   11d20:	00100613          	li	a2,1
   11d24:	0002a537          	lui	a0,0x2a
   11d28:	f5350513          	add	a0,a0,-173 # 29f53 <_IO_stdin_used+0x4eb>
   11d2c:	e35fe0ef          	jal	10b60 <fwrite@plt>
   11d30:	0f013503          	ld	a0,240(sp)
   11d34:	02852b03          	lw	s6,40(a0)
   11d38:	020b0c63          	beqz	s6,11d70 <main+0xfd4>
   11d3c:	5941a503          	lw	a0,1428(gp) # 2fd9c <pels>
   11d40:	5981a583          	lw	a1,1432(gp) # 2fda0 <lines>
   11d44:	02a5853b          	mulw	a0,a1,a0
   11d48:	57c010ef          	jal	132c4 <InitImage>
   11d4c:	5f01b583          	ld	a1,1520(gp) # 2fdf8 <stdout@GLIBC_2.27>
   11d50:	00050d93          	mv	s11,a0
   11d54:	419a863b          	subw	a2,s5,s9
   11d58:	00058513          	mv	a0,a1
   11d5c:	0002a5b7          	lui	a1,0x2a
   11d60:	f8d58593          	add	a1,a1,-115 # 29f8d <_IO_stdin_used+0x525>
   11d64:	000a8693          	mv	a3,s5
   11d68:	de9fe0ef          	jal	10b50 <fprintf@plt>
   11d6c:	0180006f          	j	11d84 <main+0xfe8>
   11d70:	5f01b503          	ld	a0,1520(gp) # 2fdf8 <stdout@GLIBC_2.27>
   11d74:	0002a5b7          	lui	a1,0x2a
   11d78:	fac58593          	add	a1,a1,-84 # 29fac <_IO_stdin_used+0x544>
   11d7c:	000a8613          	mv	a2,s5
   11d80:	dd1fe0ef          	jal	10b50 <fprintf@plt>
   11d84:	5f01b503          	ld	a0,1520(gp) # 2fdf8 <stdout@GLIBC_2.27>
   11d88:	e39fe0ef          	jal	10bc0 <fflush@plt>
   11d8c:	5941a503          	lw	a0,1428(gp) # 2fd9c <pels>
   11d90:	5981a583          	lw	a1,1432(gp) # 2fda0 <lines>
   11d94:	02a5853b          	mulw	a0,a1,a0
   11d98:	52c010ef          	jal	132c4 <InitImage>
   11d9c:	00050493          	mv	s1,a0
   11da0:	0d913823          	sd	s9,208(sp)
   11da4:	0b813503          	ld	a0,184(sp)
   11da8:	00ac8533          	add	a0,s9,a0
   11dac:	0c013583          	ld	a1,192(sp)
   11db0:	02b507bb          	mulw	a5,a0,a1
   11db4:	00913423          	sd	s1,8(sp)
   11db8:	01b13023          	sd	s11,0(sp)
   11dbc:	00090513          	mv	a0,s2
   11dc0:	0c813583          	ld	a1,200(sp)
   11dc4:	0e813603          	ld	a2,232(sp)
   11dc8:	0d813683          	ld	a3,216(sp)
   11dcc:	000d0713          	mv	a4,s10
   11dd0:	0e013803          	ld	a6,224(sp)
   11dd4:	0f013883          	ld	a7,240(sp)
   11dd8:	219020ef          	jal	147f0 <CodeOneOrTwo>
   11ddc:	5f01b683          	ld	a3,1520(gp) # 2fdf8 <stdout@GLIBC_2.27>
   11de0:	00500593          	li	a1,5
   11de4:	00100613          	li	a2,1
   11de8:	0002a537          	lui	a0,0x2a
   11dec:	fc250513          	add	a0,a0,-62 # 29fc2 <_IO_stdin_used+0x55a>
   11df0:	d71fe0ef          	jal	10b60 <fwrite@plt>
   11df4:	05013503          	ld	a0,80(sp)
   11df8:	00050c63          	beqz	a0,11e10 <main+0x1074>
   11dfc:	5f01b503          	ld	a0,1520(gp) # 2fdf8 <stdout@GLIBC_2.27>
   11e00:	0002a5b7          	lui	a1,0x2a
   11e04:	fc858593          	add	a1,a1,-56 # 29fc8 <_IO_stdin_used+0x560>
   11e08:	000d0613          	mv	a2,s10
   11e0c:	d45fe0ef          	jal	10b50 <fprintf@plt>
   11e10:	5f01b503          	ld	a0,1520(gp) # 2fdf8 <stdout@GLIBC_2.27>
   11e14:	dadfe0ef          	jal	10bc0 <fflush@plt>
   11e18:	5b41a503          	lw	a0,1460(gp) # 2fdbc <arith_used>
   11e1c:	0e013d03          	ld	s10,224(sp)
   11e20:	09813c83          	ld	s9,152(sp)
   11e24:	00050c63          	beqz	a0,11e3c <main+0x10a0>
   11e28:	075170ef          	jal	2969c <encoder_flush>
   11e2c:	020d2583          	lw	a1,32(s10)
   11e30:	00a58533          	add	a0,a1,a0
   11e34:	02ad2023          	sw	a0,32(s10)
   11e38:	5a01aa23          	sw	zero,1460(gp) # 2fdbc <arith_used>
   11e3c:	244170ef          	jal	29080 <alignbits>
   11e40:	020d2583          	lw	a1,32(s10)
   11e44:	00a58533          	add	a0,a1,a0
   11e48:	02ad2023          	sw	a0,32(s10)
   11e4c:	000d0513          	mv	a0,s10
   11e50:	44d160ef          	jal	28a9c <AddBitsPicture>
   11e54:	06013503          	ld	a0,96(sp)
   11e58:	000d0593          	mv	a1,s10
   11e5c:	319160ef          	jal	28974 <AddBits>
   11e60:	0f013583          	ld	a1,240(sp)
   11e64:	00c5a503          	lw	a0,12(a1)
   11e68:	04050c63          	beqz	a0,11ec0 <main+0x1124>
   11e6c:	0285a583          	lw	a1,40(a1)
   11e70:	00058e63          	beqz	a1,11e8c <main+0x10f0>
   11e74:	d00577d3          	fcvt.s.w	fa5,a0
   11e78:	10f977d3          	fmul.s	fa5,fs2,fa5
   11e7c:	c0079553          	fcvt.w.s	a0,fa5,rtz
   11e80:	0d013583          	ld	a1,208(sp)
   11e84:	02a58533          	mul	a0,a1,a0
   11e88:	40a989bb          	subw	s3,s3,a0
   11e8c:	028d2503          	lw	a0,40(s10)
   11e90:	250170ef          	jal	290e0 <UpdateRateControl>
   11e94:	028d2503          	lw	a0,40(s10)
   11e98:	0f013583          	ld	a1,240(sp)
   11e9c:	00c5a583          	lw	a1,12(a1)
   11ea0:	00000b93          	li	s7,0
   11ea4:	013509b3          	add	s3,a0,s3
   11ea8:	d005f7d3          	fcvt.s.w	fa5,a1
   11eac:	10f977d3          	fmul.s	fa5,fs2,fa5
   11eb0:	c0079553          	fcvt.w.s	a0,fa5,rtz
   11eb4:	40a989bb          	subw	s3,s3,a0
   11eb8:	001b8b9b          	addw	s7,s7,1
   11ebc:	fea9dce3          	bge	s3,a0,11eb4 <main+0x1118>
   11ec0:	0f013503          	ld	a0,240(sp)
   11ec4:	02852503          	lw	a0,40(a0)
   11ec8:	0e050663          	beqz	a0,11fb4 <main+0x1218>
   11ecc:	08813503          	ld	a0,136(sp)
   11ed0:	00050463          	beqz	a0,11ed8 <main+0x113c>
   11ed4:	0d013c83          	ld	s9,208(sp)
   11ed8:	01905e63          	blez	s9,11ef4 <main+0x1158>
   11edc:	000c8d13          	mv	s10,s9
   11ee0:	000d8513          	mv	a0,s11
   11ee4:	000c0593          	mv	a1,s8
   11ee8:	4ac010ef          	jal	13394 <WriteImage>
   11eec:	fffd0d1b          	addw	s10,s10,-1
   11ef0:	fe0d18e3          	bnez	s10,11ee0 <main+0x1144>
   11ef4:	0c813a03          	ld	s4,200(sp)
   11ef8:	000a0513          	mv	a0,s4
   11efc:	000d8593          	mv	a1,s11
   11f00:	07813d03          	ld	s10,120(sp)
   11f04:	000d0613          	mv	a2,s10
   11f08:	08013683          	ld	a3,128(sp)
   11f0c:	739130ef          	jal	25e44 <ComputeSNR>
   11f10:	5f01b683          	ld	a3,1520(gp) # 2fdf8 <stdout@GLIBC_2.27>
   11f14:	01500593          	li	a1,21
   11f18:	00100613          	li	a2,1
   11f1c:	0002a537          	lui	a0,0x2a
   11f20:	fd650513          	add	a0,a0,-42 # 29fd6 <_IO_stdin_used+0x56e>
   11f24:	c3dfe0ef          	jal	10b60 <fwrite@plt>
   11f28:	04813503          	ld	a0,72(sp)
   11f2c:	000d0593          	mv	a1,s10
   11f30:	0f013603          	ld	a2,240(sp)
   11f34:	325160ef          	jal	28a58 <AddRes>
   11f38:	000d2787          	flw	fa5,0(s10)
   11f3c:	5f01b503          	ld	a0,1520(gp) # 2fdf8 <stdout@GLIBC_2.27>
   11f40:	420787d3          	fcvt.d.s	fa5,fa5
   11f44:	e2078653          	fmv.x.d	a2,fa5
   11f48:	0002b5b7          	lui	a1,0x2b
   11f4c:	8cf58593          	add	a1,a1,-1841 # 2a8cf <_IO_stdin_used+0xe67>
   11f50:	c01fe0ef          	jal	10b50 <fprintf@plt>
   11f54:	008d2787          	flw	fa5,8(s10)
   11f58:	5f01b503          	ld	a0,1520(gp) # 2fdf8 <stdout@GLIBC_2.27>
   11f5c:	420787d3          	fcvt.d.s	fa5,fa5
   11f60:	e2078653          	fmv.x.d	a2,fa5
   11f64:	0002b5b7          	lui	a1,0x2b
   11f68:	8de58593          	add	a1,a1,-1826 # 2a8de <_IO_stdin_used+0xe76>
   11f6c:	be5fe0ef          	jal	10b50 <fprintf@plt>
   11f70:	004d2787          	flw	fa5,4(s10)
   11f74:	5f01b503          	ld	a0,1520(gp) # 2fdf8 <stdout@GLIBC_2.27>
   11f78:	420787d3          	fcvt.d.s	fa5,fa5
   11f7c:	e2078653          	fmv.x.d	a2,fa5
   11f80:	0002b5b7          	lui	a1,0x2b
   11f84:	8ed58593          	add	a1,a1,-1811 # 2a8ed <_IO_stdin_used+0xe85>
   11f88:	bc9fe0ef          	jal	10b50 <fprintf@plt>
   11f8c:	5f01b683          	ld	a3,1520(gp) # 2fdf8 <stdout@GLIBC_2.27>
   11f90:	00f00593          	li	a1,15
   11f94:	00100613          	li	a2,1
   11f98:	0002a537          	lui	a0,0x2a
   11f9c:	05150513          	add	a0,a0,81 # 2a051 <_IO_stdin_used+0x5e9>
   11fa0:	bc1fe0ef          	jal	10b60 <fwrite@plt>
   11fa4:	000a0513          	mv	a0,s4
   11fa8:	540010ef          	jal	134e8 <FreeImage>
   11fac:	000d8513          	mv	a0,s11
   11fb0:	538010ef          	jal	134e8 <FreeImage>
   11fb4:	58c1a503          	lw	a0,1420(gp) # 2fd94 <pb_frames>
   11fb8:	000b8593          	mv	a1,s7
   11fbc:	00051e63          	bnez	a0,11fd8 <main+0x123c>
   11fc0:	08813603          	ld	a2,136(sp)
   11fc4:	02061063          	bnez	a2,11fe4 <main+0x1248>
   11fc8:	03904263          	bgtz	s9,11fec <main+0x1250>
   11fcc:	0f013d03          	ld	s10,240(sp)
   11fd0:	04051063          	bnez	a0,12010 <main+0x1274>
   11fd4:	ac5ff06f          	j	11a98 <main+0xcfc>
   11fd8:	0b813583          	ld	a1,184(sp)
   11fdc:	08813603          	ld	a2,136(sp)
   11fe0:	fe0604e3          	beqz	a2,11fc8 <main+0x122c>
   11fe4:	00058c93          	mv	s9,a1
   11fe8:	feb052e3          	blez	a1,11fcc <main+0x1230>
   11fec:	000c8d13          	mv	s10,s9
   11ff0:	00048513          	mv	a0,s1
   11ff4:	000c0593          	mv	a1,s8
   11ff8:	39c010ef          	jal	13394 <WriteImage>
   11ffc:	fffd0d1b          	addw	s10,s10,-1
   12000:	fe0d18e3          	bnez	s10,11ff0 <main+0x1254>
   12004:	58c1a503          	lw	a0,1420(gp) # 2fd94 <pb_frames>
   12008:	0f013d03          	ld	s10,240(sp)
   1200c:	a80506e3          	beqz	a0,11a98 <main+0xcfc>
   12010:	00100513          	li	a0,1
   12014:	02ad2423          	sw	a0,40(s10)
   12018:	a81ff06f          	j	11a98 <main+0xcfc>
   1201c:	5f01b503          	ld	a0,1520(gp) # 2fdf8 <stdout@GLIBC_2.27>
   12020:	d00477d3          	fcvt.s.w	fa5,s0
   12024:	1887f7d3          	fdiv.s	fa5,fa5,fs0
   12028:	1097f7d3          	fmul.s	fa5,fa5,fs1
   1202c:	420787d3          	fcvt.d.s	fa5,fa5
   12030:	d00d79d3          	fcvt.s.w	fs3,s10
   12034:	1889f753          	fdiv.s	fa4,fs3,fs0
   12038:	10977753          	fmul.s	fa4,fa4,fs1
   1203c:	42070753          	fcvt.d.s	fa4,fa4
   12040:	e2078653          	fmv.x.d	a2,fa5
   12044:	e20706d3          	fmv.x.d	a3,fa4
   12048:	0002a5b7          	lui	a1,0x2a
   1204c:	08d58593          	add	a1,a1,141 # 2a08d <_IO_stdin_used+0x625>
   12050:	b01fe0ef          	jal	10b50 <fprintf@plt>
   12054:	05813503          	ld	a0,88(sp)
   12058:	00c52787          	flw	fa5,12(a0)
   1205c:	5f01b503          	ld	a0,1520(gp) # 2fdf8 <stdout@GLIBC_2.27>
   12060:	1927f7d3          	fdiv.s	fa5,fa5,fs2
   12064:	420787d3          	fcvt.d.s	fa5,fa5
   12068:	e2078653          	fmv.x.d	a2,fa5
   1206c:	0002a5b7          	lui	a1,0x2a
   12070:	0b158593          	add	a1,a1,177 # 2a0b1 <_IO_stdin_used+0x649>
   12074:	addfe0ef          	jal	10b50 <fprintf@plt>
   12078:	5f01b503          	ld	a0,1520(gp) # 2fdf8 <stdout@GLIBC_2.27>
   1207c:	001d861b          	addw	a2,s11,1
   12080:	0002a5b7          	lui	a1,0x2a
   12084:	0ca58593          	add	a1,a1,202 # 2a0ca <_IO_stdin_used+0x662>
   12088:	000d8693          	mv	a3,s11
   1208c:	ac5fe0ef          	jal	10b50 <fprintf@plt>
   12090:	d01df953          	fcvt.s.wu	fs2,s11
   12094:	193977d3          	fdiv.s	fa5,fs2,fs3
   12098:	10f477d3          	fmul.s	fa5,fs0,fa5
   1209c:	5f01b503          	ld	a0,1520(gp) # 2fdf8 <stdout@GLIBC_2.27>
   120a0:	1897f9d3          	fdiv.s	fs3,fa5,fs1
   120a4:	420987d3          	fcvt.d.s	fa5,fs3
   120a8:	e2078653          	fmv.x.d	a2,fa5
   120ac:	0002a5b7          	lui	a1,0x2a
   120b0:	0e858593          	add	a1,a1,232 # 2a0e8 <_IO_stdin_used+0x680>
   120b4:	a9dfe0ef          	jal	10b50 <fprintf@plt>
   120b8:	05013503          	ld	a0,80(sp)
   120bc:	02050463          	beqz	a0,120e4 <main+0x1348>
   120c0:	3b81b787          	fld	fa5,952(gp) # 2fbc0 <__TMC_END__>
   120c4:	5f01b503          	ld	a0,1520(gp) # 2fdf8 <stdout@GLIBC_2.27>
   120c8:	03013583          	ld	a1,48(sp)
   120cc:	d2058753          	fcvt.d.w	fa4,a1
   120d0:	1af777d3          	fdiv.d	fa5,fa4,fa5
   120d4:	e2078653          	fmv.x.d	a2,fa5
   120d8:	0002a5b7          	lui	a1,0x2a
   120dc:	10458593          	add	a1,a1,260 # 2a104 <_IO_stdin_used+0x69c>
   120e0:	a71fe0ef          	jal	10b50 <fprintf@plt>
   120e4:	06013503          	ld	a0,96(sp)
   120e8:	02852583          	lw	a1,40(a0)
   120ec:	028a2603          	lw	a2,40(s4)
   120f0:	5f01b503          	ld	a0,1520(gp) # 2fdf8 <stdout@GLIBC_2.27>
   120f4:	00b60633          	add	a2,a2,a1
   120f8:	d00677d3          	fcvt.s.w	fa5,a2
   120fc:	d0047753          	fcvt.s.w	fa4,s0
   12100:	18877753          	fdiv.s	fa4,fa4,fs0
   12104:	3b81b687          	fld	fa3,952(gp) # 2fbc0 <__TMC_END__>
   12108:	10977753          	fmul.s	fa4,fa4,fs1
   1210c:	18e7f7d3          	fdiv.s	fa5,fa5,fa4
   12110:	420787d3          	fcvt.d.s	fa5,fa5
   12114:	1ad7f7d3          	fdiv.d	fa5,fa5,fa3
   12118:	d005f753          	fcvt.s.w	fa4,a1
   1211c:	19277753          	fdiv.s	fa4,fa4,fs2
   12120:	10e9f753          	fmul.s	fa4,fs3,fa4
   12124:	42070753          	fcvt.d.s	fa4,fa4
   12128:	1ad77753          	fdiv.d	fa4,fa4,fa3
   1212c:	e2078653          	fmv.x.d	a2,fa5
   12130:	e20706d3          	fmv.x.d	a3,fa4
   12134:	0002a5b7          	lui	a1,0x2a
   12138:	12658593          	add	a1,a1,294 # 2a126 <_IO_stdin_used+0x6be>
   1213c:	a15fe0ef          	jal	10b50 <fprintf@plt>
   12140:	5f01b683          	ld	a3,1520(gp) # 2fdf8 <stdout@GLIBC_2.27>
   12144:	0002a537          	lui	a0,0x2a
   12148:	14f50513          	add	a0,a0,335 # 2a14f <_IO_stdin_used+0x6e7>
   1214c:	02d00593          	li	a1,45
   12150:	00100613          	li	a2,1
   12154:	a0dfe0ef          	jal	10b60 <fwrite@plt>
   12158:	0002a537          	lui	a0,0x2a
   1215c:	17d50513          	add	a0,a0,381 # 2a17d <_IO_stdin_used+0x715>
   12160:	00000593          	li	a1,0
   12164:	00000613          	li	a2,0
   12168:	00000693          	li	a3,0
   1216c:	ae5fe0ef          	jal	10c50 <printf@plt>
   12170:	0002a537          	lui	a0,0x2a
   12174:	1ab50513          	add	a0,a0,427 # 2a1ab <_IO_stdin_used+0x743>
   12178:	00000593          	li	a1,0
   1217c:	ad5fe0ef          	jal	10c50 <printf@plt>
   12180:	0002a537          	lui	a0,0x2a
   12184:	1c250513          	add	a0,a0,450 # 2a1c2 <_IO_stdin_used+0x75a>
   12188:	00000593          	li	a1,0
   1218c:	00000613          	li	a2,0
   12190:	00000693          	li	a3,0
   12194:	00000713          	li	a4,0
   12198:	00000793          	li	a5,0
   1219c:	ab5fe0ef          	jal	10c50 <printf@plt>
   121a0:	00048513          	mv	a0,s1
   121a4:	344010ef          	jal	134e8 <FreeImage>
   121a8:	0f013503          	ld	a0,240(sp)
   121ac:	33c010ef          	jal	134e8 <FreeImage>
   121b0:	03813503          	ld	a0,56(sp)
   121b4:	afdfe0ef          	jal	10cb0 <free@plt>
   121b8:	07013503          	ld	a0,112(sp)
   121bc:	af5fe0ef          	jal	10cb0 <free@plt>
   121c0:	000c0513          	mv	a0,s8
   121c4:	aedfe0ef          	jal	10cb0 <free@plt>
   121c8:	02813503          	ld	a0,40(sp)
   121cc:	ae5fe0ef          	jal	10cb0 <free@plt>
   121d0:	000b8513          	mv	a0,s7
   121d4:	addfe0ef          	jal	10cb0 <free@plt>
   121d8:	06013503          	ld	a0,96(sp)
   121dc:	ad5fe0ef          	jal	10cb0 <free@plt>
   121e0:	000a0513          	mv	a0,s4
   121e4:	acdfe0ef          	jal	10cb0 <free@plt>
   121e8:	07813503          	ld	a0,120(sp)
   121ec:	ac5fe0ef          	jal	10cb0 <free@plt>
   121f0:	05813503          	ld	a0,88(sp)
   121f4:	abdfe0ef          	jal	10cb0 <free@plt>
   121f8:	04813503          	ld	a0,72(sp)
   121fc:	ab5fe0ef          	jal	10cb0 <free@plt>
   12200:	000b0513          	mv	a0,s6
   12204:	aadfe0ef          	jal	10cb0 <free@plt>
   12208:	00000513          	li	a0,0
   1220c:	a35fe0ef          	jal	10c40 <exit@plt>
   12210:	5f01b683          	ld	a3,1520(gp) # 2fdf8 <stdout@GLIBC_2.27>
   12214:	0002a537          	lui	a0,0x2a
   12218:	d2950513          	add	a0,a0,-727 # 29d29 <_IO_stdin_used+0x2c1>
   1221c:	02300593          	li	a1,35
   12220:	00100613          	li	a2,1
   12224:	93dfe0ef          	jal	10b60 <fwrite@plt>
   12228:	2c000513          	li	a0,704
   1222c:	48000593          	li	a1,1152
   12230:	58000613          	li	a2,1408
   12234:	91cff06f          	j	11350 <main+0x5b4>
   12238:	5f01b683          	ld	a3,1520(gp) # 2fdf8 <stdout@GLIBC_2.27>
   1223c:	0002a537          	lui	a0,0x2a
   12240:	ce850513          	add	a0,a0,-792 # 29ce8 <_IO_stdin_used+0x280>
   12244:	01f00593          	li	a1,31
   12248:	00100613          	li	a2,1
   1224c:	915fe0ef          	jal	10b60 <fwrite@plt>
   12250:	0b000513          	li	a0,176
   12254:	12000593          	li	a1,288
   12258:	16000613          	li	a2,352
   1225c:	8f4ff06f          	j	11350 <main+0x5b4>
   12260:	5f01b683          	ld	a3,1520(gp) # 2fdf8 <stdout@GLIBC_2.27>
   12264:	0002a537          	lui	a0,0x2a
   12268:	d0850513          	add	a0,a0,-760 # 29d08 <_IO_stdin_used+0x2a0>
   1226c:	02000593          	li	a1,32
   12270:	00100613          	li	a2,1
   12274:	8edfe0ef          	jal	10b60 <fwrite@plt>
   12278:	16000513          	li	a0,352
   1227c:	24000593          	li	a1,576
   12280:	2c000613          	li	a2,704
   12284:	8ccff06f          	j	11350 <main+0x5b4>
   12288:	5e81b683          	ld	a3,1512(gp) # 2fdf0 <stderr@GLIBC_2.27>
   1228c:	0002a537          	lui	a0,0x2a
   12290:	d6450513          	add	a0,a0,-668 # 29d64 <_IO_stdin_used+0x2fc>
   12294:	03100593          	li	a1,49
   12298:	00100613          	li	a2,1
   1229c:	8c5fe0ef          	jal	10b60 <fwrite@plt>
   122a0:	145000ef          	jal	12be4 <Help>
   122a4:	fff00513          	li	a0,-1
   122a8:	999fe0ef          	jal	10c40 <exit@plt>
   122ac:	5e81b683          	ld	a3,1512(gp) # 2fdf0 <stderr@GLIBC_2.27>
   122b0:	0002a537          	lui	a0,0x2a
   122b4:	e8850513          	add	a0,a0,-376 # 29e88 <_IO_stdin_used+0x420>
   122b8:	01a00593          	li	a1,26
   122bc:	00100613          	li	a2,1
   122c0:	8a1fe0ef          	jal	10b60 <fwrite@plt>
   122c4:	fff00513          	li	a0,-1
   122c8:	979fe0ef          	jal	10c40 <exit@plt>
   122cc:	5e81b503          	ld	a0,1512(gp) # 2fdf0 <stderr@GLIBC_2.27>
   122d0:	0002a5b7          	lui	a1,0x2a
   122d4:	ed158593          	add	a1,a1,-303 # 29ed1 <_IO_stdin_used+0x469>
   122d8:	000c0613          	mv	a2,s8
   122dc:	875fe0ef          	jal	10b50 <fprintf@plt>
   122e0:	fff00513          	li	a0,-1
   122e4:	95dfe0ef          	jal	10c40 <exit@plt>
   122e8:	5e81b683          	ld	a3,1512(gp) # 2fdf0 <stderr@GLIBC_2.27>
   122ec:	0002a537          	lui	a0,0x2a
   122f0:	eaf50513          	add	a0,a0,-337 # 29eaf <_IO_stdin_used+0x447>
   122f4:	02100593          	li	a1,33
   122f8:	00100613          	li	a2,1
   122fc:	865fe0ef          	jal	10b60 <fwrite@plt>
   12300:	fff00513          	li	a0,-1
   12304:	93dfe0ef          	jal	10c40 <exit@plt>
   12308:	5e81b503          	ld	a0,1512(gp) # 2fdf0 <stderr@GLIBC_2.27>
   1230c:	0002a5b7          	lui	a1,0x2a
   12310:	eef58593          	add	a1,a1,-273 # 29eef <_IO_stdin_used+0x487>
   12314:	0002a637          	lui	a2,0x2a
   12318:	b5c60613          	add	a2,a2,-1188 # 29b5c <_IO_stdin_used+0xf4>
   1231c:	835fe0ef          	jal	10b50 <fprintf@plt>
   12320:	fff00513          	li	a0,-1
   12324:	91dfe0ef          	jal	10c40 <exit@plt>
   12328:	285000ef          	jal	12dac <AdvancedHelp>
   1232c:	00000513          	li	a0,0
   12330:	911fe0ef          	jal	10c40 <exit@plt>
   12334:	0b1000ef          	jal	12be4 <Help>
   12338:	00000513          	li	a0,0
   1233c:	905fe0ef          	jal	10c40 <exit@plt>
   12340:	5e81b503          	ld	a0,1512(gp) # 2fdf0 <stderr@GLIBC_2.27>
   12344:	0002a5b7          	lui	a1,0x2a
   12348:	c9258593          	add	a1,a1,-878 # 29c92 <_IO_stdin_used+0x22a>
   1234c:	805fe0ef          	jal	10b50 <fprintf@plt>
   12350:	095000ef          	jal	12be4 <Help>
   12354:	fff00513          	li	a0,-1
   12358:	8e9fe0ef          	jal	10c40 <exit@plt>
   1235c:	5e81b683          	ld	a3,1512(gp) # 2fdf0 <stderr@GLIBC_2.27>
   12360:	0002a537          	lui	a0,0x2a
   12364:	d4d50513          	add	a0,a0,-691 # 29d4d <_IO_stdin_used+0x2e5>
   12368:	01600593          	li	a1,22
   1236c:	00100613          	li	a2,1
   12370:	ff0fe0ef          	jal	10b60 <fwrite@plt>
   12374:	fff00513          	li	a0,-1
   12378:	8c9fe0ef          	jal	10c40 <exit@plt>

000000000001237c <PrintSNR>:
   1237c:	fe010113          	add	sp,sp,-32
   12380:	00113c23          	sd	ra,24(sp)
   12384:	00813823          	sd	s0,16(sp)
   12388:	00913423          	sd	s1,8(sp)
   1238c:	00813027          	fsd	fs0,0(sp)
   12390:	00050413          	mv	s0,a0
   12394:	00052787          	flw	fa5,0(a0)
   12398:	5f01b503          	ld	a0,1520(gp) # 2fdf8 <stdout@GLIBC_2.27>
   1239c:	d005f453          	fcvt.s.w	fs0,a1
   123a0:	1887f7d3          	fdiv.s	fa5,fa5,fs0
   123a4:	420787d3          	fcvt.d.s	fa5,fa5
   123a8:	e2078653          	fmv.x.d	a2,fa5
   123ac:	0002b5b7          	lui	a1,0x2b
   123b0:	8cf58593          	add	a1,a1,-1841 # 2a8cf <_IO_stdin_used+0xe67>
   123b4:	f9cfe0ef          	jal	10b50 <fprintf@plt>
   123b8:	00842787          	flw	fa5,8(s0)
   123bc:	5f01b503          	ld	a0,1520(gp) # 2fdf8 <stdout@GLIBC_2.27>
   123c0:	1887f7d3          	fdiv.s	fa5,fa5,fs0
   123c4:	420787d3          	fcvt.d.s	fa5,fa5
   123c8:	e2078653          	fmv.x.d	a2,fa5
   123cc:	0002b5b7          	lui	a1,0x2b
   123d0:	8de58593          	add	a1,a1,-1826 # 2a8de <_IO_stdin_used+0xe76>
   123d4:	f7cfe0ef          	jal	10b50 <fprintf@plt>
   123d8:	00442787          	flw	fa5,4(s0)
   123dc:	5f01b503          	ld	a0,1520(gp) # 2fdf8 <stdout@GLIBC_2.27>
   123e0:	1887f7d3          	fdiv.s	fa5,fa5,fs0
   123e4:	420787d3          	fcvt.d.s	fa5,fa5
   123e8:	e2078653          	fmv.x.d	a2,fa5
   123ec:	0002b5b7          	lui	a1,0x2b
   123f0:	8ed58593          	add	a1,a1,-1811 # 2a8ed <_IO_stdin_used+0xe85>
   123f4:	f5cfe0ef          	jal	10b50 <fprintf@plt>
   123f8:	5f01b683          	ld	a3,1520(gp) # 2fdf8 <stdout@GLIBC_2.27>
   123fc:	0002a537          	lui	a0,0x2a
   12400:	05150513          	add	a0,a0,81 # 2a051 <_IO_stdin_used+0x5e9>
   12404:	00f00593          	li	a1,15
   12408:	00100613          	li	a2,1
   1240c:	01813083          	ld	ra,24(sp)
   12410:	01013403          	ld	s0,16(sp)
   12414:	00813483          	ld	s1,8(sp)
   12418:	00013407          	fld	fs0,0(sp)
   1241c:	02010113          	add	sp,sp,32
   12420:	f40fe06f          	j	10b60 <fwrite@plt>

0000000000012424 <PrintResult>:
   12424:	fd010113          	add	sp,sp,-48
   12428:	02113423          	sd	ra,40(sp)
   1242c:	02813023          	sd	s0,32(sp)
   12430:	00913c23          	sd	s1,24(sp)
   12434:	01213823          	sd	s2,16(sp)
   12438:	01313423          	sd	s3,8(sp)
   1243c:	00050413          	mv	s0,a0
   12440:	03452683          	lw	a3,52(a0)
   12444:	5f01b503          	ld	a0,1520(gp) # 2fdf8 <stdout@GLIBC_2.27>
   12448:	00060493          	mv	s1,a2
   1244c:	00058913          	mv	s2,a1
   12450:	02b6c63b          	divw	a2,a3,a1
   12454:	0002b5b7          	lui	a1,0x2b
   12458:	81058593          	add	a1,a1,-2032 # 2a810 <_IO_stdin_used+0xda8>
   1245c:	ef4fe0ef          	jal	10b50 <fprintf@plt>
   12460:	02c42583          	lw	a1,44(s0)
   12464:	5f01b503          	ld	a0,1520(gp) # 2fdf8 <stdout@GLIBC_2.27>
   12468:	0325c63b          	divw	a2,a1,s2
   1246c:	0002b5b7          	lui	a1,0x2b
   12470:	82058593          	add	a1,a1,-2016 # 2a820 <_IO_stdin_used+0xdb8>
   12474:	edcfe0ef          	jal	10b50 <fprintf@plt>
   12478:	03042583          	lw	a1,48(s0)
   1247c:	5f01b503          	ld	a0,1520(gp) # 2fdf8 <stdout@GLIBC_2.27>
   12480:	0325c63b          	divw	a2,a1,s2
   12484:	0002b5b7          	lui	a1,0x2b
   12488:	83058593          	add	a1,a1,-2000 # 2a830 <_IO_stdin_used+0xdc8>
   1248c:	ec4fe0ef          	jal	10b50 <fprintf@plt>
   12490:	5f01b683          	ld	a3,1520(gp) # 2fdf8 <stdout@GLIBC_2.27>
   12494:	0002a537          	lui	a0,0x2a
   12498:	05150513          	add	a0,a0,81 # 2a051 <_IO_stdin_used+0x5e9>
   1249c:	00f00593          	li	a1,15
   124a0:	00100613          	li	a2,1
   124a4:	ebcfe0ef          	jal	10b60 <fwrite@plt>
   124a8:	00042583          	lw	a1,0(s0)
   124ac:	5f01b503          	ld	a0,1520(gp) # 2fdf8 <stdout@GLIBC_2.27>
   124b0:	0295c63b          	divw	a2,a1,s1
   124b4:	0002b5b7          	lui	a1,0x2b
   124b8:	84058593          	add	a1,a1,-1984 # 2a840 <_IO_stdin_used+0xdd8>
   124bc:	e94fe0ef          	jal	10b50 <fprintf@plt>
   124c0:	00442583          	lw	a1,4(s0)
   124c4:	5f01b503          	ld	a0,1520(gp) # 2fdf8 <stdout@GLIBC_2.27>
   124c8:	0295c63b          	divw	a2,a1,s1
   124cc:	0002b5b7          	lui	a1,0x2b
   124d0:	84d58593          	add	a1,a1,-1971 # 2a84d <_IO_stdin_used+0xde5>
   124d4:	e7cfe0ef          	jal	10b50 <fprintf@plt>
   124d8:	00842583          	lw	a1,8(s0)
   124dc:	5f01b503          	ld	a0,1520(gp) # 2fdf8 <stdout@GLIBC_2.27>
   124e0:	0295c63b          	divw	a2,a1,s1
   124e4:	0002b5b7          	lui	a1,0x2b
   124e8:	85a58593          	add	a1,a1,-1958 # 2a85a <_IO_stdin_used+0xdf2>
   124ec:	e64fe0ef          	jal	10b50 <fprintf@plt>
   124f0:	00c42583          	lw	a1,12(s0)
   124f4:	5f01b503          	ld	a0,1520(gp) # 2fdf8 <stdout@GLIBC_2.27>
   124f8:	0295c63b          	divw	a2,a1,s1
   124fc:	0002b5b7          	lui	a1,0x2b
   12500:	86758593          	add	a1,a1,-1945 # 2a867 <_IO_stdin_used+0xdff>
   12504:	e4cfe0ef          	jal	10b50 <fprintf@plt>
   12508:	01042583          	lw	a1,16(s0)
   1250c:	5f01b503          	ld	a0,1520(gp) # 2fdf8 <stdout@GLIBC_2.27>
   12510:	0295c63b          	divw	a2,a1,s1
   12514:	0002b5b7          	lui	a1,0x2b
   12518:	87458593          	add	a1,a1,-1932 # 2a874 <_IO_stdin_used+0xe0c>
   1251c:	e34fe0ef          	jal	10b50 <fprintf@plt>
   12520:	01442583          	lw	a1,20(s0)
   12524:	5f01b503          	ld	a0,1520(gp) # 2fdf8 <stdout@GLIBC_2.27>
   12528:	0295c63b          	divw	a2,a1,s1
   1252c:	0002b5b7          	lui	a1,0x2b
   12530:	88158593          	add	a1,a1,-1919 # 2a881 <_IO_stdin_used+0xe19>
   12534:	e1cfe0ef          	jal	10b50 <fprintf@plt>
   12538:	01842583          	lw	a1,24(s0)
   1253c:	5f01b503          	ld	a0,1520(gp) # 2fdf8 <stdout@GLIBC_2.27>
   12540:	0295c63b          	divw	a2,a1,s1
   12544:	0002b5b7          	lui	a1,0x2b
   12548:	88e58593          	add	a1,a1,-1906 # 2a88e <_IO_stdin_used+0xe26>
   1254c:	e04fe0ef          	jal	10b50 <fprintf@plt>
   12550:	01c42583          	lw	a1,28(s0)
   12554:	5f01b503          	ld	a0,1520(gp) # 2fdf8 <stdout@GLIBC_2.27>
   12558:	0295c63b          	divw	a2,a1,s1
   1255c:	0002b5b7          	lui	a1,0x2b
   12560:	89b58593          	add	a1,a1,-1893 # 2a89b <_IO_stdin_used+0xe33>
   12564:	decfe0ef          	jal	10b50 <fprintf@plt>
   12568:	02442583          	lw	a1,36(s0)
   1256c:	5f01b503          	ld	a0,1520(gp) # 2fdf8 <stdout@GLIBC_2.27>
   12570:	0295c63b          	divw	a2,a1,s1
   12574:	0002b5b7          	lui	a1,0x2b
   12578:	8a858593          	add	a1,a1,-1880 # 2a8a8 <_IO_stdin_used+0xe40>
   1257c:	dd4fe0ef          	jal	10b50 <fprintf@plt>
   12580:	02042583          	lw	a1,32(s0)
   12584:	5f01b503          	ld	a0,1520(gp) # 2fdf8 <stdout@GLIBC_2.27>
   12588:	0295c63b          	divw	a2,a1,s1
   1258c:	0002b5b7          	lui	a1,0x2b
   12590:	8b558593          	add	a1,a1,-1867 # 2a8b5 <_IO_stdin_used+0xe4d>
   12594:	dbcfe0ef          	jal	10b50 <fprintf@plt>
   12598:	5f01b683          	ld	a3,1520(gp) # 2fdf8 <stdout@GLIBC_2.27>
   1259c:	0002a537          	lui	a0,0x2a
   125a0:	16d50513          	add	a0,a0,365 # 2a16d <_IO_stdin_used+0x705>
   125a4:	00f00593          	li	a1,15
   125a8:	00100613          	li	a2,1
   125ac:	db4fe0ef          	jal	10b60 <fwrite@plt>
   125b0:	02842583          	lw	a1,40(s0)
   125b4:	5f01b503          	ld	a0,1520(gp) # 2fdf8 <stdout@GLIBC_2.27>
   125b8:	0295c63b          	divw	a2,a1,s1
   125bc:	0002b5b7          	lui	a1,0x2b
   125c0:	8c258593          	add	a1,a1,-1854 # 2a8c2 <_IO_stdin_used+0xe5a>
   125c4:	d8cfe0ef          	jal	10b50 <fprintf@plt>
   125c8:	5f01b583          	ld	a1,1520(gp) # 2fdf8 <stdout@GLIBC_2.27>
   125cc:	00a00513          	li	a0,10
   125d0:	02813083          	ld	ra,40(sp)
   125d4:	02013403          	ld	s0,32(sp)
   125d8:	01813483          	ld	s1,24(sp)
   125dc:	01013903          	ld	s2,16(sp)
   125e0:	00813983          	ld	s3,8(sp)
   125e4:	03010113          	add	sp,sp,48
   125e8:	dc8fe06f          	j	10bb0 <fputc@plt>

00000000000125ec <NextTwoPB>:
   125ec:	81010113          	add	sp,sp,-2032
   125f0:	7e113423          	sd	ra,2024(sp)
   125f4:	7e813023          	sd	s0,2016(sp)
   125f8:	7c913c23          	sd	s1,2008(sp)
   125fc:	7d213823          	sd	s2,2000(sp)
   12600:	7d313423          	sd	s3,1992(sp)
   12604:	7d413023          	sd	s4,1984(sp)
   12608:	7b513c23          	sd	s5,1976(sp)
   1260c:	7b613823          	sd	s6,1968(sp)
   12610:	7b713423          	sd	s7,1960(sp)
   12614:	7b813023          	sd	s8,1952(sp)
   12618:	79913c23          	sd	s9,1944(sp)
   1261c:	79a13823          	sd	s10,1936(sp)
   12620:	79b13423          	sd	s11,1928(sp)
   12624:	0004d837          	lui	a6,0x4d
   12628:	8f08081b          	addw	a6,a6,-1808 # 4c8f0 <__BSS_END__+0x1c8e8>
   1262c:	41010133          	sub	sp,sp,a6
   12630:	57c1a883          	lw	a7,1404(gp) # 2fd84 <advanced>
   12634:	08f13423          	sd	a5,136(sp)
   12638:	06d13423          	sd	a3,104(sp)
   1263c:	08b13023          	sd	a1,128(sp)
   12640:	42088c63          	beqz	a7,12a78 <NextTwoPB+0x48c>
   12644:	5601ae23          	sw	zero,1404(gp) # 2fd84 <advanced>
   12648:	00100813          	li	a6,1
   1264c:	5841a583          	lw	a1,1412(gp) # 2fd8c <mv_outside_frame>
   12650:	42058a63          	beqz	a1,12a84 <NextTwoPB+0x498>
   12654:	5801a223          	sw	zero,1412(gp) # 2fd8c <mv_outside_frame>
   12658:	00100693          	li	a3,1
   1265c:	5881a583          	lw	a1,1416(gp) # 2fd90 <long_vectors>
   12660:	00058663          	beqz	a1,1266c <NextTwoPB+0x80>
   12664:	5801a423          	sw	zero,1416(gp) # 2fd90 <long_vectors>
   12668:	00100593          	li	a1,1
   1266c:	5981ab83          	lw	s7,1432(gp) # 2fda0 <lines>
   12670:	404bd913          	sra	s2,s7,0x4
   12674:	43205063          	blez	s2,12a94 <NextTwoPB+0x4a8>
   12678:	06e13823          	sd	a4,112(sp)
   1267c:	06a13c23          	sd	a0,120(sp)
   12680:	06c13023          	sd	a2,96(sp)
   12684:	00b13823          	sd	a1,16(sp)
   12688:	00d13c23          	sd	a3,24(sp)
   1268c:	03013023          	sd	a6,32(sp)
   12690:	0001a537          	lui	a0,0x1a
   12694:	0000d5b7          	lui	a1,0xd
   12698:	d785051b          	addw	a0,a0,-648 # 19d78 <MotionEstimation+0x8a8>
   1269c:	5941a603          	lw	a2,1428(gp) # 2fd9c <pels>
   126a0:	09810693          	add	a3,sp,152
   126a4:	0285859b          	addw	a1,a1,40 # d028 <__abi_tag-0x326c>
   126a8:	00a68533          	add	a0,a3,a0
   126ac:	02a13423          	sd	a0,40(sp)
   126b0:	40465513          	sra	a0,a2,0x4
   126b4:	00b685b3          	add	a1,a3,a1
   126b8:	02b13823          	sd	a1,48(sp)
   126bc:	0aa05663          	blez	a0,12768 <NextTwoPB+0x17c>
   126c0:	00000413          	li	s0,0
   126c4:	37010b13          	add	s6,sp,880
   126c8:	00150513          	add	a0,a0,1
   126cc:	00190913          	add	s2,s2,1
   126d0:	02051513          	sll	a0,a0,0x20
   126d4:	01d55513          	srl	a0,a0,0x1d
   126d8:	0001a5b7          	lui	a1,0x1a
   126dc:	d705899b          	addw	s3,a1,-656 # 19d70 <MotionEstimation+0x8a0>
   126e0:	013509b3          	add	s3,a0,s3
   126e4:	00100a13          	li	s4,1
   126e8:	03013a83          	ld	s5,48(sp)
   126ec:	02813c03          	ld	s8,40(sp)
   126f0:	2d000513          	li	a0,720
   126f4:	02a40533          	mul	a0,s0,a0
   126f8:	00a98533          	add	a0,s3,a0
   126fc:	09810d93          	add	s11,sp,152
   12700:	00ad8db3          	add	s11,s11,a0
   12704:	000b0493          	mv	s1,s6
   12708:	000a8c93          	mv	s9,s5
   1270c:	000c0d13          	mv	s10,s8
   12710:	00100513          	li	a0,1
   12714:	01800593          	li	a1,24
   12718:	d48fe0ef          	jal	10c60 <calloc@plt>
   1271c:	00a4b023          	sd	a0,0(s1)
   12720:	00100513          	li	a0,1
   12724:	01800593          	li	a1,24
   12728:	d38fe0ef          	jal	10c60 <calloc@plt>
   1272c:	00acb023          	sd	a0,0(s9)
   12730:	00100513          	li	a0,1
   12734:	01800593          	li	a1,24
   12738:	d28fe0ef          	jal	10c60 <calloc@plt>
   1273c:	00ad3023          	sd	a0,0(s10)
   12740:	008d0d13          	add	s10,s10,8
   12744:	008c8c93          	add	s9,s9,8
   12748:	00848493          	add	s1,s1,8
   1274c:	fdbd12e3          	bne	s10,s11,12710 <NextTwoPB+0x124>
   12750:	001a0a13          	add	s4,s4,1
   12754:	2d0c0c13          	add	s8,s8,720
   12758:	2d0a8a93          	add	s5,s5,720
   1275c:	2d0b0b13          	add	s6,s6,720
   12760:	00140413          	add	s0,s0,1
   12764:	f92a16e3          	bne	s4,s2,126f0 <NextTwoPB+0x104>
   12768:	03000513          	li	a0,48
   1276c:	32abcc63          	blt	s7,a0,12aa4 <NextTwoPB+0x4b8>
   12770:	00000d93          	li	s11,0
   12774:	00000a93          	li	s5,0
   12778:	00000c93          	li	s9,0
   1277c:	06813483          	ld	s1,104(sp)
   12780:	07013503          	ld	a0,112(sp)
   12784:	009504b3          	add	s1,a0,s1
   12788:	40a0053b          	negw	a0,a0
   1278c:	04a13c23          	sd	a0,88(sp)
   12790:	5941a583          	lw	a1,1428(gp) # 2fd9c <pels>
   12794:	00100513          	li	a0,1
   12798:	02f00693          	li	a3,47
   1279c:	0001a637          	lui	a2,0x1a
   127a0:	d806061b          	addw	a2,a2,-640 # 19d80 <MotionEstimation+0x8b0>
   127a4:	04c13823          	sd	a2,80(sp)
   127a8:	0000d637          	lui	a2,0xd
   127ac:	0306061b          	addw	a2,a2,48 # d030 <__abi_tag-0x3264>
   127b0:	04c13423          	sd	a2,72(sp)
   127b4:	09410d13          	add	s10,sp,148
   127b8:	80000637          	lui	a2,0x80000
   127bc:	fff6061b          	addw	a2,a2,-1 # 7fffffff <__BSS_END__+0x7ffcfff7>
   127c0:	04c13023          	sd	a2,64(sp)
   127c4:	03013c03          	ld	s8,48(sp)
   127c8:	06013b03          	ld	s6,96(sp)
   127cc:	07813a03          	ld	s4,120(sp)
   127d0:	0300006f          	j	12800 <NextTwoPB+0x214>
   127d4:	5981ab83          	lw	s7,1432(gp) # 2fda0 <lines>
   127d8:	03013c03          	ld	s8,48(sp)
   127dc:	02f00693          	li	a3,47
   127e0:	03813703          	ld	a4,56(sp)
   127e4:	41fbd51b          	sraw	a0,s7,0x1f
   127e8:	01c5551b          	srlw	a0,a0,0x1c
   127ec:	00ab8533          	add	a0,s7,a0
   127f0:	4045551b          	sraw	a0,a0,0x4
   127f4:	fff50613          	add	a2,a0,-1
   127f8:	00070513          	mv	a0,a4
   127fc:	2ac75c63          	bge	a4,a2,12ab4 <NextTwoPB+0x4c8>
   12800:	26b6d863          	bge	a3,a1,12a70 <NextTwoPB+0x484>
   12804:	00451c13          	sll	s8,a0,0x4
   12808:	00150593          	add	a1,a0,1
   1280c:	02b13c23          	sd	a1,56(sp)
   12810:	2d000593          	li	a1,720
   12814:	02b50433          	mul	s0,a0,a1
   12818:	09810513          	add	a0,sp,152
   1281c:	00850433          	add	s0,a0,s0
   12820:	00100913          	li	s2,1
   12824:	01000b93          	li	s7,16
   12828:	07813823          	sd	s8,112(sp)
   1282c:	000c0c1b          	sext.w	s8,s8
   12830:	01000993          	li	s3,16
   12834:	0dc0006f          	j	12910 <NextTwoPB+0x324>
   12838:	000a3583          	ld	a1,0(s4)
   1283c:	0005a603          	lw	a2,0(a1)
   12840:	00190913          	add	s2,s2,1
   12844:	06813783          	ld	a5,104(sp)
   12848:	02f606b3          	mul	a3,a2,a5
   1284c:	0296c73b          	divw	a4,a3,s1
   12850:	05813883          	ld	a7,88(sp)
   12854:	03160633          	mul	a2,a2,a7
   12858:	0045a583          	lw	a1,4(a1)
   1285c:	0296463b          	divw	a2,a2,s1
   12860:	01052503          	lw	a0,16(a0)
   12864:	000b3683          	ld	a3,0(s6)
   12868:	02f587b3          	mul	a5,a1,a5
   1286c:	0297c7bb          	divw	a5,a5,s1
   12870:	01b50db3          	add	s11,a0,s11
   12874:	0106a503          	lw	a0,16(a3)
   12878:	5941a683          	lw	a3,1428(gp) # 2fd9c <pels>
   1287c:	08013803          	ld	a6,128(sp)
   12880:	00083803          	ld	a6,0(a6)
   12884:	031585b3          	mul	a1,a1,a7
   12888:	01950cb3          	add	s9,a0,s9
   1288c:	07013883          	ld	a7,112(sp)
   12890:	02d88533          	mul	a0,a7,a3
   12894:	01380833          	add	a6,a6,s3
   12898:	00a80533          	add	a0,a6,a0
   1289c:	07813a03          	ld	s4,120(sp)
   128a0:	000a3803          	ld	a6,0(s4)
   128a4:	0295c5bb          	divw	a1,a1,s1
   128a8:	011585b3          	add	a1,a1,a7
   128ac:	02b685bb          	mulw	a1,a3,a1
   128b0:	00c80633          	add	a2,a6,a2
   128b4:	01360633          	add	a2,a2,s3
   128b8:	06013b03          	ld	s6,96(sp)
   128bc:	000b3803          	ld	a6,0(s6)
   128c0:	00b605b3          	add	a1,a2,a1
   128c4:	011787b3          	add	a5,a5,a7
   128c8:	02f6863b          	mulw	a2,a3,a5
   128cc:	00e80733          	add	a4,a6,a4
   128d0:	01370733          	add	a4,a4,s3
   128d4:	00c70633          	add	a2,a4,a2
   128d8:	04013703          	ld	a4,64(sp)
   128dc:	5e9070ef          	jal	1a6c4 <SAD_MB_Bidir>
   128e0:	5941a583          	lw	a1,1428(gp) # 2fd9c <pels>
   128e4:	01550abb          	addw	s5,a0,s5
   128e8:	00159513          	sll	a0,a1,0x1
   128ec:	03c55513          	srl	a0,a0,0x3c
   128f0:	00a58533          	add	a0,a1,a0
   128f4:	4045551b          	sraw	a0,a0,0x4
   128f8:	fff50513          	add	a0,a0,-1
   128fc:	00840413          	add	s0,s0,8
   12900:	01098993          	add	s3,s3,16
   12904:	010b8b9b          	addw	s7,s7,16
   12908:	09410d13          	add	s10,sp,148
   1290c:	eca954e3          	bge	s2,a0,127d4 <NextTwoPB+0x1e8>
   12910:	000a3503          	ld	a0,0(s4)
   12914:	000b3583          	ld	a1,0(s6)
   12918:	09810893          	add	a7,sp,152
   1291c:	01a13023          	sd	s10,0(sp)
   12920:	000b8613          	mv	a2,s7
   12924:	000c0693          	mv	a3,s8
   12928:	00000713          	li	a4,0
   1292c:	00000793          	li	a5,0
   12930:	08813803          	ld	a6,136(sp)
   12934:	39d060ef          	jal	194d0 <MotionEstimation>
   12938:	2e043503          	ld	a0,736(s0)
   1293c:	00052583          	lw	a1,0(a0)
   12940:	00059c63          	bnez	a1,12958 <NextTwoPB+0x36c>
   12944:	00452583          	lw	a1,4(a0)
   12948:	00059863          	bnez	a1,12958 <NextTwoPB+0x36c>
   1294c:	01052583          	lw	a1,16(a0)
   12950:	06458593          	add	a1,a1,100
   12954:	00b52823          	sw	a1,16(a0)
   12958:	05013a03          	ld	s4,80(sp)
   1295c:	01440a33          	add	s4,s0,s4
   12960:	000a3583          	ld	a1,0(s4)
   12964:	01452603          	lw	a2,20(a0)
   12968:	00c5aa23          	sw	a2,20(a1)
   1296c:	01052603          	lw	a2,16(a0)
   12970:	00c5a823          	sw	a2,16(a1)
   12974:	00c52603          	lw	a2,12(a0)
   12978:	00c5a623          	sw	a2,12(a1)
   1297c:	00852603          	lw	a2,8(a0)
   12980:	00c5a423          	sw	a2,8(a1)
   12984:	00452603          	lw	a2,4(a0)
   12988:	00c5a223          	sw	a2,4(a1)
   1298c:	00052503          	lw	a0,0(a0)
   12990:	00a5a023          	sw	a0,0(a1)
   12994:	08013503          	ld	a0,128(sp)
   12998:	00053503          	ld	a0,0(a0)
   1299c:	000b3583          	ld	a1,0(s6)
   129a0:	09810893          	add	a7,sp,152
   129a4:	01a13023          	sd	s10,0(sp)
   129a8:	000b8613          	mv	a2,s7
   129ac:	000c0693          	mv	a3,s8
   129b0:	00000713          	li	a4,0
   129b4:	00000793          	li	a5,0
   129b8:	08813803          	ld	a6,136(sp)
   129bc:	315060ef          	jal	194d0 <MotionEstimation>
   129c0:	2e043503          	ld	a0,736(s0)
   129c4:	00052583          	lw	a1,0(a0)
   129c8:	00059c63          	bnez	a1,129e0 <NextTwoPB+0x3f4>
   129cc:	00452583          	lw	a1,4(a0)
   129d0:	00059863          	bnez	a1,129e0 <NextTwoPB+0x3f4>
   129d4:	01052583          	lw	a1,16(a0)
   129d8:	06458593          	add	a1,a1,100
   129dc:	00b52823          	sw	a1,16(a0)
   129e0:	04813b03          	ld	s6,72(sp)
   129e4:	01640b33          	add	s6,s0,s6
   129e8:	000b3583          	ld	a1,0(s6)
   129ec:	01452603          	lw	a2,20(a0)
   129f0:	00c5aa23          	sw	a2,20(a1)
   129f4:	01052603          	lw	a2,16(a0)
   129f8:	00c5a823          	sw	a2,16(a1)
   129fc:	00c52603          	lw	a2,12(a0)
   12a00:	00c5a623          	sw	a2,12(a1)
   12a04:	00852603          	lw	a2,8(a0)
   12a08:	00c5a423          	sw	a2,8(a1)
   12a0c:	00452603          	lw	a2,4(a0)
   12a10:	00c5a223          	sw	a2,4(a1)
   12a14:	00052503          	lw	a0,0(a0)
   12a18:	00a5a023          	sw	a0,0(a1)
   12a1c:	07813503          	ld	a0,120(sp)
   12a20:	00053503          	ld	a0,0(a0)
   12a24:	08013583          	ld	a1,128(sp)
   12a28:	0005b583          	ld	a1,0(a1)
   12a2c:	09810893          	add	a7,sp,152
   12a30:	01a13023          	sd	s10,0(sp)
   12a34:	000b8613          	mv	a2,s7
   12a38:	000c0693          	mv	a3,s8
   12a3c:	00000713          	li	a4,0
   12a40:	00000793          	li	a5,0
   12a44:	08813803          	ld	a6,136(sp)
   12a48:	289060ef          	jal	194d0 <MotionEstimation>
   12a4c:	2e043503          	ld	a0,736(s0)
   12a50:	00052583          	lw	a1,0(a0)
   12a54:	de0592e3          	bnez	a1,12838 <NextTwoPB+0x24c>
   12a58:	00452583          	lw	a1,4(a0)
   12a5c:	dc059ee3          	bnez	a1,12838 <NextTwoPB+0x24c>
   12a60:	01052583          	lw	a1,16(a0)
   12a64:	06458593          	add	a1,a1,100
   12a68:	00b52823          	sw	a1,16(a0)
   12a6c:	dcdff06f          	j	12838 <NextTwoPB+0x24c>
   12a70:	00150713          	add	a4,a0,1
   12a74:	d71ff06f          	j	127e4 <NextTwoPB+0x1f8>
   12a78:	00000813          	li	a6,0
   12a7c:	5841a583          	lw	a1,1412(gp) # 2fd8c <mv_outside_frame>
   12a80:	bc059ae3          	bnez	a1,12654 <NextTwoPB+0x68>
   12a84:	00000693          	li	a3,0
   12a88:	5881a583          	lw	a1,1416(gp) # 2fd90 <long_vectors>
   12a8c:	bc059ce3          	bnez	a1,12664 <NextTwoPB+0x78>
   12a90:	bddff06f          	j	1266c <NextTwoPB+0x80>
   12a94:	00000d93          	li	s11,0
   12a98:	00000a93          	li	s5,0
   12a9c:	00000c93          	li	s9,0
   12aa0:	02c0006f          	j	12acc <NextTwoPB+0x4e0>
   12aa4:	00000c93          	li	s9,0
   12aa8:	00000a93          	li	s5,0
   12aac:	00000d93          	li	s11,0
   12ab0:	03013c03          	ld	s8,48(sp)
   12ab4:	01000693          	li	a3,16
   12ab8:	02813d03          	ld	s10,40(sp)
   12abc:	0adbd063          	bge	s7,a3,12b5c <NextTwoPB+0x570>
   12ac0:	02013803          	ld	a6,32(sp)
   12ac4:	01813683          	ld	a3,24(sp)
   12ac8:	01013583          	ld	a1,16(sp)
   12acc:	5701ae23          	sw	a6,1404(gp) # 2fd84 <advanced>
   12ad0:	58d1a223          	sw	a3,1412(gp) # 2fd8c <mv_outside_frame>
   12ad4:	58b1a423          	sw	a1,1416(gp) # 2fd90 <long_vectors>
   12ad8:	019d8cb3          	add	s9,s11,s9
   12adc:	01fcd59b          	srlw	a1,s9,0x1f
   12ae0:	5f01b503          	ld	a0,1520(gp) # 2fdf8 <stdout@GLIBC_2.27>
   12ae4:	00bc85b3          	add	a1,s9,a1
   12ae8:	4015d69b          	sraw	a3,a1,0x1
   12aec:	00daa433          	slt	s0,s5,a3
   12af0:	00dac863          	blt	s5,a3,12b00 <NextTwoPB+0x514>
   12af4:	0002a5b7          	lui	a1,0x2a
   12af8:	20d58593          	add	a1,a1,525 # 2a20d <_IO_stdin_used+0x7a5>
   12afc:	00c0006f          	j	12b08 <NextTwoPB+0x51c>
   12b00:	0002a5b7          	lui	a1,0x2a
   12b04:	1f058593          	add	a1,a1,496 # 2a1f0 <_IO_stdin_used+0x788>
   12b08:	000a8613          	mv	a2,s5
   12b0c:	844fe0ef          	jal	10b50 <fprintf@plt>
   12b10:	00040513          	mv	a0,s0
   12b14:	0004d5b7          	lui	a1,0x4d
   12b18:	8f05859b          	addw	a1,a1,-1808 # 4c8f0 <__BSS_END__+0x1c8e8>
   12b1c:	00b10133          	add	sp,sp,a1
   12b20:	7e813083          	ld	ra,2024(sp)
   12b24:	7e013403          	ld	s0,2016(sp)
   12b28:	7d813483          	ld	s1,2008(sp)
   12b2c:	7d013903          	ld	s2,2000(sp)
   12b30:	7c813983          	ld	s3,1992(sp)
   12b34:	7c013a03          	ld	s4,1984(sp)
   12b38:	7b813a83          	ld	s5,1976(sp)
   12b3c:	7b013b03          	ld	s6,1968(sp)
   12b40:	7a813b83          	ld	s7,1960(sp)
   12b44:	7a013c03          	ld	s8,1952(sp)
   12b48:	79813c83          	ld	s9,1944(sp)
   12b4c:	79013d03          	ld	s10,1936(sp)
   12b50:	78813d83          	ld	s11,1928(sp)
   12b54:	7f010113          	add	sp,sp,2032
   12b58:	00008067          	ret
   12b5c:	5941a503          	lw	a0,1428(gp) # 2fd9c <pels>
   12b60:	00100593          	li	a1,1
   12b64:	37010913          	add	s2,sp,880
   12b68:	01c0006f          	j	12b84 <NextTwoPB+0x598>
   12b6c:	001a0593          	add	a1,s4,1
   12b70:	404bd61b          	sraw	a2,s7,0x4
   12b74:	2d0d0d13          	add	s10,s10,720
   12b78:	2d0c0c13          	add	s8,s8,720
   12b7c:	2d090913          	add	s2,s2,720
   12b80:	f4ca50e3          	bge	s4,a2,12ac0 <NextTwoPB+0x4d4>
   12b84:	00058a13          	mv	s4,a1
   12b88:	fed542e3          	blt	a0,a3,12b6c <NextTwoPB+0x580>
   12b8c:	00000b13          	li	s6,0
   12b90:	00090b93          	mv	s7,s2
   12b94:	000c0413          	mv	s0,s8
   12b98:	000d0993          	mv	s3,s10
   12b9c:	000bb503          	ld	a0,0(s7)
   12ba0:	910fe0ef          	jal	10cb0 <free@plt>
   12ba4:	000c3503          	ld	a0,0(s8)
   12ba8:	908fe0ef          	jal	10cb0 <free@plt>
   12bac:	000d3503          	ld	a0,0(s10)
   12bb0:	900fe0ef          	jal	10cb0 <free@plt>
   12bb4:	5941a503          	lw	a0,1428(gp) # 2fd9c <pels>
   12bb8:	40455593          	sra	a1,a0,0x4
   12bbc:	001b0b13          	add	s6,s6,1
   12bc0:	008d0d13          	add	s10,s10,8
   12bc4:	008c0c13          	add	s8,s8,8
   12bc8:	008b8b93          	add	s7,s7,8
   12bcc:	fcbb48e3          	blt	s6,a1,12b9c <NextTwoPB+0x5b0>
   12bd0:	5981ab83          	lw	s7,1432(gp) # 2fda0 <lines>
   12bd4:	00098d13          	mv	s10,s3
   12bd8:	00040c13          	mv	s8,s0
   12bdc:	01000693          	li	a3,16
   12be0:	f8dff06f          	j	12b6c <NextTwoPB+0x580>

0000000000012be4 <Help>:
   12be4:	fe010113          	add	sp,sp,-32
   12be8:	00113c23          	sd	ra,24(sp)
   12bec:	00813823          	sd	s0,16(sp)
   12bf0:	00913423          	sd	s1,8(sp)
   12bf4:	5e81b683          	ld	a3,1512(gp) # 2fdf0 <stderr@GLIBC_2.27>
   12bf8:	0002a537          	lui	a0,0x2a
   12bfc:	22b50513          	add	a0,a0,555 # 2a22b <_IO_stdin_used+0x7c3>
   12c00:	03200593          	li	a1,50
   12c04:	00100613          	li	a2,1
   12c08:	f59fd0ef          	jal	10b60 <fwrite@plt>
   12c0c:	5e81b683          	ld	a3,1512(gp) # 2fdf0 <stderr@GLIBC_2.27>
   12c10:	0002a537          	lui	a0,0x2a
   12c14:	25e50513          	add	a0,a0,606 # 2a25e <_IO_stdin_used+0x7f6>
   12c18:	00900593          	li	a1,9
   12c1c:	00100613          	li	a2,1
   12c20:	f41fd0ef          	jal	10b60 <fwrite@plt>
   12c24:	5e81b683          	ld	a3,1512(gp) # 2fdf0 <stderr@GLIBC_2.27>
   12c28:	0002a537          	lui	a0,0x2a
   12c2c:	26850513          	add	a0,a0,616 # 2a268 <_IO_stdin_used+0x800>
   12c30:	03600593          	li	a1,54
   12c34:	00100613          	li	a2,1
   12c38:	f29fd0ef          	jal	10b60 <fwrite@plt>
   12c3c:	5e81b503          	ld	a0,1512(gp) # 2fdf0 <stderr@GLIBC_2.27>
   12c40:	0002a5b7          	lui	a1,0x2a
   12c44:	29f58593          	add	a1,a1,671 # 2a29f <_IO_stdin_used+0x837>
   12c48:	0002a637          	lui	a2,0x2a
   12c4c:	c6960613          	add	a2,a2,-919 # 29c69 <_IO_stdin_used+0x201>
   12c50:	f01fd0ef          	jal	10b50 <fprintf@plt>
   12c54:	5e81b503          	ld	a0,1512(gp) # 2fdf0 <stderr@GLIBC_2.27>
   12c58:	0002a5b7          	lui	a1,0x2a
   12c5c:	2c958593          	add	a1,a1,713 # 2a2c9 <_IO_stdin_used+0x861>
   12c60:	0002a637          	lui	a2,0x2a
   12c64:	c5c60613          	add	a2,a2,-932 # 29c5c <_IO_stdin_used+0x1f4>
   12c68:	ee9fd0ef          	jal	10b50 <fprintf@plt>
   12c6c:	5e81b503          	ld	a0,1512(gp) # 2fdf0 <stderr@GLIBC_2.27>
   12c70:	0002a5b7          	lui	a1,0x2a
   12c74:	2f558593          	add	a1,a1,757 # 2a2f5 <_IO_stdin_used+0x88d>
   12c78:	00000613          	li	a2,0
   12c7c:	ed5fd0ef          	jal	10b50 <fprintf@plt>
   12c80:	5e81b503          	ld	a0,1512(gp) # 2fdf0 <stderr@GLIBC_2.27>
   12c84:	0002a5b7          	lui	a1,0x2a
   12c88:	31558593          	add	a1,a1,789 # 2a315 <_IO_stdin_used+0x8ad>
   12c8c:	00000613          	li	a2,0
   12c90:	ec1fd0ef          	jal	10b50 <fprintf@plt>
   12c94:	5e81b503          	ld	a0,1512(gp) # 2fdf0 <stderr@GLIBC_2.27>
   12c98:	0002a5b7          	lui	a1,0x2a
   12c9c:	33458593          	add	a1,a1,820 # 2a334 <_IO_stdin_used+0x8cc>
   12ca0:	00200613          	li	a2,2
   12ca4:	eadfd0ef          	jal	10b50 <fprintf@plt>
   12ca8:	5e81b503          	ld	a0,1512(gp) # 2fdf0 <stderr@GLIBC_2.27>
   12cac:	0002a5b7          	lui	a1,0x2a
   12cb0:	35058593          	add	a1,a1,848 # 2a350 <_IO_stdin_used+0x8e8>
   12cb4:	00a00613          	li	a2,10
   12cb8:	e99fd0ef          	jal	10b50 <fprintf@plt>
   12cbc:	5e81b503          	ld	a0,1512(gp) # 2fdf0 <stderr@GLIBC_2.27>
   12cc0:	0002a5b7          	lui	a1,0x2a
   12cc4:	38058593          	add	a1,a1,896 # 2a380 <_IO_stdin_used+0x918>
   12cc8:	00a00613          	li	a2,10
   12ccc:	e85fd0ef          	jal	10b50 <fprintf@plt>
   12cd0:	5e81b683          	ld	a3,1512(gp) # 2fdf0 <stderr@GLIBC_2.27>
   12cd4:	0002a537          	lui	a0,0x2a
   12cd8:	3a950513          	add	a0,a0,937 # 2a3a9 <_IO_stdin_used+0x941>
   12cdc:	03e00593          	li	a1,62
   12ce0:	00100613          	li	a2,1
   12ce4:	e7dfd0ef          	jal	10b60 <fwrite@plt>
   12ce8:	5e81b503          	ld	a0,1512(gp) # 2fdf0 <stderr@GLIBC_2.27>
   12cec:	0002a5b7          	lui	a1,0x2a
   12cf0:	3e858593          	add	a1,a1,1000 # 2a3e8 <_IO_stdin_used+0x980>
   12cf4:	00200613          	li	a2,2
   12cf8:	e59fd0ef          	jal	10b50 <fprintf@plt>
   12cfc:	5e81b503          	ld	a0,1512(gp) # 2fdf0 <stderr@GLIBC_2.27>
   12d00:	0002a5b7          	lui	a1,0x2a
   12d04:	42058593          	add	a1,a1,1056 # 2a420 <_IO_stdin_used+0x9b8>
   12d08:	0002a437          	lui	s0,0x2a
   12d0c:	45840413          	add	s0,s0,1112 # 2a458 <_IO_stdin_used+0x9f0>
   12d10:	00040613          	mv	a2,s0
   12d14:	e3dfd0ef          	jal	10b50 <fprintf@plt>
   12d18:	5e81b503          	ld	a0,1512(gp) # 2fdf0 <stderr@GLIBC_2.27>
   12d1c:	0002a5b7          	lui	a1,0x2a
   12d20:	45c58593          	add	a1,a1,1116 # 2a45c <_IO_stdin_used+0x9f4>
   12d24:	00040613          	mv	a2,s0
   12d28:	e29fd0ef          	jal	10b50 <fprintf@plt>
   12d2c:	5e81b503          	ld	a0,1512(gp) # 2fdf0 <stderr@GLIBC_2.27>
   12d30:	0002a5b7          	lui	a1,0x2a
   12d34:	49358593          	add	a1,a1,1171 # 2a493 <_IO_stdin_used+0xa2b>
   12d38:	00040613          	mv	a2,s0
   12d3c:	e15fd0ef          	jal	10b50 <fprintf@plt>
   12d40:	5e81b503          	ld	a0,1512(gp) # 2fdf0 <stderr@GLIBC_2.27>
   12d44:	0002a5b7          	lui	a1,0x2a
   12d48:	4c458593          	add	a1,a1,1220 # 2a4c4 <_IO_stdin_used+0xa5c>
   12d4c:	00040613          	mv	a2,s0
   12d50:	e01fd0ef          	jal	10b50 <fprintf@plt>
   12d54:	5e81b683          	ld	a3,1512(gp) # 2fdf0 <stderr@GLIBC_2.27>
   12d58:	0002a537          	lui	a0,0x2a
   12d5c:	4e650513          	add	a0,a0,1254 # 2a4e6 <_IO_stdin_used+0xa7e>
   12d60:	01700593          	li	a1,23
   12d64:	00100613          	li	a2,1
   12d68:	df9fd0ef          	jal	10b60 <fwrite@plt>
   12d6c:	5e81b683          	ld	a3,1512(gp) # 2fdf0 <stderr@GLIBC_2.27>
   12d70:	0002a537          	lui	a0,0x2a
   12d74:	4fe50513          	add	a0,a0,1278 # 2a4fe <_IO_stdin_used+0xa96>
   12d78:	01900593          	li	a1,25
   12d7c:	00100613          	li	a2,1
   12d80:	de1fd0ef          	jal	10b60 <fwrite@plt>
   12d84:	5e81b683          	ld	a3,1512(gp) # 2fdf0 <stderr@GLIBC_2.27>
   12d88:	0002a537          	lui	a0,0x2a
   12d8c:	51850513          	add	a0,a0,1304 # 2a518 <_IO_stdin_used+0xab0>
   12d90:	05200593          	li	a1,82
   12d94:	00100613          	li	a2,1
   12d98:	01813083          	ld	ra,24(sp)
   12d9c:	01013403          	ld	s0,16(sp)
   12da0:	00813483          	ld	s1,8(sp)
   12da4:	02010113          	add	sp,sp,32
   12da8:	db9fd06f          	j	10b60 <fwrite@plt>

0000000000012dac <AdvancedHelp>:
   12dac:	fe010113          	add	sp,sp,-32
   12db0:	00113c23          	sd	ra,24(sp)
   12db4:	00813823          	sd	s0,16(sp)
   12db8:	00913423          	sd	s1,8(sp)
   12dbc:	5e81b683          	ld	a3,1512(gp) # 2fdf0 <stderr@GLIBC_2.27>
   12dc0:	0002a537          	lui	a0,0x2a
   12dc4:	22b50513          	add	a0,a0,555 # 2a22b <_IO_stdin_used+0x7c3>
   12dc8:	03200593          	li	a1,50
   12dcc:	00100613          	li	a2,1
   12dd0:	d91fd0ef          	jal	10b60 <fwrite@plt>
   12dd4:	5e81b683          	ld	a3,1512(gp) # 2fdf0 <stderr@GLIBC_2.27>
   12dd8:	0002a537          	lui	a0,0x2a
   12ddc:	25e50513          	add	a0,a0,606 # 2a25e <_IO_stdin_used+0x7f6>
   12de0:	00900593          	li	a1,9
   12de4:	00100613          	li	a2,1
   12de8:	d79fd0ef          	jal	10b60 <fwrite@plt>
   12dec:	5e81b683          	ld	a3,1512(gp) # 2fdf0 <stderr@GLIBC_2.27>
   12df0:	0002a537          	lui	a0,0x2a
   12df4:	26850513          	add	a0,a0,616 # 2a268 <_IO_stdin_used+0x800>
   12df8:	03600593          	li	a1,54
   12dfc:	00100613          	li	a2,1
   12e00:	d61fd0ef          	jal	10b60 <fwrite@plt>
   12e04:	5e81b503          	ld	a0,1512(gp) # 2fdf0 <stderr@GLIBC_2.27>
   12e08:	0002a5b7          	lui	a1,0x2a
   12e0c:	29f58593          	add	a1,a1,671 # 2a29f <_IO_stdin_used+0x837>
   12e10:	0002a637          	lui	a2,0x2a
   12e14:	c6960613          	add	a2,a2,-919 # 29c69 <_IO_stdin_used+0x201>
   12e18:	d39fd0ef          	jal	10b50 <fprintf@plt>
   12e1c:	5e81b503          	ld	a0,1512(gp) # 2fdf0 <stderr@GLIBC_2.27>
   12e20:	0002a5b7          	lui	a1,0x2a
   12e24:	2c958593          	add	a1,a1,713 # 2a2c9 <_IO_stdin_used+0x861>
   12e28:	0002a637          	lui	a2,0x2a
   12e2c:	c5c60613          	add	a2,a2,-932 # 29c5c <_IO_stdin_used+0x1f4>
   12e30:	d21fd0ef          	jal	10b50 <fprintf@plt>
   12e34:	5e81b503          	ld	a0,1512(gp) # 2fdf0 <stderr@GLIBC_2.27>
   12e38:	0002a5b7          	lui	a1,0x2a
   12e3c:	2f558593          	add	a1,a1,757 # 2a2f5 <_IO_stdin_used+0x88d>
   12e40:	00000613          	li	a2,0
   12e44:	d0dfd0ef          	jal	10b50 <fprintf@plt>
   12e48:	5e81b503          	ld	a0,1512(gp) # 2fdf0 <stderr@GLIBC_2.27>
   12e4c:	0002a5b7          	lui	a1,0x2a
   12e50:	31558593          	add	a1,a1,789 # 2a315 <_IO_stdin_used+0x8ad>
   12e54:	00000613          	li	a2,0
   12e58:	cf9fd0ef          	jal	10b50 <fprintf@plt>
   12e5c:	5e81b503          	ld	a0,1512(gp) # 2fdf0 <stderr@GLIBC_2.27>
   12e60:	0002a5b7          	lui	a1,0x2a
   12e64:	33458593          	add	a1,a1,820 # 2a334 <_IO_stdin_used+0x8cc>
   12e68:	00200613          	li	a2,2
   12e6c:	ce5fd0ef          	jal	10b50 <fprintf@plt>
   12e70:	5e81b683          	ld	a3,1512(gp) # 2fdf0 <stderr@GLIBC_2.27>
   12e74:	0002a537          	lui	a0,0x2a
   12e78:	56b50513          	add	a0,a0,1387 # 2a56b <_IO_stdin_used+0xb03>
   12e7c:	03b00593          	li	a1,59
   12e80:	00100613          	li	a2,1
   12e84:	cddfd0ef          	jal	10b60 <fwrite@plt>
   12e88:	5e81b683          	ld	a3,1512(gp) # 2fdf0 <stderr@GLIBC_2.27>
   12e8c:	0002a537          	lui	a0,0x2a
   12e90:	5a750513          	add	a0,a0,1447 # 2a5a7 <_IO_stdin_used+0xb3f>
   12e94:	03b00593          	li	a1,59
   12e98:	00100613          	li	a2,1
   12e9c:	cc5fd0ef          	jal	10b60 <fwrite@plt>
   12ea0:	5e81b503          	ld	a0,1512(gp) # 2fdf0 <stderr@GLIBC_2.27>
   12ea4:	0002a5b7          	lui	a1,0x2a
   12ea8:	5e358593          	add	a1,a1,1507 # 2a5e3 <_IO_stdin_used+0xb7b>
   12eac:	00f00613          	li	a2,15
   12eb0:	ca1fd0ef          	jal	10b50 <fprintf@plt>
   12eb4:	5e81b503          	ld	a0,1512(gp) # 2fdf0 <stderr@GLIBC_2.27>
   12eb8:	0002a5b7          	lui	a1,0x2a
   12ebc:	35058593          	add	a1,a1,848 # 2a350 <_IO_stdin_used+0x8e8>
   12ec0:	00a00613          	li	a2,10
   12ec4:	c8dfd0ef          	jal	10b50 <fprintf@plt>
   12ec8:	5e81b503          	ld	a0,1512(gp) # 2fdf0 <stderr@GLIBC_2.27>
   12ecc:	0002a5b7          	lui	a1,0x2a
   12ed0:	38058593          	add	a1,a1,896 # 2a380 <_IO_stdin_used+0x918>
   12ed4:	00a00613          	li	a2,10
   12ed8:	c79fd0ef          	jal	10b50 <fprintf@plt>
   12edc:	5e81b683          	ld	a3,1512(gp) # 2fdf0 <stderr@GLIBC_2.27>
   12ee0:	0002a537          	lui	a0,0x2a
   12ee4:	3a950513          	add	a0,a0,937 # 2a3a9 <_IO_stdin_used+0x941>
   12ee8:	03e00593          	li	a1,62
   12eec:	00100613          	li	a2,1
   12ef0:	c71fd0ef          	jal	10b60 <fwrite@plt>
   12ef4:	5e81b503          	ld	a0,1512(gp) # 2fdf0 <stderr@GLIBC_2.27>
   12ef8:	0002a5b7          	lui	a1,0x2a
   12efc:	61358593          	add	a1,a1,1555 # 2a613 <_IO_stdin_used+0xbab>
   12f00:	01009637          	lui	a2,0x1009
   12f04:	02661613          	sll	a2,a2,0x26
   12f08:	c49fd0ef          	jal	10b50 <fprintf@plt>
   12f0c:	5e81b503          	ld	a0,1512(gp) # 2fdf0 <stderr@GLIBC_2.27>
   12f10:	0002a5b7          	lui	a1,0x2a
   12f14:	3e858593          	add	a1,a1,1000 # 2a3e8 <_IO_stdin_used+0x980>
   12f18:	00200613          	li	a2,2
   12f1c:	c35fd0ef          	jal	10b50 <fprintf@plt>
   12f20:	5e81b503          	ld	a0,1512(gp) # 2fdf0 <stderr@GLIBC_2.27>
   12f24:	0002a5b7          	lui	a1,0x2a
   12f28:	63858593          	add	a1,a1,1592 # 2a638 <_IO_stdin_used+0xbd0>
   12f2c:	0201f637          	lui	a2,0x201f
   12f30:	02561613          	sll	a2,a2,0x25
   12f34:	c1dfd0ef          	jal	10b50 <fprintf@plt>
   12f38:	5e81b503          	ld	a0,1512(gp) # 2fdf0 <stderr@GLIBC_2.27>
   12f3c:	0002a5b7          	lui	a1,0x2a
   12f40:	66c58593          	add	a1,a1,1644 # 2a66c <_IO_stdin_used+0xc04>
   12f44:	00000613          	li	a2,0
   12f48:	c09fd0ef          	jal	10b50 <fprintf@plt>
   12f4c:	5e81b503          	ld	a0,1512(gp) # 2fdf0 <stderr@GLIBC_2.27>
   12f50:	0002a5b7          	lui	a1,0x2a
   12f54:	6b658593          	add	a1,a1,1718 # 2a6b6 <_IO_stdin_used+0xc4e>
   12f58:	00000613          	li	a2,0
   12f5c:	bf5fd0ef          	jal	10b50 <fprintf@plt>
   12f60:	5e81b503          	ld	a0,1512(gp) # 2fdf0 <stderr@GLIBC_2.27>
   12f64:	0002a5b7          	lui	a1,0x2a
   12f68:	6e958593          	add	a1,a1,1769 # 2a6e9 <_IO_stdin_used+0xc81>
   12f6c:	00000613          	li	a2,0
   12f70:	be1fd0ef          	jal	10b50 <fprintf@plt>
   12f74:	5e81b683          	ld	a3,1512(gp) # 2fdf0 <stderr@GLIBC_2.27>
   12f78:	0002a537          	lui	a0,0x2a
   12f7c:	71c50513          	add	a0,a0,1820 # 2a71c <_IO_stdin_used+0xcb4>
   12f80:	03100593          	li	a1,49
   12f84:	00100613          	li	a2,1
   12f88:	bd9fd0ef          	jal	10b60 <fwrite@plt>
   12f8c:	5e81b503          	ld	a0,1512(gp) # 2fdf0 <stderr@GLIBC_2.27>
   12f90:	0002a5b7          	lui	a1,0x2a
   12f94:	74e58593          	add	a1,a1,1870 # 2a74e <_IO_stdin_used+0xce6>
   12f98:	0002a637          	lui	a2,0x2a
   12f9c:	b5c60613          	add	a2,a2,-1188 # 29b5c <_IO_stdin_used+0xf4>
   12fa0:	0002a437          	lui	s0,0x2a
   12fa4:	45840413          	add	s0,s0,1112 # 2a458 <_IO_stdin_used+0x9f0>
   12fa8:	00040693          	mv	a3,s0
   12fac:	ba5fd0ef          	jal	10b50 <fprintf@plt>
   12fb0:	5e81b503          	ld	a0,1512(gp) # 2fdf0 <stderr@GLIBC_2.27>
   12fb4:	0002a5b7          	lui	a1,0x2a
   12fb8:	77c58593          	add	a1,a1,1916 # 2a77c <_IO_stdin_used+0xd14>
   12fbc:	00040613          	mv	a2,s0
   12fc0:	b91fd0ef          	jal	10b50 <fprintf@plt>
   12fc4:	5e81b503          	ld	a0,1512(gp) # 2fdf0 <stderr@GLIBC_2.27>
   12fc8:	0002a5b7          	lui	a1,0x2a
   12fcc:	7b258593          	add	a1,a1,1970 # 2a7b2 <_IO_stdin_used+0xd4a>
   12fd0:	00040613          	mv	a2,s0
   12fd4:	b7dfd0ef          	jal	10b50 <fprintf@plt>
   12fd8:	5e81b503          	ld	a0,1512(gp) # 2fdf0 <stderr@GLIBC_2.27>
   12fdc:	0002a5b7          	lui	a1,0x2a
   12fe0:	42058593          	add	a1,a1,1056 # 2a420 <_IO_stdin_used+0x9b8>
   12fe4:	00040613          	mv	a2,s0
   12fe8:	b69fd0ef          	jal	10b50 <fprintf@plt>
   12fec:	5e81b503          	ld	a0,1512(gp) # 2fdf0 <stderr@GLIBC_2.27>
   12ff0:	0002a5b7          	lui	a1,0x2a
   12ff4:	45c58593          	add	a1,a1,1116 # 2a45c <_IO_stdin_used+0x9f4>
   12ff8:	00040613          	mv	a2,s0
   12ffc:	b55fd0ef          	jal	10b50 <fprintf@plt>
   13000:	5e81b503          	ld	a0,1512(gp) # 2fdf0 <stderr@GLIBC_2.27>
   13004:	0002a5b7          	lui	a1,0x2a
   13008:	49358593          	add	a1,a1,1171 # 2a493 <_IO_stdin_used+0xa2b>
   1300c:	00040613          	mv	a2,s0
   13010:	b41fd0ef          	jal	10b50 <fprintf@plt>
   13014:	5e81b503          	ld	a0,1512(gp) # 2fdf0 <stderr@GLIBC_2.27>
   13018:	0002a5b7          	lui	a1,0x2a
   1301c:	4c458593          	add	a1,a1,1220 # 2a4c4 <_IO_stdin_used+0xa5c>
   13020:	00040613          	mv	a2,s0
   13024:	b2dfd0ef          	jal	10b50 <fprintf@plt>
   13028:	5e81b503          	ld	a0,1512(gp) # 2fdf0 <stderr@GLIBC_2.27>
   1302c:	0002a5b7          	lui	a1,0x2a
   13030:	7e758593          	add	a1,a1,2023 # 2a7e7 <_IO_stdin_used+0xd7f>
   13034:	00200613          	li	a2,2
   13038:	b19fd0ef          	jal	10b50 <fprintf@plt>
   1303c:	5e81b683          	ld	a3,1512(gp) # 2fdf0 <stderr@GLIBC_2.27>
   13040:	0002a537          	lui	a0,0x2a
   13044:	4e650513          	add	a0,a0,1254 # 2a4e6 <_IO_stdin_used+0xa7e>
   13048:	01700593          	li	a1,23
   1304c:	00100613          	li	a2,1
   13050:	b11fd0ef          	jal	10b60 <fwrite@plt>
   13054:	5e81b683          	ld	a3,1512(gp) # 2fdf0 <stderr@GLIBC_2.27>
   13058:	0002a537          	lui	a0,0x2a
   1305c:	4fe50513          	add	a0,a0,1278 # 2a4fe <_IO_stdin_used+0xa96>
   13060:	01900593          	li	a1,25
   13064:	00100613          	li	a2,1
   13068:	af9fd0ef          	jal	10b60 <fwrite@plt>
   1306c:	5e81b683          	ld	a3,1512(gp) # 2fdf0 <stderr@GLIBC_2.27>
   13070:	0002a537          	lui	a0,0x2a
   13074:	51850513          	add	a0,a0,1304 # 2a518 <_IO_stdin_used+0xab0>
   13078:	05200593          	li	a1,82
   1307c:	00100613          	li	a2,1
   13080:	01813083          	ld	ra,24(sp)
   13084:	01013403          	ld	s0,16(sp)
   13088:	00813483          	ld	s1,8(sp)
   1308c:	02010113          	add	sp,sp,32
   13090:	ad1fd06f          	j	10b60 <fwrite@plt>

0000000000013094 <ReadImage>:
   13094:	fc010113          	add	sp,sp,-64
   13098:	02113c23          	sd	ra,56(sp)
   1309c:	02813823          	sd	s0,48(sp)
   130a0:	02913423          	sd	s1,40(sp)
   130a4:	03213023          	sd	s2,32(sp)
   130a8:	01313c23          	sd	s3,24(sp)
   130ac:	01413823          	sd	s4,16(sp)
   130b0:	01513423          	sd	s5,8(sp)
   130b4:	5941a683          	lw	a3,1428(gp) # 2fd9c <pels>
   130b8:	5981a703          	lw	a4,1432(gp) # 2fda0 <lines>
   130bc:	00060a93          	mv	s5,a2
   130c0:	00058493          	mv	s1,a1
   130c4:	00050413          	mv	s0,a0
   130c8:	02e68533          	mul	a0,a3,a4
   130cc:	00151593          	sll	a1,a0,0x1
   130d0:	00a58533          	add	a0,a1,a0
   130d4:	01f5559b          	srlw	a1,a0,0x1f
   130d8:	00b50533          	add	a0,a0,a1
   130dc:	4015599b          	sraw	s3,a0,0x1
   130e0:	00098513          	mv	a0,s3
   130e4:	a9dfd0ef          	jal	10b80 <malloc@plt>
   130e8:	08050e63          	beqz	a0,13184 <ReadImage+0xf0>
   130ec:	00050913          	mv	s2,a0
   130f0:	0002b5b7          	lui	a1,0x2b
   130f4:	91f58593          	add	a1,a1,-1761 # 2a91f <_IO_stdin_used+0xeb7>
   130f8:	00040513          	mv	a0,s0
   130fc:	b95fd0ef          	jal	10c90 <fopen@plt>
   13100:	0a050263          	beqz	a0,131a4 <ReadImage+0x110>
   13104:	00050a13          	mv	s4,a0
   13108:	b69fd0ef          	jal	10c70 <rewind@plt>
   1310c:	02998533          	mul	a0,s3,s1
   13110:	015505bb          	addw	a1,a0,s5
   13114:	000a0513          	mv	a0,s4
   13118:	00000613          	li	a2,0
   1311c:	a55fd0ef          	jal	10b70 <fseek@plt>
   13120:	0a051063          	bnez	a0,131c0 <ReadImage+0x12c>
   13124:	5f01b503          	ld	a0,1520(gp) # 2fdf8 <stdout@GLIBC_2.27>
   13128:	0002b5b7          	lui	a1,0x2b
   1312c:	96f58593          	add	a1,a1,-1681 # 2a96f <_IO_stdin_used+0xf07>
   13130:	00048613          	mv	a2,s1
   13134:	a1dfd0ef          	jal	10b50 <fprintf@plt>
   13138:	00100593          	li	a1,1
   1313c:	00090513          	mv	a0,s2
   13140:	00098613          	mv	a2,s3
   13144:	000a0693          	mv	a3,s4
   13148:	aa9fd0ef          	jal	10bf0 <fread@plt>
   1314c:	0005051b          	sext.w	a0,a0
   13150:	08a99063          	bne	s3,a0,131d0 <ReadImage+0x13c>
   13154:	000a0513          	mv	a0,s4
   13158:	b29fd0ef          	jal	10c80 <fclose@plt>
   1315c:	00090513          	mv	a0,s2
   13160:	03813083          	ld	ra,56(sp)
   13164:	03013403          	ld	s0,48(sp)
   13168:	02813483          	ld	s1,40(sp)
   1316c:	02013903          	ld	s2,32(sp)
   13170:	01813983          	ld	s3,24(sp)
   13174:	01013a03          	ld	s4,16(sp)
   13178:	00813a83          	ld	s5,8(sp)
   1317c:	04010113          	add	sp,sp,64
   13180:	00008067          	ret
   13184:	5e81b683          	ld	a3,1512(gp) # 2fdf0 <stderr@GLIBC_2.27>
   13188:	0002b537          	lui	a0,0x2b
   1318c:	8fc50513          	add	a0,a0,-1796 # 2a8fc <_IO_stdin_used+0xe94>
   13190:	02200593          	li	a1,34
   13194:	00100613          	li	a2,1
   13198:	9c9fd0ef          	jal	10b60 <fwrite@plt>
   1319c:	fff00513          	li	a0,-1
   131a0:	aa1fd0ef          	jal	10c40 <exit@plt>
   131a4:	5e81b503          	ld	a0,1512(gp) # 2fdf0 <stderr@GLIBC_2.27>
   131a8:	0002b5b7          	lui	a1,0x2b
   131ac:	92258593          	add	a1,a1,-1758 # 2a922 <_IO_stdin_used+0xeba>
   131b0:	00040613          	mv	a2,s0
   131b4:	99dfd0ef          	jal	10b50 <fprintf@plt>
   131b8:	fff00513          	li	a0,-1
   131bc:	a85fd0ef          	jal	10c40 <exit@plt>
   131c0:	5e81b503          	ld	a0,1512(gp) # 2fdf0 <stderr@GLIBC_2.27>
   131c4:	0002b5b7          	lui	a1,0x2b
   131c8:	94158593          	add	a1,a1,-1727 # 2a941 <_IO_stdin_used+0xed9>
   131cc:	0100006f          	j	131dc <ReadImage+0x148>
   131d0:	5e81b503          	ld	a0,1512(gp) # 2fdf0 <stderr@GLIBC_2.27>
   131d4:	0002b5b7          	lui	a1,0x2b
   131d8:	98558593          	add	a1,a1,-1659 # 2a985 <_IO_stdin_used+0xf1d>
   131dc:	00048613          	mv	a2,s1
   131e0:	971fd0ef          	jal	10b50 <fprintf@plt>
   131e4:	5e81b503          	ld	a0,1512(gp) # 2fdf0 <stderr@GLIBC_2.27>
   131e8:	0002b5b7          	lui	a1,0x2b
   131ec:	96058593          	add	a1,a1,-1696 # 2a960 <_IO_stdin_used+0xef8>
   131f0:	00040613          	mv	a2,s0
   131f4:	95dfd0ef          	jal	10b50 <fprintf@plt>
   131f8:	fff00513          	li	a0,-1
   131fc:	a45fd0ef          	jal	10c40 <exit@plt>

0000000000013200 <FillImage>:
   13200:	fd010113          	add	sp,sp,-48
   13204:	02113423          	sd	ra,40(sp)
   13208:	02813023          	sd	s0,32(sp)
   1320c:	00913c23          	sd	s1,24(sp)
   13210:	01213823          	sd	s2,16(sp)
   13214:	01313423          	sd	s3,8(sp)
   13218:	5941a583          	lw	a1,1428(gp) # 2fd9c <pels>
   1321c:	5981a603          	lw	a2,1432(gp) # 2fda0 <lines>
   13220:	00050413          	mv	s0,a0
   13224:	02b6053b          	mulw	a0,a2,a1
   13228:	09c000ef          	jal	132c4 <InitImage>
   1322c:	00050493          	mv	s1,a0
   13230:	5941a583          	lw	a1,1428(gp) # 2fd9c <pels>
   13234:	5981a603          	lw	a2,1432(gp) # 2fda0 <lines>
   13238:	00053503          	ld	a0,0(a0)
   1323c:	02b6063b          	mulw	a2,a2,a1
   13240:	00040593          	mv	a1,s0
   13244:	98dfd0ef          	jal	10bd0 <memcpy@plt>
   13248:	5941a583          	lw	a1,1428(gp) # 2fd9c <pels>
   1324c:	5981a603          	lw	a2,1432(gp) # 2fda0 <lines>
   13250:	0104b503          	ld	a0,16(s1)
   13254:	02b6063b          	mulw	a2,a2,a1
   13258:	00c405b3          	add	a1,s0,a2
   1325c:	41f6569b          	sraw	a3,a2,0x1f
   13260:	01e6d69b          	srlw	a3,a3,0x1e
   13264:	00d60633          	add	a2,a2,a3
   13268:	4026561b          	sraw	a2,a2,0x2
   1326c:	965fd0ef          	jal	10bd0 <memcpy@plt>
   13270:	5941a583          	lw	a1,1428(gp) # 2fd9c <pels>
   13274:	5981a603          	lw	a2,1432(gp) # 2fda0 <lines>
   13278:	0084b503          	ld	a0,8(s1)
   1327c:	02b605bb          	mulw	a1,a2,a1
   13280:	00b406b3          	add	a3,s0,a1
   13284:	41f5d61b          	sraw	a2,a1,0x1f
   13288:	01e6561b          	srlw	a2,a2,0x1e
   1328c:	00c585b3          	add	a1,a1,a2
   13290:	4025d61b          	sraw	a2,a1,0x2
   13294:	00c685b3          	add	a1,a3,a2
   13298:	939fd0ef          	jal	10bd0 <memcpy@plt>
   1329c:	00040513          	mv	a0,s0
   132a0:	a11fd0ef          	jal	10cb0 <free@plt>
   132a4:	00048513          	mv	a0,s1
   132a8:	02813083          	ld	ra,40(sp)
   132ac:	02013403          	ld	s0,32(sp)
   132b0:	01813483          	ld	s1,24(sp)
   132b4:	01013903          	ld	s2,16(sp)
   132b8:	00813983          	ld	s3,8(sp)
   132bc:	03010113          	add	sp,sp,48
   132c0:	00008067          	ret

00000000000132c4 <InitImage>:
   132c4:	fe010113          	add	sp,sp,-32
   132c8:	00113c23          	sd	ra,24(sp)
   132cc:	00813823          	sd	s0,16(sp)
   132d0:	00913423          	sd	s1,8(sp)
   132d4:	00050493          	mv	s1,a0
   132d8:	01800513          	li	a0,24
   132dc:	8a5fd0ef          	jal	10b80 <malloc@plt>
   132e0:	04050a63          	beqz	a0,13334 <InitImage+0x70>
   132e4:	00050413          	mv	s0,a0
   132e8:	00048513          	mv	a0,s1
   132ec:	895fd0ef          	jal	10b80 <malloc@plt>
   132f0:	00a43023          	sd	a0,0(s0)
   132f4:	04050863          	beqz	a0,13344 <InitImage+0x80>
   132f8:	0024d493          	srl	s1,s1,0x2
   132fc:	00048513          	mv	a0,s1
   13300:	881fd0ef          	jal	10b80 <malloc@plt>
   13304:	00a43423          	sd	a0,8(s0)
   13308:	04050e63          	beqz	a0,13364 <InitImage+0xa0>
   1330c:	00048513          	mv	a0,s1
   13310:	871fd0ef          	jal	10b80 <malloc@plt>
   13314:	00a43823          	sd	a0,16(s0)
   13318:	04050e63          	beqz	a0,13374 <InitImage+0xb0>
   1331c:	00040513          	mv	a0,s0
   13320:	01813083          	ld	ra,24(sp)
   13324:	01013403          	ld	s0,16(sp)
   13328:	00813483          	ld	s1,8(sp)
   1332c:	02010113          	add	sp,sp,32
   13330:	00008067          	ret
   13334:	5e81b683          	ld	a3,1512(gp) # 2fdf0 <stderr@GLIBC_2.27>
   13338:	0002b537          	lui	a0,0x2b
   1333c:	9e050513          	add	a0,a0,-1568 # 2a9e0 <_IO_stdin_used+0xf78>
   13340:	0400006f          	j	13380 <InitImage+0xbc>
   13344:	5e81b683          	ld	a3,1512(gp) # 2fdf0 <stderr@GLIBC_2.27>
   13348:	0002b537          	lui	a0,0x2b
   1334c:	a0150513          	add	a0,a0,-1535 # 2aa01 <_IO_stdin_used+0xf99>
   13350:	02700593          	li	a1,39
   13354:	00100613          	li	a2,1
   13358:	809fd0ef          	jal	10b60 <fwrite@plt>
   1335c:	fff00513          	li	a0,-1
   13360:	8e1fd0ef          	jal	10c40 <exit@plt>
   13364:	5e81b683          	ld	a3,1512(gp) # 2fdf0 <stderr@GLIBC_2.27>
   13368:	0002b537          	lui	a0,0x2b
   1336c:	a2950513          	add	a0,a0,-1495 # 2aa29 <_IO_stdin_used+0xfc1>
   13370:	0100006f          	j	13380 <InitImage+0xbc>
   13374:	5e81b683          	ld	a3,1512(gp) # 2fdf0 <stderr@GLIBC_2.27>
   13378:	0002b537          	lui	a0,0x2b
   1337c:	a4a50513          	add	a0,a0,-1462 # 2aa4a <_IO_stdin_used+0xfe2>
   13380:	02000593          	li	a1,32
   13384:	00100613          	li	a2,1
   13388:	fd8fd0ef          	jal	10b60 <fwrite@plt>
   1338c:	fff00513          	li	a0,-1
   13390:	8b1fd0ef          	jal	10c40 <exit@plt>

0000000000013394 <WriteImage>:
   13394:	fd010113          	add	sp,sp,-48
   13398:	02113423          	sd	ra,40(sp)
   1339c:	02813023          	sd	s0,32(sp)
   133a0:	00913c23          	sd	s1,24(sp)
   133a4:	01213823          	sd	s2,16(sp)
   133a8:	01313423          	sd	s3,8(sp)
   133ac:	01413023          	sd	s4,0(sp)
   133b0:	00058413          	mv	s0,a1
   133b4:	00050913          	mv	s2,a0
   133b8:	0002b5b7          	lui	a1,0x2b
   133bc:	9a458593          	add	a1,a1,-1628 # 2a9a4 <_IO_stdin_used+0xf3c>
   133c0:	00040513          	mv	a0,s0
   133c4:	8cdfd0ef          	jal	10c90 <fopen@plt>
   133c8:	0e050e63          	beqz	a0,134c4 <WriteImage+0x130>
   133cc:	00050493          	mv	s1,a0
   133d0:	5941a583          	lw	a1,1428(gp) # 2fd9c <pels>
   133d4:	5981a603          	lw	a2,1432(gp) # 2fda0 <lines>
   133d8:	00093503          	ld	a0,0(s2)
   133dc:	02b6063b          	mulw	a2,a2,a1
   133e0:	00100593          	li	a1,1
   133e4:	00048693          	mv	a3,s1
   133e8:	f78fd0ef          	jal	10b60 <fwrite@plt>
   133ec:	5941a583          	lw	a1,1428(gp) # 2fd9c <pels>
   133f0:	5981a603          	lw	a2,1432(gp) # 2fda0 <lines>
   133f4:	0005069b          	sext.w	a3,a0
   133f8:	02b605bb          	mulw	a1,a2,a1
   133fc:	0ad59263          	bne	a1,a3,134a0 <WriteImage+0x10c>
   13400:	01093683          	ld	a3,16(s2)
   13404:	41f5559b          	sraw	a1,a0,0x1f
   13408:	01e5d59b          	srlw	a1,a1,0x1e
   1340c:	00b50533          	add	a0,a0,a1
   13410:	4025561b          	sraw	a2,a0,0x2
   13414:	00100593          	li	a1,1
   13418:	00068513          	mv	a0,a3
   1341c:	00048693          	mv	a3,s1
   13420:	f40fd0ef          	jal	10b60 <fwrite@plt>
   13424:	5941a583          	lw	a1,1428(gp) # 2fd9c <pels>
   13428:	5981a683          	lw	a3,1432(gp) # 2fda0 <lines>
   1342c:	0005061b          	sext.w	a2,a0
   13430:	02b68533          	mul	a0,a3,a1
   13434:	41f5559b          	sraw	a1,a0,0x1f
   13438:	01e5d59b          	srlw	a1,a1,0x1e
   1343c:	00b50533          	add	a0,a0,a1
   13440:	4025551b          	sraw	a0,a0,0x2
   13444:	04c51e63          	bne	a0,a2,134a0 <WriteImage+0x10c>
   13448:	00893503          	ld	a0,8(s2)
   1344c:	00100593          	li	a1,1
   13450:	00048693          	mv	a3,s1
   13454:	f0cfd0ef          	jal	10b60 <fwrite@plt>
   13458:	5941a583          	lw	a1,1428(gp) # 2fd9c <pels>
   1345c:	5981a603          	lw	a2,1432(gp) # 2fda0 <lines>
   13460:	0005051b          	sext.w	a0,a0
   13464:	02b605b3          	mul	a1,a2,a1
   13468:	41f5d61b          	sraw	a2,a1,0x1f
   1346c:	01e6561b          	srlw	a2,a2,0x1e
   13470:	00c585b3          	add	a1,a1,a2
   13474:	4025d59b          	sraw	a1,a1,0x2
   13478:	02a59463          	bne	a1,a0,134a0 <WriteImage+0x10c>
   1347c:	00048513          	mv	a0,s1
   13480:	02813083          	ld	ra,40(sp)
   13484:	02013403          	ld	s0,32(sp)
   13488:	01813483          	ld	s1,24(sp)
   1348c:	01013903          	ld	s2,16(sp)
   13490:	00813983          	ld	s3,8(sp)
   13494:	00013a03          	ld	s4,0(sp)
   13498:	03010113          	add	sp,sp,48
   1349c:	fe4fd06f          	j	10c80 <fclose@plt>
   134a0:	5e81b503          	ld	a0,1512(gp) # 2fdf0 <stderr@GLIBC_2.27>
   134a4:	0002b5b7          	lui	a1,0x2b
   134a8:	9a758593          	add	a1,a1,-1625 # 2a9a7 <_IO_stdin_used+0xf3f>
   134ac:	0002b637          	lui	a2,0x2b
   134b0:	9c560613          	add	a2,a2,-1595 # 2a9c5 <_IO_stdin_used+0xf5d>
   134b4:	00040693          	mv	a3,s0
   134b8:	e98fd0ef          	jal	10b50 <fprintf@plt>
   134bc:	fff00513          	li	a0,-1
   134c0:	f80fd0ef          	jal	10c40 <exit@plt>
   134c4:	5e81b503          	ld	a0,1512(gp) # 2fdf0 <stderr@GLIBC_2.27>
   134c8:	0002b5b7          	lui	a1,0x2b
   134cc:	9a758593          	add	a1,a1,-1625 # 2a9a7 <_IO_stdin_used+0xf3f>
   134d0:	0002b637          	lui	a2,0x2b
   134d4:	9ad60613          	add	a2,a2,-1619 # 2a9ad <_IO_stdin_used+0xf45>
   134d8:	00040693          	mv	a3,s0
   134dc:	e74fd0ef          	jal	10b50 <fprintf@plt>
   134e0:	fff00513          	li	a0,-1
   134e4:	f5cfd0ef          	jal	10c40 <exit@plt>

00000000000134e8 <FreeImage>:
   134e8:	ff010113          	add	sp,sp,-16
   134ec:	00113423          	sd	ra,8(sp)
   134f0:	00813023          	sd	s0,0(sp)
   134f4:	00050413          	mv	s0,a0
   134f8:	00053503          	ld	a0,0(a0)
   134fc:	fb4fd0ef          	jal	10cb0 <free@plt>
   13500:	00843503          	ld	a0,8(s0)
   13504:	facfd0ef          	jal	10cb0 <free@plt>
   13508:	01043503          	ld	a0,16(s0)
   1350c:	fa4fd0ef          	jal	10cb0 <free@plt>
   13510:	00040513          	mv	a0,s0
   13514:	00813083          	ld	ra,8(sp)
   13518:	00013403          	ld	s0,0(sp)
   1351c:	01010113          	add	sp,sp,16
   13520:	f90fd06f          	j	10cb0 <free@plt>

0000000000013524 <Dct>:
   13524:	ef010113          	add	sp,sp,-272
   13528:	10813427          	fsd	fs0,264(sp)
   1352c:	5101a787          	flw	fa5,1296(gp) # 2fd18 <__TMC_END__+0x158>
   13530:	5141a707          	flw	fa4,1300(gp) # 2fd1c <__TMC_END__+0x15c>
   13534:	5181a687          	flw	fa3,1304(gp) # 2fd20 <__TMC_END__+0x160>
   13538:	51c1a607          	flw	fa2,1308(gp) # 2fd24 <__TMC_END__+0x164>
   1353c:	5201a587          	flw	fa1,1312(gp) # 2fd28 <__TMC_END__+0x168>
   13540:	5241a507          	flw	fa0,1316(gp) # 2fd2c <__TMC_END__+0x16c>
   13544:	5281a007          	flw	ft0,1320(gp) # 2fd30 <__TMC_END__+0x170>
   13548:	52c1a087          	flw	ft1,1324(gp) # 2fd34 <__TMC_END__+0x174>
   1354c:	5301a107          	flw	ft2,1328(gp) # 2fd38 <__TMC_END__+0x178>
   13550:	5341a187          	flw	ft3,1332(gp) # 2fd3c <__TMC_END__+0x17c>
   13554:	5381a207          	flw	ft4,1336(gp) # 2fd40 <__TMC_END__+0x180>
   13558:	01810613          	add	a2,sp,24
   1355c:	01050693          	add	a3,a0,16
   13560:	11810513          	add	a0,sp,280
   13564:	ff06a703          	lw	a4,-16(a3)
   13568:	ff46a783          	lw	a5,-12(a3)
   1356c:	ff86a803          	lw	a6,-8(a3)
   13570:	ffc6a883          	lw	a7,-4(a3)
   13574:	d00772d3          	fcvt.s.w	ft5,a4
   13578:	d007f353          	fcvt.s.w	ft6,a5
   1357c:	d00873d3          	fcvt.s.w	ft7,a6
   13580:	d008f853          	fcvt.s.w	fa6,a7
   13584:	0006a703          	lw	a4,0(a3)
   13588:	0046a783          	lw	a5,4(a3)
   1358c:	0086a803          	lw	a6,8(a3)
   13590:	00c6a883          	lw	a7,12(a3)
   13594:	d00778d3          	fcvt.s.w	fa7,a4
   13598:	d007fe53          	fcvt.s.w	ft8,a5
   1359c:	d0087ed3          	fcvt.s.w	ft9,a6
   135a0:	d008ff53          	fcvt.s.w	ft10,a7
   135a4:	01e2ffd3          	fadd.s	ft11,ft5,ft10
   135a8:	09e2f2d3          	fsub.s	ft5,ft5,ft10
   135ac:	01d37f53          	fadd.s	ft10,ft6,ft9
   135b0:	09d37353          	fsub.s	ft6,ft6,ft9
   135b4:	01c3fed3          	fadd.s	ft9,ft7,ft8
   135b8:	09c3f3d3          	fsub.s	ft7,ft7,ft8
   135bc:	01187e53          	fadd.s	ft8,fa6,fa7
   135c0:	09187853          	fsub.s	fa6,fa6,fa7
   135c4:	01cff8d3          	fadd.s	fa7,ft11,ft8
   135c8:	01df7453          	fadd.s	fs0,ft10,ft9
   135cc:	09df7ed3          	fsub.s	ft9,ft10,ft9
   135d0:	09cffe53          	fsub.s	ft8,ft11,ft8
   135d4:	08737f53          	fsub.s	ft10,ft6,ft7
   135d8:	10ff7f53          	fmul.s	ft10,ft10,fa5
   135dc:	00737353          	fadd.s	ft6,ft6,ft7
   135e0:	10f37353          	fmul.s	ft6,ft6,fa5
   135e4:	0088f3d3          	fadd.s	ft7,fa7,fs0
   135e8:	10e3f3d3          	fmul.s	ft7,ft7,fa4
   135ec:	fe762827          	fsw	ft7,-16(a2)
   135f0:	0888f3d3          	fsub.s	ft7,fa7,fs0
   135f4:	10e3f3d3          	fmul.s	ft7,ft7,fa4
   135f8:	00762027          	fsw	ft7,0(a2)
   135fc:	10de73d3          	fmul.s	ft7,ft8,fa3
   13600:	38cef3c3          	fmadd.s	ft7,ft9,fa2,ft7
   13604:	fe762c27          	fsw	ft7,-8(a2)
   13608:	10bef3d3          	fmul.s	ft7,ft9,fa1
   1360c:	38ce73c3          	fmadd.s	ft7,ft8,fa2,ft7
   13610:	00762427          	fsw	ft7,8(a2)
   13614:	01e873d3          	fadd.s	ft7,fa6,ft10
   13618:	005378d3          	fadd.s	fa7,ft6,ft5
   1361c:	09e87853          	fsub.s	fa6,fa6,ft10
   13620:	0862f2d3          	fsub.s	ft5,ft5,ft6
   13624:	10a8f353          	fmul.s	ft6,fa7,fa0
   13628:	3003f343          	fmadd.s	ft6,ft7,ft0,ft6
   1362c:	fe662a27          	fsw	ft6,-12(a2)
   13630:	1012f353          	fmul.s	ft6,ft5,ft1
   13634:	30287343          	fmadd.s	ft6,fa6,ft2,ft6
   13638:	00662227          	fsw	ft6,4(a2)
   1363c:	1033f353          	fmul.s	ft6,ft7,ft3
   13640:	3008f343          	fmadd.s	ft6,fa7,ft0,ft6
   13644:	00662627          	fsw	ft6,12(a2)
   13648:	10487353          	fmul.s	ft6,fa6,ft4
   1364c:	3022f2c3          	fmadd.s	ft5,ft5,ft2,ft6
   13650:	fe562e27          	fsw	ft5,-4(a2)
   13654:	02060613          	add	a2,a2,32
   13658:	02068693          	add	a3,a3,32
   1365c:	f0a614e3          	bne	a2,a0,13564 <Dct+0x40>
   13660:	5101a787          	flw	fa5,1296(gp) # 2fd18 <__TMC_END__+0x158>
   13664:	5141a707          	flw	fa4,1300(gp) # 2fd1c <__TMC_END__+0x15c>
   13668:	5181a687          	flw	fa3,1304(gp) # 2fd20 <__TMC_END__+0x160>
   1366c:	51c1a607          	flw	fa2,1308(gp) # 2fd24 <__TMC_END__+0x164>
   13670:	5201a587          	flw	fa1,1312(gp) # 2fd28 <__TMC_END__+0x168>
   13674:	5241a507          	flw	fa0,1316(gp) # 2fd2c <__TMC_END__+0x16c>
   13678:	5281a007          	flw	ft0,1320(gp) # 2fd30 <__TMC_END__+0x170>
   1367c:	52c1a087          	flw	ft1,1324(gp) # 2fd34 <__TMC_END__+0x174>
   13680:	5301a107          	flw	ft2,1328(gp) # 2fd38 <__TMC_END__+0x178>
   13684:	5341a187          	flw	ft3,1332(gp) # 2fd3c <__TMC_END__+0x17c>
   13688:	5381a207          	flw	ft4,1336(gp) # 2fd40 <__TMC_END__+0x180>
   1368c:	08810613          	add	a2,sp,136
   13690:	0a810693          	add	a3,sp,168
   13694:	f8062287          	flw	ft5,-128(a2)
   13698:	06062307          	flw	ft6,96(a2)
   1369c:	fa062387          	flw	ft7,-96(a2)
   136a0:	04062807          	flw	fa6,64(a2)
   136a4:	0062f8d3          	fadd.s	fa7,ft5,ft6
   136a8:	0862f2d3          	fsub.s	ft5,ft5,ft6
   136ac:	0103f353          	fadd.s	ft6,ft7,fa6
   136b0:	fc062e07          	flw	ft8,-64(a2)
   136b4:	02062e87          	flw	ft9,32(a2)
   136b8:	fe062f07          	flw	ft10,-32(a2)
   136bc:	00062f87          	flw	ft11,0(a2)
   136c0:	0903f3d3          	fsub.s	ft7,ft7,fa6
   136c4:	01de7853          	fadd.s	fa6,ft8,ft9
   136c8:	09de7e53          	fsub.s	ft8,ft8,ft9
   136cc:	01ff7ed3          	fadd.s	ft9,ft10,ft11
   136d0:	09ff7f53          	fsub.s	ft10,ft10,ft11
   136d4:	01d8ffd3          	fadd.s	ft11,fa7,ft9
   136d8:	01037453          	fadd.s	fs0,ft6,fa6
   136dc:	09037353          	fsub.s	ft6,ft6,fa6
   136e0:	09d8f853          	fsub.s	fa6,fa7,ft9
   136e4:	09c3f8d3          	fsub.s	fa7,ft7,ft8
   136e8:	10f8f8d3          	fmul.s	fa7,fa7,fa5
   136ec:	01c3f3d3          	fadd.s	ft7,ft7,ft8
   136f0:	10f3f3d3          	fmul.s	ft7,ft7,fa5
   136f4:	008ffe53          	fadd.s	ft8,ft11,fs0
   136f8:	10ee7e53          	fmul.s	ft8,ft8,fa4
   136fc:	f9c62027          	fsw	ft8,-128(a2)
   13700:	088ffe53          	fsub.s	ft8,ft11,fs0
   13704:	10ee7e53          	fmul.s	ft8,ft8,fa4
   13708:	01c62027          	fsw	ft8,0(a2)
   1370c:	10d87e53          	fmul.s	ft8,fa6,fa3
   13710:	e0c37e43          	fmadd.s	ft8,ft6,fa2,ft8
   13714:	fdc62027          	fsw	ft8,-64(a2)
   13718:	10b37353          	fmul.s	ft6,ft6,fa1
   1371c:	30c87343          	fmadd.s	ft6,fa6,fa2,ft6
   13720:	04662027          	fsw	ft6,64(a2)
   13724:	011f7353          	fadd.s	ft6,ft10,fa7
   13728:	0053f853          	fadd.s	fa6,ft7,ft5
   1372c:	091f78d3          	fsub.s	fa7,ft10,fa7
   13730:	0872f2d3          	fsub.s	ft5,ft5,ft7
   13734:	10a873d3          	fmul.s	ft7,fa6,fa0
   13738:	380373c3          	fmadd.s	ft7,ft6,ft0,ft7
   1373c:	fa762027          	fsw	ft7,-96(a2)
   13740:	1012f3d3          	fmul.s	ft7,ft5,ft1
   13744:	3828f3c3          	fmadd.s	ft7,fa7,ft2,ft7
   13748:	02762027          	fsw	ft7,32(a2)
   1374c:	10337353          	fmul.s	ft6,ft6,ft3
   13750:	30087343          	fmadd.s	ft6,fa6,ft0,ft6
   13754:	06662027          	fsw	ft6,96(a2)
   13758:	1048f353          	fmul.s	ft6,fa7,ft4
   1375c:	3022f2c3          	fmadd.s	ft5,ft5,ft2,ft6
   13760:	fe562027          	fsw	ft5,-32(a2)
   13764:	00460613          	add	a2,a2,4
   13768:	f2d616e3          	bne	a2,a3,13694 <Dct+0x170>
   1376c:	01810613          	add	a2,sp,24
   13770:	0002d6b7          	lui	a3,0x2d
   13774:	0c868693          	add	a3,a3,200 # 2d0c8 <zigzag+0x10>
   13778:	ff062787          	flw	fa5,-16(a2)
   1377c:	ff06a703          	lw	a4,-16(a3)
   13780:	c00797d3          	fcvt.w.s	a5,fa5,rtz
   13784:	00271713          	sll	a4,a4,0x2
   13788:	00e58733          	add	a4,a1,a4
   1378c:	00f72023          	sw	a5,0(a4)
   13790:	ff462787          	flw	fa5,-12(a2)
   13794:	ff46a703          	lw	a4,-12(a3)
   13798:	c00797d3          	fcvt.w.s	a5,fa5,rtz
   1379c:	00271713          	sll	a4,a4,0x2
   137a0:	00e58733          	add	a4,a1,a4
   137a4:	00f72023          	sw	a5,0(a4)
   137a8:	ff862787          	flw	fa5,-8(a2)
   137ac:	ff86a703          	lw	a4,-8(a3)
   137b0:	c00797d3          	fcvt.w.s	a5,fa5,rtz
   137b4:	00271713          	sll	a4,a4,0x2
   137b8:	00e58733          	add	a4,a1,a4
   137bc:	00f72023          	sw	a5,0(a4)
   137c0:	ffc62787          	flw	fa5,-4(a2)
   137c4:	ffc6a703          	lw	a4,-4(a3)
   137c8:	c00797d3          	fcvt.w.s	a5,fa5,rtz
   137cc:	00271713          	sll	a4,a4,0x2
   137d0:	00e58733          	add	a4,a1,a4
   137d4:	00f72023          	sw	a5,0(a4)
   137d8:	00062787          	flw	fa5,0(a2)
   137dc:	0006a703          	lw	a4,0(a3)
   137e0:	c00797d3          	fcvt.w.s	a5,fa5,rtz
   137e4:	00271713          	sll	a4,a4,0x2
   137e8:	00e58733          	add	a4,a1,a4
   137ec:	00f72023          	sw	a5,0(a4)
   137f0:	00462787          	flw	fa5,4(a2)
   137f4:	0046a703          	lw	a4,4(a3)
   137f8:	c00797d3          	fcvt.w.s	a5,fa5,rtz
   137fc:	00271713          	sll	a4,a4,0x2
   13800:	00e58733          	add	a4,a1,a4
   13804:	00f72023          	sw	a5,0(a4)
   13808:	00862787          	flw	fa5,8(a2)
   1380c:	0086a703          	lw	a4,8(a3)
   13810:	c00797d3          	fcvt.w.s	a5,fa5,rtz
   13814:	00271713          	sll	a4,a4,0x2
   13818:	00e58733          	add	a4,a1,a4
   1381c:	00f72023          	sw	a5,0(a4)
   13820:	00c62787          	flw	fa5,12(a2)
   13824:	00c6a703          	lw	a4,12(a3)
   13828:	c00797d3          	fcvt.w.s	a5,fa5,rtz
   1382c:	00271713          	sll	a4,a4,0x2
   13830:	00e58733          	add	a4,a1,a4
   13834:	00f72023          	sw	a5,0(a4)
   13838:	02060613          	add	a2,a2,32
   1383c:	02068693          	add	a3,a3,32
   13840:	f2a61ce3          	bne	a2,a0,13778 <Dct+0x254>
   13844:	00000513          	li	a0,0
   13848:	10813407          	fld	fs0,264(sp)
   1384c:	11010113          	add	sp,sp,272
   13850:	00008067          	ret

0000000000013854 <init_idctref>:
   13854:	3c01b703          	ld	a4,960(gp) # 2fbc8 <__TMC_END__+0x8>
   13858:	00030537          	lui	a0,0x30
   1385c:	e0e53423          	sd	a4,-504(a0) # 2fe08 <c>
   13860:	e0850513          	add	a0,a0,-504
   13864:	00e53423          	sd	a4,8(a0)
   13868:	00e53823          	sd	a4,16(a0)
   1386c:	00e53c23          	sd	a4,24(a0)
   13870:	02e53023          	sd	a4,32(a0)
   13874:	02e53423          	sd	a4,40(a0)
   13878:	02e53823          	sd	a4,48(a0)
   1387c:	02e53c23          	sd	a4,56(a0)
   13880:	3c81b583          	ld	a1,968(gp) # 2fbd0 <__TMC_END__+0x10>
   13884:	3d01b783          	ld	a5,976(gp) # 2fbd8 <__TMC_END__+0x18>
   13888:	3d81b803          	ld	a6,984(gp) # 2fbe0 <__TMC_END__+0x20>
   1388c:	3e01b603          	ld	a2,992(gp) # 2fbe8 <__TMC_END__+0x28>
   13890:	04b53023          	sd	a1,64(a0)
   13894:	04f53423          	sd	a5,72(a0)
   13898:	05053823          	sd	a6,80(a0)
   1389c:	04c53c23          	sd	a2,88(a0)
   138a0:	3e81b883          	ld	a7,1000(gp) # 2fbf0 <__TMC_END__+0x30>
   138a4:	3f01b683          	ld	a3,1008(gp) # 2fbf8 <__TMC_END__+0x38>
   138a8:	3f81b283          	ld	t0,1016(gp) # 2fc00 <__TMC_END__+0x40>
   138ac:	4001b303          	ld	t1,1024(gp) # 2fc08 <__TMC_END__+0x48>
   138b0:	07153023          	sd	a7,96(a0)
   138b4:	06d53423          	sd	a3,104(a0)
   138b8:	06553823          	sd	t0,112(a0)
   138bc:	06653c23          	sd	t1,120(a0)
   138c0:	4081b683          	ld	a3,1032(gp) # 2fc10 <__TMC_END__+0x50>
   138c4:	4181b383          	ld	t2,1048(gp) # 2fc20 <__TMC_END__+0x60>
   138c8:	4101b283          	ld	t0,1040(gp) # 2fc18 <__TMC_END__+0x58>
   138cc:	4201be03          	ld	t3,1056(gp) # 2fc28 <__TMC_END__+0x68>
   138d0:	08753823          	sd	t2,144(a0)
   138d4:	4301b383          	ld	t2,1072(gp) # 2fc38 <__TMC_END__+0x78>
   138d8:	09c53c23          	sd	t3,152(a0)
   138dc:	4381be03          	ld	t3,1080(gp) # 2fc40 <__TMC_END__+0x80>
   138e0:	0a753423          	sd	t2,168(a0)
   138e4:	4281b383          	ld	t2,1064(gp) # 2fc30 <__TMC_END__+0x70>
   138e8:	0bc53823          	sd	t3,176(a0)
   138ec:	4401be03          	ld	t3,1088(gp) # 2fc48 <__TMC_END__+0x88>
   138f0:	08d53023          	sd	a3,128(a0)
   138f4:	08553423          	sd	t0,136(a0)
   138f8:	0a753023          	sd	t2,160(a0)
   138fc:	0bc53c23          	sd	t3,184(a0)
   13900:	0cf53023          	sd	a5,192(a0)
   13904:	4501b783          	ld	a5,1104(gp) # 2fc58 <__TMC_END__+0x98>
   13908:	0d153423          	sd	a7,200(a0)
   1390c:	4481b883          	ld	a7,1096(gp) # 2fc50 <__TMC_END__+0x90>
   13910:	0ef53023          	sd	a5,224(a0)
   13914:	4581b783          	ld	a5,1112(gp) # 2fc60 <__TMC_END__+0xa0>
   13918:	0c653823          	sd	t1,208(a0)
   1391c:	0d153c23          	sd	a7,216(a0)
   13920:	0eb53423          	sd	a1,232(a0)
   13924:	0ef53823          	sd	a5,240(a0)
   13928:	4681b783          	ld	a5,1128(gp) # 2fc70 <__TMC_END__+0xb0>
   1392c:	10e53023          	sd	a4,256(a0)
   13930:	4701b703          	ld	a4,1136(gp) # 2fc78 <__TMC_END__+0xb8>
   13934:	10f53423          	sd	a5,264(a0)
   13938:	4781b783          	ld	a5,1144(gp) # 2fc80 <__TMC_END__+0xc0>
   1393c:	10e53823          	sd	a4,272(a0)
   13940:	4801b703          	ld	a4,1152(gp) # 2fc88 <__TMC_END__+0xc8>
   13944:	10f53c23          	sd	a5,280(a0)
   13948:	4881b783          	ld	a5,1160(gp) # 2fc90 <__TMC_END__+0xd0>
   1394c:	12e53023          	sd	a4,288(a0)
   13950:	4901b703          	ld	a4,1168(gp) # 2fc98 <__TMC_END__+0xd8>
   13954:	12f53423          	sd	a5,296(a0)
   13958:	4981b783          	ld	a5,1176(gp) # 2fca0 <__TMC_END__+0xe0>
   1395c:	12e53823          	sd	a4,304(a0)
   13960:	4601b703          	ld	a4,1120(gp) # 2fc68 <__TMC_END__+0xa8>
   13964:	12f53c23          	sd	a5,312(a0)
   13968:	4a01b783          	ld	a5,1184(gp) # 2fca8 <__TMC_END__+0xe8>
   1396c:	0ee53c23          	sd	a4,248(a0)
   13970:	15053023          	sd	a6,320(a0)
   13974:	14653423          	sd	t1,328(a0)
   13978:	14f53823          	sd	a5,336(a0)
   1397c:	4a81b783          	ld	a5,1192(gp) # 2fcb0 <__TMC_END__+0xf0>
   13980:	16e53023          	sd	a4,352(a0)
   13984:	4b01b703          	ld	a4,1200(gp) # 2fcb8 <__TMC_END__+0xf8>
   13988:	4b81b803          	ld	a6,1208(gp) # 2fcc0 <__TMC_END__+0x100>
   1398c:	4c01b303          	ld	t1,1216(gp) # 2fcc8 <__TMC_END__+0x108>
   13990:	14f53c23          	sd	a5,344(a0)
   13994:	16e53423          	sd	a4,360(a0)
   13998:	17053823          	sd	a6,368(a0)
   1399c:	16653c23          	sd	t1,376(a0)
   139a0:	4c81b703          	ld	a4,1224(gp) # 2fcd0 <__TMC_END__+0x110>
   139a4:	18553023          	sd	t0,384(a0)
   139a8:	18753423          	sd	t2,392(a0)
   139ac:	19c53823          	sd	t3,400(a0)
   139b0:	18e53c23          	sd	a4,408(a0)
   139b4:	4d01b703          	ld	a4,1232(gp) # 2fcd8 <__TMC_END__+0x118>
   139b8:	4d81b803          	ld	a6,1240(gp) # 2fce0 <__TMC_END__+0x120>
   139bc:	4e01b283          	ld	t0,1248(gp) # 2fce8 <__TMC_END__+0x128>
   139c0:	1ae53023          	sd	a4,416(a0)
   139c4:	1ad53423          	sd	a3,424(a0)
   139c8:	1b053823          	sd	a6,432(a0)
   139cc:	1a553c23          	sd	t0,440(a0)
   139d0:	4e81b683          	ld	a3,1256(gp) # 2fcf0 <__TMC_END__+0x130>
   139d4:	1cc53023          	sd	a2,448(a0)
   139d8:	1d153423          	sd	a7,456(a0)
   139dc:	1cf53823          	sd	a5,464(a0)
   139e0:	1cd53c23          	sd	a3,472(a0)
   139e4:	4f01b603          	ld	a2,1264(gp) # 2fcf8 <__TMC_END__+0x138>
   139e8:	4f81b683          	ld	a3,1272(gp) # 2fd00 <__TMC_END__+0x140>
   139ec:	5001b703          	ld	a4,1280(gp) # 2fd08 <__TMC_END__+0x148>
   139f0:	1eb53023          	sd	a1,480(a0)
   139f4:	1ec53423          	sd	a2,488(a0)
   139f8:	1ed53823          	sd	a3,496(a0)
   139fc:	1ee53c23          	sd	a4,504(a0)
   13a00:	00008067          	ret

0000000000013a04 <idctref>:
   13a04:	b3010113          	add	sp,sp,-1232
   13a08:	4c813427          	fsd	fs0,1224(sp)
   13a0c:	4c913027          	fsd	fs1,1216(sp)
   13a10:	4b213c27          	fsd	fs2,1208(sp)
   13a14:	4b313827          	fsd	fs3,1200(sp)
   13a18:	4b413427          	fsd	fs4,1192(sp)
   13a1c:	4b513027          	fsd	fs5,1184(sp)
   13a20:	49613c27          	fsd	fs6,1176(sp)
   13a24:	49713827          	fsd	fs7,1168(sp)
   13a28:	49813427          	fsd	fs8,1160(sp)
   13a2c:	49913027          	fsd	fs9,1152(sp)
   13a30:	47a13c27          	fsd	fs10,1144(sp)
   13a34:	47b13827          	fsd	fs11,1136(sp)
   13a38:	0002d637          	lui	a2,0x2d
   13a3c:	0b862683          	lw	a3,184(a2) # 2d0b8 <zigzag>
   13a40:	0b860613          	add	a2,a2,184
   13a44:	00269693          	sll	a3,a3,0x2
   13a48:	00d506b3          	add	a3,a0,a3
   13a4c:	0006a683          	lw	a3,0(a3)
   13a50:	00462703          	lw	a4,4(a2)
   13a54:	16d12823          	sw	a3,368(sp)
   13a58:	00271713          	sll	a4,a4,0x2
   13a5c:	00862683          	lw	a3,8(a2)
   13a60:	00e50733          	add	a4,a0,a4
   13a64:	00072703          	lw	a4,0(a4)
   13a68:	00c62783          	lw	a5,12(a2)
   13a6c:	00269693          	sll	a3,a3,0x2
   13a70:	00d506b3          	add	a3,a0,a3
   13a74:	0006a683          	lw	a3,0(a3)
   13a78:	00279793          	sll	a5,a5,0x2
   13a7c:	00f507b3          	add	a5,a0,a5
   13a80:	0007a783          	lw	a5,0(a5)
   13a84:	01062803          	lw	a6,16(a2)
   13a88:	16e12a23          	sw	a4,372(sp)
   13a8c:	16d12c23          	sw	a3,376(sp)
   13a90:	16f12e23          	sw	a5,380(sp)
   13a94:	00281813          	sll	a6,a6,0x2
   13a98:	01462683          	lw	a3,20(a2)
   13a9c:	01050833          	add	a6,a0,a6
   13aa0:	00082703          	lw	a4,0(a6)
   13aa4:	01862783          	lw	a5,24(a2)
   13aa8:	00269693          	sll	a3,a3,0x2
   13aac:	00d506b3          	add	a3,a0,a3
   13ab0:	0006a683          	lw	a3,0(a3)
   13ab4:	00279793          	sll	a5,a5,0x2
   13ab8:	00f507b3          	add	a5,a0,a5
   13abc:	0007a783          	lw	a5,0(a5)
   13ac0:	01c62803          	lw	a6,28(a2)
   13ac4:	18e12023          	sw	a4,384(sp)
   13ac8:	18d12223          	sw	a3,388(sp)
   13acc:	18f12423          	sw	a5,392(sp)
   13ad0:	00281813          	sll	a6,a6,0x2
   13ad4:	02062683          	lw	a3,32(a2)
   13ad8:	01050833          	add	a6,a0,a6
   13adc:	00082703          	lw	a4,0(a6)
   13ae0:	02462783          	lw	a5,36(a2)
   13ae4:	00269693          	sll	a3,a3,0x2
   13ae8:	00d506b3          	add	a3,a0,a3
   13aec:	0006a683          	lw	a3,0(a3)
   13af0:	00279793          	sll	a5,a5,0x2
   13af4:	00f507b3          	add	a5,a0,a5
   13af8:	0007a783          	lw	a5,0(a5)
   13afc:	02862803          	lw	a6,40(a2)
   13b00:	18e12623          	sw	a4,396(sp)
   13b04:	18d12823          	sw	a3,400(sp)
   13b08:	18f12a23          	sw	a5,404(sp)
   13b0c:	00281813          	sll	a6,a6,0x2
   13b10:	02c62683          	lw	a3,44(a2)
   13b14:	01050833          	add	a6,a0,a6
   13b18:	00082703          	lw	a4,0(a6)
   13b1c:	03062783          	lw	a5,48(a2)
   13b20:	00269693          	sll	a3,a3,0x2
   13b24:	00d506b3          	add	a3,a0,a3
   13b28:	0006a683          	lw	a3,0(a3)
   13b2c:	00279793          	sll	a5,a5,0x2
   13b30:	00f507b3          	add	a5,a0,a5
   13b34:	0007a783          	lw	a5,0(a5)
   13b38:	03462803          	lw	a6,52(a2)
   13b3c:	18e12c23          	sw	a4,408(sp)
   13b40:	18d12e23          	sw	a3,412(sp)
   13b44:	1af12023          	sw	a5,416(sp)
   13b48:	00281813          	sll	a6,a6,0x2
   13b4c:	03862683          	lw	a3,56(a2)
   13b50:	01050833          	add	a6,a0,a6
   13b54:	00082703          	lw	a4,0(a6)
   13b58:	03c62783          	lw	a5,60(a2)
   13b5c:	00269693          	sll	a3,a3,0x2
   13b60:	00d506b3          	add	a3,a0,a3
   13b64:	0006a683          	lw	a3,0(a3)
   13b68:	00279793          	sll	a5,a5,0x2
   13b6c:	00f507b3          	add	a5,a0,a5
   13b70:	0007a783          	lw	a5,0(a5)
   13b74:	04062803          	lw	a6,64(a2)
   13b78:	1ae12223          	sw	a4,420(sp)
   13b7c:	1ad12423          	sw	a3,424(sp)
   13b80:	1af12623          	sw	a5,428(sp)
   13b84:	00281813          	sll	a6,a6,0x2
   13b88:	04462683          	lw	a3,68(a2)
   13b8c:	01050833          	add	a6,a0,a6
   13b90:	00082703          	lw	a4,0(a6)
   13b94:	04862783          	lw	a5,72(a2)
   13b98:	00269693          	sll	a3,a3,0x2
   13b9c:	00d506b3          	add	a3,a0,a3
   13ba0:	0006a683          	lw	a3,0(a3)
   13ba4:	00279793          	sll	a5,a5,0x2
   13ba8:	00f507b3          	add	a5,a0,a5
   13bac:	0007a783          	lw	a5,0(a5)
   13bb0:	04c62803          	lw	a6,76(a2)
   13bb4:	1ae12823          	sw	a4,432(sp)
   13bb8:	1ad12a23          	sw	a3,436(sp)
   13bbc:	1af12c23          	sw	a5,440(sp)
   13bc0:	00281813          	sll	a6,a6,0x2
   13bc4:	05062683          	lw	a3,80(a2)
   13bc8:	01050833          	add	a6,a0,a6
   13bcc:	00082703          	lw	a4,0(a6)
   13bd0:	05462783          	lw	a5,84(a2)
   13bd4:	00269693          	sll	a3,a3,0x2
   13bd8:	00d506b3          	add	a3,a0,a3
   13bdc:	0006a683          	lw	a3,0(a3)
   13be0:	00279793          	sll	a5,a5,0x2
   13be4:	00f507b3          	add	a5,a0,a5
   13be8:	0007a783          	lw	a5,0(a5)
   13bec:	05862803          	lw	a6,88(a2)
   13bf0:	1ae12e23          	sw	a4,444(sp)
   13bf4:	1cd12023          	sw	a3,448(sp)
   13bf8:	1cf12223          	sw	a5,452(sp)
   13bfc:	00281813          	sll	a6,a6,0x2
   13c00:	05c62683          	lw	a3,92(a2)
   13c04:	01050833          	add	a6,a0,a6
   13c08:	00082703          	lw	a4,0(a6)
   13c0c:	06062783          	lw	a5,96(a2)
   13c10:	00269693          	sll	a3,a3,0x2
   13c14:	00d506b3          	add	a3,a0,a3
   13c18:	0006a683          	lw	a3,0(a3)
   13c1c:	00279793          	sll	a5,a5,0x2
   13c20:	00f507b3          	add	a5,a0,a5
   13c24:	0007a783          	lw	a5,0(a5)
   13c28:	06462803          	lw	a6,100(a2)
   13c2c:	1ce12423          	sw	a4,456(sp)
   13c30:	1cd12623          	sw	a3,460(sp)
   13c34:	1cf12823          	sw	a5,464(sp)
   13c38:	00281813          	sll	a6,a6,0x2
   13c3c:	06862683          	lw	a3,104(a2)
   13c40:	01050833          	add	a6,a0,a6
   13c44:	00082703          	lw	a4,0(a6)
   13c48:	06c62783          	lw	a5,108(a2)
   13c4c:	00269693          	sll	a3,a3,0x2
   13c50:	00d506b3          	add	a3,a0,a3
   13c54:	0006a683          	lw	a3,0(a3)
   13c58:	00279793          	sll	a5,a5,0x2
   13c5c:	00f507b3          	add	a5,a0,a5
   13c60:	0007a783          	lw	a5,0(a5)
   13c64:	07062803          	lw	a6,112(a2)
   13c68:	1ce12a23          	sw	a4,468(sp)
   13c6c:	1cd12c23          	sw	a3,472(sp)
   13c70:	1cf12e23          	sw	a5,476(sp)
   13c74:	00281813          	sll	a6,a6,0x2
   13c78:	07462683          	lw	a3,116(a2)
   13c7c:	01050833          	add	a6,a0,a6
   13c80:	00082703          	lw	a4,0(a6)
   13c84:	07862783          	lw	a5,120(a2)
   13c88:	00269693          	sll	a3,a3,0x2
   13c8c:	00d506b3          	add	a3,a0,a3
   13c90:	0006a683          	lw	a3,0(a3)
   13c94:	00279793          	sll	a5,a5,0x2
   13c98:	00f507b3          	add	a5,a0,a5
   13c9c:	0007a783          	lw	a5,0(a5)
   13ca0:	07c62803          	lw	a6,124(a2)
   13ca4:	1ee12023          	sw	a4,480(sp)
   13ca8:	1ed12223          	sw	a3,484(sp)
   13cac:	1ef12423          	sw	a5,488(sp)
   13cb0:	00281813          	sll	a6,a6,0x2
   13cb4:	08062683          	lw	a3,128(a2)
   13cb8:	01050833          	add	a6,a0,a6
   13cbc:	00082703          	lw	a4,0(a6)
   13cc0:	08462783          	lw	a5,132(a2)
   13cc4:	00269693          	sll	a3,a3,0x2
   13cc8:	00d506b3          	add	a3,a0,a3
   13ccc:	0006a683          	lw	a3,0(a3)
   13cd0:	00279793          	sll	a5,a5,0x2
   13cd4:	00f507b3          	add	a5,a0,a5
   13cd8:	0007a783          	lw	a5,0(a5)
   13cdc:	08862803          	lw	a6,136(a2)
   13ce0:	1ee12623          	sw	a4,492(sp)
   13ce4:	1ed12823          	sw	a3,496(sp)
   13ce8:	1ef12a23          	sw	a5,500(sp)
   13cec:	00281813          	sll	a6,a6,0x2
   13cf0:	08c62683          	lw	a3,140(a2)
   13cf4:	01050833          	add	a6,a0,a6
   13cf8:	00082703          	lw	a4,0(a6)
   13cfc:	09062783          	lw	a5,144(a2)
   13d00:	00269693          	sll	a3,a3,0x2
   13d04:	00d506b3          	add	a3,a0,a3
   13d08:	0006a683          	lw	a3,0(a3)
   13d0c:	00279793          	sll	a5,a5,0x2
   13d10:	00f507b3          	add	a5,a0,a5
   13d14:	0007a783          	lw	a5,0(a5)
   13d18:	09462803          	lw	a6,148(a2)
   13d1c:	1ee12c23          	sw	a4,504(sp)
   13d20:	1ed12e23          	sw	a3,508(sp)
   13d24:	20f12023          	sw	a5,512(sp)
   13d28:	00281813          	sll	a6,a6,0x2
   13d2c:	09862683          	lw	a3,152(a2)
   13d30:	01050833          	add	a6,a0,a6
   13d34:	00082703          	lw	a4,0(a6)
   13d38:	09c62783          	lw	a5,156(a2)
   13d3c:	00269693          	sll	a3,a3,0x2
   13d40:	00d506b3          	add	a3,a0,a3
   13d44:	0006a683          	lw	a3,0(a3)
   13d48:	00279793          	sll	a5,a5,0x2
   13d4c:	00f507b3          	add	a5,a0,a5
   13d50:	0007a783          	lw	a5,0(a5)
   13d54:	0a062803          	lw	a6,160(a2)
   13d58:	20e12223          	sw	a4,516(sp)
   13d5c:	20d12423          	sw	a3,520(sp)
   13d60:	20f12623          	sw	a5,524(sp)
   13d64:	00281813          	sll	a6,a6,0x2
   13d68:	0a462683          	lw	a3,164(a2)
   13d6c:	01050833          	add	a6,a0,a6
   13d70:	00082703          	lw	a4,0(a6)
   13d74:	0a862783          	lw	a5,168(a2)
   13d78:	00269693          	sll	a3,a3,0x2
   13d7c:	00d506b3          	add	a3,a0,a3
   13d80:	0006a683          	lw	a3,0(a3)
   13d84:	00279793          	sll	a5,a5,0x2
   13d88:	00f507b3          	add	a5,a0,a5
   13d8c:	0007a783          	lw	a5,0(a5)
   13d90:	0ac62803          	lw	a6,172(a2)
   13d94:	20e12823          	sw	a4,528(sp)
   13d98:	20d12a23          	sw	a3,532(sp)
   13d9c:	20f12c23          	sw	a5,536(sp)
   13da0:	00281813          	sll	a6,a6,0x2
   13da4:	0b062683          	lw	a3,176(a2)
   13da8:	01050833          	add	a6,a0,a6
   13dac:	00082703          	lw	a4,0(a6)
   13db0:	0b462783          	lw	a5,180(a2)
   13db4:	00269693          	sll	a3,a3,0x2
   13db8:	00d506b3          	add	a3,a0,a3
   13dbc:	0006a683          	lw	a3,0(a3)
   13dc0:	00279793          	sll	a5,a5,0x2
   13dc4:	00f507b3          	add	a5,a0,a5
   13dc8:	0007a783          	lw	a5,0(a5)
   13dcc:	0b862803          	lw	a6,184(a2)
   13dd0:	20e12e23          	sw	a4,540(sp)
   13dd4:	22d12023          	sw	a3,544(sp)
   13dd8:	22f12223          	sw	a5,548(sp)
   13ddc:	00281813          	sll	a6,a6,0x2
   13de0:	0bc62683          	lw	a3,188(a2)
   13de4:	01050833          	add	a6,a0,a6
   13de8:	00082703          	lw	a4,0(a6)
   13dec:	0c062783          	lw	a5,192(a2)
   13df0:	00269693          	sll	a3,a3,0x2
   13df4:	00d506b3          	add	a3,a0,a3
   13df8:	0006a683          	lw	a3,0(a3)
   13dfc:	00279793          	sll	a5,a5,0x2
   13e00:	00f507b3          	add	a5,a0,a5
   13e04:	0007a783          	lw	a5,0(a5)
   13e08:	0c462803          	lw	a6,196(a2)
   13e0c:	22e12423          	sw	a4,552(sp)
   13e10:	22d12623          	sw	a3,556(sp)
   13e14:	22f12823          	sw	a5,560(sp)
   13e18:	00281813          	sll	a6,a6,0x2
   13e1c:	0c862683          	lw	a3,200(a2)
   13e20:	01050833          	add	a6,a0,a6
   13e24:	00082703          	lw	a4,0(a6)
   13e28:	0cc62783          	lw	a5,204(a2)
   13e2c:	00269693          	sll	a3,a3,0x2
   13e30:	00d506b3          	add	a3,a0,a3
   13e34:	0006a683          	lw	a3,0(a3)
   13e38:	00279793          	sll	a5,a5,0x2
   13e3c:	00f507b3          	add	a5,a0,a5
   13e40:	0007a783          	lw	a5,0(a5)
   13e44:	0d062803          	lw	a6,208(a2)
   13e48:	22e12a23          	sw	a4,564(sp)
   13e4c:	22d12c23          	sw	a3,568(sp)
   13e50:	22f12e23          	sw	a5,572(sp)
   13e54:	00281813          	sll	a6,a6,0x2
   13e58:	0d462683          	lw	a3,212(a2)
   13e5c:	01050833          	add	a6,a0,a6
   13e60:	00082703          	lw	a4,0(a6)
   13e64:	0d862783          	lw	a5,216(a2)
   13e68:	00269693          	sll	a3,a3,0x2
   13e6c:	00d506b3          	add	a3,a0,a3
   13e70:	0006a683          	lw	a3,0(a3)
   13e74:	00279793          	sll	a5,a5,0x2
   13e78:	00f507b3          	add	a5,a0,a5
   13e7c:	0007a783          	lw	a5,0(a5)
   13e80:	0dc62803          	lw	a6,220(a2)
   13e84:	24e12023          	sw	a4,576(sp)
   13e88:	24d12223          	sw	a3,580(sp)
   13e8c:	24f12423          	sw	a5,584(sp)
   13e90:	00281813          	sll	a6,a6,0x2
   13e94:	0e062683          	lw	a3,224(a2)
   13e98:	01050833          	add	a6,a0,a6
   13e9c:	00082703          	lw	a4,0(a6)
   13ea0:	0e462783          	lw	a5,228(a2)
   13ea4:	00269693          	sll	a3,a3,0x2
   13ea8:	00d506b3          	add	a3,a0,a3
   13eac:	0006a683          	lw	a3,0(a3)
   13eb0:	00279793          	sll	a5,a5,0x2
   13eb4:	00f507b3          	add	a5,a0,a5
   13eb8:	0007a783          	lw	a5,0(a5)
   13ebc:	0e862803          	lw	a6,232(a2)
   13ec0:	24e12623          	sw	a4,588(sp)
   13ec4:	24d12823          	sw	a3,592(sp)
   13ec8:	24f12a23          	sw	a5,596(sp)
   13ecc:	00281813          	sll	a6,a6,0x2
   13ed0:	0ec62683          	lw	a3,236(a2)
   13ed4:	01050833          	add	a6,a0,a6
   13ed8:	00082703          	lw	a4,0(a6)
   13edc:	0f062783          	lw	a5,240(a2)
   13ee0:	00269693          	sll	a3,a3,0x2
   13ee4:	00d506b3          	add	a3,a0,a3
   13ee8:	0006a683          	lw	a3,0(a3)
   13eec:	00279793          	sll	a5,a5,0x2
   13ef0:	00f507b3          	add	a5,a0,a5
   13ef4:	0007a783          	lw	a5,0(a5)
   13ef8:	24e12c23          	sw	a4,600(sp)
   13efc:	0f462703          	lw	a4,244(a2)
   13f00:	24d12e23          	sw	a3,604(sp)
   13f04:	26f12023          	sw	a5,608(sp)
   13f08:	0f862683          	lw	a3,248(a2)
   13f0c:	00271713          	sll	a4,a4,0x2
   13f10:	00e50733          	add	a4,a0,a4
   13f14:	00072703          	lw	a4,0(a4)
   13f18:	00269693          	sll	a3,a3,0x2
   13f1c:	00d506b3          	add	a3,a0,a3
   13f20:	0006a683          	lw	a3,0(a3)
   13f24:	0fc62783          	lw	a5,252(a2)
   13f28:	26e12223          	sw	a4,612(sp)
   13f2c:	18010613          	add	a2,sp,384
   13f30:	26d12423          	sw	a3,616(sp)
   13f34:	00279793          	sll	a5,a5,0x2
   13f38:	00f50533          	add	a0,a0,a5
   13f3c:	00052503          	lw	a0,0(a0)
   13f40:	000306b7          	lui	a3,0x30
   13f44:	e086b787          	fld	fa5,-504(a3) # 2fe08 <c>
   13f48:	16f13427          	fsd	fa5,360(sp)
   13f4c:	e0868693          	add	a3,a3,-504
   13f50:	0406b787          	fld	fa5,64(a3)
   13f54:	16f13027          	fsd	fa5,352(sp)
   13f58:	0806b787          	fld	fa5,128(a3)
   13f5c:	14f13c27          	fsd	fa5,344(sp)
   13f60:	0c06b787          	fld	fa5,192(a3)
   13f64:	14f13827          	fsd	fa5,336(sp)
   13f68:	1006b787          	fld	fa5,256(a3)
   13f6c:	14f13427          	fsd	fa5,328(sp)
   13f70:	1406b787          	fld	fa5,320(a3)
   13f74:	14f13027          	fsd	fa5,320(sp)
   13f78:	1806b787          	fld	fa5,384(a3)
   13f7c:	12f13c27          	fsd	fa5,312(sp)
   13f80:	1c06b787          	fld	fa5,448(a3)
   13f84:	12f13827          	fsd	fa5,304(sp)
   13f88:	0086b787          	fld	fa5,8(a3)
   13f8c:	12f13427          	fsd	fa5,296(sp)
   13f90:	0486b787          	fld	fa5,72(a3)
   13f94:	12f13027          	fsd	fa5,288(sp)
   13f98:	0886b787          	fld	fa5,136(a3)
   13f9c:	10f13c27          	fsd	fa5,280(sp)
   13fa0:	0c86b787          	fld	fa5,200(a3)
   13fa4:	10f13827          	fsd	fa5,272(sp)
   13fa8:	1086b787          	fld	fa5,264(a3)
   13fac:	10f13427          	fsd	fa5,264(sp)
   13fb0:	1486b787          	fld	fa5,328(a3)
   13fb4:	10f13027          	fsd	fa5,256(sp)
   13fb8:	1886b787          	fld	fa5,392(a3)
   13fbc:	0ef13c27          	fsd	fa5,248(sp)
   13fc0:	1c86b787          	fld	fa5,456(a3)
   13fc4:	0ef13827          	fsd	fa5,240(sp)
   13fc8:	0106b787          	fld	fa5,16(a3)
   13fcc:	0ef13427          	fsd	fa5,232(sp)
   13fd0:	0506b787          	fld	fa5,80(a3)
   13fd4:	0ef13027          	fsd	fa5,224(sp)
   13fd8:	0906b787          	fld	fa5,144(a3)
   13fdc:	0cf13c27          	fsd	fa5,216(sp)
   13fe0:	0d06b787          	fld	fa5,208(a3)
   13fe4:	0cf13827          	fsd	fa5,208(sp)
   13fe8:	1106b787          	fld	fa5,272(a3)
   13fec:	0cf13427          	fsd	fa5,200(sp)
   13ff0:	1506b787          	fld	fa5,336(a3)
   13ff4:	0cf13027          	fsd	fa5,192(sp)
   13ff8:	1906b787          	fld	fa5,400(a3)
   13ffc:	0af13c27          	fsd	fa5,184(sp)
   14000:	1d06b787          	fld	fa5,464(a3)
   14004:	0af13827          	fsd	fa5,176(sp)
   14008:	0186b787          	fld	fa5,24(a3)
   1400c:	0af13427          	fsd	fa5,168(sp)
   14010:	0586b787          	fld	fa5,88(a3)
   14014:	0af13027          	fsd	fa5,160(sp)
   14018:	0986b787          	fld	fa5,152(a3)
   1401c:	08f13c27          	fsd	fa5,152(sp)
   14020:	0d86b787          	fld	fa5,216(a3)
   14024:	08f13827          	fsd	fa5,144(sp)
   14028:	1186b787          	fld	fa5,280(a3)
   1402c:	08f13427          	fsd	fa5,136(sp)
   14030:	1586b787          	fld	fa5,344(a3)
   14034:	08f13027          	fsd	fa5,128(sp)
   14038:	1986b787          	fld	fa5,408(a3)
   1403c:	06f13c27          	fsd	fa5,120(sp)
   14040:	1d86b787          	fld	fa5,472(a3)
   14044:	06f13827          	fsd	fa5,112(sp)
   14048:	0206b787          	fld	fa5,32(a3)
   1404c:	06f13427          	fsd	fa5,104(sp)
   14050:	0606b787          	fld	fa5,96(a3)
   14054:	06f13027          	fsd	fa5,96(sp)
   14058:	0a06b787          	fld	fa5,160(a3)
   1405c:	04f13c27          	fsd	fa5,88(sp)
   14060:	0e06b787          	fld	fa5,224(a3)
   14064:	04f13827          	fsd	fa5,80(sp)
   14068:	1206b787          	fld	fa5,288(a3)
   1406c:	04f13427          	fsd	fa5,72(sp)
   14070:	1606b787          	fld	fa5,352(a3)
   14074:	04f13027          	fsd	fa5,64(sp)
   14078:	1a06b787          	fld	fa5,416(a3)
   1407c:	02f13c27          	fsd	fa5,56(sp)
   14080:	1e06b787          	fld	fa5,480(a3)
   14084:	02f13827          	fsd	fa5,48(sp)
   14088:	0286b787          	fld	fa5,40(a3)
   1408c:	02f13427          	fsd	fa5,40(sp)
   14090:	0686b787          	fld	fa5,104(a3)
   14094:	02f13027          	fsd	fa5,32(sp)
   14098:	0a86b787          	fld	fa5,168(a3)
   1409c:	00f13c27          	fsd	fa5,24(sp)
   140a0:	0e86b387          	fld	ft7,232(a3)
   140a4:	1286b807          	fld	fa6,296(a3)
   140a8:	1686b887          	fld	fa7,360(a3)
   140ac:	1a86be07          	fld	ft8,424(a3)
   140b0:	1e86be87          	fld	ft9,488(a3)
   140b4:	0306bf07          	fld	ft10,48(a3)
   140b8:	0706bf87          	fld	ft11,112(a3)
   140bc:	0b06b407          	fld	fs0,176(a3)
   140c0:	0f06b487          	fld	fs1,240(a3)
   140c4:	1306b907          	fld	fs2,304(a3)
   140c8:	1706b987          	fld	fs3,368(a3)
   140cc:	1b06ba07          	fld	fs4,432(a3)
   140d0:	1f06ba87          	fld	fs5,496(a3)
   140d4:	0386bb07          	fld	fs6,56(a3)
   140d8:	0786bb87          	fld	fs7,120(a3)
   140dc:	0b86bc07          	fld	fs8,184(a3)
   140e0:	0f86bc87          	fld	fs9,248(a3)
   140e4:	1386bd07          	fld	fs10,312(a3)
   140e8:	1786bd87          	fld	fs11,376(a3)
   140ec:	1b86b707          	fld	fa4,440(a3)
   140f0:	1f86b687          	fld	fa3,504(a3)
   140f4:	26a12623          	sw	a0,620(sp)
   140f8:	29010513          	add	a0,sp,656
   140fc:	49010693          	add	a3,sp,1168
   14100:	f20007d3          	fmv.d.x	fa5,zero
   14104:	ff062703          	lw	a4,-16(a2)
   14108:	ff462783          	lw	a5,-12(a2)
   1410c:	d2070653          	fcvt.d.w	fa2,a4
   14110:	ff862703          	lw	a4,-8(a2)
   14114:	ffc62803          	lw	a6,-4(a2)
   14118:	d20785d3          	fcvt.d.w	fa1,a5
   1411c:	00062783          	lw	a5,0(a2)
   14120:	d2070553          	fcvt.d.w	fa0,a4
   14124:	d2080053          	fcvt.d.w	ft0,a6
   14128:	00462703          	lw	a4,4(a2)
   1412c:	d20780d3          	fcvt.d.w	ft1,a5
   14130:	16813107          	fld	ft2,360(sp)
   14134:	7ac171c3          	fmadd.d	ft3,ft2,fa2,fa5
   14138:	d2070153          	fcvt.d.w	ft2,a4
   1413c:	00862703          	lw	a4,8(a2)
   14140:	16013207          	fld	ft4,352(sp)
   14144:	1ab271c3          	fmadd.d	ft3,ft4,fa1,ft3
   14148:	15813207          	fld	ft4,344(sp)
   1414c:	1aa271c3          	fmadd.d	ft3,ft4,fa0,ft3
   14150:	15013207          	fld	ft4,336(sp)
   14154:	1a027243          	fmadd.d	ft4,ft4,ft0,ft3
   14158:	d20701d3          	fcvt.d.w	ft3,a4
   1415c:	00c62703          	lw	a4,12(a2)
   14160:	14813287          	fld	ft5,328(sp)
   14164:	2212f243          	fmadd.d	ft4,ft5,ft1,ft4
   14168:	14013287          	fld	ft5,320(sp)
   1416c:	2222f243          	fmadd.d	ft4,ft5,ft2,ft4
   14170:	13813287          	fld	ft5,312(sp)
   14174:	2232f243          	fmadd.d	ft4,ft5,ft3,ft4
   14178:	d20702d3          	fcvt.d.w	ft5,a4
   1417c:	13013307          	fld	ft6,304(sp)
   14180:	22537243          	fmadd.d	ft4,ft6,ft5,ft4
   14184:	fe453027          	fsd	ft4,-32(a0)
   14188:	12813207          	fld	ft4,296(sp)
   1418c:	7ac27243          	fmadd.d	ft4,ft4,fa2,fa5
   14190:	12013307          	fld	ft6,288(sp)
   14194:	22b37243          	fmadd.d	ft4,ft6,fa1,ft4
   14198:	11813307          	fld	ft6,280(sp)
   1419c:	22a37243          	fmadd.d	ft4,ft6,fa0,ft4
   141a0:	11013307          	fld	ft6,272(sp)
   141a4:	22037243          	fmadd.d	ft4,ft6,ft0,ft4
   141a8:	10813307          	fld	ft6,264(sp)
   141ac:	22137243          	fmadd.d	ft4,ft6,ft1,ft4
   141b0:	10013307          	fld	ft6,256(sp)
   141b4:	22237243          	fmadd.d	ft4,ft6,ft2,ft4
   141b8:	0f813307          	fld	ft6,248(sp)
   141bc:	22337243          	fmadd.d	ft4,ft6,ft3,ft4
   141c0:	0f013307          	fld	ft6,240(sp)
   141c4:	22537243          	fmadd.d	ft4,ft6,ft5,ft4
   141c8:	fe453427          	fsd	ft4,-24(a0)
   141cc:	0e813207          	fld	ft4,232(sp)
   141d0:	7ac27243          	fmadd.d	ft4,ft4,fa2,fa5
   141d4:	0e013307          	fld	ft6,224(sp)
   141d8:	22b37243          	fmadd.d	ft4,ft6,fa1,ft4
   141dc:	0d813307          	fld	ft6,216(sp)
   141e0:	22a37243          	fmadd.d	ft4,ft6,fa0,ft4
   141e4:	0d013307          	fld	ft6,208(sp)
   141e8:	22037243          	fmadd.d	ft4,ft6,ft0,ft4
   141ec:	0c813307          	fld	ft6,200(sp)
   141f0:	22137243          	fmadd.d	ft4,ft6,ft1,ft4
   141f4:	0c013307          	fld	ft6,192(sp)
   141f8:	22237243          	fmadd.d	ft4,ft6,ft2,ft4
   141fc:	0b813307          	fld	ft6,184(sp)
   14200:	22337243          	fmadd.d	ft4,ft6,ft3,ft4
   14204:	0b013307          	fld	ft6,176(sp)
   14208:	22537243          	fmadd.d	ft4,ft6,ft5,ft4
   1420c:	fe453827          	fsd	ft4,-16(a0)
   14210:	0a813207          	fld	ft4,168(sp)
   14214:	7ac27243          	fmadd.d	ft4,ft4,fa2,fa5
   14218:	0a013307          	fld	ft6,160(sp)
   1421c:	22b37243          	fmadd.d	ft4,ft6,fa1,ft4
   14220:	09813307          	fld	ft6,152(sp)
   14224:	22a37243          	fmadd.d	ft4,ft6,fa0,ft4
   14228:	09013307          	fld	ft6,144(sp)
   1422c:	22037243          	fmadd.d	ft4,ft6,ft0,ft4
   14230:	08813307          	fld	ft6,136(sp)
   14234:	22137243          	fmadd.d	ft4,ft6,ft1,ft4
   14238:	08013307          	fld	ft6,128(sp)
   1423c:	22237243          	fmadd.d	ft4,ft6,ft2,ft4
   14240:	07813307          	fld	ft6,120(sp)
   14244:	22337243          	fmadd.d	ft4,ft6,ft3,ft4
   14248:	07013307          	fld	ft6,112(sp)
   1424c:	22537243          	fmadd.d	ft4,ft6,ft5,ft4
   14250:	fe453c27          	fsd	ft4,-8(a0)
   14254:	06813207          	fld	ft4,104(sp)
   14258:	7ac27243          	fmadd.d	ft4,ft4,fa2,fa5
   1425c:	06013307          	fld	ft6,96(sp)
   14260:	22b37243          	fmadd.d	ft4,ft6,fa1,ft4
   14264:	05813307          	fld	ft6,88(sp)
   14268:	22a37243          	fmadd.d	ft4,ft6,fa0,ft4
   1426c:	05013307          	fld	ft6,80(sp)
   14270:	22037243          	fmadd.d	ft4,ft6,ft0,ft4
   14274:	04813307          	fld	ft6,72(sp)
   14278:	22137243          	fmadd.d	ft4,ft6,ft1,ft4
   1427c:	04013307          	fld	ft6,64(sp)
   14280:	22237243          	fmadd.d	ft4,ft6,ft2,ft4
   14284:	03813307          	fld	ft6,56(sp)
   14288:	22337243          	fmadd.d	ft4,ft6,ft3,ft4
   1428c:	03013307          	fld	ft6,48(sp)
   14290:	22537243          	fmadd.d	ft4,ft6,ft5,ft4
   14294:	00453027          	fsd	ft4,0(a0)
   14298:	02813207          	fld	ft4,40(sp)
   1429c:	7ac27243          	fmadd.d	ft4,ft4,fa2,fa5
   142a0:	02013307          	fld	ft6,32(sp)
   142a4:	22b37243          	fmadd.d	ft4,ft6,fa1,ft4
   142a8:	01813307          	fld	ft6,24(sp)
   142ac:	22a37243          	fmadd.d	ft4,ft6,fa0,ft4
   142b0:	2203f243          	fmadd.d	ft4,ft7,ft0,ft4
   142b4:	22187243          	fmadd.d	ft4,fa6,ft1,ft4
   142b8:	2228f243          	fmadd.d	ft4,fa7,ft2,ft4
   142bc:	223e7243          	fmadd.d	ft4,ft8,ft3,ft4
   142c0:	225ef243          	fmadd.d	ft4,ft9,ft5,ft4
   142c4:	00453427          	fsd	ft4,8(a0)
   142c8:	7acf7243          	fmadd.d	ft4,ft10,fa2,fa5
   142cc:	22bff243          	fmadd.d	ft4,ft11,fa1,ft4
   142d0:	22a47243          	fmadd.d	ft4,fs0,fa0,ft4
   142d4:	2204f243          	fmadd.d	ft4,fs1,ft0,ft4
   142d8:	22197243          	fmadd.d	ft4,fs2,ft1,ft4
   142dc:	2229f243          	fmadd.d	ft4,fs3,ft2,ft4
   142e0:	223a7243          	fmadd.d	ft4,fs4,ft3,ft4
   142e4:	225af243          	fmadd.d	ft4,fs5,ft5,ft4
   142e8:	00453827          	fsd	ft4,16(a0)
   142ec:	7acb7643          	fmadd.d	fa2,fs6,fa2,fa5
   142f0:	62bbf643          	fmadd.d	fa2,fs7,fa1,fa2
   142f4:	62ac7643          	fmadd.d	fa2,fs8,fa0,fa2
   142f8:	620cf643          	fmadd.d	fa2,fs9,ft0,fa2
   142fc:	621d7643          	fmadd.d	fa2,fs10,ft1,fa2
   14300:	622df643          	fmadd.d	fa2,fs11,ft2,fa2
   14304:	62377643          	fmadd.d	fa2,fa4,ft3,fa2
   14308:	6256f643          	fmadd.d	fa2,fa3,ft5,fa2
   1430c:	00c53c27          	fsd	fa2,24(a0)
   14310:	04050513          	add	a0,a0,64
   14314:	02060613          	add	a2,a2,32
   14318:	ded516e3          	bne	a0,a3,14104 <idctref+0x700>
   1431c:	00030537          	lui	a0,0x30
   14320:	e0853707          	fld	fa4,-504(a0) # 2fe08 <c>
   14324:	16e13427          	fsd	fa4,360(sp)
   14328:	e0850513          	add	a0,a0,-504
   1432c:	04053707          	fld	fa4,64(a0)
   14330:	16e13027          	fsd	fa4,352(sp)
   14334:	08053707          	fld	fa4,128(a0)
   14338:	14e13c27          	fsd	fa4,344(sp)
   1433c:	0c053707          	fld	fa4,192(a0)
   14340:	14e13827          	fsd	fa4,336(sp)
   14344:	10053707          	fld	fa4,256(a0)
   14348:	14e13427          	fsd	fa4,328(sp)
   1434c:	14053707          	fld	fa4,320(a0)
   14350:	14e13027          	fsd	fa4,320(sp)
   14354:	18053707          	fld	fa4,384(a0)
   14358:	12e13c27          	fsd	fa4,312(sp)
   1435c:	1c053707          	fld	fa4,448(a0)
   14360:	12e13827          	fsd	fa4,304(sp)
   14364:	00853707          	fld	fa4,8(a0)
   14368:	12e13427          	fsd	fa4,296(sp)
   1436c:	04853707          	fld	fa4,72(a0)
   14370:	12e13027          	fsd	fa4,288(sp)
   14374:	08853707          	fld	fa4,136(a0)
   14378:	10e13c27          	fsd	fa4,280(sp)
   1437c:	0c853707          	fld	fa4,200(a0)
   14380:	10e13827          	fsd	fa4,272(sp)
   14384:	10853707          	fld	fa4,264(a0)
   14388:	10e13427          	fsd	fa4,264(sp)
   1438c:	14853707          	fld	fa4,328(a0)
   14390:	10e13027          	fsd	fa4,256(sp)
   14394:	18853707          	fld	fa4,392(a0)
   14398:	0ee13c27          	fsd	fa4,248(sp)
   1439c:	1c853707          	fld	fa4,456(a0)
   143a0:	0ee13827          	fsd	fa4,240(sp)
   143a4:	01053707          	fld	fa4,16(a0)
   143a8:	0ee13427          	fsd	fa4,232(sp)
   143ac:	05053707          	fld	fa4,80(a0)
   143b0:	0ee13027          	fsd	fa4,224(sp)
   143b4:	09053707          	fld	fa4,144(a0)
   143b8:	0ce13c27          	fsd	fa4,216(sp)
   143bc:	0d053707          	fld	fa4,208(a0)
   143c0:	0ce13827          	fsd	fa4,208(sp)
   143c4:	11053707          	fld	fa4,272(a0)
   143c8:	0ce13427          	fsd	fa4,200(sp)
   143cc:	15053707          	fld	fa4,336(a0)
   143d0:	0ce13027          	fsd	fa4,192(sp)
   143d4:	19053707          	fld	fa4,400(a0)
   143d8:	0ae13c27          	fsd	fa4,184(sp)
   143dc:	1d053707          	fld	fa4,464(a0)
   143e0:	0ae13827          	fsd	fa4,176(sp)
   143e4:	01853707          	fld	fa4,24(a0)
   143e8:	0ae13427          	fsd	fa4,168(sp)
   143ec:	05853707          	fld	fa4,88(a0)
   143f0:	0ae13027          	fsd	fa4,160(sp)
   143f4:	09853707          	fld	fa4,152(a0)
   143f8:	08e13c27          	fsd	fa4,152(sp)
   143fc:	0d853707          	fld	fa4,216(a0)
   14400:	08e13827          	fsd	fa4,144(sp)
   14404:	11853707          	fld	fa4,280(a0)
   14408:	08e13427          	fsd	fa4,136(sp)
   1440c:	15853707          	fld	fa4,344(a0)
   14410:	08e13027          	fsd	fa4,128(sp)
   14414:	19853707          	fld	fa4,408(a0)
   14418:	06e13c27          	fsd	fa4,120(sp)
   1441c:	1d853707          	fld	fa4,472(a0)
   14420:	06e13827          	fsd	fa4,112(sp)
   14424:	02053707          	fld	fa4,32(a0)
   14428:	06e13427          	fsd	fa4,104(sp)
   1442c:	06053707          	fld	fa4,96(a0)
   14430:	06e13027          	fsd	fa4,96(sp)
   14434:	0a053707          	fld	fa4,160(a0)
   14438:	04e13c27          	fsd	fa4,88(sp)
   1443c:	0e053707          	fld	fa4,224(a0)
   14440:	04e13827          	fsd	fa4,80(sp)
   14444:	12053707          	fld	fa4,288(a0)
   14448:	04e13427          	fsd	fa4,72(sp)
   1444c:	16053707          	fld	fa4,352(a0)
   14450:	04e13027          	fsd	fa4,64(sp)
   14454:	1a053707          	fld	fa4,416(a0)
   14458:	02e13c27          	fsd	fa4,56(sp)
   1445c:	1e053707          	fld	fa4,480(a0)
   14460:	02e13827          	fsd	fa4,48(sp)
   14464:	02853707          	fld	fa4,40(a0)
   14468:	02e13427          	fsd	fa4,40(sp)
   1446c:	06853707          	fld	fa4,104(a0)
   14470:	02e13027          	fsd	fa4,32(sp)
   14474:	0a853707          	fld	fa4,168(a0)
   14478:	00e13c27          	fsd	fa4,24(sp)
   1447c:	0e853707          	fld	fa4,232(a0)
   14480:	00e13827          	fsd	fa4,16(sp)
   14484:	12853807          	fld	fa6,296(a0)
   14488:	16853887          	fld	fa7,360(a0)
   1448c:	1a853e07          	fld	ft8,424(a0)
   14490:	1e853e87          	fld	ft9,488(a0)
   14494:	03053f07          	fld	ft10,48(a0)
   14498:	07053f87          	fld	ft11,112(a0)
   1449c:	0b053407          	fld	fs0,176(a0)
   144a0:	0f053487          	fld	fs1,240(a0)
   144a4:	13053907          	fld	fs2,304(a0)
   144a8:	17053987          	fld	fs3,368(a0)
   144ac:	1b053a07          	fld	fs4,432(a0)
   144b0:	1f053a87          	fld	fs5,496(a0)
   144b4:	03853b07          	fld	fs6,56(a0)
   144b8:	07853b87          	fld	fs7,120(a0)
   144bc:	0b853c07          	fld	fs8,184(a0)
   144c0:	0f853c87          	fld	fs9,248(a0)
   144c4:	13853d07          	fld	fs10,312(a0)
   144c8:	17853d87          	fld	fs11,376(a0)
   144cc:	1b853707          	fld	fa4,440(a0)
   144d0:	1f853687          	fld	fa3,504(a0)
   144d4:	5081b607          	fld	fa2,1288(gp) # 2fd10 <__TMC_END__+0x150>
   144d8:	08058513          	add	a0,a1,128
   144dc:	37010613          	add	a2,sp,880
   144e0:	0a058593          	add	a1,a1,160
   144e4:	0ff00693          	li	a3,255
   144e8:	f0000713          	li	a4,-256
   144ec:	0140006f          	j	14500 <idctref+0xafc>
   144f0:	07052023          	sw	a6,96(a0)
   144f4:	00450513          	add	a0,a0,4
   144f8:	00860613          	add	a2,a2,8
   144fc:	2ab50e63          	beq	a0,a1,147b8 <idctref+0xdb4>
   14500:	0c063587          	fld	fa1,192(a2)
   14504:	08063507          	fld	fa0,128(a2)
   14508:	04063007          	fld	ft0,64(a2)
   1450c:	00063087          	fld	ft1,0(a2)
   14510:	f0063287          	fld	ft5,-256(a2)
   14514:	f4063207          	fld	ft4,-192(a2)
   14518:	f8063187          	fld	ft3,-128(a2)
   1451c:	fc063107          	fld	ft2,-64(a2)
   14520:	16813307          	fld	ft6,360(sp)
   14524:	7a537343          	fmadd.d	ft6,ft6,ft5,fa5
   14528:	16013387          	fld	ft7,352(sp)
   1452c:	3243f343          	fmadd.d	ft6,ft7,ft4,ft6
   14530:	15813387          	fld	ft7,344(sp)
   14534:	3233f343          	fmadd.d	ft6,ft7,ft3,ft6
   14538:	15013387          	fld	ft7,336(sp)
   1453c:	3223f343          	fmadd.d	ft6,ft7,ft2,ft6
   14540:	14813387          	fld	ft7,328(sp)
   14544:	3213f343          	fmadd.d	ft6,ft7,ft1,ft6
   14548:	14013387          	fld	ft7,320(sp)
   1454c:	3203f343          	fmadd.d	ft6,ft7,ft0,ft6
   14550:	13813387          	fld	ft7,312(sp)
   14554:	32a3f343          	fmadd.d	ft6,ft7,fa0,ft6
   14558:	13013387          	fld	ft7,304(sp)
   1455c:	32b3f343          	fmadd.d	ft6,ft7,fa1,ft6
   14560:	02c37353          	fadd.d	ft6,ft6,fa2
   14564:	c20327d3          	fcvt.w.d	a5,ft6,rdn
   14568:	00d7c463          	blt	a5,a3,14570 <idctref+0xb6c>
   1456c:	0ff00793          	li	a5,255
   14570:	00f74463          	blt	a4,a5,14578 <idctref+0xb74>
   14574:	f0000793          	li	a5,-256
   14578:	12813307          	fld	ft6,296(sp)
   1457c:	7a537343          	fmadd.d	ft6,ft6,ft5,fa5
   14580:	12013387          	fld	ft7,288(sp)
   14584:	3243f343          	fmadd.d	ft6,ft7,ft4,ft6
   14588:	11813387          	fld	ft7,280(sp)
   1458c:	3233f343          	fmadd.d	ft6,ft7,ft3,ft6
   14590:	11013387          	fld	ft7,272(sp)
   14594:	3223f343          	fmadd.d	ft6,ft7,ft2,ft6
   14598:	10813387          	fld	ft7,264(sp)
   1459c:	3213f343          	fmadd.d	ft6,ft7,ft1,ft6
   145a0:	10013387          	fld	ft7,256(sp)
   145a4:	3203f343          	fmadd.d	ft6,ft7,ft0,ft6
   145a8:	0f813387          	fld	ft7,248(sp)
   145ac:	32a3f343          	fmadd.d	ft6,ft7,fa0,ft6
   145b0:	0f013387          	fld	ft7,240(sp)
   145b4:	32b3f343          	fmadd.d	ft6,ft7,fa1,ft6
   145b8:	02c37353          	fadd.d	ft6,ft6,fa2
   145bc:	c2032853          	fcvt.w.d	a6,ft6,rdn
   145c0:	f8f52023          	sw	a5,-128(a0)
   145c4:	00d84463          	blt	a6,a3,145cc <idctref+0xbc8>
   145c8:	0ff00813          	li	a6,255
   145cc:	01074463          	blt	a4,a6,145d4 <idctref+0xbd0>
   145d0:	f0000813          	li	a6,-256
   145d4:	0e813307          	fld	ft6,232(sp)
   145d8:	7a537343          	fmadd.d	ft6,ft6,ft5,fa5
   145dc:	0e013387          	fld	ft7,224(sp)
   145e0:	3243f343          	fmadd.d	ft6,ft7,ft4,ft6
   145e4:	0d813387          	fld	ft7,216(sp)
   145e8:	3233f343          	fmadd.d	ft6,ft7,ft3,ft6
   145ec:	0d013387          	fld	ft7,208(sp)
   145f0:	3223f343          	fmadd.d	ft6,ft7,ft2,ft6
   145f4:	0c813387          	fld	ft7,200(sp)
   145f8:	3213f343          	fmadd.d	ft6,ft7,ft1,ft6
   145fc:	0c013387          	fld	ft7,192(sp)
   14600:	3203f343          	fmadd.d	ft6,ft7,ft0,ft6
   14604:	0b813387          	fld	ft7,184(sp)
   14608:	32a3f343          	fmadd.d	ft6,ft7,fa0,ft6
   1460c:	0b013387          	fld	ft7,176(sp)
   14610:	32b3f343          	fmadd.d	ft6,ft7,fa1,ft6
   14614:	02c37353          	fadd.d	ft6,ft6,fa2
   14618:	c20327d3          	fcvt.w.d	a5,ft6,rdn
   1461c:	fb052023          	sw	a6,-96(a0)
   14620:	00d7c463          	blt	a5,a3,14628 <idctref+0xc24>
   14624:	0ff00793          	li	a5,255
   14628:	00f74463          	blt	a4,a5,14630 <idctref+0xc2c>
   1462c:	f0000793          	li	a5,-256
   14630:	0a813307          	fld	ft6,168(sp)
   14634:	7a537343          	fmadd.d	ft6,ft6,ft5,fa5
   14638:	0a013387          	fld	ft7,160(sp)
   1463c:	3243f343          	fmadd.d	ft6,ft7,ft4,ft6
   14640:	09813387          	fld	ft7,152(sp)
   14644:	3233f343          	fmadd.d	ft6,ft7,ft3,ft6
   14648:	09013387          	fld	ft7,144(sp)
   1464c:	3223f343          	fmadd.d	ft6,ft7,ft2,ft6
   14650:	08813387          	fld	ft7,136(sp)
   14654:	3213f343          	fmadd.d	ft6,ft7,ft1,ft6
   14658:	08013387          	fld	ft7,128(sp)
   1465c:	3203f343          	fmadd.d	ft6,ft7,ft0,ft6
   14660:	07813387          	fld	ft7,120(sp)
   14664:	32a3f343          	fmadd.d	ft6,ft7,fa0,ft6
   14668:	07013387          	fld	ft7,112(sp)
   1466c:	32b3f343          	fmadd.d	ft6,ft7,fa1,ft6
   14670:	02c37353          	fadd.d	ft6,ft6,fa2
   14674:	c2032853          	fcvt.w.d	a6,ft6,rdn
   14678:	fcf52023          	sw	a5,-64(a0)
   1467c:	00d84463          	blt	a6,a3,14684 <idctref+0xc80>
   14680:	0ff00813          	li	a6,255
   14684:	01074463          	blt	a4,a6,1468c <idctref+0xc88>
   14688:	f0000813          	li	a6,-256
   1468c:	06813307          	fld	ft6,104(sp)
   14690:	7a537343          	fmadd.d	ft6,ft6,ft5,fa5
   14694:	06013387          	fld	ft7,96(sp)
   14698:	3243f343          	fmadd.d	ft6,ft7,ft4,ft6
   1469c:	05813387          	fld	ft7,88(sp)
   146a0:	3233f343          	fmadd.d	ft6,ft7,ft3,ft6
   146a4:	05013387          	fld	ft7,80(sp)
   146a8:	3223f343          	fmadd.d	ft6,ft7,ft2,ft6
   146ac:	04813387          	fld	ft7,72(sp)
   146b0:	3213f343          	fmadd.d	ft6,ft7,ft1,ft6
   146b4:	04013387          	fld	ft7,64(sp)
   146b8:	3203f343          	fmadd.d	ft6,ft7,ft0,ft6
   146bc:	03813387          	fld	ft7,56(sp)
   146c0:	32a3f343          	fmadd.d	ft6,ft7,fa0,ft6
   146c4:	03013387          	fld	ft7,48(sp)
   146c8:	32b3f343          	fmadd.d	ft6,ft7,fa1,ft6
   146cc:	02c37353          	fadd.d	ft6,ft6,fa2
   146d0:	c20327d3          	fcvt.w.d	a5,ft6,rdn
   146d4:	ff052023          	sw	a6,-32(a0)
   146d8:	00d7c463          	blt	a5,a3,146e0 <idctref+0xcdc>
   146dc:	0ff00793          	li	a5,255
   146e0:	00f74463          	blt	a4,a5,146e8 <idctref+0xce4>
   146e4:	f0000793          	li	a5,-256
   146e8:	02813307          	fld	ft6,40(sp)
   146ec:	7a537343          	fmadd.d	ft6,ft6,ft5,fa5
   146f0:	02013387          	fld	ft7,32(sp)
   146f4:	3243f343          	fmadd.d	ft6,ft7,ft4,ft6
   146f8:	01813387          	fld	ft7,24(sp)
   146fc:	3233f343          	fmadd.d	ft6,ft7,ft3,ft6
   14700:	01013387          	fld	ft7,16(sp)
   14704:	3223f343          	fmadd.d	ft6,ft7,ft2,ft6
   14708:	32187343          	fmadd.d	ft6,fa6,ft1,ft6
   1470c:	3208f343          	fmadd.d	ft6,fa7,ft0,ft6
   14710:	32ae7343          	fmadd.d	ft6,ft8,fa0,ft6
   14714:	32bef343          	fmadd.d	ft6,ft9,fa1,ft6
   14718:	02c37353          	fadd.d	ft6,ft6,fa2
   1471c:	c2032853          	fcvt.w.d	a6,ft6,rdn
   14720:	00f52023          	sw	a5,0(a0)
   14724:	00d84463          	blt	a6,a3,1472c <idctref+0xd28>
   14728:	0ff00813          	li	a6,255
   1472c:	01074463          	blt	a4,a6,14734 <idctref+0xd30>
   14730:	f0000813          	li	a6,-256
   14734:	7a5f7343          	fmadd.d	ft6,ft10,ft5,fa5
   14738:	324ff343          	fmadd.d	ft6,ft11,ft4,ft6
   1473c:	32347343          	fmadd.d	ft6,fs0,ft3,ft6
   14740:	3224f343          	fmadd.d	ft6,fs1,ft2,ft6
   14744:	32197343          	fmadd.d	ft6,fs2,ft1,ft6
   14748:	3209f343          	fmadd.d	ft6,fs3,ft0,ft6
   1474c:	32aa7343          	fmadd.d	ft6,fs4,fa0,ft6
   14750:	32baf343          	fmadd.d	ft6,fs5,fa1,ft6
   14754:	02c37353          	fadd.d	ft6,ft6,fa2
   14758:	c20327d3          	fcvt.w.d	a5,ft6,rdn
   1475c:	03052023          	sw	a6,32(a0)
   14760:	00d7c463          	blt	a5,a3,14768 <idctref+0xd64>
   14764:	0ff00793          	li	a5,255
   14768:	00f74463          	blt	a4,a5,14770 <idctref+0xd6c>
   1476c:	f0000793          	li	a5,-256
   14770:	7a5b72c3          	fmadd.d	ft5,fs6,ft5,fa5
   14774:	2a4bf243          	fmadd.d	ft4,fs7,ft4,ft5
   14778:	223c71c3          	fmadd.d	ft3,fs8,ft3,ft4
   1477c:	1a2cf143          	fmadd.d	ft2,fs9,ft2,ft3
   14780:	121d70c3          	fmadd.d	ft1,fs10,ft1,ft2
   14784:	0a0df043          	fmadd.d	ft0,fs11,ft0,ft1
   14788:	02a77543          	fmadd.d	fa0,fa4,fa0,ft0
   1478c:	52b6f5c3          	fmadd.d	fa1,fa3,fa1,fa0
   14790:	02c5f5d3          	fadd.d	fa1,fa1,fa2
   14794:	c205a853          	fcvt.w.d	a6,fa1,rdn
   14798:	04f52023          	sw	a5,64(a0)
   1479c:	00d85663          	bge	a6,a3,147a8 <idctref+0xda4>
   147a0:	d50748e3          	blt	a4,a6,144f0 <idctref+0xaec>
   147a4:	00c0006f          	j	147b0 <idctref+0xdac>
   147a8:	0ff00813          	li	a6,255
   147ac:	d50742e3          	blt	a4,a6,144f0 <idctref+0xaec>
   147b0:	f0000813          	li	a6,-256
   147b4:	d3dff06f          	j	144f0 <idctref+0xaec>
   147b8:	4c813407          	fld	fs0,1224(sp)
   147bc:	4c013487          	fld	fs1,1216(sp)
   147c0:	4b813907          	fld	fs2,1208(sp)
   147c4:	4b013987          	fld	fs3,1200(sp)
   147c8:	4a813a07          	fld	fs4,1192(sp)
   147cc:	4a013a87          	fld	fs5,1184(sp)
   147d0:	49813b07          	fld	fs6,1176(sp)
   147d4:	49013b87          	fld	fs7,1168(sp)
   147d8:	48813c07          	fld	fs8,1160(sp)
   147dc:	48013c87          	fld	fs9,1152(sp)
   147e0:	47813d07          	fld	fs10,1144(sp)
   147e4:	47013d87          	fld	fs11,1136(sp)
   147e8:	4d010113          	add	sp,sp,1232
   147ec:	00008067          	ret

00000000000147f0 <CodeOneOrTwo>:
   147f0:	81010113          	add	sp,sp,-2032
   147f4:	7e113423          	sd	ra,2024(sp)
   147f8:	7e813023          	sd	s0,2016(sp)
   147fc:	7c913c23          	sd	s1,2008(sp)
   14800:	7d213823          	sd	s2,2000(sp)
   14804:	7d313423          	sd	s3,1992(sp)
   14808:	7d413023          	sd	s4,1984(sp)
   1480c:	7b513c23          	sd	s5,1976(sp)
   14810:	7b613823          	sd	s6,1968(sp)
   14814:	7b713423          	sd	s7,1960(sp)
   14818:	7b813023          	sd	s8,1952(sp)
   1481c:	79913c23          	sd	s9,1944(sp)
   14820:	79a13823          	sd	s10,1936(sp)
   14824:	79b13423          	sd	s11,1928(sp)
   14828:	78813027          	fsd	fs0,1920(sp)
   1482c:	0004d2b7          	lui	t0,0x4d
   14830:	9b02829b          	addw	t0,t0,-1616 # 4c9b0 <__BSS_END__+0x1c9a8>
   14834:	40510133          	sub	sp,sp,t0
   14838:	00088413          	mv	s0,a7
   1483c:	09013c23          	sd	a6,152(sp)
   14840:	0cf13823          	sd	a5,208(sp)
   14844:	0ce13423          	sd	a4,200(sp)
   14848:	00068d93          	mv	s11,a3
   1484c:	00060a13          	mv	s4,a2
   14850:	06b13c23          	sd	a1,120(sp)
   14854:	0ea13023          	sd	a0,224(sp)
   14858:	14013423          	sd	zero,328(sp)
   1485c:	14013023          	sd	zero,320(sp)
   14860:	12013c23          	sd	zero,312(sp)
   14864:	00080513          	mv	a0,a6
   14868:	0ec140ef          	jal	28954 <ZeroBits>
   1486c:	5841a503          	lw	a0,1412(gp) # 2fd8c <mv_outside_frame>
   14870:	22050063          	beqz	a0,14a90 <CodeOneOrTwo+0x2a0>
   14874:	5881a983          	lw	s3,1416(gp) # 2fd90 <long_vectors>
   14878:	00800913          	li	s2,8
   1487c:	00098463          	beqz	s3,14884 <CodeOneOrTwo+0x94>
   14880:	01000913          	li	s2,16
   14884:	5941a483          	lw	s1,1428(gp) # 2fd9c <pels>
   14888:	5981aa83          	lw	s5,1432(gp) # 2fda0 <lines>
   1488c:	00291c13          	sll	s8,s2,0x2
   14890:	009c0b3b          	addw	s6,s8,s1
   14894:	015c053b          	addw	a0,s8,s5
   14898:	02ab0533          	mul	a0,s6,a0
   1489c:	ae4fc0ef          	jal	10b80 <malloc@plt>
   148a0:	00051463          	bnez	a0,148a8 <CodeOneOrTwo+0xb8>
   148a4:	6c80106f          	j	15f6c <CodeOneOrTwo+0x177c>
   148a8:	01303cb3          	snez	s9,s3
   148ac:	000db603          	ld	a2,0(s11)
   148b0:	001b1b13          	sll	s6,s6,0x1
   148b4:	003c8c93          	add	s9,s9,3
   148b8:	019b15bb          	sllw	a1,s6,s9
   148bc:	00b505b3          	add	a1,a0,a1
   148c0:	00191993          	sll	s3,s2,0x1
   148c4:	013585b3          	add	a1,a1,s3
   148c8:	00050b13          	mv	s6,a0
   148cc:	00060513          	mv	a0,a2
   148d0:	00048613          	mv	a2,s1
   148d4:	000a8693          	mv	a3,s5
   148d8:	00098713          	mv	a4,s3
   148dc:	6b0010ef          	jal	15f8c <MakeEdgeImage>
   148e0:	5941a503          	lw	a0,1428(gp) # 2fd9c <pels>
   148e4:	5981a603          	lw	a2,1432(gp) # 2fda0 <lines>
   148e8:	018505bb          	addw	a1,a0,s8
   148ec:	0186063b          	addw	a2,a2,s8
   148f0:	000b0513          	mv	a0,s6
   148f4:	105010ef          	jal	161f8 <InterpolateImage>
   148f8:	00050493          	mv	s1,a0
   148fc:	000b0513          	mv	a0,s6
   14900:	bb0fc0ef          	jal	10cb0 <free@plt>
   14904:	5941a503          	lw	a0,1428(gp) # 2fd9c <pels>
   14908:	00591593          	sll	a1,s2,0x5
   1490c:	00351613          	sll	a2,a0,0x3
   14910:	00b605b3          	add	a1,a2,a1
   14914:	019595bb          	sllw	a1,a1,s9
   14918:	5981a603          	lw	a2,1432(gp) # 2fda0 <lines>
   1491c:	018585b3          	add	a1,a1,s8
   14920:	00913c23          	sd	s1,24(sp)
   14924:	00b485b3          	add	a1,s1,a1
   14928:	10b13c23          	sd	a1,280(sp)
   1492c:	01850533          	add	a0,a0,s8
   14930:	01860633          	add	a2,a2,s8
   14934:	02a6053b          	mulw	a0,a2,a0
   14938:	98dfe0ef          	jal	132c4 <InitImage>
   1493c:	5941a603          	lw	a2,1428(gp) # 2fd9c <pels>
   14940:	00050493          	mv	s1,a0
   14944:	000a3503          	ld	a0,0(s4)
   14948:	0004b583          	ld	a1,0(s1)
   1494c:	018606b3          	add	a3,a2,s8
   14950:	00169713          	sll	a4,a3,0x1
   14954:	5981a683          	lw	a3,1432(gp) # 2fda0 <lines>
   14958:	0197173b          	sllw	a4,a4,s9
   1495c:	01370733          	add	a4,a4,s3
   14960:	00e585b3          	add	a1,a1,a4
   14964:	00098713          	mv	a4,s3
   14968:	624010ef          	jal	15f8c <MakeEdgeImage>
   1496c:	5941a603          	lw	a2,1428(gp) # 2fd9c <pels>
   14970:	0004b583          	ld	a1,0(s1)
   14974:	01860533          	add	a0,a2,s8
   14978:	00151713          	sll	a4,a0,0x1
   1497c:	000db503          	ld	a0,0(s11)
   14980:	5981a683          	lw	a3,1432(gp) # 2fda0 <lines>
   14984:	0197173b          	sllw	a4,a4,s9
   14988:	01370733          	add	a4,a4,s3
   1498c:	00e585b3          	add	a1,a1,a4
   14990:	00098713          	mv	a4,s3
   14994:	5f8010ef          	jal	15f8c <MakeEdgeImage>
   14998:	5941a583          	lw	a1,1428(gp) # 2fd9c <pels>
   1499c:	008db503          	ld	a0,8(s11)
   149a0:	0084b683          	ld	a3,8(s1)
   149a4:	01f5d61b          	srlw	a2,a1,0x1f
   149a8:	00c585b3          	add	a1,a1,a2
   149ac:	4015d61b          	sraw	a2,a1,0x1
   149b0:	013605b3          	add	a1,a2,s3
   149b4:	5981a703          	lw	a4,1432(gp) # 2fda0 <lines>
   149b8:	019595bb          	sllw	a1,a1,s9
   149bc:	012585b3          	add	a1,a1,s2
   149c0:	00b685b3          	add	a1,a3,a1
   149c4:	01f7569b          	srlw	a3,a4,0x1f
   149c8:	00d706b3          	add	a3,a4,a3
   149cc:	4016d69b          	sraw	a3,a3,0x1
   149d0:	00090713          	mv	a4,s2
   149d4:	5b8010ef          	jal	15f8c <MakeEdgeImage>
   149d8:	5941a583          	lw	a1,1428(gp) # 2fd9c <pels>
   149dc:	010db503          	ld	a0,16(s11)
   149e0:	0104b683          	ld	a3,16(s1)
   149e4:	01f5d61b          	srlw	a2,a1,0x1f
   149e8:	00c585b3          	add	a1,a1,a2
   149ec:	4015d61b          	sraw	a2,a1,0x1
   149f0:	013605b3          	add	a1,a2,s3
   149f4:	5981a703          	lw	a4,1432(gp) # 2fda0 <lines>
   149f8:	019595bb          	sllw	a1,a1,s9
   149fc:	012585b3          	add	a1,a1,s2
   14a00:	00b685b3          	add	a1,a3,a1
   14a04:	01f7569b          	srlw	a3,a4,0x1f
   14a08:	00d706b3          	add	a3,a4,a3
   14a0c:	4016d69b          	sraw	a3,a3,0x1
   14a10:	00090713          	mv	a4,s2
   14a14:	578010ef          	jal	15f8c <MakeEdgeImage>
   14a18:	01800513          	li	a0,24
   14a1c:	964fc0ef          	jal	10b80 <malloc@plt>
   14a20:	5941e583          	lwu	a1,1428(gp) # 2fd9c <pels>
   14a24:	00050d93          	mv	s11,a0
   14a28:	0004b503          	ld	a0,0(s1)
   14a2c:	01858c33          	add	s8,a1,s8
   14a30:	001c1c13          	sll	s8,s8,0x1
   14a34:	019c163b          	sllw	a2,s8,s9
   14a38:	01360633          	add	a2,a2,s3
   14a3c:	00c50533          	add	a0,a0,a2
   14a40:	00adb023          	sd	a0,0(s11)
   14a44:	0084b503          	ld	a0,8(s1)
   14a48:	01f5d613          	srl	a2,a1,0x1f
   14a4c:	00c58633          	add	a2,a1,a2
   14a50:	4016561b          	sraw	a2,a2,0x1
   14a54:	01360633          	add	a2,a2,s3
   14a58:	0196163b          	sllw	a2,a2,s9
   14a5c:	012606b3          	add	a3,a2,s2
   14a60:	00913823          	sd	s1,16(sp)
   14a64:	0104b703          	ld	a4,16(s1)
   14a68:	00d50533          	add	a0,a0,a3
   14a6c:	00adb423          	sd	a0,8(s11)
   14a70:	01260633          	add	a2,a2,s2
   14a74:	00c70633          	add	a2,a4,a2
   14a78:	00cdb823          	sd	a2,16(s11)
   14a7c:	0fb13423          	sd	s11,232(sp)
   14a80:	0005859b          	sext.w	a1,a1
   14a84:	01000513          	li	a0,16
   14a88:	02a5dc63          	bge	a1,a0,14ac0 <CodeOneOrTwo+0x2d0>
   14a8c:	1100006f          	j	14b9c <CodeOneOrTwo+0x3ac>
   14a90:	000db503          	ld	a0,0(s11)
   14a94:	5941a583          	lw	a1,1428(gp) # 2fd9c <pels>
   14a98:	5981a603          	lw	a2,1432(gp) # 2fda0 <lines>
   14a9c:	75c010ef          	jal	161f8 <InterpolateImage>
   14aa0:	5941a583          	lw	a1,1428(gp) # 2fd9c <pels>
   14aa4:	00013823          	sd	zero,16(sp)
   14aa8:	00a13c23          	sd	a0,24(sp)
   14aac:	10a13c23          	sd	a0,280(sp)
   14ab0:	0fb13423          	sd	s11,232(sp)
   14ab4:	0005859b          	sext.w	a1,a1
   14ab8:	01000513          	li	a0,16
   14abc:	0ea5c063          	blt	a1,a0,14b9c <CodeOneOrTwo+0x3ac>
   14ac0:	00000913          	li	s2,0
   14ac4:	00040537          	lui	a0,0x40
   14ac8:	2985099b          	addw	s3,a0,664 # 40298 <__BSS_END__+0x10290>
   14acc:	15010b93          	add	s7,sp,336
   14ad0:	013b89b3          	add	s3,s7,s3
   14ad4:	00033537          	lui	a0,0x33
   14ad8:	54850a1b          	addw	s4,a0,1352 # 33548 <__BSS_END__+0x3540>
   14adc:	014b8a33          	add	s4,s7,s4
   14ae0:	00026537          	lui	a0,0x26
   14ae4:	7f850a9b          	addw	s5,a0,2040 # 267f8 <Count_sac_BitsMB+0x164>
   14ae8:	015b8ab3          	add	s5,s7,s5
   14aec:	0001a537          	lui	a0,0x1a
   14af0:	aa850b1b          	addw	s6,a0,-1368 # 19aa8 <MotionEstimation+0x5d8>
   14af4:	016b8b33          	add	s6,s7,s6
   14af8:	0000d537          	lui	a0,0xd
   14afc:	d585051b          	addw	a0,a0,-680 # cd58 <__abi_tag-0x353c>
   14b00:	00ab8bb3          	add	s7,s7,a0
   14b04:	15810c13          	add	s8,sp,344
   14b08:	00300c93          	li	s9,3
   14b0c:	01800513          	li	a0,24
   14b10:	870fc0ef          	jal	10b80 <malloc@plt>
   14b14:	00050493          	mv	s1,a0
   14b18:	00ac3023          	sd	a0,0(s8)
   14b1c:	7e9130ef          	jal	28b04 <MarkVec>
   14b20:	01800513          	li	a0,24
   14b24:	85cfc0ef          	jal	10b80 <malloc@plt>
   14b28:	00abb023          	sd	a0,0(s7)
   14b2c:	7d9130ef          	jal	28b04 <MarkVec>
   14b30:	01800513          	li	a0,24
   14b34:	84cfc0ef          	jal	10b80 <malloc@plt>
   14b38:	00ab3023          	sd	a0,0(s6)
   14b3c:	7c9130ef          	jal	28b04 <MarkVec>
   14b40:	01800513          	li	a0,24
   14b44:	83cfc0ef          	jal	10b80 <malloc@plt>
   14b48:	00aab023          	sd	a0,0(s5)
   14b4c:	7b9130ef          	jal	28b04 <MarkVec>
   14b50:	01800513          	li	a0,24
   14b54:	82cfc0ef          	jal	10b80 <malloc@plt>
   14b58:	00aa3023          	sd	a0,0(s4)
   14b5c:	7a9130ef          	jal	28b04 <MarkVec>
   14b60:	01800513          	li	a0,24
   14b64:	81cfc0ef          	jal	10b80 <malloc@plt>
   14b68:	00a9b023          	sd	a0,0(s3)
   14b6c:	799130ef          	jal	28b04 <MarkVec>
   14b70:	5941a503          	lw	a0,1428(gp) # 2fd9c <pels>
   14b74:	0194aa23          	sw	s9,20(s1)
   14b78:	40455513          	sra	a0,a0,0x4
   14b7c:	00190913          	add	s2,s2,1
   14b80:	00898993          	add	s3,s3,8
   14b84:	008a0a13          	add	s4,s4,8
   14b88:	008a8a93          	add	s5,s5,8
   14b8c:	008b0b13          	add	s6,s6,8
   14b90:	008b8b93          	add	s7,s7,8
   14b94:	008c0c13          	add	s8,s8,8
   14b98:	f6a94ae3          	blt	s2,a0,14b0c <CodeOneOrTwo+0x31c>
   14b9c:	5981a503          	lw	a0,1432(gp) # 2fda0 <lines>
   14ba0:	1a054463          	bltz	a0,14d48 <CodeOneOrTwo+0x558>
   14ba4:	fff00913          	li	s2,-1
   14ba8:	15010993          	add	s3,sp,336
   14bac:	0000d537          	lui	a0,0xd
   14bb0:	d505051b          	addw	a0,a0,-688 # cd50 <__abi_tag-0x3544>
   14bb4:	12a13823          	sd	a0,304(sp)
   14bb8:	00026537          	lui	a0,0x26
   14bbc:	7f850c9b          	addw	s9,a0,2040 # 267f8 <Count_sac_BitsMB+0x164>
   14bc0:	00040a37          	lui	s4,0x40
   14bc4:	000334b7          	lui	s1,0x33
   14bc8:	0001ad37          	lui	s10,0x1a
   14bcc:	01498db3          	add	s11,s3,s4
   14bd0:	00998ab3          	add	s5,s3,s1
   14bd4:	01a98b33          	add	s6,s3,s10
   14bd8:	13013b83          	ld	s7,304(sp)
   14bdc:	01798bb3          	add	s7,s3,s7
   14be0:	01800513          	li	a0,24
   14be4:	f9dfb0ef          	jal	10b80 <malloc@plt>
   14be8:	00a9b023          	sd	a0,0(s3)
   14bec:	705130ef          	jal	28af0 <ZeroVec>
   14bf0:	01800513          	li	a0,24
   14bf4:	f8dfb0ef          	jal	10b80 <malloc@plt>
   14bf8:	5941a583          	lw	a1,1428(gp) # 2fd9c <pels>
   14bfc:	4045d593          	sra	a1,a1,0x4
   14c00:	00359593          	sll	a1,a1,0x3
   14c04:	00b985b3          	add	a1,s3,a1
   14c08:	00a5b423          	sd	a0,8(a1)
   14c0c:	6e5130ef          	jal	28af0 <ZeroVec>
   14c10:	01800513          	li	a0,24
   14c14:	f6dfb0ef          	jal	10b80 <malloc@plt>
   14c18:	00abb023          	sd	a0,0(s7)
   14c1c:	6d5130ef          	jal	28af0 <ZeroVec>
   14c20:	01800513          	li	a0,24
   14c24:	f5dfb0ef          	jal	10b80 <malloc@plt>
   14c28:	5941a583          	lw	a1,1428(gp) # 2fd9c <pels>
   14c2c:	4045d593          	sra	a1,a1,0x4
   14c30:	00359593          	sll	a1,a1,0x3
   14c34:	00bb85b3          	add	a1,s7,a1
   14c38:	00a5b423          	sd	a0,8(a1)
   14c3c:	6b5130ef          	jal	28af0 <ZeroVec>
   14c40:	01800513          	li	a0,24
   14c44:	f3dfb0ef          	jal	10b80 <malloc@plt>
   14c48:	aaab3023          	sd	a0,-1376(s6)
   14c4c:	6a5130ef          	jal	28af0 <ZeroVec>
   14c50:	01800513          	li	a0,24
   14c54:	f2dfb0ef          	jal	10b80 <malloc@plt>
   14c58:	5941a583          	lw	a1,1428(gp) # 2fd9c <pels>
   14c5c:	4045d593          	sra	a1,a1,0x4
   14c60:	00359593          	sll	a1,a1,0x3
   14c64:	01a98633          	add	a2,s3,s10
   14c68:	00b605b3          	add	a1,a2,a1
   14c6c:	aaa5b423          	sd	a0,-1368(a1)
   14c70:	681130ef          	jal	28af0 <ZeroVec>
   14c74:	01800513          	li	a0,24
   14c78:	f09fb0ef          	jal	10b80 <malloc@plt>
   14c7c:	01998b33          	add	s6,s3,s9
   14c80:	feab3c23          	sd	a0,-8(s6)
   14c84:	66d130ef          	jal	28af0 <ZeroVec>
   14c88:	01800513          	li	a0,24
   14c8c:	ef5fb0ef          	jal	10b80 <malloc@plt>
   14c90:	5941a583          	lw	a1,1428(gp) # 2fd9c <pels>
   14c94:	4045d593          	sra	a1,a1,0x4
   14c98:	00359593          	sll	a1,a1,0x3
   14c9c:	00bb05b3          	add	a1,s6,a1
   14ca0:	00a5b023          	sd	a0,0(a1)
   14ca4:	64d130ef          	jal	28af0 <ZeroVec>
   14ca8:	01800513          	li	a0,24
   14cac:	ed5fb0ef          	jal	10b80 <malloc@plt>
   14cb0:	54aab023          	sd	a0,1344(s5)
   14cb4:	63d130ef          	jal	28af0 <ZeroVec>
   14cb8:	01800513          	li	a0,24
   14cbc:	ec5fb0ef          	jal	10b80 <malloc@plt>
   14cc0:	5941a583          	lw	a1,1428(gp) # 2fd9c <pels>
   14cc4:	4045d593          	sra	a1,a1,0x4
   14cc8:	00359593          	sll	a1,a1,0x3
   14ccc:	00998633          	add	a2,s3,s1
   14cd0:	00b605b3          	add	a1,a2,a1
   14cd4:	54a5b423          	sd	a0,1352(a1)
   14cd8:	619130ef          	jal	28af0 <ZeroVec>
   14cdc:	01800513          	li	a0,24
   14ce0:	ea1fb0ef          	jal	10b80 <malloc@plt>
   14ce4:	28adb823          	sd	a0,656(s11)
   14ce8:	609130ef          	jal	28af0 <ZeroVec>
   14cec:	01800513          	li	a0,24
   14cf0:	e91fb0ef          	jal	10b80 <malloc@plt>
   14cf4:	5941a583          	lw	a1,1428(gp) # 2fd9c <pels>
   14cf8:	4045d593          	sra	a1,a1,0x4
   14cfc:	00359593          	sll	a1,a1,0x3
   14d00:	01498633          	add	a2,s3,s4
   14d04:	00b605b3          	add	a1,a2,a1
   14d08:	28a5bc23          	sd	a0,664(a1)
   14d0c:	5e5130ef          	jal	28af0 <ZeroVec>
   14d10:	5941a503          	lw	a0,1428(gp) # 2fd9c <pels>
   14d14:	0009b583          	ld	a1,0(s3)
   14d18:	40455513          	sra	a0,a0,0x4
   14d1c:	00351513          	sll	a0,a0,0x3
   14d20:	00a98533          	add	a0,s3,a0
   14d24:	00853503          	ld	a0,8(a0)
   14d28:	5981a603          	lw	a2,1432(gp) # 2fda0 <lines>
   14d2c:	00300693          	li	a3,3
   14d30:	00d5aa23          	sw	a3,20(a1)
   14d34:	00d52a23          	sw	a3,20(a0)
   14d38:	40465613          	sra	a2,a2,0x4
   14d3c:	00190913          	add	s2,s2,1
   14d40:	2d098993          	add	s3,s3,720
   14d44:	e8c944e3          	blt	s2,a2,14bcc <CodeOneOrTwo+0x3dc>
   14d48:	0e013503          	ld	a0,224(sp)
   14d4c:	00053503          	ld	a0,0(a0)
   14d50:	0e813d83          	ld	s11,232(sp)
   14d54:	000db583          	ld	a1,0(s11)
   14d58:	03842683          	lw	a3,56(s0)
   14d5c:	03c42783          	lw	a5,60(s0)
   14d60:	15010713          	add	a4,sp,336
   14d64:	11813603          	ld	a2,280(sp)
   14d68:	6a4010ef          	jal	1640c <MotionEstimatePicture>
   14d6c:	00c42503          	lw	a0,12(s0)
   14d70:	00051463          	bnez	a0,14d78 <CodeOneOrTwo+0x588>
   14d74:	0a80106f          	j	15e1c <CodeOneOrTwo+0x162c>
   14d78:	02842583          	lw	a1,40(s0)
   14d7c:	01442587          	flw	fa1,20(s0)
   14d80:	d0057553          	fcvt.s.w	fa0,a0
   14d84:	00058863          	beqz	a1,14d94 <CodeOneOrTwo+0x5a4>
   14d88:	3f000537          	lui	a0,0x3f000
   14d8c:	f00507d3          	fmv.w.x	fa5,a0
   14d90:	10f5f5d3          	fmul.s	fa1,fa1,fa5
   14d94:	09813c03          	ld	s8,152(sp)
   14d98:	04c42607          	flw	fa2,76(s0)
   14d9c:	00100513          	li	a0,1
   14da0:	34c140ef          	jal	290ec <InitializeQuantizer>
   14da4:	00050993          	mv	s3,a0
   14da8:	5981ab03          	lw	s6,1432(gp) # 2fda0 <lines>
   14dac:	01000513          	li	a0,16
   14db0:	00ab5463          	bge	s6,a0,14db8 <CodeOneOrTwo+0x5c8>
   14db4:	0800106f          	j	15e34 <CodeOneOrTwo+0x1644>
   14db8:	06013423          	sd	zero,104(sp)
   14dbc:	00000b93          	li	s7,0
   14dc0:	00000a93          	li	s5,0
   14dc4:	00000493          	li	s1,0
   14dc8:	00000a13          	li	s4,0
   14dcc:	0e013c23          	sd	zero,248(sp)
   14dd0:	0004d537          	lui	a0,0x4d
   14dd4:	00a10533          	add	a0,sp,a0
   14dd8:	1a853503          	ld	a0,424(a0) # 4d1a8 <__BSS_END__+0x1d1a0>
   14ddc:	08a13823          	sd	a0,144(sp)
   14de0:	0004d537          	lui	a0,0x4d
   14de4:	00a10533          	add	a0,sp,a0
   14de8:	1a053503          	ld	a0,416(a0) # 4d1a0 <__BSS_END__+0x1d198>
   14dec:	06a13823          	sd	a0,112(sp)
   14df0:	00040537          	lui	a0,0x40
   14df4:	2905051b          	addw	a0,a0,656 # 40290 <__BSS_END__+0x10288>
   14df8:	15010593          	add	a1,sp,336
   14dfc:	00a58533          	add	a0,a1,a0
   14e00:	02a13023          	sd	a0,32(sp)
   14e04:	f0000453          	fmv.w.x	fs0,zero
   14e08:	00098c93          	mv	s9,s3
   14e0c:	0340006f          	j	14e40 <CodeOneOrTwo+0x650>
   14e10:	5981ab03          	lw	s6,1432(gp) # 2fda0 <lines>
   14e14:	001b1513          	sll	a0,s6,0x1
   14e18:	03c55513          	srl	a0,a0,0x3c
   14e1c:	00ab0533          	add	a0,s6,a0
   14e20:	4045551b          	sraw	a0,a0,0x4
   14e24:	06813583          	ld	a1,104(sp)
   14e28:	01058593          	add	a1,a1,16
   14e2c:	06b13423          	sd	a1,104(sp)
   14e30:	00068b93          	mv	s7,a3
   14e34:	0f013a03          	ld	s4,240(sp)
   14e38:	00a6c463          	blt	a3,a0,14e40 <CodeOneOrTwo+0x650>
   14e3c:	7d50006f          	j	15e10 <CodeOneOrTwo+0x1620>
   14e40:	00c42503          	lw	a0,12(s0)
   14e44:	04050a63          	beqz	a0,14e98 <CodeOneOrTwo+0x6a8>
   14e48:	000c0513          	mv	a0,s8
   14e4c:	451130ef          	jal	28a9c <AddBitsPicture>
   14e50:	00c42503          	lw	a0,12(s0)
   14e54:	5941a583          	lw	a1,1428(gp) # 2fd9c <pels>
   14e58:	04c42507          	flw	fa0,76(s0)
   14e5c:	d00575d3          	fcvt.s.w	fa1,a0
   14e60:	00159513          	sll	a0,a1,0x1
   14e64:	5981a683          	lw	a3,1432(gp) # 2fda0 <lines>
   14e68:	03c55513          	srl	a0,a0,0x3c
   14e6c:	00a58533          	add	a0,a1,a0
   14e70:	4045561b          	sraw	a2,a0,0x4
   14e74:	00169513          	sll	a0,a3,0x1
   14e78:	028c2703          	lw	a4,40(s8)
   14e7c:	03c55513          	srl	a0,a0,0x3c
   14e80:	00a68533          	add	a0,a3,a0
   14e84:	4045569b          	sraw	a3,a0,0x4
   14e88:	00100593          	li	a1,1
   14e8c:	000a8513          	mv	a0,s5
   14e90:	374140ef          	jal	29204 <UpdateQuantizer>
   14e94:	00050c93          	mv	s9,a0
   14e98:	000b8d1b          	sext.w	s10,s7
   14e9c:	000b8e63          	beqz	s7,14eb8 <CodeOneOrTwo+0x6c8>
   14ea0:	03c42503          	lw	a0,60(s0)
   14ea4:	00050663          	beqz	a0,14eb0 <CodeOneOrTwo+0x6c0>
   14ea8:	02abe53b          	remw	a0,s7,a0
   14eac:	02050063          	beqz	a0,14ecc <CodeOneOrTwo+0x6dc>
   14eb0:	08013023          	sd	zero,128(sp)
   14eb4:	03c0006f          	j	14ef0 <CodeOneOrTwo+0x700>
   14eb8:	03942623          	sw	s9,44(s0)
   14ebc:	00040513          	mv	a0,s0
   14ec0:	4c1130ef          	jal	28b80 <CountBitsPicture>
   14ec4:	08013023          	sd	zero,128(sp)
   14ec8:	0180006f          	j	14ee0 <CodeOneOrTwo+0x6f0>
   14ecc:	000d0513          	mv	a0,s10
   14ed0:	000c8593          	mv	a1,s9
   14ed4:	321110ef          	jal	269f4 <CountBitsSlice>
   14ed8:	00100593          	li	a1,1
   14edc:	08b13023          	sd	a1,128(sp)
   14ee0:	020c2583          	lw	a1,32(s8)
   14ee4:	00a58533          	add	a0,a1,a0
   14ee8:	02ac2023          	sw	a0,32(s8)
   14eec:	000c8993          	mv	s3,s9
   14ef0:	0f413823          	sd	s4,240(sp)
   14ef4:	5941a503          	lw	a0,1428(gp) # 2fd9c <pels>
   14ef8:	001b8693          	add	a3,s7,1
   14efc:	01000593          	li	a1,16
   14f00:	f0b548e3          	blt	a0,a1,14e10 <CodeOneOrTwo+0x620>
   14f04:	00000b13          	li	s6,0
   14f08:	004b9513          	sll	a0,s7,0x4
   14f0c:	00155593          	srl	a1,a0,0x1
   14f10:	00158613          	add	a2,a1,1
   14f14:	04c13c23          	sd	a2,88(sp)
   14f18:	00258613          	add	a2,a1,2
   14f1c:	04c13823          	sd	a2,80(sp)
   14f20:	00358613          	add	a2,a1,3
   14f24:	04c13423          	sd	a2,72(sp)
   14f28:	00458613          	add	a2,a1,4
   14f2c:	04c13023          	sd	a2,64(sp)
   14f30:	00558613          	add	a2,a1,5
   14f34:	02c13c23          	sd	a2,56(sp)
   14f38:	00658613          	add	a2,a1,6
   14f3c:	02c13823          	sd	a2,48(sp)
   14f40:	06b13023          	sd	a1,96(sp)
   14f44:	00758593          	add	a1,a1,7
   14f48:	02b13423          	sd	a1,40(sp)
   14f4c:	00f00a13          	li	s4,15
   14f50:	2d000593          	li	a1,720
   14f54:	02b685b3          	mul	a1,a3,a1
   14f58:	15010613          	add	a2,sp,336
   14f5c:	00b60633          	add	a2,a2,a1
   14f60:	0ac13023          	sd	a2,160(sp)
   14f64:	0005051b          	sext.w	a0,a0
   14f68:	12a13023          	sd	a0,288(sp)
   14f6c:	02013503          	ld	a0,32(sp)
   14f70:	00b50533          	add	a0,a0,a1
   14f74:	08a13423          	sd	a0,136(sp)
   14f78:	0d713023          	sd	s7,192(sp)
   14f7c:	0b913c23          	sd	s9,184(sp)
   14f80:	0ba13823          	sd	s10,176(sp)
   14f84:	0ad13423          	sd	a3,168(sp)
   14f88:	0480006f          	j	14fd0 <CodeOneOrTwo+0x7e0>
   14f8c:	5941a503          	lw	a0,1428(gp) # 2fd9c <pels>
   14f90:	001a8a9b          	addw	s5,s5,1
   14f94:	13013583          	ld	a1,304(sp)
   14f98:	d005f7d3          	fcvt.s.w	fa5,a1
   14f9c:	00f47453          	fadd.s	fs0,fs0,fa5
   14fa0:	00151593          	sll	a1,a0,0x1
   14fa4:	03c5d593          	srl	a1,a1,0x3c
   14fa8:	00b50533          	add	a0,a0,a1
   14fac:	4045551b          	sraw	a0,a0,0x4
   14fb0:	010a0a13          	add	s4,s4,16 # 40010 <__BSS_END__+0x10008>
   14fb4:	11013583          	ld	a1,272(sp)
   14fb8:	00058b13          	mv	s6,a1
   14fbc:	0e813d83          	ld	s11,232(sp)
   14fc0:	0c013b83          	ld	s7,192(sp)
   14fc4:	0b813c83          	ld	s9,184(sp)
   14fc8:	0a813683          	ld	a3,168(sp)
   14fcc:	e4a5d2e3          	bge	a1,a0,14e10 <CodeOneOrTwo+0x620>
   14fd0:	001b0593          	add	a1,s6,1
   14fd4:	00359613          	sll	a2,a1,0x3
   14fd8:	0a013503          	ld	a0,160(sp)
   14fdc:	10c13023          	sd	a2,256(sp)
   14fe0:	00c50c33          	add	s8,a0,a2
   14fe4:	000c3503          	ld	a0,0(s8)
   14fe8:	01452503          	lw	a0,20(a0)
   14fec:	11513423          	sd	s5,264(sp)
   14ff0:	10b13823          	sd	a1,272(sp)
   14ff4:	020b0263          	beqz	s6,15018 <CodeOneOrTwo+0x828>
   14ff8:	033c8063          	beq	s9,s3,15018 <CodeOneOrTwo+0x828>
   14ffc:	00200613          	li	a2,2
   15000:	00c51c63          	bne	a0,a2,15018 <CodeOneOrTwo+0x828>
   15004:	00000593          	li	a1,0
   15008:	00200513          	li	a0,2
   1500c:	00098d13          	mv	s10,s3
   15010:	00048c93          	mv	s9,s1
   15014:	04c0006f          	j	15060 <CodeOneOrTwo+0x870>
   15018:	413c863b          	subw	a2,s9,s3
   1501c:	00200693          	li	a3,2
   15020:	00060593          	mv	a1,a2
   15024:	00d64463          	blt	a2,a3,1502c <CodeOneOrTwo+0x83c>
   15028:	00200593          	li	a1,2
   1502c:	00c6cc63          	blt	a3,a2,15044 <CodeOneOrTwo+0x854>
   15030:	000c8d13          	mv	s10,s9
   15034:	00048c93          	mv	s9,s1
   15038:	ffe00693          	li	a3,-2
   1503c:	00b6dc63          	bge	a3,a1,15054 <CodeOneOrTwo+0x864>
   15040:	0180006f          	j	15058 <CodeOneOrTwo+0x868>
   15044:	00298d1b          	addw	s10,s3,2
   15048:	00048c93          	mv	s9,s1
   1504c:	ffe00693          	li	a3,-2
   15050:	00b6c463          	blt	a3,a1,15058 <CodeOneOrTwo+0x868>
   15054:	ffe00593          	li	a1,-2
   15058:	00d65463          	bge	a2,a3,15060 <CodeOneOrTwo+0x870>
   1505c:	ffe98d1b          	addw	s10,s3,-2
   15060:	02b42823          	sw	a1,48(s0)
   15064:	5b5100ef          	jal	25e18 <ModifyMode>
   15068:	0d813c23          	sd	s8,216(sp)
   1506c:	000c3583          	ld	a1,0(s8)
   15070:	5941a483          	lw	s1,1428(gp) # 2fd9c <pels>
   15074:	00050a93          	mv	s5,a0
   15078:	00a5aa23          	sw	a0,20(a1)
   1507c:	00149513          	sll	a0,s1,0x1
   15080:	03c55513          	srl	a0,a0,0x3c
   15084:	00a48533          	add	a0,s1,a0
   15088:	4045551b          	sraw	a0,a0,0x4
   1508c:	03750533          	mul	a0,a0,s7
   15090:	01650533          	add	a0,a0,s6
   15094:	02a42a23          	sw	a0,52(s0)
   15098:	004b1c1b          	sllw	s8,s6,0x4
   1509c:	00200513          	li	a0,2
   150a0:	0d313423          	sd	s3,200(sp)
   150a4:	03556663          	bltu	a0,s5,150d0 <CodeOneOrTwo+0x8e0>
   150a8:	02842803          	lw	a6,40(s0)
   150ac:	15010793          	add	a5,sp,336
   150b0:	0e013503          	ld	a0,224(sp)
   150b4:	000d8593          	mv	a1,s11
   150b8:	11813603          	ld	a2,280(sp)
   150bc:	000c0693          	mv	a3,s8
   150c0:	12013703          	ld	a4,288(sp)
   150c4:	50d050ef          	jal	1add0 <Predict_P>
   150c8:	00050913          	mv	s2,a0
   150cc:	0290006f          	j	158f4 <CodeOneOrTwo+0x1104>
   150d0:	60000513          	li	a0,1536
   150d4:	aadfb0ef          	jal	10b80 <malloc@plt>
   150d8:	0e013583          	ld	a1,224(sp)
   150dc:	0005b603          	ld	a2,0(a1)
   150e0:	00050913          	mv	s2,a0
   150e4:	004b1593          	sll	a1,s6,0x4
   150e8:	06813503          	ld	a0,104(sp)
   150ec:	02950533          	mul	a0,a0,s1
   150f0:	01460633          	add	a2,a2,s4
   150f4:	02090693          	add	a3,s2,32
   150f8:	42090713          	add	a4,s2,1056
   150fc:	00a607b3          	add	a5,a2,a0
   15100:	ff17c803          	lbu	a6,-15(a5)
   15104:	ff06a023          	sw	a6,-32(a3)
   15108:	ff27c803          	lbu	a6,-14(a5)
   1510c:	ff06a223          	sw	a6,-28(a3)
   15110:	ff37c803          	lbu	a6,-13(a5)
   15114:	ff06a423          	sw	a6,-24(a3)
   15118:	ff47c803          	lbu	a6,-12(a5)
   1511c:	ff06a623          	sw	a6,-20(a3)
   15120:	ff57c803          	lbu	a6,-11(a5)
   15124:	ff06a823          	sw	a6,-16(a3)
   15128:	ff67c803          	lbu	a6,-10(a5)
   1512c:	ff06aa23          	sw	a6,-12(a3)
   15130:	ff77c803          	lbu	a6,-9(a5)
   15134:	ff06ac23          	sw	a6,-8(a3)
   15138:	ff87c803          	lbu	a6,-8(a5)
   1513c:	ff06ae23          	sw	a6,-4(a3)
   15140:	ff97c803          	lbu	a6,-7(a5)
   15144:	0106a023          	sw	a6,0(a3)
   15148:	ffa7c803          	lbu	a6,-6(a5)
   1514c:	0106a223          	sw	a6,4(a3)
   15150:	ffb7c803          	lbu	a6,-5(a5)
   15154:	0106a423          	sw	a6,8(a3)
   15158:	ffc7c803          	lbu	a6,-4(a5)
   1515c:	0106a623          	sw	a6,12(a3)
   15160:	ffd7c803          	lbu	a6,-3(a5)
   15164:	0106a823          	sw	a6,16(a3)
   15168:	ffe7c803          	lbu	a6,-2(a5)
   1516c:	0106aa23          	sw	a6,20(a3)
   15170:	fff7c803          	lbu	a6,-1(a5)
   15174:	0106ac23          	sw	a6,24(a3)
   15178:	0007c783          	lbu	a5,0(a5)
   1517c:	00f6ae23          	sw	a5,28(a3)
   15180:	04068693          	add	a3,a3,64
   15184:	00960633          	add	a2,a2,s1
   15188:	f6e69ae3          	bne	a3,a4,150fc <CodeOneOrTwo+0x90c>
   1518c:	0e013703          	ld	a4,224(sp)
   15190:	00873603          	ld	a2,8(a4)
   15194:	59c1a503          	lw	a0,1436(gp) # 2fda4 <cpels>
   15198:	0015d693          	srl	a3,a1,0x1
   1519c:	00d605b3          	add	a1,a2,a3
   151a0:	01073603          	ld	a2,16(a4)
   151a4:	06013703          	ld	a4,96(sp)
   151a8:	01084423          	regsw_c	a6,8(a6)
   151ac:	02a701b3          	mul	gp,a4,a0
   151b0:	00358733          	add	a4,a1,gp
   151b4:	00074703          	lbu	a4,0(a4)
   151b8:	00d60633          	add	a2,a2,a3
   151bc:	40e92023          	sw	a4,1024(s2)
   151c0:	003606b3          	add	a3,a2,gp
   151c4:	0006c703          	lbu	a4,0(a3)
   151c8:	00158693          	add	a3,a1,1
   151cc:	50e92023          	sw	a4,1280(s2)
   151d0:	04024023          	regsw_c	zero,64(tp) # 40 <__abi_tag-0x10254>
   151d4:	00368733          	add	a4,a3,gp
   151d8:	00074783          	lbu	a5,0(a4)
   151dc:	00160713          	add	a4,a2,1
   151e0:	40f92223          	sw	a5,1028(s2)
   151e4:	003707b3          	add	a5,a4,gp
   151e8:	0007c803          	lbu	a6,0(a5)
   151ec:	00258793          	add	a5,a1,2
   151f0:	51092223          	sw	a6,1284(s2)
   151f4:	04024023          	regsw_c	zero,64(tp) # 40 <__abi_tag-0x10254>
   151f8:	00378833          	add	a6,a5,gp
   151fc:	00084883          	lbu	a7,0(a6)
   15200:	00260813          	add	a6,a2,2
   15204:	41192423          	sw	a7,1032(s2)
   15208:	003808b3          	add	a7,a6,gp
   1520c:	0008c283          	lbu	t0,0(a7)
   15210:	00358893          	add	a7,a1,3
   15214:	50592423          	sw	t0,1288(s2)
   15218:	04024023          	regsw_c	zero,64(tp) # 40 <__abi_tag-0x10254>
   1521c:	003882b3          	add	t0,a7,gp
   15220:	0002c303          	lbu	t1,0(t0)
   15224:	00360293          	add	t0,a2,3
   15228:	40692623          	sw	t1,1036(s2)
   1522c:	00328333          	add	t1,t0,gp
   15230:	00034383          	lbu	t2,0(t1)
   15234:	00458313          	add	t1,a1,4
   15238:	50792623          	sw	t2,1292(s2)
   1523c:	04024023          	regsw_c	zero,64(tp) # 40 <__abi_tag-0x10254>
   15240:	003303b3          	add	t2,t1,gp
   15244:	0003ce03          	lbu	t3,0(t2)
   15248:	00460393          	add	t2,a2,4
   1524c:	41c92823          	sw	t3,1040(s2)
   15250:	00338e33          	add	t3,t2,gp
   15254:	000e4e83          	lbu	t4,0(t3)
   15258:	00558e13          	add	t3,a1,5
   1525c:	51d92823          	sw	t4,1296(s2)
   15260:	04024023          	regsw_c	zero,64(tp) # 40 <__abi_tag-0x10254>
   15264:	003e0eb3          	add	t4,t3,gp
   15268:	000ecf03          	lbu	t5,0(t4)
   1526c:	00560e93          	add	t4,a2,5
   15270:	41e92a23          	sw	t5,1044(s2)
   15274:	003e8f33          	add	t5,t4,gp
   15278:	000f4f83          	lbu	t6,0(t5)
   1527c:	00658f13          	add	t5,a1,6
   15280:	51f92a23          	sw	t6,1300(s2)
   15284:	36034a23          	regsw_c	zero,884(t1)
   15288:	003f0fb3          	add	t6,t5,gp
   1528c:	000fc083          	lbu	ra,0(t6)
   15290:	00660f93          	add	t6,a2,6
   15294:	40192c23          	sw	ra,1048(s2)
   15298:	003f80b3          	add	ra,t6,gp
   1529c:	0000c103          	lbu	sp,0(ra)
   152a0:	00758093          	add	ra,a1,7
   152a4:	07d3cf23          	regsw_c	t4,126(t2)
   152a8:	50292c23          	sw	sp,1304(s2)
   152ac:	00308133          	add	sp,ra,gp
   152b0:	00014203          	lbu	tp,0(sp)
   152b4:	00760113          	add	sp,a2,7
   152b8:	40492e23          	sw	tp,1052(s2)
   152bc:	003101b3          	add	gp,sp,gp
   152c0:	0001c183          	lbu	gp,0(gp) # 2f808 <__global_pointer$>
   152c4:	38d346a3          	regsw_c	a3,909(t1)
   152c8:	50392e23          	sw	gp,1308(s2)
   152cc:	05813183          	ld	gp,88(sp)
   152d0:	02a181b3          	mul	gp,gp,a0
   152d4:	00358233          	add	tp,a1,gp
   152d8:	00024203          	lbu	tp,0(tp) # 0 <__abi_tag-0x10294>
   152dc:	42492023          	sw	tp,1056(s2)
   152e0:	00360233          	add	tp,a2,gp
   152e4:	47bc4723          	regsw_c	s11,1134(s8)
   152e8:	00024203          	lbu	tp,0(tp) # 0 <__abi_tag-0x10294>
   152ec:	52492023          	sw	tp,1312(s2)
   152f0:	00368233          	add	tp,a3,gp
   152f4:	00024203          	lbu	tp,0(tp) # 0 <__abi_tag-0x10294>
   152f8:	42492223          	sw	tp,1060(s2)
   152fc:	00370233          	add	tp,a4,gp
   15300:	00024203          	lbu	tp,0(tp) # 0 <__abi_tag-0x10294>
   15304:	37c348a3          	regsw_c	t3,881(t1)
   15308:	52492223          	sw	tp,1316(s2)
   1530c:	00378233          	add	tp,a5,gp
   15310:	00024203          	lbu	tp,0(tp) # 0 <__abi_tag-0x10294>
   15314:	42492423          	sw	tp,1064(s2)
   15318:	00380233          	add	tp,a6,gp
   1531c:	00024203          	lbu	tp,0(tp) # 0 <__abi_tag-0x10294>
   15320:	52492423          	sw	tp,1320(s2)
   15324:	383bc6a3          	regsw_c	gp,909(s7)
   15328:	00388233          	add	tp,a7,gp
   1532c:	00024203          	lbu	tp,0(tp) # 0 <__abi_tag-0x10294>
   15330:	42492623          	sw	tp,1068(s2)
   15334:	00328233          	add	tp,t0,gp
   15338:	00024203          	lbu	tp,0(tp) # 0 <__abi_tag-0x10294>
   1533c:	52492623          	sw	tp,1324(s2)
   15340:	00330233          	add	tp,t1,gp
   15344:	47bc4723          	regsw_c	s11,1134(s8)
   15348:	00024203          	lbu	tp,0(tp) # 0 <__abi_tag-0x10294>
   1534c:	42492823          	sw	tp,1072(s2)
   15350:	00338233          	add	tp,t2,gp
   15354:	00024203          	lbu	tp,0(tp) # 0 <__abi_tag-0x10294>
   15358:	52492823          	sw	tp,1328(s2)
   1535c:	003e0233          	add	tp,t3,gp
   15360:	00024203          	lbu	tp,0(tp) # 0 <__abi_tag-0x10294>
   15364:	37c348a3          	regsw_c	t3,881(t1)
   15368:	42492a23          	sw	tp,1076(s2)
   1536c:	003e8233          	add	tp,t4,gp
   15370:	00024203          	lbu	tp,0(tp) # 0 <__abi_tag-0x10294>
   15374:	52492a23          	sw	tp,1332(s2)
   15378:	003f0233          	add	tp,t5,gp
   1537c:	00024203          	lbu	tp,0(tp) # 0 <__abi_tag-0x10294>
   15380:	42492c23          	sw	tp,1080(s2)
   15384:	783bc7a3          	regsw_c	gp,1935(s7)
   15388:	003f8233          	add	tp,t6,gp
   1538c:	00024203          	lbu	tp,0(tp) # 0 <__abi_tag-0x10294>
   15390:	52492c23          	sw	tp,1336(s2)
   15394:	00308233          	add	tp,ra,gp
   15398:	00024203          	lbu	tp,0(tp) # 0 <__abi_tag-0x10294>
   1539c:	42492e23          	sw	tp,1084(s2)
   153a0:	003101b3          	add	gp,sp,gp
   153a4:	579c48a3          	regsw_c	s9,1393(s8)
   153a8:	0001c183          	lbu	gp,0(gp) # 2f808 <__global_pointer$>
   153ac:	52392e23          	sw	gp,1340(s2)
   153b0:	05013183          	ld	gp,80(sp)
   153b4:	02a181b3          	mul	gp,gp,a0
   153b8:	00358233          	add	tp,a1,gp
   153bc:	00024203          	lbu	tp,0(tp) # 0 <__abi_tag-0x10294>
   153c0:	44492023          	sw	tp,1088(s2)
   153c4:	383bc6a3          	regsw_c	gp,909(s7)
   153c8:	00360233          	add	tp,a2,gp
   153cc:	00024203          	lbu	tp,0(tp) # 0 <__abi_tag-0x10294>
   153d0:	54492023          	sw	tp,1344(s2)
   153d4:	00368233          	add	tp,a3,gp
   153d8:	00024203          	lbu	tp,0(tp) # 0 <__abi_tag-0x10294>
   153dc:	44492223          	sw	tp,1092(s2)
   153e0:	00370233          	add	tp,a4,gp
   153e4:	47bc4723          	regsw_c	s11,1134(s8)
   153e8:	00024203          	lbu	tp,0(tp) # 0 <__abi_tag-0x10294>
   153ec:	54492223          	sw	tp,1348(s2)
   153f0:	00378233          	add	tp,a5,gp
   153f4:	00024203          	lbu	tp,0(tp) # 0 <__abi_tag-0x10294>
   153f8:	44492423          	sw	tp,1096(s2)
   153fc:	00380233          	add	tp,a6,gp
   15400:	00024203          	lbu	tp,0(tp) # 0 <__abi_tag-0x10294>
   15404:	37c348a3          	regsw_c	t3,881(t1)
   15408:	54492423          	sw	tp,1352(s2)
   1540c:	00388233          	add	tp,a7,gp
   15410:	00024203          	lbu	tp,0(tp) # 0 <__abi_tag-0x10294>
   15414:	44492623          	sw	tp,1100(s2)
   15418:	00328233          	add	tp,t0,gp
   1541c:	00024203          	lbu	tp,0(tp) # 0 <__abi_tag-0x10294>
   15420:	54492623          	sw	tp,1356(s2)
   15424:	383bc6a3          	regsw_c	gp,909(s7)
   15428:	00330233          	add	tp,t1,gp
   1542c:	00024203          	lbu	tp,0(tp) # 0 <__abi_tag-0x10294>
   15430:	44492823          	sw	tp,1104(s2)
   15434:	00338233          	add	tp,t2,gp
   15438:	00024203          	lbu	tp,0(tp) # 0 <__abi_tag-0x10294>
   1543c:	54492823          	sw	tp,1360(s2)
   15440:	003e0233          	add	tp,t3,gp
   15444:	47bc4723          	regsw_c	s11,1134(s8)
   15448:	00024203          	lbu	tp,0(tp) # 0 <__abi_tag-0x10294>
   1544c:	44492a23          	sw	tp,1108(s2)
   15450:	003e8233          	add	tp,t4,gp
   15454:	00024203          	lbu	tp,0(tp) # 0 <__abi_tag-0x10294>
   15458:	54492a23          	sw	tp,1364(s2)
   1545c:	003f0233          	add	tp,t5,gp
   15460:	00024203          	lbu	tp,0(tp) # 0 <__abi_tag-0x10294>
   15464:	3fc348a3          	regsw_c	t3,1009(t1)
   15468:	44492c23          	sw	tp,1112(s2)
   1546c:	003f8233          	add	tp,t6,gp
   15470:	00024203          	lbu	tp,0(tp) # 0 <__abi_tag-0x10294>
   15474:	54492c23          	sw	tp,1368(s2)
   15478:	00308233          	add	tp,ra,gp
   1547c:	00024203          	lbu	tp,0(tp) # 0 <__abi_tag-0x10294>
   15480:	44492e23          	sw	tp,1116(s2)
   15484:	1a3fc723          	regsw_c	gp,430(t6)
   15488:	003101b3          	add	gp,sp,gp
   1548c:	0001c183          	lbu	gp,0(gp) # 2f808 <__global_pointer$>
   15490:	54392e23          	sw	gp,1372(s2)
   15494:	04813183          	ld	gp,72(sp)
   15498:	02a181b3          	mul	gp,gp,a0
   1549c:	00358233          	add	tp,a1,gp
   154a0:	00024203          	lbu	tp,0(tp) # 0 <__abi_tag-0x10294>
   154a4:	37c348a3          	regsw_c	t3,881(t1)
   154a8:	46492023          	sw	tp,1120(s2)
   154ac:	00360233          	add	tp,a2,gp
   154b0:	00024203          	lbu	tp,0(tp) # 0 <__abi_tag-0x10294>
   154b4:	56492023          	sw	tp,1376(s2)
   154b8:	00368233          	add	tp,a3,gp
   154bc:	00024203          	lbu	tp,0(tp) # 0 <__abi_tag-0x10294>
   154c0:	46492223          	sw	tp,1124(s2)
   154c4:	383bc6a3          	regsw_c	gp,909(s7)
   154c8:	00370233          	add	tp,a4,gp
   154cc:	00024203          	lbu	tp,0(tp) # 0 <__abi_tag-0x10294>
   154d0:	56492223          	sw	tp,1380(s2)
   154d4:	00378233          	add	tp,a5,gp
   154d8:	00024203          	lbu	tp,0(tp) # 0 <__abi_tag-0x10294>
   154dc:	46492423          	sw	tp,1128(s2)
   154e0:	00380233          	add	tp,a6,gp
   154e4:	47bc4723          	regsw_c	s11,1134(s8)
   154e8:	00024203          	lbu	tp,0(tp) # 0 <__abi_tag-0x10294>
   154ec:	56492423          	sw	tp,1384(s2)
   154f0:	00388233          	add	tp,a7,gp
   154f4:	00024203          	lbu	tp,0(tp) # 0 <__abi_tag-0x10294>
   154f8:	46492623          	sw	tp,1132(s2)
   154fc:	00328233          	add	tp,t0,gp
   15500:	00024203          	lbu	tp,0(tp) # 0 <__abi_tag-0x10294>
   15504:	37c348a3          	regsw_c	t3,881(t1)
   15508:	56492623          	sw	tp,1388(s2)
   1550c:	00330233          	add	tp,t1,gp
   15510:	00024203          	lbu	tp,0(tp) # 0 <__abi_tag-0x10294>
   15514:	46492823          	sw	tp,1136(s2)
   15518:	00338233          	add	tp,t2,gp
   1551c:	00024203          	lbu	tp,0(tp) # 0 <__abi_tag-0x10294>
   15520:	56492823          	sw	tp,1392(s2)
   15524:	383bc6a3          	regsw_c	gp,909(s7)
   15528:	003e0233          	add	tp,t3,gp
   1552c:	00024203          	lbu	tp,0(tp) # 0 <__abi_tag-0x10294>
   15530:	46492a23          	sw	tp,1140(s2)
   15534:	003e8233          	add	tp,t4,gp
   15538:	00024203          	lbu	tp,0(tp) # 0 <__abi_tag-0x10294>
   1553c:	56492a23          	sw	tp,1396(s2)
   15540:	003f0233          	add	tp,t5,gp
   15544:	47bc4f23          	regsw_c	s11,1150(s8)
   15548:	00024203          	lbu	tp,0(tp) # 0 <__abi_tag-0x10294>
   1554c:	46492c23          	sw	tp,1144(s2)
   15550:	003f8233          	add	tp,t6,gp
   15554:	00024203          	lbu	tp,0(tp) # 0 <__abi_tag-0x10294>
   15558:	56492c23          	sw	tp,1400(s2)
   1555c:	00308233          	add	tp,ra,gp
   15560:	00024203          	lbu	tp,0(tp) # 0 <__abi_tag-0x10294>
   15564:	33c3caa3          	regsw_c	t3,821(t2)
   15568:	46492e23          	sw	tp,1148(s2)
   1556c:	003101b3          	add	gp,sp,gp
   15570:	0001c183          	lbu	gp,0(gp) # 2f808 <__global_pointer$>
   15574:	56392e23          	sw	gp,1404(s2)
   15578:	04013183          	ld	gp,64(sp)
   1557c:	02a181b3          	mul	gp,gp,a0
   15580:	00358233          	add	tp,a1,gp
   15584:	47bc4723          	regsw_c	s11,1134(s8)
   15588:	00024203          	lbu	tp,0(tp) # 0 <__abi_tag-0x10294>
   1558c:	48492023          	sw	tp,1152(s2)
   15590:	00360233          	add	tp,a2,gp
   15594:	00024203          	lbu	tp,0(tp) # 0 <__abi_tag-0x10294>
   15598:	58492023          	sw	tp,1408(s2)
   1559c:	00368233          	add	tp,a3,gp
   155a0:	00024203          	lbu	tp,0(tp) # 0 <__abi_tag-0x10294>
   155a4:	37c348a3          	regsw_c	t3,881(t1)
   155a8:	48492223          	sw	tp,1156(s2)
   155ac:	00370233          	add	tp,a4,gp
   155b0:	00024203          	lbu	tp,0(tp) # 0 <__abi_tag-0x10294>
   155b4:	58492223          	sw	tp,1412(s2)
   155b8:	00378233          	add	tp,a5,gp
   155bc:	00024203          	lbu	tp,0(tp) # 0 <__abi_tag-0x10294>
   155c0:	48492423          	sw	tp,1160(s2)
   155c4:	383bc6a3          	regsw_c	gp,909(s7)
   155c8:	00380233          	add	tp,a6,gp
   155cc:	00024203          	lbu	tp,0(tp) # 0 <__abi_tag-0x10294>
   155d0:	58492423          	sw	tp,1416(s2)
   155d4:	00388233          	add	tp,a7,gp
   155d8:	00024203          	lbu	tp,0(tp) # 0 <__abi_tag-0x10294>
   155dc:	48492623          	sw	tp,1164(s2)
   155e0:	00328233          	add	tp,t0,gp
   155e4:	47bc4723          	regsw_c	s11,1134(s8)
   155e8:	00024203          	lbu	tp,0(tp) # 0 <__abi_tag-0x10294>
   155ec:	58492623          	sw	tp,1420(s2)
   155f0:	00330233          	add	tp,t1,gp
   155f4:	00024203          	lbu	tp,0(tp) # 0 <__abi_tag-0x10294>
   155f8:	48492823          	sw	tp,1168(s2)
   155fc:	00338233          	add	tp,t2,gp
   15600:	00024203          	lbu	tp,0(tp) # 0 <__abi_tag-0x10294>
   15604:	37c348a3          	regsw_c	t3,881(t1)
   15608:	58492823          	sw	tp,1424(s2)
   1560c:	003e0233          	add	tp,t3,gp
   15610:	00024203          	lbu	tp,0(tp) # 0 <__abi_tag-0x10294>
   15614:	48492a23          	sw	tp,1172(s2)
   15618:	003e8233          	add	tp,t4,gp
   1561c:	00024203          	lbu	tp,0(tp) # 0 <__abi_tag-0x10294>
   15620:	58492a23          	sw	tp,1428(s2)
   15624:	383bc7a3          	regsw_c	gp,911(s7)
   15628:	003f0233          	add	tp,t5,gp
   1562c:	00024203          	lbu	tp,0(tp) # 0 <__abi_tag-0x10294>
   15630:	48492c23          	sw	tp,1176(s2)
   15634:	003f8233          	add	tp,t6,gp
   15638:	00024203          	lbu	tp,0(tp) # 0 <__abi_tag-0x10294>
   1563c:	58492c23          	sw	tp,1432(s2)
   15640:	00308233          	add	tp,ra,gp
   15644:	47fc4323          	regsw_c	t6,1126(s8)
   15648:	00024203          	lbu	tp,0(tp) # 0 <__abi_tag-0x10294>
   1564c:	48492e23          	sw	tp,1180(s2)
   15650:	003101b3          	add	gp,sp,gp
   15654:	0001c183          	lbu	gp,0(gp) # 2f808 <__global_pointer$>
   15658:	58392e23          	sw	gp,1436(s2)
   1565c:	03813183          	ld	gp,56(sp)
   15660:	02a181b3          	mul	gp,gp,a0
   15664:	383bc6a3          	regsw_c	gp,909(s7)
   15668:	00358233          	add	tp,a1,gp
   1566c:	00024203          	lbu	tp,0(tp) # 0 <__abi_tag-0x10294>
   15670:	4a492023          	sw	tp,1184(s2)
   15674:	00360233          	add	tp,a2,gp
   15678:	00024203          	lbu	tp,0(tp) # 0 <__abi_tag-0x10294>
   1567c:	5a492023          	sw	tp,1440(s2)
   15680:	00368233          	add	tp,a3,gp
   15684:	47bc4723          	regsw_c	s11,1134(s8)
   15688:	00024203          	lbu	tp,0(tp) # 0 <__abi_tag-0x10294>
   1568c:	4a492223          	sw	tp,1188(s2)
   15690:	00370233          	add	tp,a4,gp
   15694:	00024203          	lbu	tp,0(tp) # 0 <__abi_tag-0x10294>
   15698:	5a492223          	sw	tp,1444(s2)
   1569c:	00378233          	add	tp,a5,gp
   156a0:	00024203          	lbu	tp,0(tp) # 0 <__abi_tag-0x10294>
   156a4:	37c348a3          	regsw_c	t3,881(t1)
   156a8:	4a492423          	sw	tp,1192(s2)
   156ac:	00380233          	add	tp,a6,gp
   156b0:	00024203          	lbu	tp,0(tp) # 0 <__abi_tag-0x10294>
   156b4:	5a492423          	sw	tp,1448(s2)
   156b8:	00388233          	add	tp,a7,gp
   156bc:	00024203          	lbu	tp,0(tp) # 0 <__abi_tag-0x10294>
   156c0:	4a492623          	sw	tp,1196(s2)
   156c4:	383bc6a3          	regsw_c	gp,909(s7)
   156c8:	00328233          	add	tp,t0,gp
   156cc:	00024203          	lbu	tp,0(tp) # 0 <__abi_tag-0x10294>
   156d0:	5a492623          	sw	tp,1452(s2)
   156d4:	00330233          	add	tp,t1,gp
   156d8:	00024203          	lbu	tp,0(tp) # 0 <__abi_tag-0x10294>
   156dc:	4a492823          	sw	tp,1200(s2)
   156e0:	00338233          	add	tp,t2,gp
   156e4:	47bc4723          	regsw_c	s11,1134(s8)
   156e8:	00024203          	lbu	tp,0(tp) # 0 <__abi_tag-0x10294>
   156ec:	5a492823          	sw	tp,1456(s2)
   156f0:	003e0233          	add	tp,t3,gp
   156f4:	00024203          	lbu	tp,0(tp) # 0 <__abi_tag-0x10294>
   156f8:	4a492a23          	sw	tp,1204(s2)
   156fc:	003e8233          	add	tp,t4,gp
   15700:	00024203          	lbu	tp,0(tp) # 0 <__abi_tag-0x10294>
   15704:	37c348a3          	regsw_c	t3,881(t1)
   15708:	5a492a23          	sw	tp,1460(s2)
   1570c:	003f0233          	add	tp,t5,gp
   15710:	00024203          	lbu	tp,0(tp) # 0 <__abi_tag-0x10294>
   15714:	4a492c23          	sw	tp,1208(s2)
   15718:	003f8233          	add	tp,t6,gp
   1571c:	00024203          	lbu	tp,0(tp) # 0 <__abi_tag-0x10294>
   15720:	5a492c23          	sw	tp,1464(s2)
   15724:	783fc623          	regsw_c	gp,1932(t6)
   15728:	00308233          	add	tp,ra,gp
   1572c:	00024203          	lbu	tp,0(tp) # 0 <__abi_tag-0x10294>
   15730:	4a492e23          	sw	tp,1212(s2)
   15734:	003101b3          	add	gp,sp,gp
   15738:	0001c183          	lbu	gp,0(gp) # 2f808 <__global_pointer$>
   1573c:	5a392e23          	sw	gp,1468(s2)
   15740:	03013183          	ld	gp,48(sp)
   15744:	37cd48a3          	regsw_c	t3,881(s10) # 1a371 <LoadArea+0xb9>
   15748:	02a181b3          	mul	gp,gp,a0
   1574c:	00358233          	add	tp,a1,gp
   15750:	00024203          	lbu	tp,0(tp) # 0 <__abi_tag-0x10294>
   15754:	4c492023          	sw	tp,1216(s2)
   15758:	00360233          	add	tp,a2,gp
   1575c:	00024203          	lbu	tp,0(tp) # 0 <__abi_tag-0x10294>
   15760:	5c492023          	sw	tp,1472(s2)
   15764:	383bc6a3          	regsw_c	gp,909(s7)
   15768:	00368233          	add	tp,a3,gp
   1576c:	00024203          	lbu	tp,0(tp) # 0 <__abi_tag-0x10294>
   15770:	4c492223          	sw	tp,1220(s2)
   15774:	00370233          	add	tp,a4,gp
   15778:	00024203          	lbu	tp,0(tp) # 0 <__abi_tag-0x10294>
   1577c:	5c492223          	sw	tp,1476(s2)
   15780:	00378233          	add	tp,a5,gp
   15784:	47bc4723          	regsw_c	s11,1134(s8)
   15788:	00024203          	lbu	tp,0(tp) # 0 <__abi_tag-0x10294>
   1578c:	4c492423          	sw	tp,1224(s2)
   15790:	00380233          	add	tp,a6,gp
   15794:	00024203          	lbu	tp,0(tp) # 0 <__abi_tag-0x10294>
   15798:	5c492423          	sw	tp,1480(s2)
   1579c:	00388233          	add	tp,a7,gp
   157a0:	00024203          	lbu	tp,0(tp) # 0 <__abi_tag-0x10294>
   157a4:	37c348a3          	regsw_c	t3,881(t1)
   157a8:	4c492623          	sw	tp,1228(s2)
   157ac:	00328233          	add	tp,t0,gp
   157b0:	00024203          	lbu	tp,0(tp) # 0 <__abi_tag-0x10294>
   157b4:	5c492623          	sw	tp,1484(s2)
   157b8:	00330233          	add	tp,t1,gp
   157bc:	00024203          	lbu	tp,0(tp) # 0 <__abi_tag-0x10294>
   157c0:	4c492823          	sw	tp,1232(s2)
   157c4:	383bc6a3          	regsw_c	gp,909(s7)
   157c8:	00338233          	add	tp,t2,gp
   157cc:	00024203          	lbu	tp,0(tp) # 0 <__abi_tag-0x10294>
   157d0:	5c492823          	sw	tp,1488(s2)
   157d4:	003e0233          	add	tp,t3,gp
   157d8:	00024203          	lbu	tp,0(tp) # 0 <__abi_tag-0x10294>
   157dc:	4c492a23          	sw	tp,1236(s2)
   157e0:	003e8233          	add	tp,t4,gp
   157e4:	47bc4723          	regsw_c	s11,1134(s8)
   157e8:	00024203          	lbu	tp,0(tp) # 0 <__abi_tag-0x10294>
   157ec:	5c492a23          	sw	tp,1492(s2)
   157f0:	003f0233          	add	tp,t5,gp
   157f4:	00024203          	lbu	tp,0(tp) # 0 <__abi_tag-0x10294>
   157f8:	4c492c23          	sw	tp,1240(s2)
   157fc:	003f8233          	add	tp,t6,gp
   15800:	00024203          	lbu	tp,0(tp) # 0 <__abi_tag-0x10294>
   15804:	3fc3c8a3          	regsw_c	t3,1009(t2)
   15808:	5c492c23          	sw	tp,1496(s2)
   1580c:	00308233          	add	tp,ra,gp
   15810:	00024203          	lbu	tp,0(tp) # 0 <__abi_tag-0x10294>
   15814:	4c492e23          	sw	tp,1244(s2)
   15818:	003101b3          	add	gp,sp,gp
   1581c:	0001c183          	lbu	gp,0(gp) # 2f808 <__global_pointer$>
   15820:	5c392e23          	sw	gp,1500(s2)
   15824:	0008c023          	regsw_c	zero,0(a7)
   15828:	02813183          	ld	gp,40(sp)
   1582c:	02a18533          	mul	a0,gp,a0
   15830:	00a585b3          	add	a1,a1,a0
   15834:	0005c583          	lbu	a1,0(a1)
   15838:	4eb92023          	sw	a1,1248(s2)
   1583c:	00a60633          	add	a2,a2,a0
   15840:	00064583          	lbu	a1,0(a2)
   15844:	5eb92023          	sw	a1,1504(s2)
   15848:	00a686b3          	add	a3,a3,a0
   1584c:	0006c583          	lbu	a1,0(a3)
   15850:	4eb92223          	sw	a1,1252(s2)
   15854:	00a70733          	add	a4,a4,a0
   15858:	00074583          	lbu	a1,0(a4)
   1585c:	5eb92223          	sw	a1,1508(s2)
   15860:	00a787b3          	add	a5,a5,a0
   15864:	0007c583          	lbu	a1,0(a5)
   15868:	4eb92423          	sw	a1,1256(s2)
   1586c:	00a80833          	add	a6,a6,a0
   15870:	00084583          	lbu	a1,0(a6)
   15874:	5eb92423          	sw	a1,1512(s2)
   15878:	00a888b3          	add	a7,a7,a0
   1587c:	0008c583          	lbu	a1,0(a7)
   15880:	4eb92623          	sw	a1,1260(s2)
   15884:	00a282b3          	add	t0,t0,a0
   15888:	0002c583          	lbu	a1,0(t0)
   1588c:	5eb92623          	sw	a1,1516(s2)
   15890:	00a30333          	add	t1,t1,a0
   15894:	00034583          	lbu	a1,0(t1)
   15898:	4eb92823          	sw	a1,1264(s2)
   1589c:	00a383b3          	add	t2,t2,a0
   158a0:	0003c583          	lbu	a1,0(t2)
   158a4:	5eb92823          	sw	a1,1520(s2)
   158a8:	00ae0e33          	add	t3,t3,a0
   158ac:	000e4583          	lbu	a1,0(t3)
   158b0:	4eb92a23          	sw	a1,1268(s2)
   158b4:	00ae8eb3          	add	t4,t4,a0
   158b8:	000ec583          	lbu	a1,0(t4)
   158bc:	5eb92a23          	sw	a1,1524(s2)
   158c0:	00af0f33          	add	t5,t5,a0
   158c4:	000f4583          	lbu	a1,0(t5)
   158c8:	4eb92c23          	sw	a1,1272(s2)
   158cc:	00af8fb3          	add	t6,t6,a0
   158d0:	000fc583          	lbu	a1,0(t6)
   158d4:	5eb92c23          	sw	a1,1528(s2)
   158d8:	400cc023          	regsw_c	zero,1024(s9)
   158dc:	00a080b3          	add	ra,ra,a0
   158e0:	0000c583          	lbu	a1,0(ra)
   158e4:	4eb92e23          	sw	a1,1276(s2)
   158e8:	00a10533          	add	a0,sp,a0
   158ec:	00054503          	lbu	a0,0(a0)
   158f0:	5ea92e23          	sw	a0,1532(s2)
   158f4:	000c8b93          	mv	s7,s9
   158f8:	00090513          	mv	a0,s2
   158fc:	000d0593          	mv	a1,s10
   15900:	000a8613          	mv	a2,s5
   15904:	3a4010ef          	jal	16ca8 <MB_Encode>
   15908:	00050493          	mv	s1,a0
   1590c:	04000613          	li	a2,64
   15910:	000a8593          	mv	a1,s5
   15914:	1f8120ef          	jal	27b0c <FindCBP>
   15918:	00050993          	mv	s3,a0
   1591c:	00100513          	li	a0,1
   15920:	13a13823          	sd	s10,304(sp)
   15924:	12913423          	sd	s1,296(sp)
   15928:	03556063          	bltu	a0,s5,15948 <CodeOneOrTwo+0x1158>
   1592c:	00099e63          	bnez	s3,15948 <CodeOneOrTwo+0x1158>
   15930:	000a0c93          	mv	s9,s4
   15934:	60000613          	li	a2,1536
   15938:	00090513          	mv	a0,s2
   1593c:	00000593          	li	a1,0
   15940:	b60fb0ef          	jal	10ca0 <memset@plt>
   15944:	01c0006f          	j	15960 <CodeOneOrTwo+0x1170>
   15948:	000a0c93          	mv	s9,s4
   1594c:	00048513          	mv	a0,s1
   15950:	00090593          	mv	a1,s2
   15954:	000d0613          	mv	a2,s10
   15958:	000a8693          	mv	a3,s5
   1595c:	525010ef          	jal	17680 <MB_Decode>
   15960:	02842803          	lw	a6,40(s0)
   15964:	15010793          	add	a5,sp,336
   15968:	000d8513          	mv	a0,s11
   1596c:	11813d03          	ld	s10,280(sp)
   15970:	000d0593          	mv	a1,s10
   15974:	00090613          	mv	a2,s2
   15978:	000c0693          	mv	a3,s8
   1597c:	12013a03          	ld	s4,288(sp)
   15980:	000a0713          	mv	a4,s4
   15984:	7650e0ef          	jal	248e8 <MB_Recon_P>
   15988:	000d8493          	mv	s1,s11
   1598c:	00050d93          	mv	s11,a0
   15990:	6d0020ef          	jal	18060 <Clip>
   15994:	00090513          	mv	a0,s2
   15998:	b18fb0ef          	jal	10cb0 <free@plt>
   1599c:	02842503          	lw	a0,40(s0)
   159a0:	06050a63          	beqz	a0,15a14 <CodeOneOrTwo+0x1224>
   159a4:	04842503          	lw	a0,72(s0)
   159a8:	15010793          	add	a5,sp,336
   159ac:	00a13023          	sd	a0,0(sp)
   159b0:	07813503          	ld	a0,120(sp)
   159b4:	00048593          	mv	a1,s1
   159b8:	000d0613          	mv	a2,s10
   159bc:	000c0693          	mv	a3,s8
   159c0:	000a0713          	mv	a4,s4
   159c4:	000d8813          	mv	a6,s11
   159c8:	0d013883          	ld	a7,208(sp)
   159cc:	084070ef          	jal	1ca50 <Predict_B>
   159d0:	00050913          	mv	s2,a0
   159d4:	13013603          	ld	a2,304(sp)
   159d8:	06060663          	beqz	a2,15a44 <CodeOneOrTwo+0x1254>
   159dc:	04442503          	lw	a0,68(s0)
   159e0:	00251513          	sll	a0,a0,0x2
   159e4:	0002b5b7          	lui	a1,0x2b
   159e8:	fcc58593          	add	a1,a1,-52 # 2afcc <_IO_stdin_used+0x1564>
   159ec:	00a58533          	add	a0,a1,a0
   159f0:	00052503          	lw	a0,0(a0)
   159f4:	02c5053b          	mulw	a0,a0,a2
   159f8:	08000593          	li	a1,128
   159fc:	000c8a13          	mv	s4,s9
   15a00:	04b54863          	blt	a0,a1,15a50 <CodeOneOrTwo+0x1260>
   15a04:	01f00493          	li	s1,31
   15a08:	00400593          	li	a1,4
   15a0c:	04b54e63          	blt	a0,a1,15a68 <CodeOneOrTwo+0x1278>
   15a10:	05c0006f          	j	15a6c <CodeOneOrTwo+0x127c>
   15a14:	08813503          	ld	a0,136(sp)
   15a18:	10013583          	ld	a1,256(sp)
   15a1c:	00b50533          	add	a0,a0,a1
   15a20:	00053503          	ld	a0,0(a0)
   15a24:	0cc130ef          	jal	28af0 <ZeroVec>
   15a28:	09813c03          	ld	s8,152(sp)
   15a2c:	0b013d03          	ld	s10,176(sp)
   15a30:	000c8a13          	mv	s4,s9
   15a34:	0179e533          	or	a0,s3,s7
   15a38:	000b091b          	sext.w	s2,s6
   15a3c:	10050263          	beqz	a0,15b40 <CodeOneOrTwo+0x1350>
   15a40:	1840006f          	j	15bc4 <CodeOneOrTwo+0x13d4>
   15a44:	00000493          	li	s1,0
   15a48:	000c8a13          	mv	s4,s9
   15a4c:	0200006f          	j	15a6c <CodeOneOrTwo+0x127c>
   15a50:	41f5559b          	sraw	a1,a0,0x1f
   15a54:	01e5d59b          	srlw	a1,a1,0x1e
   15a58:	00b505b3          	add	a1,a0,a1
   15a5c:	4025d49b          	sraw	s1,a1,0x2
   15a60:	00400593          	li	a1,4
   15a64:	00b55463          	bge	a0,a1,15a6c <CodeOneOrTwo+0x127c>
   15a68:	00100493          	li	s1,1
   15a6c:	00090513          	mv	a0,s2
   15a70:	00048593          	mv	a1,s1
   15a74:	00000613          	li	a2,0
   15a78:	230010ef          	jal	16ca8 <MB_Encode>
   15a7c:	00050c93          	mv	s9,a0
   15a80:	04000613          	li	a2,64
   15a84:	00000593          	li	a1,0
   15a88:	084120ef          	jal	27b0c <FindCBP>
   15a8c:	00050b93          	mv	s7,a0
   15a90:	0f913823          	sd	s9,240(sp)
   15a94:	00050e63          	beqz	a0,15ab0 <CodeOneOrTwo+0x12c0>
   15a98:	000c8513          	mv	a0,s9
   15a9c:	00090593          	mv	a1,s2
   15aa0:	00048613          	mv	a2,s1
   15aa4:	00000693          	li	a3,0
   15aa8:	3d9010ef          	jal	17680 <MB_Decode>
   15aac:	0140006f          	j	15ac0 <CodeOneOrTwo+0x12d0>
   15ab0:	60000613          	li	a2,1536
   15ab4:	00090513          	mv	a0,s2
   15ab8:	00000593          	li	a1,0
   15abc:	9e4fb0ef          	jal	10ca0 <memset@plt>
   15ac0:	04842503          	lw	a0,72(s0)
   15ac4:	15010793          	add	a5,sp,336
   15ac8:	00a13023          	sd	a0,0(sp)
   15acc:	0e813503          	ld	a0,232(sp)
   15ad0:	00090593          	mv	a1,s2
   15ad4:	11813603          	ld	a2,280(sp)
   15ad8:	000c0693          	mv	a3,s8
   15adc:	12013703          	ld	a4,288(sp)
   15ae0:	000d8813          	mv	a6,s11
   15ae4:	0d013883          	ld	a7,208(sp)
   15ae8:	6450b0ef          	jal	2192c <MB_Recon_B>
   15aec:	0ea13c23          	sd	a0,248(sp)
   15af0:	570020ef          	jal	18060 <Clip>
   15af4:	00200513          	li	a0,2
   15af8:	09813c03          	ld	s8,152(sp)
   15afc:	0b013d03          	ld	s10,176(sp)
   15b00:	020b9463          	bnez	s7,15b28 <CodeOneOrTwo+0x1338>
   15b04:	08813503          	ld	a0,136(sp)
   15b08:	10013583          	ld	a1,256(sp)
   15b0c:	00b50533          	add	a0,a0,a1
   15b10:	00053503          	ld	a0,0(a0)
   15b14:	00052583          	lw	a1,0(a0)
   15b18:	00059663          	bnez	a1,15b24 <CodeOneOrTwo+0x1334>
   15b1c:	00452503          	lw	a0,4(a0)
   15b20:	00050463          	beqz	a0,15b28 <CodeOneOrTwo+0x1338>
   15b24:	00100513          	li	a0,1
   15b28:	04a42023          	sw	a0,64(s0)
   15b2c:	00090513          	mv	a0,s2
   15b30:	980fb0ef          	jal	10cb0 <free@plt>
   15b34:	0179e533          	or	a0,s3,s7
   15b38:	000b091b          	sext.w	s2,s6
   15b3c:	08051463          	bnez	a0,15bc4 <CodeOneOrTwo+0x13d4>
   15b40:	0d813503          	ld	a0,216(sp)
   15b44:	00053503          	ld	a0,0(a0)
   15b48:	13810593          	add	a1,sp,312
   15b4c:	7f5120ef          	jal	28b40 <EqualVec>
   15b50:	06050a63          	beqz	a0,15bc4 <CodeOneOrTwo+0x13d4>
   15b54:	08813503          	ld	a0,136(sp)
   15b58:	10013583          	ld	a1,256(sp)
   15b5c:	00b50533          	add	a0,a0,a1
   15b60:	00053503          	ld	a0,0(a0)
   15b64:	13810593          	add	a1,sp,312
   15b68:	7d9120ef          	jal	28b40 <EqualVec>
   15b6c:	00100593          	li	a1,1
   15b70:	0555ea63          	bltu	a1,s5,15bc4 <CodeOneOrTwo+0x13d4>
   15b74:	04050863          	beqz	a0,15bc4 <CodeOneOrTwo+0x13d4>
   15b78:	0c813983          	ld	s3,200(sp)
   15b7c:	00100513          	li	a0,1
   15b80:	00aa9663          	bne	s5,a0,15b8c <CodeOneOrTwo+0x139c>
   15b84:	02042823          	sw	zero,48(s0)
   15b88:	13313823          	sd	s3,304(sp)
   15b8c:	5801a503          	lw	a0,1408(gp) # 2fd88 <syntax_arith_coding>
   15b90:	0f013b03          	ld	s6,240(sp)
   15b94:	00100593          	li	a1,1
   15b98:	24050a63          	beqz	a0,15dec <CodeOneOrTwo+0x15fc>
   15b9c:	00000513          	li	a0,0
   15ba0:	00000613          	li	a2,0
   15ba4:	00000693          	li	a3,0
   15ba8:	00040713          	mv	a4,s0
   15bac:	000c0793          	mv	a5,s8
   15bb0:	2e5100ef          	jal	26694 <Count_sac_BitsMB>
   15bb4:	10813a83          	ld	s5,264(sp)
   15bb8:	02842503          	lw	a0,40(s0)
   15bbc:	1c051c63          	bnez	a0,15d94 <CodeOneOrTwo+0x15a4>
   15bc0:	1e80006f          	j	15da8 <CodeOneOrTwo+0x15b8>
   15bc4:	5801a503          	lw	a0,1408(gp) # 2fd88 <syntax_arith_coding>
   15bc8:	ffda849b          	addw	s1,s5,-3
   15bcc:	04050c63          	beqz	a0,15c24 <CodeOneOrTwo+0x1434>
   15bd0:	000a8513          	mv	a0,s5
   15bd4:	00000593          	li	a1,0
   15bd8:	00098613          	mv	a2,s3
   15bdc:	000b8693          	mv	a3,s7
   15be0:	00040713          	mv	a4,s0
   15be4:	000c0793          	mv	a5,s8
   15be8:	2ad100ef          	jal	26694 <Count_sac_BitsMB>
   15bec:	00100513          	li	a0,1
   15bf0:	0f013b03          	ld	s6,240(sp)
   15bf4:	09557263          	bgeu	a0,s5,15c78 <CodeOneOrTwo+0x1488>
   15bf8:	00200513          	li	a0,2
   15bfc:	08aa9e63          	bne	s5,a0,15c98 <CodeOneOrTwo+0x14a8>
   15c00:	030c2503          	lw	a0,48(s8)
   15c04:	00150513          	add	a0,a0,1
   15c08:	02ac2823          	sw	a0,48(s8)
   15c0c:	15010513          	add	a0,sp,336
   15c10:	00200713          	li	a4,2
   15c14:	000c0593          	mv	a1,s8
   15c18:	00090613          	mv	a2,s2
   15c1c:	000d0693          	mv	a3,s10
   15c20:	0a00006f          	j	15cc0 <CodeOneOrTwo+0x14d0>
   15c24:	000a8513          	mv	a0,s5
   15c28:	00000593          	li	a1,0
   15c2c:	00098613          	mv	a2,s3
   15c30:	000b8693          	mv	a3,s7
   15c34:	00040713          	mv	a4,s0
   15c38:	000c0793          	mv	a5,s8
   15c3c:	7b0100ef          	jal	263ec <CountBitsMB>
   15c40:	00100513          	li	a0,1
   15c44:	0f013b03          	ld	s6,240(sp)
   15c48:	05557063          	bgeu	a0,s5,15c88 <CodeOneOrTwo+0x1498>
   15c4c:	00200513          	li	a0,2
   15c50:	0caa9063          	bne	s5,a0,15d10 <CodeOneOrTwo+0x1520>
   15c54:	030c2503          	lw	a0,48(s8)
   15c58:	00150513          	add	a0,a0,1
   15c5c:	02ac2823          	sw	a0,48(s8)
   15c60:	15010513          	add	a0,sp,336
   15c64:	00200713          	li	a4,2
   15c68:	000c0593          	mv	a1,s8
   15c6c:	00090613          	mv	a2,s2
   15c70:	000d0693          	mv	a3,s10
