
djpeg_regsw:     file format elf64-littleriscv


Disassembly of section .plt:

0000000000010af0 <_PROCEDURE_LINKAGE_TABLE_>:
   10af0:	97 93 01 00 33 03 c3 41 03 be 03 50 13 03 43 fd     ....3..A...P..C.
   10b00:	93 82 03 50 13 53 13 00 83 b2 82 00 67 00 0e 00     ...P.S......g...

0000000000010b10 <fprintf@plt>:
   10b10:	00019e17          	auipc	t3,0x19
   10b14:	4f0e3e03          	ld	t3,1264(t3) # 2a000 <fprintf@GLIBC_2.27>
   10b18:	000e0367          	jalr	t1,t3
   10b1c:	00000013          	nop

0000000000010b20 <getenv@plt>:
   10b20:	00019e17          	auipc	t3,0x19
   10b24:	4e8e3e03          	ld	t3,1256(t3) # 2a008 <getenv@GLIBC_2.27>
   10b28:	000e0367          	jalr	t1,t3
   10b2c:	00000013          	nop

0000000000010b30 <fwrite@plt>:
   10b30:	00019e17          	auipc	t3,0x19
   10b34:	4e0e3e03          	ld	t3,1248(t3) # 2a010 <fwrite@GLIBC_2.27>
   10b38:	000e0367          	jalr	t1,t3
   10b3c:	00000013          	nop

0000000000010b40 <malloc@plt>:
   10b40:	00019e17          	auipc	t3,0x19
   10b44:	4d8e3e03          	ld	t3,1240(t3) # 2a018 <malloc@GLIBC_2.27>
   10b48:	000e0367          	jalr	t1,t3
   10b4c:	00000013          	nop

0000000000010b50 <__libc_start_main@plt>:
   10b50:	00019e17          	auipc	t3,0x19
   10b54:	4d0e3e03          	ld	t3,1232(t3) # 2a020 <__libc_start_main@GLIBC_2.27>
   10b58:	000e0367          	jalr	t1,t3
   10b5c:	00000013          	nop

0000000000010b60 <__isoc99_sscanf@plt>:
   10b60:	00019e17          	auipc	t3,0x19
   10b64:	4c8e3e03          	ld	t3,1224(t3) # 2a028 <__isoc99_sscanf@GLIBC_2.27>
   10b68:	000e0367          	jalr	t1,t3
   10b6c:	00000013          	nop

0000000000010b70 <fputc@plt>:
   10b70:	00019e17          	auipc	t3,0x19
   10b74:	4c0e3e03          	ld	t3,1216(t3) # 2a030 <fputc@GLIBC_2.27>
   10b78:	000e0367          	jalr	t1,t3
   10b7c:	00000013          	nop

0000000000010b80 <fflush@plt>:
   10b80:	00019e17          	auipc	t3,0x19
   10b84:	4b8e3e03          	ld	t3,1208(t3) # 2a038 <fflush@GLIBC_2.27>
   10b88:	000e0367          	jalr	t1,t3
   10b8c:	00000013          	nop

0000000000010b90 <memcpy@plt>:
   10b90:	00019e17          	auipc	t3,0x19
   10b94:	4b0e3e03          	ld	t3,1200(t3) # 2a040 <memcpy@GLIBC_2.27>
   10b98:	000e0367          	jalr	t1,t3
   10b9c:	00000013          	nop

0000000000010ba0 <fread@plt>:
   10ba0:	00019e17          	auipc	t3,0x19
   10ba4:	4a8e3e03          	ld	t3,1192(t3) # 2a048 <fread@GLIBC_2.27>
   10ba8:	000e0367          	jalr	t1,t3
   10bac:	00000013          	nop

0000000000010bb0 <putc@plt>:
   10bb0:	00019e17          	auipc	t3,0x19
   10bb4:	4a0e3e03          	ld	t3,1184(t3) # 2a050 <putc@GLIBC_2.27>
   10bb8:	000e0367          	jalr	t1,t3
   10bbc:	00000013          	nop

0000000000010bc0 <getc@plt>:
   10bc0:	00019e17          	auipc	t3,0x19
   10bc4:	498e3e03          	ld	t3,1176(t3) # 2a058 <getc@GLIBC_2.27>
   10bc8:	000e0367          	jalr	t1,t3
   10bcc:	00000013          	nop

0000000000010bd0 <__ctype_tolower_loc@plt>:
   10bd0:	00019e17          	auipc	t3,0x19
   10bd4:	490e3e03          	ld	t3,1168(t3) # 2a060 <__ctype_tolower_loc@GLIBC_2.27>
   10bd8:	000e0367          	jalr	t1,t3
   10bdc:	00000013          	nop

0000000000010be0 <sprintf@plt>:
   10be0:	00019e17          	auipc	t3,0x19
   10be4:	488e3e03          	ld	t3,1160(t3) # 2a068 <sprintf@GLIBC_2.27>
   10be8:	000e0367          	jalr	t1,t3
   10bec:	00000013          	nop

0000000000010bf0 <exit@plt>:
   10bf0:	00019e17          	auipc	t3,0x19
   10bf4:	480e3e03          	ld	t3,1152(t3) # 2a070 <exit@GLIBC_2.27>
   10bf8:	000e0367          	jalr	t1,t3
   10bfc:	00000013          	nop

0000000000010c00 <printf@plt>:
   10c00:	00019e17          	auipc	t3,0x19
   10c04:	478e3e03          	ld	t3,1144(t3) # 2a078 <printf@GLIBC_2.27>
   10c08:	000e0367          	jalr	t1,t3
   10c0c:	00000013          	nop

0000000000010c10 <fclose@plt>:
   10c10:	00019e17          	auipc	t3,0x19
   10c14:	470e3e03          	ld	t3,1136(t3) # 2a080 <fclose@GLIBC_2.27>
   10c18:	000e0367          	jalr	t1,t3
   10c1c:	00000013          	nop

0000000000010c20 <signal@plt>:
   10c20:	00019e17          	auipc	t3,0x19
   10c24:	468e3e03          	ld	t3,1128(t3) # 2a088 <signal@GLIBC_2.27>
   10c28:	000e0367          	jalr	t1,t3
   10c2c:	00000013          	nop

0000000000010c30 <fopen@plt>:
   10c30:	00019e17          	auipc	t3,0x19
   10c34:	460e3e03          	ld	t3,1120(t3) # 2a090 <fopen@GLIBC_2.27>
   10c38:	000e0367          	jalr	t1,t3
   10c3c:	00000013          	nop

0000000000010c40 <ferror@plt>:
   10c40:	00019e17          	auipc	t3,0x19
   10c44:	458e3e03          	ld	t3,1112(t3) # 2a098 <ferror@GLIBC_2.27>
   10c48:	000e0367          	jalr	t1,t3
   10c4c:	00000013          	nop

0000000000010c50 <memset@plt>:
   10c50:	00019e17          	auipc	t3,0x19
   10c54:	450e3e03          	ld	t3,1104(t3) # 2a0a0 <memset@GLIBC_2.27>
   10c58:	000e0367          	jalr	t1,t3
   10c5c:	00000013          	nop

0000000000010c60 <__ctype_b_loc@plt>:
   10c60:	00019e17          	auipc	t3,0x19
   10c64:	448e3e03          	ld	t3,1096(t3) # 2a0a8 <__ctype_b_loc@GLIBC_2.27>
   10c68:	000e0367          	jalr	t1,t3
   10c6c:	00000013          	nop

0000000000010c70 <free@plt>:
   10c70:	00019e17          	auipc	t3,0x19
   10c74:	440e3e03          	ld	t3,1088(t3) # 2a0b0 <free@GLIBC_2.27>
   10c78:	000e0367          	jalr	t1,t3
   10c7c:	00000013          	nop

Disassembly of section .text:

0000000000010c80 <_start>:
   10c80:	02e000ef          	jal	10cae <load_gp>
   10c84:	87aa                	mv	a5,a0
   10c86:	00019517          	auipc	a0,0x19
   10c8a:	36253503          	ld	a0,866(a0) # 29fe8 <main@@Base+0x19284>
   10c8e:	6582                	ld	a1,0(sp)
   10c90:	0030                	addi	a2,sp,8
   10c92:	ff017113          	andi	sp,sp,-16
   10c96:	00015697          	auipc	a3,0x15
   10c9a:	01268693          	addi	a3,a3,18 # 25ca8 <__libc_csu_init>
   10c9e:	00015717          	auipc	a4,0x15
   10ca2:	06270713          	addi	a4,a4,98 # 25d00 <__libc_csu_fini>
   10ca6:	880a                	mv	a6,sp
   10ca8:	ea9ff0ef          	jal	10b50 <__libc_start_main@plt>
   10cac:	9002                	ebreak

0000000000010cae <load_gp>:
   10cae:	0001a197          	auipc	gp,0x1a
   10cb2:	c0a18193          	addi	gp,gp,-1014 # 2a8b8 <__global_pointer$>
   10cb6:	8082                	ret
	...

0000000000010cba <deregister_tm_clones>:
   10cba:	0002a537          	lui	a0,0x2a
   10cbe:	0002a737          	lui	a4,0x2a
   10cc2:	0b850793          	addi	a5,a0,184 # 2a0b8 <__TMC_END__>
   10cc6:	0b870713          	addi	a4,a4,184 # 2a0b8 <__TMC_END__>
   10cca:	00f70863          	beq	a4,a5,10cda <deregister_tm_clones+0x20>
   10cce:	00000793          	li	a5,0
   10cd2:	c781                	beqz	a5,10cda <deregister_tm_clones+0x20>
   10cd4:	0b850513          	addi	a0,a0,184
   10cd8:	8782                	jr	a5
   10cda:	8082                	ret

0000000000010cdc <register_tm_clones>:
   10cdc:	0002a537          	lui	a0,0x2a
   10ce0:	0b850793          	addi	a5,a0,184 # 2a0b8 <__TMC_END__>
   10ce4:	0002a737          	lui	a4,0x2a
   10ce8:	0b870593          	addi	a1,a4,184 # 2a0b8 <__TMC_END__>
   10cec:	8d9d                	sub	a1,a1,a5
   10cee:	4035d793          	srai	a5,a1,0x3
   10cf2:	91fd                	srli	a1,a1,0x3f
   10cf4:	95be                	add	a1,a1,a5
   10cf6:	8585                	srai	a1,a1,0x1
   10cf8:	c599                	beqz	a1,10d06 <register_tm_clones+0x2a>
   10cfa:	00000793          	li	a5,0
   10cfe:	c781                	beqz	a5,10d06 <register_tm_clones+0x2a>
   10d00:	0b850513          	addi	a0,a0,184
   10d04:	8782                	jr	a5
   10d06:	8082                	ret

0000000000010d08 <__do_global_dtors_aux>:
   10d08:	1141                	addi	sp,sp,-16
   10d0a:	e022                	sd	s0,0(sp)
   10d0c:	8781c783          	lbu	a5,-1928(gp) # 2a130 <completed.0>
   10d10:	e406                	sd	ra,8(sp)
   10d12:	e791                	bnez	a5,10d1e <__do_global_dtors_aux+0x16>
   10d14:	fa7ff0ef          	jal	10cba <deregister_tm_clones>
   10d18:	4785                	li	a5,1
   10d1a:	86f18c23          	sb	a5,-1928(gp) # 2a130 <completed.0>
   10d1e:	60a2                	ld	ra,8(sp)
   10d20:	6402                	ld	s0,0(sp)
   10d22:	0141                	addi	sp,sp,16
   10d24:	8082                	ret

0000000000010d26 <frame_dummy>:
   10d26:	bf5d                	j	10cdc <register_tm_clones>

0000000000010d28 <get_regsw_hits>:
   10d28:	80b02573          	csrr	a0,0x80b
   10d2c:	0005051b          	sext.w	a0,a0
   10d30:	00008067          	ret

0000000000010d34 <get_regsw_misses>:
   10d34:	80c02573          	csrr	a0,0x80c
   10d38:	0005051b          	sext.w	a0,a0
   10d3c:	00008067          	ret

0000000000010d40 <clear_regsw_cache>:
   10d40:	80d02573          	csrr	a0,0x80d
   10d44:	00008067          	ret

0000000000010d48 <get_cycles>:
   10d48:	80e02573          	csrr	a0,0x80e
   10d4c:	0005051b          	sext.w	a0,a0
   10d50:	00008067          	ret

0000000000010d54 <crash_handler>:
   10d54:	00000513          	li	a0,0
   10d58:	80851073          	csrw	0x808,a0
   10d5c:	00100513          	li	a0,1
   10d60:	e91ff0ef          	jal	10bf0 <exit@plt>

0000000000010d64 <main>:
   10d64:	cb010113          	addi	sp,sp,-848
   10d68:	34113423          	sd	ra,840(sp)
   10d6c:	34813023          	sd	s0,832(sp)
   10d70:	32913c23          	sd	s1,824(sp)
   10d74:	33213823          	sd	s2,816(sp)
   10d78:	33313423          	sd	s3,808(sp)
   10d7c:	33413023          	sd	s4,800(sp)
   10d80:	00058913          	mv	s2,a1
   10d84:	00050993          	mv	s3,a0
   10d88:	000115b7          	lui	a1,0x11
   10d8c:	d5458593          	addi	a1,a1,-684 # 10d54 <crash_handler>
   10d90:	00b00513          	li	a0,11
   10d94:	e8dff0ef          	jal	10c20 <signal@plt>
   10d98:	80d02573          	csrr	a0,0x80d
   10d9c:	80e02a73          	csrr	s4,0x80e
   10da0:	00100513          	li	a0,1
   10da4:	80851073          	csrw	0x808,a0
   10da8:	00093583          	ld	a1,0(s2)
   10dac:	84b1b423          	sd	a1,-1976(gp) # 2a100 <progname>
   10db0:	00058663          	beqz	a1,10dbc <main+0x58>
   10db4:	0005c583          	lbu	a1,0(a1)
   10db8:	00059863          	bnez	a1,10dc8 <main+0x64>
   10dbc:	000265b7          	lui	a1,0x26
   10dc0:	e8858593          	addi	a1,a1,-376 # 25e88 <cdjpeg_message_table+0x160>
   10dc4:	84b1b423          	sd	a1,-1976(gp) # 2a100 <progname>
   10dc8:	00010513          	mv	a0,sp
   10dcc:	6e8130ef          	jal	244b4 <jpeg_std_error>
   10dd0:	0aa13423          	sd	a0,168(sp)
   10dd4:	0a810513          	addi	a0,sp,168
   10dd8:	03e00593          	li	a1,62
   10ddc:	27800613          	li	a2,632
   10de0:	7a4030ef          	jal	14584 <jpeg_CreateDecompress>
   10de4:	00026537          	lui	a0,0x26
   10de8:	d2850513          	addi	a0,a0,-728 # 25d28 <cdjpeg_message_table>
   10dec:	08a13c23          	sd	a0,152(sp)
   10df0:	41300513          	li	a0,1043
   10df4:	02051513          	slli	a0,a0,0x20
   10df8:	3e850513          	addi	a0,a0,1000
   10dfc:	0aa13023          	sd	a0,160(sp)
   10e00:	00011437          	lui	s0,0x11
   10e04:	07c40413          	addi	s0,s0,124 # 1107c <print_text_marker>
   10e08:	0a810513          	addi	a0,sp,168
   10e0c:	0fe00593          	li	a1,254
   10e10:	00040613          	mv	a2,s0
   10e14:	035070ef          	jal	18648 <jpeg_set_marker_processor>
   10e18:	0a810513          	addi	a0,sp,168
   10e1c:	0ec00593          	li	a1,236
   10e20:	00040613          	mv	a2,s0
   10e24:	025070ef          	jal	18648 <jpeg_set_marker_processor>
   10e28:	0a810513          	addi	a0,sp,168
   10e2c:	00098593          	mv	a1,s3
   10e30:	00090613          	mv	a2,s2
   10e34:	00000693          	li	a3,0
   10e38:	530000ef          	jal	11368 <parse_switches>
   10e3c:	fff9859b          	addiw	a1,s3,-1
   10e40:	00b55e63          	bge	a0,a1,10e5c <main+0xf8>
   10e44:	8681b503          	ld	a0,-1944(gp) # 2a120 <stderr@GLIBC_2.27>
   10e48:	8481b603          	ld	a2,-1976(gp) # 2a100 <progname>
   10e4c:	000265b7          	lui	a1,0x26
   10e50:	e8e58593          	addi	a1,a1,-370 # 25e8e <cdjpeg_message_table+0x166>
   10e54:	cbdff0ef          	jal	10b10 <fprintf@plt>
   10e58:	345000ef          	jal	1199c <usage>
   10e5c:	03355a63          	bge	a0,s3,10e90 <main+0x12c>
   10e60:	00351513          	slli	a0,a0,0x3
   10e64:	00a904b3          	add	s1,s2,a0
   10e68:	0004b503          	ld	a0,0(s1)
   10e6c:	000265b7          	lui	a1,0x26
   10e70:	ea758593          	addi	a1,a1,-345 # 25ea7 <cdjpeg_message_table+0x17f>
   10e74:	dbdff0ef          	jal	10c30 <fopen@plt>
   10e78:	00050413          	mv	s0,a0
   10e7c:	00051e63          	bnez	a0,10e98 <main+0x134>
   10e80:	8681b503          	ld	a0,-1944(gp) # 2a120 <stderr@GLIBC_2.27>
   10e84:	8481b603          	ld	a2,-1976(gp) # 2a100 <progname>
   10e88:	0004b683          	ld	a3,0(s1)
   10e8c:	0400006f          	j	10ecc <main+0x168>
   10e90:	6e4030ef          	jal	14574 <read_stdin>
   10e94:	00050413          	mv	s0,a0
   10e98:	8501b503          	ld	a0,-1968(gp) # 2a108 <outfilename>
   10e9c:	00051863          	bnez	a0,10eac <main+0x148>
   10ea0:	6dc030ef          	jal	1457c <write_stdout>
   10ea4:	00050493          	mv	s1,a0
   10ea8:	0380006f          	j	10ee0 <main+0x17c>
   10eac:	000265b7          	lui	a1,0x26
   10eb0:	ebd58593          	addi	a1,a1,-323 # 25ebd <cdjpeg_message_table+0x195>
   10eb4:	d7dff0ef          	jal	10c30 <fopen@plt>
   10eb8:	00050493          	mv	s1,a0
   10ebc:	02051263          	bnez	a0,10ee0 <main+0x17c>
   10ec0:	8681b503          	ld	a0,-1944(gp) # 2a120 <stderr@GLIBC_2.27>
   10ec4:	8481b603          	ld	a2,-1976(gp) # 2a100 <progname>
   10ec8:	8501b683          	ld	a3,-1968(gp) # 2a108 <outfilename>
   10ecc:	000265b7          	lui	a1,0x26
   10ed0:	eaa58593          	addi	a1,a1,-342 # 25eaa <cdjpeg_message_table+0x182>
   10ed4:	c3dff0ef          	jal	10b10 <fprintf@plt>
   10ed8:	00100513          	li	a0,1
   10edc:	d15ff0ef          	jal	10bf0 <exit@plt>
   10ee0:	0a810513          	addi	a0,sp,168
   10ee4:	00040593          	mv	a1,s0
   10ee8:	298040ef          	jal	15180 <jpeg_stdio_src>
   10eec:	0a810513          	addi	a0,sp,168
   10ef0:	00100593          	li	a1,1
   10ef4:	79c030ef          	jal	14690 <jpeg_read_header>
   10ef8:	0a810513          	addi	a0,sp,168
   10efc:	00100693          	li	a3,1
   10f00:	00098593          	mv	a1,s3
   10f04:	00090613          	mv	a2,s2
   10f08:	460000ef          	jal	11368 <parse_switches>
   10f0c:	8581a503          	lw	a0,-1960(gp) # 2a110 <requested_fmt>
   10f10:	00500593          	li	a1,5
   10f14:	02a5e463          	bltu	a1,a0,10f3c <main+0x1d8>
   10f18:	00251513          	slli	a0,a0,0x2
   10f1c:	000265b7          	lui	a1,0x26
   10f20:	d1058593          	addi	a1,a1,-752 # 25d10 <_IO_stdin_used+0x8>
   10f24:	00b50533          	add	a0,a0,a1
   10f28:	00052503          	lw	a0,0(a0)
   10f2c:	00050067          	jr	a0
   10f30:	0a810513          	addi	a0,sp,168
   10f34:	00000593          	li	a1,0
   10f38:	02c0006f          	j	10f64 <main+0x200>
   10f3c:	0a813503          	ld	a0,168(sp)
   10f40:	00053583          	ld	a1,0(a0)
   10f44:	41200613          	li	a2,1042
   10f48:	02c52423          	sw	a2,40(a0)
   10f4c:	0a810513          	addi	a0,sp,168
   10f50:	000580e7          	jalr	a1
   10f54:	00000913          	li	s2,0
   10f58:	0380006f          	j	10f90 <main+0x22c>
   10f5c:	0a810513          	addi	a0,sp,168
   10f60:	00100593          	li	a1,1
   10f64:	6b9010ef          	jal	12e1c <jinit_write_bmp>
   10f68:	0240006f          	j	10f8c <main+0x228>
   10f6c:	0a810513          	addi	a0,sp,168
   10f70:	7f1000ef          	jal	11f60 <jinit_write_gif>
   10f74:	0180006f          	j	10f8c <main+0x228>
   10f78:	0a810513          	addi	a0,sp,168
   10f7c:	481000ef          	jal	11bfc <jinit_write_ppm>
   10f80:	00c0006f          	j	10f8c <main+0x228>
   10f84:	0a810513          	addi	a0,sp,168
   10f88:	129010ef          	jal	128b0 <jinit_write_targa>
   10f8c:	00050913          	mv	s2,a0
   10f90:	00993c23          	sd	s1,24(s2)
   10f94:	0a810513          	addi	a0,sp,168
   10f98:	3c5030ef          	jal	14b5c <jpeg_start_decompress>
   10f9c:	00093603          	ld	a2,0(s2)
   10fa0:	0a810513          	addi	a0,sp,168
   10fa4:	00090593          	mv	a1,s2
   10fa8:	000600e7          	jalr	a2
   10fac:	15012503          	lw	a0,336(sp)
   10fb0:	13412583          	lw	a1,308(sp)
   10fb4:	02b57a63          	bgeu	a0,a1,10fe8 <main+0x284>
   10fb8:	02093583          	ld	a1,32(s2)
   10fbc:	02892603          	lw	a2,40(s2)
   10fc0:	0a810513          	addi	a0,sp,168
   10fc4:	589030ef          	jal	14d4c <jpeg_read_scanlines>
   10fc8:	00893683          	ld	a3,8(s2)
   10fcc:	00050613          	mv	a2,a0
   10fd0:	0a810513          	addi	a0,sp,168
   10fd4:	00090593          	mv	a1,s2
   10fd8:	000680e7          	jalr	a3
   10fdc:	15012503          	lw	a0,336(sp)
   10fe0:	13412583          	lw	a1,308(sp)
   10fe4:	fcb56ae3          	bltu	a0,a1,10fb8 <main+0x254>
   10fe8:	01093603          	ld	a2,16(s2)
   10fec:	0a810513          	addi	a0,sp,168
   10ff0:	00090593          	mv	a1,s2
   10ff4:	000600e7          	jalr	a2
   10ff8:	0a810513          	addi	a0,sp,168
   10ffc:	271030ef          	jal	14a6c <jpeg_finish_decompress>
   11000:	0a810513          	addi	a0,sp,168
   11004:	684030ef          	jal	14688 <jpeg_destroy_decompress>
   11008:	8601b503          	ld	a0,-1952(gp) # 2a118 <stdin@GLIBC_2.27>
   1100c:	00a40663          	beq	s0,a0,11018 <main+0x2b4>
   11010:	00040513          	mv	a0,s0
   11014:	bfdff0ef          	jal	10c10 <fclose@plt>
   11018:	8701b503          	ld	a0,-1936(gp) # 2a128 <stdout@GLIBC_2.27>
   1101c:	00a48663          	beq	s1,a0,11028 <main+0x2c4>
   11020:	00048513          	mv	a0,s1
   11024:	bedff0ef          	jal	10c10 <fclose@plt>
   11028:	000a0a1b          	sext.w	s4,s4
   1102c:	80e02573          	csrr	a0,0x80e
   11030:	0005051b          	sext.w	a0,a0
   11034:	80b024f3          	csrr	s1,0x80b
   11038:	80c026f3          	csrr	a3,0x80c
   1103c:	41450433          	sub	s0,a0,s4
   11040:	0004849b          	sext.w	s1,s1
   11044:	0006869b          	sext.w	a3,a3
   11048:	00026537          	lui	a0,0x26
   1104c:	ec050513          	addi	a0,a0,-320 # 25ec0 <cdjpeg_message_table+0x198>
   11050:	00040593          	mv	a1,s0
   11054:	00048613          	mv	a2,s1
   11058:	ba9ff0ef          	jal	10c00 <printf@plt>
   1105c:	409405b3          	sub	a1,s0,s1
   11060:	00026537          	lui	a0,0x26
   11064:	eee50513          	addi	a0,a0,-274 # 25eee <cdjpeg_message_table+0x1c6>
   11068:	b99ff0ef          	jal	10c00 <printf@plt>
   1106c:	08013503          	ld	a0,128(sp)
   11070:	00a03533          	snez	a0,a0
   11074:	00151513          	slli	a0,a0,0x1
   11078:	b79ff0ef          	jal	10bf0 <exit@plt>

000000000001107c <print_text_marker>:
   1107c:	f9010113          	addi	sp,sp,-112
   11080:	06113423          	sd	ra,104(sp)
   11084:	06813023          	sd	s0,96(sp)
   11088:	04913c23          	sd	s1,88(sp)
   1108c:	05213823          	sd	s2,80(sp)
   11090:	05313423          	sd	s3,72(sp)
   11094:	05413023          	sd	s4,64(sp)
   11098:	03513c23          	sd	s5,56(sp)
   1109c:	03613823          	sd	s6,48(sp)
   110a0:	03713423          	sd	s7,40(sp)
   110a4:	03813023          	sd	s8,32(sp)
   110a8:	01913c23          	sd	s9,24(sp)
   110ac:	01a13823          	sd	s10,16(sp)
   110b0:	01b13423          	sd	s11,8(sp)
   110b4:	00050413          	mv	s0,a0
   110b8:	02853483          	ld	s1,40(a0)
   110bc:	00053503          	ld	a0,0(a0)
   110c0:	0084b583          	ld	a1,8(s1)
   110c4:	07c52a03          	lw	s4,124(a0)
   110c8:	02059663          	bnez	a1,110f4 <print_text_marker+0x78>
   110cc:	0184b583          	ld	a1,24(s1)
   110d0:	00040513          	mv	a0,s0
   110d4:	000580e7          	jalr	a1
   110d8:	00051e63          	bnez	a0,110f4 <print_text_marker+0x78>
   110dc:	00043503          	ld	a0,0(s0)
   110e0:	00053583          	ld	a1,0(a0)
   110e4:	01800613          	li	a2,24
   110e8:	02c52423          	sw	a2,40(a0)
   110ec:	00040513          	mv	a0,s0
   110f0:	000580e7          	jalr	a1
   110f4:	0084b503          	ld	a0,8(s1)
   110f8:	0004b583          	ld	a1,0(s1)
   110fc:	fff50513          	addi	a0,a0,-1
   11100:	00a4b423          	sd	a0,8(s1)
   11104:	02843903          	ld	s2,40(s0)
   11108:	00158513          	addi	a0,a1,1
   1110c:	00a4b023          	sd	a0,0(s1)
   11110:	0005c483          	lbu	s1,0(a1)
   11114:	00893503          	ld	a0,8(s2)
   11118:	00849493          	slli	s1,s1,0x8
   1111c:	02051663          	bnez	a0,11148 <print_text_marker+0xcc>
   11120:	01893583          	ld	a1,24(s2)
   11124:	00040513          	mv	a0,s0
   11128:	000580e7          	jalr	a1
   1112c:	00051e63          	bnez	a0,11148 <print_text_marker+0xcc>
   11130:	00043503          	ld	a0,0(s0)
   11134:	00053583          	ld	a1,0(a0)
   11138:	01800613          	li	a2,24
   1113c:	02c52423          	sw	a2,40(a0)
   11140:	00040513          	mv	a0,s0
   11144:	000580e7          	jalr	a1
   11148:	00893503          	ld	a0,8(s2)
   1114c:	00093583          	ld	a1,0(s2)
   11150:	fff50513          	addi	a0,a0,-1
   11154:	00a93423          	sd	a0,8(s2)
   11158:	00158513          	addi	a0,a1,1
   1115c:	00a93023          	sd	a0,0(s2)
   11160:	0005c903          	lbu	s2,0(a1)
   11164:	0124e9b3          	or	s3,s1,s2
   11168:	07404863          	bgtz	s4,111d8 <print_text_marker+0x15c>
   1116c:	00300513          	li	a0,3
   11170:	1aa9ec63          	bltu	s3,a0,11328 <print_text_marker+0x2ac>
   11174:	ffd98493          	addi	s1,s3,-3
   11178:	00148493          	addi	s1,s1,1
   1117c:	01800913          	li	s2,24
   11180:	0240006f          	j	111a4 <print_text_marker+0x128>
   11184:	0089b503          	ld	a0,8(s3)
   11188:	0009b583          	ld	a1,0(s3)
   1118c:	fff50513          	addi	a0,a0,-1
   11190:	00a9b423          	sd	a0,8(s3)
   11194:	00158593          	addi	a1,a1,1
   11198:	fff48493          	addi	s1,s1,-1
   1119c:	00b9b023          	sd	a1,0(s3)
   111a0:	16905c63          	blez	s1,11318 <print_text_marker+0x29c>
   111a4:	02843983          	ld	s3,40(s0)
   111a8:	0089b503          	ld	a0,8(s3)
   111ac:	fc051ce3          	bnez	a0,11184 <print_text_marker+0x108>
   111b0:	0189b583          	ld	a1,24(s3)
   111b4:	00040513          	mv	a0,s0
   111b8:	000580e7          	jalr	a1
   111bc:	fc0514e3          	bnez	a0,11184 <print_text_marker+0x108>
   111c0:	00043503          	ld	a0,0(s0)
   111c4:	00053583          	ld	a1,0(a0)
   111c8:	03252423          	sw	s2,40(a0)
   111cc:	00040513          	mv	a0,s0
   111d0:	000580e7          	jalr	a1
   111d4:	fb1ff06f          	j	11184 <print_text_marker+0x108>
   111d8:	21c42583          	lw	a1,540(s0)
   111dc:	8681b503          	ld	a0,-1944(gp) # 2a120 <stderr@GLIBC_2.27>
   111e0:	0fe00613          	li	a2,254
   111e4:	ffe98693          	addi	a3,s3,-2
   111e8:	00c59c63          	bne	a1,a2,11200 <print_text_marker+0x184>
   111ec:	000265b7          	lui	a1,0x26
   111f0:	43258593          	addi	a1,a1,1074 # 26432 <cdjpeg_message_table+0x70a>
   111f4:	00068613          	mv	a2,a3
   111f8:	919ff0ef          	jal	10b10 <fprintf@plt>
   111fc:	0140006f          	j	11210 <print_text_marker+0x194>
   11200:	f205861b          	addiw	a2,a1,-224
   11204:	000265b7          	lui	a1,0x26
   11208:	44858593          	addi	a1,a1,1096 # 26448 <cdjpeg_message_table+0x720>
   1120c:	905ff0ef          	jal	10b10 <fprintf@plt>
   11210:	00200513          	li	a0,2
   11214:	11357263          	bgeu	a0,s3,11318 <print_text_marker+0x29c>
   11218:	f5405ee3          	blez	s4,11174 <print_text_marker+0xf8>
   1121c:	00000993          	li	s3,0
   11220:	012484b3          	add	s1,s1,s2
   11224:	ffe48a93          	addi	s5,s1,-2
   11228:	01800b13          	li	s6,24
   1122c:	00a00b93          	li	s7,10
   11230:	00d00c13          	li	s8,13
   11234:	05c00d13          	li	s10,92
   11238:	000264b7          	lui	s1,0x26
   1123c:	45c48493          	addi	s1,s1,1116 # 2645c <cdjpeg_message_table+0x734>
   11240:	0180006f          	j	11258 <print_text_marker+0x1dc>
   11244:	8681b583          	ld	a1,-1944(gp) # 2a120 <stderr@GLIBC_2.27>
   11248:	00a00513          	li	a0,10
   1124c:	925ff0ef          	jal	10b70 <fputc@plt>
   11250:	fffa8a93          	addi	s5,s5,-1
   11254:	0d505263          	blez	s5,11318 <print_text_marker+0x29c>
   11258:	02843903          	ld	s2,40(s0)
   1125c:	00893503          	ld	a0,8(s2)
   11260:	00098d93          	mv	s11,s3
   11264:	02051463          	bnez	a0,1128c <print_text_marker+0x210>
   11268:	01893583          	ld	a1,24(s2)
   1126c:	00040513          	mv	a0,s0
   11270:	000580e7          	jalr	a1
   11274:	00051c63          	bnez	a0,1128c <print_text_marker+0x210>
   11278:	00043503          	ld	a0,0(s0)
   1127c:	00053583          	ld	a1,0(a0)
   11280:	03652423          	sw	s6,40(a0)
   11284:	00040513          	mv	a0,s0
   11288:	000580e7          	jalr	a1
   1128c:	00893503          	ld	a0,8(s2)
   11290:	00093583          	ld	a1,0(s2)
   11294:	fff50513          	addi	a0,a0,-1
   11298:	00a93423          	sd	a0,8(s2)
   1129c:	00158513          	addi	a0,a1,1
   112a0:	00a93023          	sd	a0,0(s2)
   112a4:	0005c983          	lbu	s3,0(a1)
   112a8:	03798c63          	beq	s3,s7,112e0 <print_text_marker+0x264>
   112ac:	f9898ce3          	beq	s3,s8,11244 <print_text_marker+0x1c8>
   112b0:	03a98c63          	beq	s3,s10,112e8 <print_text_marker+0x26c>
   112b4:	9adff0ef          	jal	10c60 <__ctype_b_loc@plt>
   112b8:	00053503          	ld	a0,0(a0)
   112bc:	00199593          	slli	a1,s3,0x1
   112c0:	00b50533          	add	a0,a0,a1
   112c4:	00055503          	lhu	a0,0(a0)
   112c8:	8681b583          	ld	a1,-1944(gp) # 2a120 <stderr@GLIBC_2.27>
   112cc:	03151513          	slli	a0,a0,0x31
   112d0:	02055863          	bgez	a0,11300 <print_text_marker+0x284>
   112d4:	00098513          	mv	a0,s3
   112d8:	8d9ff0ef          	jal	10bb0 <putc@plt>
   112dc:	f75ff06f          	j	11250 <print_text_marker+0x1d4>
   112e0:	f78d92e3          	bne	s11,s8,11244 <print_text_marker+0x1c8>
   112e4:	f6dff06f          	j	11250 <print_text_marker+0x1d4>
   112e8:	8681b683          	ld	a3,-1944(gp) # 2a120 <stderr@GLIBC_2.27>
   112ec:	00200593          	li	a1,2
   112f0:	00100613          	li	a2,1
   112f4:	00048513          	mv	a0,s1
   112f8:	839ff0ef          	jal	10b30 <fwrite@plt>
   112fc:	f55ff06f          	j	11250 <print_text_marker+0x1d4>
   11300:	00058513          	mv	a0,a1
   11304:	000265b7          	lui	a1,0x26
   11308:	45f58593          	addi	a1,a1,1119 # 2645f <cdjpeg_message_table+0x737>
   1130c:	00098613          	mv	a2,s3
   11310:	801ff0ef          	jal	10b10 <fprintf@plt>
   11314:	f3dff06f          	j	11250 <print_text_marker+0x1d4>
   11318:	01405863          	blez	s4,11328 <print_text_marker+0x2ac>
   1131c:	8681b583          	ld	a1,-1944(gp) # 2a120 <stderr@GLIBC_2.27>
   11320:	00a00513          	li	a0,10
   11324:	84dff0ef          	jal	10b70 <fputc@plt>
   11328:	00100513          	li	a0,1
   1132c:	06813083          	ld	ra,104(sp)
   11330:	06013403          	ld	s0,96(sp)
   11334:	05813483          	ld	s1,88(sp)
   11338:	05013903          	ld	s2,80(sp)
   1133c:	04813983          	ld	s3,72(sp)
   11340:	04013a03          	ld	s4,64(sp)
   11344:	03813a83          	ld	s5,56(sp)
   11348:	03013b03          	ld	s6,48(sp)
   1134c:	02813b83          	ld	s7,40(sp)
   11350:	02013c03          	ld	s8,32(sp)
   11354:	01813c83          	ld	s9,24(sp)
   11358:	01013d03          	ld	s10,16(sp)
   1135c:	00813d83          	ld	s11,8(sp)
   11360:	07010113          	addi	sp,sp,112
   11364:	00008067          	ret

0000000000011368 <parse_switches>:
   11368:	f6010113          	addi	sp,sp,-160
   1136c:	08113c23          	sd	ra,152(sp)
   11370:	08813823          	sd	s0,144(sp)
   11374:	08913423          	sd	s1,136(sp)
   11378:	09213023          	sd	s2,128(sp)
   1137c:	07313c23          	sd	s3,120(sp)
   11380:	07413823          	sd	s4,112(sp)
   11384:	07513423          	sd	s5,104(sp)
   11388:	07613023          	sd	s6,96(sp)
   1138c:	05713c23          	sd	s7,88(sp)
   11390:	05813823          	sd	s8,80(sp)
   11394:	05913423          	sd	s9,72(sp)
   11398:	05a13023          	sd	s10,64(sp)
   1139c:	03b13c23          	sd	s11,56(sp)
   113a0:	00d13c23          	sd	a3,24(sp)
   113a4:	00058913          	mv	s2,a1
   113a8:	00050993          	mv	s3,a0
   113ac:	8401b823          	sd	zero,-1968(gp) # 2a108 <outfilename>
   113b0:	00053503          	ld	a0,0(a0)
   113b4:	00300593          	li	a1,3
   113b8:	84b1ac23          	sw	a1,-1960(gp) # 2a110 <requested_fmt>
   113bc:	06052e23          	sw	zero,124(a0)
   113c0:	00200513          	li	a0,2
   113c4:	00100d93          	li	s11,1
   113c8:	56a94663          	blt	s2,a0,11934 <parse_switches+0x5cc>
   113cc:	00060493          	mv	s1,a2
   113d0:	04498513          	addi	a0,s3,68
   113d4:	00a13823          	sd	a0,16(sp)
   113d8:	04898513          	addi	a0,s3,72
   113dc:	00a13423          	sd	a0,8(sp)
   113e0:	00100c13          	li	s8,1
   113e4:	02d00413          	li	s0,45
   113e8:	00026b37          	lui	s6,0x26
   113ec:	465b0b13          	addi	s6,s6,1125 # 26465 <cdjpeg_message_table+0x73d>
   113f0:	00027bb7          	lui	s7,0x27
   113f4:	245b8b93          	addi	s7,s7,581 # 27245 <cdjpeg_message_table+0x151d>
   113f8:	00027d37          	lui	s10,0x27
   113fc:	66ed0d13          	addi	s10,s10,1646 # 2766e <cdjpeg_message_table+0x1946>
   11400:	00100d93          	li	s11,1
   11404:	0280006f          	j	1142c <parse_switches+0xc4>
   11408:	001c8c93          	addi	s9,s9,1
   1140c:	00100613          	li	a2,1
   11410:	000c8513          	mv	a0,s9
   11414:	000b0593          	mv	a1,s6
   11418:	090030ef          	jal	144a8 <keymatch>
   1141c:	02050863          	beqz	a0,1144c <parse_switches+0xe4>
   11420:	8401ac23          	sw	zero,-1960(gp) # 2a110 <requested_fmt>
   11424:	001d8d9b          	addiw	s11,s11,1
   11428:	512dd663          	bge	s11,s2,11934 <parse_switches+0x5cc>
   1142c:	003d9513          	slli	a0,s11,0x3
   11430:	00a48533          	add	a0,s1,a0
   11434:	00053c83          	ld	s9,0(a0)
   11438:	000cc503          	lbu	a0,0(s9)
   1143c:	fc8506e3          	beq	a0,s0,11408 <parse_switches+0xa0>
   11440:	4fb04a63          	bgtz	s11,11934 <parse_switches+0x5cc>
   11444:	8401b823          	sd	zero,-1968(gp) # 2a108 <outfilename>
   11448:	fddff06f          	j	11424 <parse_switches+0xbc>
   1144c:	00100613          	li	a2,1
   11450:	000c8513          	mv	a0,s9
   11454:	000b8593          	mv	a1,s7
   11458:	050030ef          	jal	144a8 <keymatch>
   1145c:	04051663          	bnez	a0,114a8 <parse_switches+0x140>
   11460:	00100613          	li	a2,1
   11464:	000c8513          	mv	a0,s9
   11468:	000265b7          	lui	a1,0x26
   1146c:	46958593          	addi	a1,a1,1129 # 26469 <cdjpeg_message_table+0x741>
   11470:	038030ef          	jal	144a8 <keymatch>
   11474:	02051a63          	bnez	a0,114a8 <parse_switches+0x140>
   11478:	00100613          	li	a2,1
   1147c:	000c8513          	mv	a0,s9
   11480:	000265b7          	lui	a1,0x26
   11484:	47158593          	addi	a1,a1,1137 # 26471 <cdjpeg_message_table+0x749>
   11488:	020030ef          	jal	144a8 <keymatch>
   1148c:	00051e63          	bnez	a0,114a8 <parse_switches+0x140>
   11490:	00100613          	li	a2,1
   11494:	000c8513          	mv	a0,s9
   11498:	000265b7          	lui	a1,0x26
   1149c:	47a58593          	addi	a1,a1,1146 # 2647a <cdjpeg_message_table+0x752>
   114a0:	008030ef          	jal	144a8 <keymatch>
   114a4:	02050c63          	beqz	a0,114dc <parse_switches+0x174>
   114a8:	001d8d9b          	addiw	s11,s11,1
   114ac:	4d2dd463          	bge	s11,s2,11974 <parse_switches+0x60c>
   114b0:	003d9513          	slli	a0,s11,0x3
   114b4:	00a48533          	add	a0,s1,a0
   114b8:	00053503          	ld	a0,0(a0)
   114bc:	03410613          	addi	a2,sp,52
   114c0:	000d0593          	mv	a1,s10
   114c4:	e9cff0ef          	jal	10b60 <__isoc99_sscanf@plt>
   114c8:	4b851663          	bne	a0,s8,11974 <parse_switches+0x60c>
   114cc:	03412503          	lw	a0,52(sp)
   114d0:	06a9ac23          	sw	a0,120(s3)
   114d4:	0789a623          	sw	s8,108(s3)
   114d8:	f4dff06f          	j	11424 <parse_switches+0xbc>
   114dc:	00200613          	li	a2,2
   114e0:	000c8513          	mv	a0,s9
   114e4:	000265b7          	lui	a1,0x26
   114e8:	48358593          	addi	a1,a1,1155 # 26483 <cdjpeg_message_table+0x75b>
   114ec:	7bd020ef          	jal	144a8 <keymatch>
   114f0:	02050a63          	beqz	a0,11524 <parse_switches+0x1bc>
   114f4:	001d8d9b          	addiw	s11,s11,1
   114f8:	472dde63          	bge	s11,s2,11974 <parse_switches+0x60c>
   114fc:	003d9c93          	slli	s9,s11,0x3
   11500:	01948cb3          	add	s9,s1,s9
   11504:	000cb503          	ld	a0,0(s9)
   11508:	00100613          	li	a2,1
   1150c:	000265b7          	lui	a1,0x26
   11510:	48758593          	addi	a1,a1,1159 # 26487 <cdjpeg_message_table+0x75f>
   11514:	795020ef          	jal	144a8 <keymatch>
   11518:	04050c63          	beqz	a0,11570 <parse_switches+0x208>
   1151c:	0609a023          	sw	zero,96(s3)
   11520:	f05ff06f          	j	11424 <parse_switches+0xbc>
   11524:	00200613          	li	a2,2
   11528:	000c8513          	mv	a0,s9
   1152c:	000265b7          	lui	a1,0x26
   11530:	49658593          	addi	a1,a1,1174 # 26496 <cdjpeg_message_table+0x76e>
   11534:	775020ef          	jal	144a8 <keymatch>
   11538:	04050c63          	beqz	a0,11590 <parse_switches+0x228>
   1153c:	001d8d9b          	addiw	s11,s11,1
   11540:	432dda63          	bge	s11,s2,11974 <parse_switches+0x60c>
   11544:	003d9c93          	slli	s9,s11,0x3
   11548:	01948cb3          	add	s9,s1,s9
   1154c:	000cb503          	ld	a0,0(s9)
   11550:	00200613          	li	a2,2
   11554:	000265b7          	lui	a1,0x26
   11558:	49d58593          	addi	a1,a1,1181 # 2649d <cdjpeg_message_table+0x775>
   1155c:	74d020ef          	jal	144a8 <keymatch>
   11560:	06050e63          	beqz	a0,115dc <parse_switches+0x274>
   11564:	00200513          	li	a0,2
   11568:	06a9a823          	sw	a0,112(s3)
   1156c:	eb9ff06f          	j	11424 <parse_switches+0xbc>
   11570:	000cb503          	ld	a0,0(s9)
   11574:	00200613          	li	a2,2
   11578:	000265b7          	lui	a1,0x26
   1157c:	48b58593          	addi	a1,a1,1163 # 2648b <cdjpeg_message_table+0x763>
   11580:	729020ef          	jal	144a8 <keymatch>
   11584:	06050c63          	beqz	a0,115fc <parse_switches+0x294>
   11588:	0789a023          	sw	s8,96(s3)
   1158c:	e99ff06f          	j	11424 <parse_switches+0xbc>
   11590:	00100613          	li	a2,1
   11594:	000c8513          	mv	a0,s9
   11598:	000265b7          	lui	a1,0x26
   1159c:	4ad58593          	addi	a1,a1,1197 # 264ad <cdjpeg_message_table+0x785>
   115a0:	709020ef          	jal	144a8 <keymatch>
   115a4:	00051e63          	bnez	a0,115c0 <parse_switches+0x258>
   115a8:	00100613          	li	a2,1
   115ac:	000c8513          	mv	a0,s9
   115b0:	000265b7          	lui	a1,0x26
   115b4:	4b358593          	addi	a1,a1,1203 # 264b3 <cdjpeg_message_table+0x78b>
   115b8:	6f1020ef          	jal	144a8 <keymatch>
   115bc:	08050263          	beqz	a0,11640 <parse_switches+0x2d8>
   115c0:	85c1c503          	lbu	a0,-1956(gp) # 2a114 <parse_switches.printed_version>
   115c4:	0c050863          	beqz	a0,11694 <parse_switches+0x32c>
   115c8:	0009b503          	ld	a0,0(s3)
   115cc:	07c52583          	lw	a1,124(a0)
   115d0:	00158593          	addi	a1,a1,1
   115d4:	06b52e23          	sw	a1,124(a0)
   115d8:	e4dff06f          	j	11424 <parse_switches+0xbc>
   115dc:	000cb503          	ld	a0,0(s9)
   115e0:	00200613          	li	a2,2
   115e4:	000265b7          	lui	a1,0x26
   115e8:	4a058593          	addi	a1,a1,1184 # 264a0 <cdjpeg_message_table+0x778>
   115ec:	6bd020ef          	jal	144a8 <keymatch>
   115f0:	02050863          	beqz	a0,11620 <parse_switches+0x2b8>
   115f4:	0609a823          	sw	zero,112(s3)
   115f8:	e2dff06f          	j	11424 <parse_switches+0xbc>
   115fc:	000cb503          	ld	a0,0(s9)
   11600:	00200613          	li	a2,2
   11604:	000265b7          	lui	a1,0x26
   11608:	49058593          	addi	a1,a1,1168 # 26490 <cdjpeg_message_table+0x768>
   1160c:	69d020ef          	jal	144a8 <keymatch>
   11610:	36050263          	beqz	a0,11974 <parse_switches+0x60c>
   11614:	00200513          	li	a0,2
   11618:	06a9a023          	sw	a0,96(s3)
   1161c:	e09ff06f          	j	11424 <parse_switches+0xbc>
   11620:	000cb503          	ld	a0,0(s9)
   11624:	00200613          	li	a2,2
   11628:	000265b7          	lui	a1,0x26
   1162c:	4a558593          	addi	a1,a1,1189 # 264a5 <cdjpeg_message_table+0x77d>
   11630:	679020ef          	jal	144a8 <keymatch>
   11634:	34050063          	beqz	a0,11974 <parse_switches+0x60c>
   11638:	0789a823          	sw	s8,112(s3)
   1163c:	de9ff06f          	j	11424 <parse_switches+0xbc>
   11640:	00100613          	li	a2,1
   11644:	000c8513          	mv	a0,s9
   11648:	000265b7          	lui	a1,0x26
   1164c:	48b58593          	addi	a1,a1,1163 # 2648b <cdjpeg_message_table+0x763>
   11650:	659020ef          	jal	144a8 <keymatch>
   11654:	02050063          	beqz	a0,11674 <parse_switches+0x30c>
   11658:	06c9a503          	lw	a0,108(s3)
   1165c:	0789b823          	sd	s8,112(s3)
   11660:	00051663          	bnez	a0,1166c <parse_switches+0x304>
   11664:	0d800513          	li	a0,216
   11668:	06a9ac23          	sw	a0,120(s3)
   1166c:	0789b023          	sd	s8,96(s3)
   11670:	db5ff06f          	j	11424 <parse_switches+0xbc>
   11674:	00100613          	li	a2,1
   11678:	000c8513          	mv	a0,s9
   1167c:	000265b7          	lui	a1,0x26
   11680:	51d58593          	addi	a1,a1,1309 # 2651d <cdjpeg_message_table+0x7f5>
   11684:	625020ef          	jal	144a8 <keymatch>
   11688:	02050a63          	beqz	a0,116bc <parse_switches+0x354>
   1168c:	8581ac23          	sw	s8,-1960(gp) # 2a110 <requested_fmt>
   11690:	d95ff06f          	j	11424 <parse_switches+0xbc>
   11694:	8681b503          	ld	a0,-1944(gp) # 2a120 <stderr@GLIBC_2.27>
   11698:	000265b7          	lui	a1,0x26
   1169c:	4bb58593          	addi	a1,a1,1211 # 264bb <cdjpeg_message_table+0x793>
   116a0:	00026637          	lui	a2,0x26
   116a4:	4ea60613          	addi	a2,a2,1258 # 264ea <cdjpeg_message_table+0x7c2>
   116a8:	000266b7          	lui	a3,0x26
   116ac:	4fa68693          	addi	a3,a3,1274 # 264fa <cdjpeg_message_table+0x7d2>
   116b0:	c60ff0ef          	jal	10b10 <fprintf@plt>
   116b4:	85818e23          	sb	s8,-1956(gp) # 2a114 <parse_switches.printed_version>
   116b8:	f11ff06f          	j	115c8 <parse_switches+0x260>
   116bc:	00200613          	li	a2,2
   116c0:	000c8513          	mv	a0,s9
   116c4:	000265b7          	lui	a1,0x26
   116c8:	52158593          	addi	a1,a1,1313 # 26521 <cdjpeg_message_table+0x7f9>
   116cc:	5dd020ef          	jal	144a8 <keymatch>
   116d0:	00051e63          	bnez	a0,116ec <parse_switches+0x384>
   116d4:	00200613          	li	a2,2
   116d8:	000c8513          	mv	a0,s9
   116dc:	000265b7          	lui	a1,0x26
   116e0:	52b58593          	addi	a1,a1,1323 # 2652b <cdjpeg_message_table+0x803>
   116e4:	5c5020ef          	jal	144a8 <keymatch>
   116e8:	00050663          	beqz	a0,116f4 <parse_switches+0x38c>
   116ec:	0589a023          	sw	s8,64(s3)
   116f0:	d35ff06f          	j	11424 <parse_switches+0xbc>
   116f4:	00300613          	li	a2,3
   116f8:	000c8513          	mv	a0,s9
   116fc:	000265b7          	lui	a1,0x26
   11700:	53558593          	addi	a1,a1,1333 # 26535 <cdjpeg_message_table+0x80d>
   11704:	5a5020ef          	jal	144a8 <keymatch>
   11708:	04050a63          	beqz	a0,1175c <parse_switches+0x3f4>
   1170c:	001d8d9b          	addiw	s11,s11,1
   11710:	272dd263          	bge	s11,s2,11974 <parse_switches+0x60c>
   11714:	01813503          	ld	a0,24(sp)
   11718:	d00506e3          	beqz	a0,11424 <parse_switches+0xbc>
   1171c:	003d9513          	slli	a0,s11,0x3
   11720:	00a48533          	add	a0,s1,a0
   11724:	00a13023          	sd	a0,0(sp)
   11728:	00053503          	ld	a0,0(a0)
   1172c:	000265b7          	lui	a1,0x26
   11730:	ea758593          	addi	a1,a1,-345 # 25ea7 <cdjpeg_message_table+0x17f>
   11734:	cfcff0ef          	jal	10c30 <fopen@plt>
   11738:	24050063          	beqz	a0,11978 <parse_switches+0x610>
   1173c:	00050c93          	mv	s9,a0
   11740:	00098513          	mv	a0,s3
   11744:	000c8593          	mv	a1,s9
   11748:	1e0020ef          	jal	13928 <read_color_map>
   1174c:	000c8513          	mv	a0,s9
   11750:	cc0ff0ef          	jal	10c10 <fclose@plt>
   11754:	0789a623          	sw	s8,108(s3)
   11758:	ccdff06f          	j	11424 <parse_switches+0xbc>
   1175c:	00300613          	li	a2,3
   11760:	000c8513          	mv	a0,s9
   11764:	000265b7          	lui	a1,0x26
   11768:	53958593          	addi	a1,a1,1337 # 26539 <cdjpeg_message_table+0x811>
   1176c:	53d020ef          	jal	144a8 <keymatch>
   11770:	06050463          	beqz	a0,117d8 <parse_switches+0x470>
   11774:	001d8d9b          	addiw	s11,s11,1
   11778:	07800513          	li	a0,120
   1177c:	02a103a3          	sb	a0,39(sp)
   11780:	1f2dda63          	bge	s11,s2,11974 <parse_switches+0x60c>
   11784:	003d9513          	slli	a0,s11,0x3
   11788:	00a48533          	add	a0,s1,a0
   1178c:	00053503          	ld	a0,0(a0)
   11790:	02810613          	addi	a2,sp,40
   11794:	02710693          	addi	a3,sp,39
   11798:	000265b7          	lui	a1,0x26
   1179c:	54358593          	addi	a1,a1,1347 # 26543 <cdjpeg_message_table+0x81b>
   117a0:	bc0ff0ef          	jal	10b60 <__isoc99_sscanf@plt>
   117a4:	1ca05863          	blez	a0,11974 <parse_switches+0x60c>
   117a8:	02714583          	lbu	a1,39(sp)
   117ac:	02813503          	ld	a0,40(sp)
   117b0:	0df5f593          	andi	a1,a1,223
   117b4:	04d00613          	li	a2,77
   117b8:	00c59663          	bne	a1,a2,117c4 <parse_switches+0x45c>
   117bc:	3e800593          	li	a1,1000
   117c0:	02b50533          	mul	a0,a0,a1
   117c4:	0089b583          	ld	a1,8(s3)
   117c8:	3e800613          	li	a2,1000
   117cc:	02c50533          	mul	a0,a0,a2
   117d0:	04a5bc23          	sd	a0,88(a1)
   117d4:	c51ff06f          	j	11424 <parse_switches+0xbc>
   117d8:	00300613          	li	a2,3
   117dc:	000c8513          	mv	a0,s9
   117e0:	000265b7          	lui	a1,0x26
   117e4:	54958593          	addi	a1,a1,1353 # 26549 <cdjpeg_message_table+0x821>
   117e8:	4c1020ef          	jal	144a8 <keymatch>
   117ec:	00050663          	beqz	a0,117f8 <parse_switches+0x490>
   117f0:	0609a223          	sw	zero,100(s3)
   117f4:	c31ff06f          	j	11424 <parse_switches+0xbc>
   117f8:	00300613          	li	a2,3
   117fc:	000c8513          	mv	a0,s9
   11800:	000265b7          	lui	a1,0x26
   11804:	55258593          	addi	a1,a1,1362 # 26552 <cdjpeg_message_table+0x82a>
   11808:	4a1020ef          	jal	144a8 <keymatch>
   1180c:	00050663          	beqz	a0,11818 <parse_switches+0x4b0>
   11810:	0609aa23          	sw	zero,116(s3)
   11814:	c11ff06f          	j	11424 <parse_switches+0xbc>
   11818:	00300613          	li	a2,3
   1181c:	000c8513          	mv	a0,s9
   11820:	000265b7          	lui	a1,0x26
   11824:	55a58593          	addi	a1,a1,1370 # 2655a <cdjpeg_message_table+0x832>
   11828:	481020ef          	jal	144a8 <keymatch>
   1182c:	00050863          	beqz	a0,1183c <parse_switches+0x4d4>
   11830:	00200513          	li	a0,2
   11834:	84a1ac23          	sw	a0,-1960(gp) # 2a110 <requested_fmt>
   11838:	bedff06f          	j	11424 <parse_switches+0xbc>
   1183c:	00400613          	li	a2,4
   11840:	000c8513          	mv	a0,s9
   11844:	000265b7          	lui	a1,0x26
   11848:	55e58593          	addi	a1,a1,1374 # 2655e <cdjpeg_message_table+0x836>
   1184c:	45d020ef          	jal	144a8 <keymatch>
   11850:	02050063          	beqz	a0,11870 <parse_switches+0x508>
   11854:	001d8d9b          	addiw	s11,s11,1
   11858:	112dde63          	bge	s11,s2,11974 <parse_switches+0x60c>
   1185c:	003d9513          	slli	a0,s11,0x3
   11860:	00a48533          	add	a0,s1,a0
   11864:	00053503          	ld	a0,0(a0)
   11868:	84a1b823          	sd	a0,-1968(gp) # 2a108 <outfilename>
   1186c:	bb9ff06f          	j	11424 <parse_switches+0xbc>
   11870:	00100613          	li	a2,1
   11874:	000c8513          	mv	a0,s9
   11878:	000265b7          	lui	a1,0x26
   1187c:	56658593          	addi	a1,a1,1382 # 26566 <cdjpeg_message_table+0x83e>
   11880:	429020ef          	jal	144a8 <keymatch>
   11884:	00051e63          	bnez	a0,118a0 <parse_switches+0x538>
   11888:	00100613          	li	a2,1
   1188c:	000c8513          	mv	a0,s9
   11890:	000265b7          	lui	a1,0x26
   11894:	56a58593          	addi	a1,a1,1386 # 2656a <cdjpeg_message_table+0x842>
   11898:	411020ef          	jal	144a8 <keymatch>
   1189c:	00050663          	beqz	a0,118a8 <parse_switches+0x540>
   118a0:	00300513          	li	a0,3
   118a4:	f91ff06f          	j	11834 <parse_switches+0x4cc>
   118a8:	00100613          	li	a2,1
   118ac:	000c8513          	mv	a0,s9
   118b0:	000265b7          	lui	a1,0x26
   118b4:	56e58593          	addi	a1,a1,1390 # 2656e <cdjpeg_message_table+0x846>
   118b8:	3f1020ef          	jal	144a8 <keymatch>
   118bc:	00050663          	beqz	a0,118c8 <parse_switches+0x560>
   118c0:	00400513          	li	a0,4
   118c4:	f71ff06f          	j	11834 <parse_switches+0x4cc>
   118c8:	00100613          	li	a2,1
   118cc:	000c8513          	mv	a0,s9
   118d0:	000265b7          	lui	a1,0x26
   118d4:	52558593          	addi	a1,a1,1317 # 26525 <cdjpeg_message_table+0x7fd>
   118d8:	3d1020ef          	jal	144a8 <keymatch>
   118dc:	02050c63          	beqz	a0,11914 <parse_switches+0x5ac>
   118e0:	001d8d9b          	addiw	s11,s11,1
   118e4:	092dd863          	bge	s11,s2,11974 <parse_switches+0x60c>
   118e8:	003d9513          	slli	a0,s11,0x3
   118ec:	00a48533          	add	a0,s1,a0
   118f0:	00053503          	ld	a0,0(a0)
   118f4:	000265b7          	lui	a1,0x26
   118f8:	57258593          	addi	a1,a1,1394 # 26572 <cdjpeg_message_table+0x84a>
   118fc:	01013603          	ld	a2,16(sp)
   11900:	00813683          	ld	a3,8(sp)
   11904:	a5cff0ef          	jal	10b60 <__isoc99_sscanf@plt>
   11908:	00200593          	li	a1,2
   1190c:	b0b50ce3          	beq	a0,a1,11424 <parse_switches+0xbc>
   11910:	0640006f          	j	11974 <parse_switches+0x60c>
   11914:	00100613          	li	a2,1
   11918:	000c8513          	mv	a0,s9
   1191c:	000265b7          	lui	a1,0x26
   11920:	40d58593          	addi	a1,a1,1037 # 2640d <cdjpeg_message_table+0x6e5>
   11924:	385020ef          	jal	144a8 <keymatch>
   11928:	04050663          	beqz	a0,11974 <parse_switches+0x60c>
   1192c:	00500513          	li	a0,5
   11930:	f05ff06f          	j	11834 <parse_switches+0x4cc>
   11934:	000d8513          	mv	a0,s11
   11938:	09813083          	ld	ra,152(sp)
   1193c:	09013403          	ld	s0,144(sp)
   11940:	08813483          	ld	s1,136(sp)
   11944:	08013903          	ld	s2,128(sp)
   11948:	07813983          	ld	s3,120(sp)
   1194c:	07013a03          	ld	s4,112(sp)
   11950:	06813a83          	ld	s5,104(sp)
   11954:	06013b03          	ld	s6,96(sp)
   11958:	05813b83          	ld	s7,88(sp)
   1195c:	05013c03          	ld	s8,80(sp)
   11960:	04813c83          	ld	s9,72(sp)
   11964:	04013d03          	ld	s10,64(sp)
   11968:	03813d83          	ld	s11,56(sp)
   1196c:	0a010113          	addi	sp,sp,160
   11970:	00008067          	ret
   11974:	028000ef          	jal	1199c <usage>
   11978:	8681b503          	ld	a0,-1944(gp) # 2a120 <stderr@GLIBC_2.27>
   1197c:	8481b603          	ld	a2,-1976(gp) # 2a100 <progname>
   11980:	00013583          	ld	a1,0(sp)
   11984:	0005b683          	ld	a3,0(a1)
   11988:	000265b7          	lui	a1,0x26
   1198c:	eaa58593          	addi	a1,a1,-342 # 25eaa <cdjpeg_message_table+0x182>
   11990:	980ff0ef          	jal	10b10 <fprintf@plt>
   11994:	00100513          	li	a0,1
   11998:	a58ff0ef          	jal	10bf0 <exit@plt>

000000000001199c <usage>:
   1199c:	fe010113          	addi	sp,sp,-32
   119a0:	00113c23          	sd	ra,24(sp)
   119a4:	00813823          	sd	s0,16(sp)
   119a8:	00913423          	sd	s1,8(sp)
   119ac:	01213023          	sd	s2,0(sp)
   119b0:	8681b503          	ld	a0,-1944(gp) # 2a120 <stderr@GLIBC_2.27>
   119b4:	8481b603          	ld	a2,-1976(gp) # 2a100 <progname>
   119b8:	000265b7          	lui	a1,0x26
   119bc:	57858593          	addi	a1,a1,1400 # 26578 <cdjpeg_message_table+0x850>
   119c0:	950ff0ef          	jal	10b10 <fprintf@plt>
   119c4:	8681b683          	ld	a3,-1944(gp) # 2a120 <stderr@GLIBC_2.27>
   119c8:	00026537          	lui	a0,0x26
   119cc:	58e50513          	addi	a0,a0,1422 # 2658e <cdjpeg_message_table+0x866>
   119d0:	00c00593          	li	a1,12
   119d4:	00100613          	li	a2,1
   119d8:	958ff0ef          	jal	10b30 <fwrite@plt>
   119dc:	8681b683          	ld	a3,-1944(gp) # 2a120 <stderr@GLIBC_2.27>
   119e0:	00026537          	lui	a0,0x26
   119e4:	59b50513          	addi	a0,a0,1435 # 2659b <cdjpeg_message_table+0x873>
   119e8:	02500593          	li	a1,37
   119ec:	00100613          	li	a2,1
   119f0:	940ff0ef          	jal	10b30 <fwrite@plt>
   119f4:	8681b683          	ld	a3,-1944(gp) # 2a120 <stderr@GLIBC_2.27>
   119f8:	00026537          	lui	a0,0x26
   119fc:	5c150513          	addi	a0,a0,1473 # 265c1 <cdjpeg_message_table+0x899>
   11a00:	03700593          	li	a1,55
   11a04:	00100613          	li	a2,1
   11a08:	928ff0ef          	jal	10b30 <fwrite@plt>
   11a0c:	8681b683          	ld	a3,-1944(gp) # 2a120 <stderr@GLIBC_2.27>
   11a10:	00026537          	lui	a0,0x26
   11a14:	5f950513          	addi	a0,a0,1529 # 265f9 <cdjpeg_message_table+0x8d1>
   11a18:	02e00593          	li	a1,46
   11a1c:	00100613          	li	a2,1
   11a20:	910ff0ef          	jal	10b30 <fwrite@plt>
   11a24:	8681b683          	ld	a3,-1944(gp) # 2a120 <stderr@GLIBC_2.27>
   11a28:	00026537          	lui	a0,0x26
   11a2c:	62850513          	addi	a0,a0,1576 # 26628 <cdjpeg_message_table+0x900>
   11a30:	02800593          	li	a1,40
   11a34:	00100613          	li	a2,1
   11a38:	8f8ff0ef          	jal	10b30 <fwrite@plt>
   11a3c:	8681b683          	ld	a3,-1944(gp) # 2a120 <stderr@GLIBC_2.27>
   11a40:	00026537          	lui	a0,0x26
   11a44:	65150513          	addi	a0,a0,1617 # 26651 <cdjpeg_message_table+0x929>
   11a48:	03d00593          	li	a1,61
   11a4c:	00100613          	li	a2,1
   11a50:	8e0ff0ef          	jal	10b30 <fwrite@plt>
   11a54:	8681b503          	ld	a0,-1944(gp) # 2a120 <stderr@GLIBC_2.27>
   11a58:	000265b7          	lui	a1,0x26
   11a5c:	68f58593          	addi	a1,a1,1679 # 2668f <cdjpeg_message_table+0x967>
   11a60:	00026437          	lui	s0,0x26
   11a64:	eed40413          	addi	s0,s0,-275 # 25eed <cdjpeg_message_table+0x1c5>
   11a68:	00040613          	mv	a2,s0
   11a6c:	8a4ff0ef          	jal	10b10 <fprintf@plt>
   11a70:	8681b503          	ld	a0,-1944(gp) # 2a120 <stderr@GLIBC_2.27>
   11a74:	000265b7          	lui	a1,0x26
   11a78:	6cc58593          	addi	a1,a1,1740 # 266cc <cdjpeg_message_table+0x9a4>
   11a7c:	00040613          	mv	a2,s0
   11a80:	890ff0ef          	jal	10b10 <fprintf@plt>
   11a84:	8681b503          	ld	a0,-1944(gp) # 2a120 <stderr@GLIBC_2.27>
   11a88:	000265b7          	lui	a1,0x26
   11a8c:	6f958593          	addi	a1,a1,1785 # 266f9 <cdjpeg_message_table+0x9d1>
   11a90:	00040613          	mv	a2,s0
   11a94:	87cff0ef          	jal	10b10 <fprintf@plt>
   11a98:	8681b503          	ld	a0,-1944(gp) # 2a120 <stderr@GLIBC_2.27>
   11a9c:	000265b7          	lui	a1,0x26
   11aa0:	73358593          	addi	a1,a1,1843 # 26733 <cdjpeg_message_table+0xa0b>
   11aa4:	000264b7          	lui	s1,0x26
   11aa8:	76e48493          	addi	s1,s1,1902 # 2676e <cdjpeg_message_table+0xa46>
   11aac:	00048613          	mv	a2,s1
   11ab0:	860ff0ef          	jal	10b10 <fprintf@plt>
   11ab4:	8681b503          	ld	a0,-1944(gp) # 2a120 <stderr@GLIBC_2.27>
   11ab8:	000265b7          	lui	a1,0x26
   11abc:	77958593          	addi	a1,a1,1913 # 26779 <cdjpeg_message_table+0xa51>
   11ac0:	00040613          	mv	a2,s0
   11ac4:	84cff0ef          	jal	10b10 <fprintf@plt>
   11ac8:	8681b683          	ld	a3,-1944(gp) # 2a120 <stderr@GLIBC_2.27>
   11acc:	00026537          	lui	a0,0x26
   11ad0:	7a850513          	addi	a0,a0,1960 # 267a8 <cdjpeg_message_table+0xa80>
   11ad4:	01d00593          	li	a1,29
   11ad8:	00100613          	li	a2,1
   11adc:	854ff0ef          	jal	10b30 <fwrite@plt>
   11ae0:	8681b503          	ld	a0,-1944(gp) # 2a120 <stderr@GLIBC_2.27>
   11ae4:	000265b7          	lui	a1,0x26
   11ae8:	7c658593          	addi	a1,a1,1990 # 267c6 <cdjpeg_message_table+0xa9e>
   11aec:	00048613          	mv	a2,s1
   11af0:	820ff0ef          	jal	10b10 <fprintf@plt>
   11af4:	8681b503          	ld	a0,-1944(gp) # 2a120 <stderr@GLIBC_2.27>
   11af8:	000265b7          	lui	a1,0x26
   11afc:	7f158593          	addi	a1,a1,2033 # 267f1 <cdjpeg_message_table+0xac9>
   11b00:	00040613          	mv	a2,s0
   11b04:	80cff0ef          	jal	10b10 <fprintf@plt>
   11b08:	8681b503          	ld	a0,-1944(gp) # 2a120 <stderr@GLIBC_2.27>
   11b0c:	000275b7          	lui	a1,0x27
   11b10:	82a58593          	addi	a1,a1,-2006 # 2682a <cdjpeg_message_table+0xb02>
   11b14:	00040613          	mv	a2,s0
   11b18:	ff9fe0ef          	jal	10b10 <fprintf@plt>
   11b1c:	8681b683          	ld	a3,-1944(gp) # 2a120 <stderr@GLIBC_2.27>
   11b20:	00027537          	lui	a0,0x27
   11b24:	85c50513          	addi	a0,a0,-1956 # 2685c <cdjpeg_message_table+0xb34>
   11b28:	02d00593          	li	a1,45
   11b2c:	00100613          	li	a2,1
   11b30:	800ff0ef          	jal	10b30 <fwrite@plt>
   11b34:	8681b683          	ld	a3,-1944(gp) # 2a120 <stderr@GLIBC_2.27>
   11b38:	00027537          	lui	a0,0x27
   11b3c:	88a50513          	addi	a0,a0,-1910 # 2688a <cdjpeg_message_table+0xb62>
   11b40:	03500593          	li	a1,53
   11b44:	00100613          	li	a2,1
   11b48:	fe9fe0ef          	jal	10b30 <fwrite@plt>
   11b4c:	8681b683          	ld	a3,-1944(gp) # 2a120 <stderr@GLIBC_2.27>
   11b50:	00027537          	lui	a0,0x27
   11b54:	8c050513          	addi	a0,a0,-1856 # 268c0 <cdjpeg_message_table+0xb98>
   11b58:	03e00593          	li	a1,62
   11b5c:	00100613          	li	a2,1
   11b60:	fd1fe0ef          	jal	10b30 <fwrite@plt>
   11b64:	8681b683          	ld	a3,-1944(gp) # 2a120 <stderr@GLIBC_2.27>
   11b68:	00027537          	lui	a0,0x27
   11b6c:	8ff50513          	addi	a0,a0,-1793 # 268ff <cdjpeg_message_table+0xbd7>
   11b70:	03800593          	li	a1,56
   11b74:	00100613          	li	a2,1
   11b78:	fb9fe0ef          	jal	10b30 <fwrite@plt>
   11b7c:	8681b683          	ld	a3,-1944(gp) # 2a120 <stderr@GLIBC_2.27>
   11b80:	00027537          	lui	a0,0x27
   11b84:	93850513          	addi	a0,a0,-1736 # 26938 <cdjpeg_message_table+0xc10>
   11b88:	03300593          	li	a1,51
   11b8c:	00100613          	li	a2,1
   11b90:	fa1fe0ef          	jal	10b30 <fwrite@plt>
   11b94:	8681b683          	ld	a3,-1944(gp) # 2a120 <stderr@GLIBC_2.27>
   11b98:	00027537          	lui	a0,0x27
   11b9c:	96c50513          	addi	a0,a0,-1684 # 2696c <cdjpeg_message_table+0xc44>
   11ba0:	03d00593          	li	a1,61
   11ba4:	00100613          	li	a2,1
   11ba8:	f89fe0ef          	jal	10b30 <fwrite@plt>
   11bac:	8681b683          	ld	a3,-1944(gp) # 2a120 <stderr@GLIBC_2.27>
   11bb0:	00027537          	lui	a0,0x27
   11bb4:	9aa50513          	addi	a0,a0,-1622 # 269aa <cdjpeg_message_table+0xc82>
   11bb8:	03300593          	li	a1,51
   11bbc:	00100613          	li	a2,1
   11bc0:	f71fe0ef          	jal	10b30 <fwrite@plt>
   11bc4:	8681b683          	ld	a3,-1944(gp) # 2a120 <stderr@GLIBC_2.27>
   11bc8:	00027537          	lui	a0,0x27
   11bcc:	9de50513          	addi	a0,a0,-1570 # 269de <cdjpeg_message_table+0xcb6>
   11bd0:	02e00593          	li	a1,46
   11bd4:	00100613          	li	a2,1
   11bd8:	f59fe0ef          	jal	10b30 <fwrite@plt>
   11bdc:	8681b683          	ld	a3,-1944(gp) # 2a120 <stderr@GLIBC_2.27>
   11be0:	00027537          	lui	a0,0x27
   11be4:	a0d50513          	addi	a0,a0,-1523 # 26a0d <cdjpeg_message_table+0xce5>
   11be8:	02b00593          	li	a1,43
   11bec:	00100613          	li	a2,1
   11bf0:	f41fe0ef          	jal	10b30 <fwrite@plt>
   11bf4:	00100513          	li	a0,1
   11bf8:	ff9fe0ef          	jal	10bf0 <exit@plt>

0000000000011bfc <jinit_write_ppm>:
   11bfc:	fe010113          	addi	sp,sp,-32
   11c00:	00113c23          	sd	ra,24(sp)
   11c04:	00813823          	sd	s0,16(sp)
   11c08:	00913423          	sd	s1,8(sp)
   11c0c:	01213023          	sd	s2,0(sp)
   11c10:	00050493          	mv	s1,a0
   11c14:	00853503          	ld	a0,8(a0)
   11c18:	00053683          	ld	a3,0(a0)
   11c1c:	00100593          	li	a1,1
   11c20:	05000613          	li	a2,80
   11c24:	00100913          	li	s2,1
   11c28:	00048513          	mv	a0,s1
   11c2c:	000680e7          	jalr	a3
   11c30:	00050413          	mv	s0,a0
   11c34:	00012537          	lui	a0,0x12
   11c38:	d2c50513          	addi	a0,a0,-724 # 11d2c <start_output_ppm>
   11c3c:	00a43023          	sd	a0,0(s0)
   11c40:	00012537          	lui	a0,0x12
   11c44:	d9450513          	addi	a0,a0,-620 # 11d94 <finish_output_ppm>
   11c48:	00a43823          	sd	a0,16(s0)
   11c4c:	00048513          	mv	a0,s1
   11c50:	7dc030ef          	jal	1542c <jpeg_calc_output_dimensions>
   11c54:	0884a503          	lw	a0,136(s1)
   11c58:	0904a583          	lw	a1,144(s1)
   11c5c:	0084b603          	ld	a2,8(s1)
   11c60:	02a58533          	mul	a0,a1,a0
   11c64:	04a42423          	sw	a0,72(s0)
   11c68:	00063683          	ld	a3,0(a2)
   11c6c:	02051513          	slli	a0,a0,0x20
   11c70:	02055613          	srli	a2,a0,0x20
   11c74:	04c43023          	sd	a2,64(s0)
   11c78:	00100593          	li	a1,1
   11c7c:	00048513          	mv	a0,s1
   11c80:	000680e7          	jalr	a3
   11c84:	06c4a583          	lw	a1,108(s1)
   11c88:	02a43823          	sd	a0,48(s0)
   11c8c:	04058863          	beqz	a1,11cdc <jinit_write_ppm+0xe0>
   11c90:	0084b503          	ld	a0,8(s1)
   11c94:	0884a583          	lw	a1,136(s1)
   11c98:	0944a603          	lw	a2,148(s1)
   11c9c:	01053703          	ld	a4,16(a0)
   11ca0:	02b6063b          	mulw	a2,a2,a1
   11ca4:	00100593          	li	a1,1
   11ca8:	00100693          	li	a3,1
   11cac:	00048513          	mv	a0,s1
   11cb0:	000700e7          	jalr	a4
   11cb4:	06c4a583          	lw	a1,108(s1)
   11cb8:	02a43023          	sd	a0,32(s0)
   11cbc:	03242423          	sw	s2,40(s0)
   11cc0:	02058c63          	beqz	a1,11cf8 <jinit_write_ppm+0xfc>
   11cc4:	0404a503          	lw	a0,64(s1)
   11cc8:	00100593          	li	a1,1
   11ccc:	02b51c63          	bne	a0,a1,11d04 <jinit_write_ppm+0x108>
   11cd0:	00012537          	lui	a0,0x12
   11cd4:	e5450513          	addi	a0,a0,-428 # 11e54 <put_demapped_gray>
   11cd8:	0340006f          	j	11d0c <jinit_write_ppm+0x110>
   11cdc:	03840593          	addi	a1,s0,56
   11ce0:	02a43c23          	sd	a0,56(s0)
   11ce4:	02b43023          	sd	a1,32(s0)
   11ce8:	03242423          	sw	s2,40(s0)
   11cec:	00012537          	lui	a0,0x12
   11cf0:	f4c50513          	addi	a0,a0,-180 # 11f4c <put_pixel_rows>
   11cf4:	0180006f          	j	11d0c <jinit_write_ppm+0x110>
   11cf8:	00012537          	lui	a0,0x12
   11cfc:	e0050513          	addi	a0,a0,-512 # 11e00 <copy_pixel_rows>
   11d00:	00c0006f          	j	11d0c <jinit_write_ppm+0x110>
   11d04:	00012537          	lui	a0,0x12
   11d08:	ec050513          	addi	a0,a0,-320 # 11ec0 <put_demapped_rgb>
   11d0c:	00a43423          	sd	a0,8(s0)
   11d10:	00040513          	mv	a0,s0
   11d14:	01813083          	ld	ra,24(sp)
   11d18:	01013403          	ld	s0,16(sp)
   11d1c:	00813483          	ld	s1,8(sp)
   11d20:	00013903          	ld	s2,0(sp)
   11d24:	02010113          	addi	sp,sp,32
   11d28:	00008067          	ret

0000000000011d2c <start_output_ppm>:
   11d2c:	04052603          	lw	a2,64(a0)
   11d30:	00200693          	li	a3,2
   11d34:	02d60663          	beq	a2,a3,11d60 <start_output_ppm+0x34>
   11d38:	00100693          	li	a3,1
   11d3c:	04d61263          	bne	a2,a3,11d80 <start_output_ppm+0x54>
   11d40:	0185b783          	ld	a5,24(a1)
   11d44:	08856603          	lwu	a2,136(a0)
   11d48:	08c56683          	lwu	a3,140(a0)
   11d4c:	000275b7          	lui	a1,0x27
   11d50:	a3958593          	addi	a1,a1,-1479 # 26a39 <cdjpeg_message_table+0xd11>
   11d54:	0ff00713          	li	a4,255
   11d58:	00078513          	mv	a0,a5
   11d5c:	db5fe06f          	j	10b10 <fprintf@plt>
   11d60:	0185b783          	ld	a5,24(a1)
   11d64:	08856603          	lwu	a2,136(a0)
   11d68:	08c56683          	lwu	a3,140(a0)
   11d6c:	000275b7          	lui	a1,0x27
   11d70:	a4858593          	addi	a1,a1,-1464 # 26a48 <cdjpeg_message_table+0xd20>
   11d74:	0ff00713          	li	a4,255
   11d78:	00078513          	mv	a0,a5
   11d7c:	d95fe06f          	j	10b10 <fprintf@plt>
   11d80:	00053583          	ld	a1,0(a0)
   11d84:	0005b303          	ld	t1,0(a1)
   11d88:	40100613          	li	a2,1025
   11d8c:	02c5a423          	sw	a2,40(a1)
   11d90:	00030067          	jr	t1

0000000000011d94 <finish_output_ppm>:
   11d94:	fe010113          	addi	sp,sp,-32
   11d98:	00113c23          	sd	ra,24(sp)
   11d9c:	00813823          	sd	s0,16(sp)
   11da0:	00913423          	sd	s1,8(sp)
   11da4:	00058493          	mv	s1,a1
   11da8:	0185b583          	ld	a1,24(a1)
   11dac:	00050413          	mv	s0,a0
   11db0:	00058513          	mv	a0,a1
   11db4:	dcdfe0ef          	jal	10b80 <fflush@plt>
   11db8:	0184b503          	ld	a0,24(s1)
   11dbc:	e85fe0ef          	jal	10c40 <ferror@plt>
   11dc0:	02050663          	beqz	a0,11dec <finish_output_ppm+0x58>
   11dc4:	00043503          	ld	a0,0(s0)
   11dc8:	00053303          	ld	t1,0(a0)
   11dcc:	02500593          	li	a1,37
   11dd0:	02b52423          	sw	a1,40(a0)
   11dd4:	00040513          	mv	a0,s0
   11dd8:	01813083          	ld	ra,24(sp)
   11ddc:	01013403          	ld	s0,16(sp)
   11de0:	00813483          	ld	s1,8(sp)
   11de4:	02010113          	addi	sp,sp,32
   11de8:	00030067          	jr	t1
   11dec:	01813083          	ld	ra,24(sp)
   11df0:	01013403          	ld	s0,16(sp)
   11df4:	00813483          	ld	s1,8(sp)
   11df8:	02010113          	addi	sp,sp,32
   11dfc:	00008067          	ret

0000000000011e00 <copy_pixel_rows>:
   11e00:	0485a683          	lw	a3,72(a1)
   11e04:	0305b503          	ld	a0,48(a1)
   11e08:	02068e63          	beqz	a3,11e44 <copy_pixel_rows+0x44>
   11e0c:	0205b603          	ld	a2,32(a1)
   11e10:	00063603          	ld	a2,0(a2)
   11e14:	fff68693          	addi	a3,a3,-1
   11e18:	02069693          	slli	a3,a3,0x20
   11e1c:	0206d693          	srli	a3,a3,0x20
   11e20:	00a686b3          	add	a3,a3,a0
   11e24:	00168693          	addi	a3,a3,1
   11e28:	00064703          	lbu	a4,0(a2)
   11e2c:	00160613          	addi	a2,a2,1
   11e30:	00150793          	addi	a5,a0,1
   11e34:	00e50023          	sb	a4,0(a0)
   11e38:	00078513          	mv	a0,a5
   11e3c:	fed796e3          	bne	a5,a3,11e28 <copy_pixel_rows+0x28>
   11e40:	0305b503          	ld	a0,48(a1)
   11e44:	0405b603          	ld	a2,64(a1)
   11e48:	0185b683          	ld	a3,24(a1)
   11e4c:	00100593          	li	a1,1
   11e50:	ce1fe06f          	j	10b30 <fwrite@plt>

0000000000011e54 <put_demapped_gray>:
   11e54:	00050613          	mv	a2,a0
   11e58:	08852703          	lw	a4,136(a0)
   11e5c:	0305b503          	ld	a0,48(a1)
   11e60:	04070863          	beqz	a4,11eb0 <put_demapped_gray+0x5c>
   11e64:	0a063603          	ld	a2,160(a2)
   11e68:	0205b683          	ld	a3,32(a1)
   11e6c:	00063603          	ld	a2,0(a2)
   11e70:	0006b683          	ld	a3,0(a3)
   11e74:	fff70713          	addi	a4,a4,-1
   11e78:	02071713          	slli	a4,a4,0x20
   11e7c:	02075713          	srli	a4,a4,0x20
   11e80:	00d70733          	add	a4,a4,a3
   11e84:	00170713          	addi	a4,a4,1
   11e88:	0006c783          	lbu	a5,0(a3)
   11e8c:	00f607b3          	add	a5,a2,a5
   11e90:	0007c783          	lbu	a5,0(a5)
   11e94:	00168813          	addi	a6,a3,1
   11e98:	00150693          	addi	a3,a0,1
   11e9c:	00f50023          	sb	a5,0(a0)
   11ea0:	00068513          	mv	a0,a3
   11ea4:	00080693          	mv	a3,a6
   11ea8:	fee810e3          	bne	a6,a4,11e88 <put_demapped_gray+0x34>
   11eac:	0305b503          	ld	a0,48(a1)
   11eb0:	0405b603          	ld	a2,64(a1)
   11eb4:	0185b683          	ld	a3,24(a1)
   11eb8:	00100593          	li	a1,1
   11ebc:	c75fe06f          	j	10b30 <fwrite@plt>

0000000000011ec0 <put_demapped_rgb>:
   11ec0:	00050613          	mv	a2,a0
   11ec4:	08852803          	lw	a6,136(a0)
   11ec8:	0305b503          	ld	a0,48(a1)
   11ecc:	06080863          	beqz	a6,11f3c <put_demapped_rgb+0x7c>
   11ed0:	0a063703          	ld	a4,160(a2)
   11ed4:	0205b783          	ld	a5,32(a1)
   11ed8:	00073603          	ld	a2,0(a4)
   11edc:	00873683          	ld	a3,8(a4)
   11ee0:	01073703          	ld	a4,16(a4)
   11ee4:	0007b783          	ld	a5,0(a5)
   11ee8:	fff80813          	addi	a6,a6,-1
   11eec:	02081813          	slli	a6,a6,0x20
   11ef0:	02085813          	srli	a6,a6,0x20
   11ef4:	00f80833          	add	a6,a6,a5
   11ef8:	00180813          	addi	a6,a6,1
   11efc:	0007c883          	lbu	a7,0(a5)
   11f00:	011602b3          	add	t0,a2,a7
   11f04:	0002c283          	lbu	t0,0(t0)
   11f08:	00550023          	sb	t0,0(a0)
   11f0c:	011682b3          	add	t0,a3,a7
   11f10:	0002c283          	lbu	t0,0(t0)
   11f14:	005500a3          	sb	t0,1(a0)
   11f18:	011708b3          	add	a7,a4,a7
   11f1c:	0008c883          	lbu	a7,0(a7)
   11f20:	00178293          	addi	t0,a5,1
   11f24:	00350793          	addi	a5,a0,3
   11f28:	01150123          	sb	a7,2(a0)
   11f2c:	00078513          	mv	a0,a5
   11f30:	00028793          	mv	a5,t0
   11f34:	fd0294e3          	bne	t0,a6,11efc <put_demapped_rgb+0x3c>
   11f38:	0305b503          	ld	a0,48(a1)
   11f3c:	0405b603          	ld	a2,64(a1)
   11f40:	0185b683          	ld	a3,24(a1)
   11f44:	00100593          	li	a1,1
   11f48:	be9fe06f          	j	10b30 <fwrite@plt>

0000000000011f4c <put_pixel_rows>:
   11f4c:	0305b503          	ld	a0,48(a1)
   11f50:	0405b603          	ld	a2,64(a1)
   11f54:	0185b683          	ld	a3,24(a1)
   11f58:	00100593          	li	a1,1
   11f5c:	bd5fe06f          	j	10b30 <fwrite@plt>

0000000000011f60 <jinit_write_gif>:
   11f60:	fe010113          	addi	sp,sp,-32
   11f64:	00113c23          	sd	ra,24(sp)
   11f68:	00813823          	sd	s0,16(sp)
   11f6c:	00913423          	sd	s1,8(sp)
   11f70:	01213023          	sd	s2,0(sp)
   11f74:	00050413          	mv	s0,a0
   11f78:	00853503          	ld	a0,8(a0)
   11f7c:	00053683          	ld	a3,0(a0)
   11f80:	00100593          	li	a1,1
   11f84:	16000613          	li	a2,352
   11f88:	00100913          	li	s2,1
   11f8c:	00040513          	mv	a0,s0
   11f90:	000680e7          	jalr	a3
   11f94:	00050493          	mv	s1,a0
   11f98:	02853823          	sd	s0,48(a0)
   11f9c:	00012537          	lui	a0,0x12
   11fa0:	08050513          	addi	a0,a0,128 # 12080 <start_output_gif>
   11fa4:	00a4b023          	sd	a0,0(s1)
   11fa8:	04042503          	lw	a0,64(s0)
   11fac:	000125b7          	lui	a1,0x12
   11fb0:	0a858593          	addi	a1,a1,168 # 120a8 <put_pixel_rows>
   11fb4:	00b4b423          	sd	a1,8(s1)
   11fb8:	000125b7          	lui	a1,0x12
   11fbc:	2a858593          	addi	a1,a1,680 # 122a8 <finish_output_gif>
   11fc0:	fff5061b          	addiw	a2,a0,-1
   11fc4:	00b4b823          	sd	a1,16(s1)
   11fc8:	02c97063          	bgeu	s2,a2,11fe8 <jinit_write_gif+0x88>
   11fcc:	00043503          	ld	a0,0(s0)
   11fd0:	00053583          	ld	a1,0(a0)
   11fd4:	3f600613          	li	a2,1014
   11fd8:	02c52423          	sw	a2,40(a0)
   11fdc:	00040513          	mv	a0,s0
   11fe0:	000580e7          	jalr	a1
   11fe4:	04042503          	lw	a0,64(s0)
   11fe8:	01251863          	bne	a0,s2,11ff8 <jinit_write_gif+0x98>
   11fec:	12842503          	lw	a0,296(s0)
   11ff0:	00900593          	li	a1,9
   11ff4:	02b54063          	blt	a0,a1,12014 <jinit_write_gif+0xb4>
   11ff8:	07842503          	lw	a0,120(s0)
   11ffc:	00100593          	li	a1,1
   12000:	10100613          	li	a2,257
   12004:	06b42623          	sw	a1,108(s0)
   12008:	00c54663          	blt	a0,a2,12014 <jinit_write_gif+0xb4>
   1200c:	10000513          	li	a0,256
   12010:	06a42c23          	sw	a0,120(s0)
   12014:	00040513          	mv	a0,s0
   12018:	414030ef          	jal	1542c <jpeg_calc_output_dimensions>
   1201c:	09442503          	lw	a0,148(s0)
   12020:	00100913          	li	s2,1
   12024:	01250e63          	beq	a0,s2,12040 <jinit_write_gif+0xe0>
   12028:	00043503          	ld	a0,0(s0)
   1202c:	00053583          	ld	a1,0(a0)
   12030:	3f400613          	li	a2,1012
   12034:	02c52423          	sw	a2,40(a0)
   12038:	00040513          	mv	a0,s0
   1203c:	000580e7          	jalr	a1
   12040:	00843503          	ld	a0,8(s0)
   12044:	01053703          	ld	a4,16(a0)
   12048:	08842603          	lw	a2,136(s0)
   1204c:	00100593          	li	a1,1
   12050:	00100693          	li	a3,1
   12054:	00040513          	mv	a0,s0
   12058:	000700e7          	jalr	a4
   1205c:	02a4b023          	sd	a0,32(s1)
   12060:	0324a423          	sw	s2,40(s1)
   12064:	00048513          	mv	a0,s1
   12068:	01813083          	ld	ra,24(sp)
   1206c:	01013403          	ld	s0,16(sp)
   12070:	00813483          	ld	s1,8(sp)
   12074:	00013903          	ld	s2,0(sp)
   12078:	02010113          	addi	sp,sp,32
   1207c:	00008067          	ret

0000000000012080 <start_output_gif>:
   12080:	00050613          	mv	a2,a0
   12084:	06c52683          	lw	a3,108(a0)
   12088:	00058513          	mv	a0,a1
   1208c:	00068863          	beqz	a3,1209c <start_output_gif+0x1c>
   12090:	09c62583          	lw	a1,156(a2)
   12094:	0a063603          	ld	a2,160(a2)
   12098:	3f40006f          	j	1248c <emit_header>
   1209c:	10000593          	li	a1,256
   120a0:	00000613          	li	a2,0
   120a4:	3e80006f          	j	1248c <emit_header>

00000000000120a8 <put_pixel_rows>:
   120a8:	fb010113          	addi	sp,sp,-80
   120ac:	04113423          	sd	ra,72(sp)
   120b0:	04813023          	sd	s0,64(sp)
   120b4:	02913c23          	sd	s1,56(sp)
   120b8:	03213823          	sd	s2,48(sp)
   120bc:	03313423          	sd	s3,40(sp)
   120c0:	03413023          	sd	s4,32(sp)
   120c4:	01513c23          	sd	s5,24(sp)
   120c8:	01613823          	sd	s6,16(sp)
   120cc:	01713423          	sd	s7,8(sp)
   120d0:	08852903          	lw	s2,136(a0)
   120d4:	1a090463          	beqz	s2,1227c <put_pixel_rows+0x1d4>
   120d8:	00058413          	mv	s0,a1
   120dc:	0205b503          	ld	a0,32(a1)
   120e0:	00053983          	ld	s3,0(a0)
   120e4:	05c58493          	addi	s1,a1,92
   120e8:	0485a583          	lw	a1,72(a1)
   120ec:	04043503          	ld	a0,64(s0)
   120f0:	00800a13          	li	s4,8
   120f4:	0ff00a93          	li	s5,255
   120f8:	02500b13          	li	s6,37
   120fc:	00f00b93          	li	s7,15
   12100:	0180006f          	j	12118 <put_pixel_rows+0x70>
   12104:	00160613          	addi	a2,a2,1
   12108:	00198993          	addi	s3,s3,1
   1210c:	fff9091b          	addiw	s2,s2,-1
   12110:	04c42a23          	sw	a2,84(s0)
   12114:	16090463          	beqz	s2,1227c <put_pixel_rows+0x1d4>
   12118:	0009c603          	lbu	a2,0(s3)
   1211c:	03842683          	lw	a3,56(s0)
   12120:	00b61633          	sll	a2,a2,a1
   12124:	00a66533          	or	a0,a2,a0
   12128:	04a43023          	sd	a0,64(s0)
   1212c:	00b685bb          	addw	a1,a3,a1
   12130:	04b42423          	sw	a1,72(s0)
   12134:	0945c263          	blt	a1,s4,121b8 <put_pixel_rows+0x110>
   12138:	05842703          	lw	a4,88(s0)
   1213c:	0280006f          	j	12164 <put_pixel_rows+0xbc>
   12140:	00000713          	li	a4,0
   12144:	04042c23          	sw	zero,88(s0)
   12148:	04043503          	ld	a0,64(s0)
   1214c:	04842603          	lw	a2,72(s0)
   12150:	40855513          	srai	a0,a0,0x8
   12154:	04a43023          	sd	a0,64(s0)
   12158:	ff860593          	addi	a1,a2,-8
   1215c:	04b42423          	sw	a1,72(s0)
   12160:	04cbdc63          	bge	s7,a2,121b8 <put_pixel_rows+0x110>
   12164:	0017071b          	addiw	a4,a4,1
   12168:	04e42c23          	sw	a4,88(s0)
   1216c:	00e48733          	add	a4,s1,a4
   12170:	00a70023          	sb	a0,0(a4)
   12174:	05842703          	lw	a4,88(s0)
   12178:	fd5748e3          	blt	a4,s5,12148 <put_pixel_rows+0xa0>
   1217c:	01843683          	ld	a3,24(s0)
   12180:	0017061b          	addiw	a2,a4,1
   12184:	04c42c23          	sw	a2,88(s0)
   12188:	04e40e23          	sb	a4,92(s0)
   1218c:	00100593          	li	a1,1
   12190:	00048513          	mv	a0,s1
   12194:	99dfe0ef          	jal	10b30 <fwrite@plt>
   12198:	05842583          	lw	a1,88(s0)
   1219c:	fab502e3          	beq	a0,a1,12140 <put_pixel_rows+0x98>
   121a0:	03043503          	ld	a0,48(s0)
   121a4:	00053583          	ld	a1,0(a0)
   121a8:	0005b603          	ld	a2,0(a1)
   121ac:	0365a423          	sw	s6,40(a1)
   121b0:	000600e7          	jalr	a2
   121b4:	f8dff06f          	j	12140 <put_pixel_rows+0x98>
   121b8:	05442603          	lw	a2,84(s0)
   121bc:	03c42683          	lw	a3,60(s0)
   121c0:	f4d642e3          	blt	a2,a3,12104 <put_pixel_rows+0x5c>
   121c4:	04c42603          	lw	a2,76(s0)
   121c8:	03842683          	lw	a3,56(s0)
   121cc:	00b61733          	sll	a4,a2,a1
   121d0:	00a76533          	or	a0,a4,a0
   121d4:	04a43023          	sd	a0,64(s0)
   121d8:	00b685bb          	addw	a1,a3,a1
   121dc:	04b42423          	sw	a1,72(s0)
   121e0:	0945c463          	blt	a1,s4,12268 <put_pixel_rows+0x1c0>
   121e4:	05842703          	lw	a4,88(s0)
   121e8:	0280006f          	j	12210 <put_pixel_rows+0x168>
   121ec:	00000713          	li	a4,0
   121f0:	04042c23          	sw	zero,88(s0)
   121f4:	04043503          	ld	a0,64(s0)
   121f8:	04842603          	lw	a2,72(s0)
   121fc:	40855513          	srai	a0,a0,0x8
   12200:	04a43023          	sd	a0,64(s0)
   12204:	ff860593          	addi	a1,a2,-8
   12208:	04b42423          	sw	a1,72(s0)
   1220c:	04cbdc63          	bge	s7,a2,12264 <put_pixel_rows+0x1bc>
   12210:	0017071b          	addiw	a4,a4,1
   12214:	04e42c23          	sw	a4,88(s0)
   12218:	00e48733          	add	a4,s1,a4
   1221c:	00a70023          	sb	a0,0(a4)
   12220:	05842703          	lw	a4,88(s0)
   12224:	fd5748e3          	blt	a4,s5,121f4 <put_pixel_rows+0x14c>
   12228:	01843683          	ld	a3,24(s0)
   1222c:	0017061b          	addiw	a2,a4,1
   12230:	04c42c23          	sw	a2,88(s0)
   12234:	04e40e23          	sb	a4,92(s0)
   12238:	00100593          	li	a1,1
   1223c:	00048513          	mv	a0,s1
   12240:	8f1fe0ef          	jal	10b30 <fwrite@plt>
   12244:	05842583          	lw	a1,88(s0)
   12248:	fab502e3          	beq	a0,a1,121ec <put_pixel_rows+0x144>
   1224c:	03043503          	ld	a0,48(s0)
   12250:	00053583          	ld	a1,0(a0)
   12254:	0005b603          	ld	a2,0(a1)
   12258:	0365a423          	sw	s6,40(a1)
   1225c:	000600e7          	jalr	a2
   12260:	f8dff06f          	j	121ec <put_pixel_rows+0x144>
   12264:	04c42603          	lw	a2,76(s0)
   12268:	00260613          	addi	a2,a2,2
   1226c:	00198993          	addi	s3,s3,1
   12270:	fff9091b          	addiw	s2,s2,-1
   12274:	04c42a23          	sw	a2,84(s0)
   12278:	ea0910e3          	bnez	s2,12118 <put_pixel_rows+0x70>
   1227c:	04813083          	ld	ra,72(sp)
   12280:	04013403          	ld	s0,64(sp)
   12284:	03813483          	ld	s1,56(sp)
   12288:	03013903          	ld	s2,48(sp)
   1228c:	02813983          	ld	s3,40(sp)
   12290:	02013a03          	ld	s4,32(sp)
   12294:	01813a83          	ld	s5,24(sp)
   12298:	01013b03          	ld	s6,16(sp)
   1229c:	00813b83          	ld	s7,8(sp)
   122a0:	05010113          	addi	sp,sp,80
   122a4:	00008067          	ret

00000000000122a8 <finish_output_gif>:
   122a8:	fc010113          	addi	sp,sp,-64
   122ac:	02113c23          	sd	ra,56(sp)
   122b0:	02813823          	sd	s0,48(sp)
   122b4:	02913423          	sd	s1,40(sp)
   122b8:	03213023          	sd	s2,32(sp)
   122bc:	01313c23          	sd	s3,24(sp)
   122c0:	01413823          	sd	s4,16(sp)
   122c4:	01513423          	sd	s5,8(sp)
   122c8:	00058493          	mv	s1,a1
   122cc:	0505a583          	lw	a1,80(a1)
   122d0:	0484a603          	lw	a2,72(s1)
   122d4:	0404b683          	ld	a3,64(s1)
   122d8:	00050413          	mv	s0,a0
   122dc:	0384a703          	lw	a4,56(s1)
   122e0:	00c59533          	sll	a0,a1,a2
   122e4:	00d56533          	or	a0,a0,a3
   122e8:	04a4b023          	sd	a0,64(s1)
   122ec:	00c7063b          	addw	a2,a4,a2
   122f0:	04c4a423          	sw	a2,72(s1)
   122f4:	00800593          	li	a1,8
   122f8:	05c48913          	addi	s2,s1,92
   122fc:	08b64863          	blt	a2,a1,1238c <finish_output_gif+0xe4>
   12300:	0584a583          	lw	a1,88(s1)
   12304:	0ff00993          	li	s3,255
   12308:	02500a13          	li	s4,37
   1230c:	00f00a93          	li	s5,15
   12310:	0280006f          	j	12338 <finish_output_gif+0x90>
   12314:	00000593          	li	a1,0
   12318:	0404ac23          	sw	zero,88(s1)
   1231c:	0404b503          	ld	a0,64(s1)
   12320:	0484a683          	lw	a3,72(s1)
   12324:	40855513          	srai	a0,a0,0x8
   12328:	04a4b023          	sd	a0,64(s1)
   1232c:	ff86861b          	addiw	a2,a3,-8
   12330:	04c4a423          	sw	a2,72(s1)
   12334:	04dadc63          	bge	s5,a3,1238c <finish_output_gif+0xe4>
   12338:	0015859b          	addiw	a1,a1,1
   1233c:	04b4ac23          	sw	a1,88(s1)
   12340:	00b905b3          	add	a1,s2,a1
   12344:	00a58023          	sb	a0,0(a1)
   12348:	0584a583          	lw	a1,88(s1)
   1234c:	fd35c8e3          	blt	a1,s3,1231c <finish_output_gif+0x74>
   12350:	0184b683          	ld	a3,24(s1)
   12354:	0015861b          	addiw	a2,a1,1
   12358:	04c4ac23          	sw	a2,88(s1)
   1235c:	04b48e23          	sb	a1,92(s1)
   12360:	00100593          	li	a1,1
   12364:	00090513          	mv	a0,s2
   12368:	fc8fe0ef          	jal	10b30 <fwrite@plt>
   1236c:	0584a583          	lw	a1,88(s1)
   12370:	fab502e3          	beq	a0,a1,12314 <finish_output_gif+0x6c>
   12374:	0304b503          	ld	a0,48(s1)
   12378:	00053583          	ld	a1,0(a0)
   1237c:	0005b603          	ld	a2,0(a1)
   12380:	0345a423          	sw	s4,40(a1)
   12384:	000600e7          	jalr	a2
   12388:	f8dff06f          	j	12314 <finish_output_gif+0x6c>
   1238c:	05848993          	addi	s3,s1,88
   12390:	02c05663          	blez	a2,123bc <finish_output_gif+0x114>
   12394:	0584a583          	lw	a1,88(s1)
   12398:	0015859b          	addiw	a1,a1,1
   1239c:	04b4ac23          	sw	a1,88(s1)
   123a0:	00b905b3          	add	a1,s2,a1
   123a4:	00a58023          	sb	a0,0(a1)
   123a8:	0584a503          	lw	a0,88(s1)
   123ac:	0ff00593          	li	a1,255
   123b0:	00b55a63          	bge	a0,a1,123c4 <finish_output_gif+0x11c>
   123b4:	00a04863          	bgtz	a0,123c4 <finish_output_gif+0x11c>
   123b8:	04c0006f          	j	12404 <finish_output_gif+0x15c>
   123bc:	0584a503          	lw	a0,88(s1)
   123c0:	04a05263          	blez	a0,12404 <finish_output_gif+0x15c>
   123c4:	0184b683          	ld	a3,24(s1)
   123c8:	0015061b          	addiw	a2,a0,1
   123cc:	04c4ac23          	sw	a2,88(s1)
   123d0:	04a48e23          	sb	a0,92(s1)
   123d4:	00100593          	li	a1,1
   123d8:	00090513          	mv	a0,s2
   123dc:	f54fe0ef          	jal	10b30 <fwrite@plt>
   123e0:	0584a583          	lw	a1,88(s1)
   123e4:	00b50e63          	beq	a0,a1,12400 <finish_output_gif+0x158>
   123e8:	0304b503          	ld	a0,48(s1)
   123ec:	00053583          	ld	a1,0(a0)
   123f0:	0005b603          	ld	a2,0(a1)
   123f4:	02500693          	li	a3,37
   123f8:	02d5a423          	sw	a3,40(a1)
   123fc:	000600e7          	jalr	a2
   12400:	0009a023          	sw	zero,0(s3)
   12404:	0184b583          	ld	a1,24(s1)
   12408:	00000513          	li	a0,0
   1240c:	fa4fe0ef          	jal	10bb0 <putc@plt>
   12410:	0184b583          	ld	a1,24(s1)
   12414:	03b00513          	li	a0,59
   12418:	f98fe0ef          	jal	10bb0 <putc@plt>
   1241c:	0184b503          	ld	a0,24(s1)
   12420:	f60fe0ef          	jal	10b80 <fflush@plt>
   12424:	0184b503          	ld	a0,24(s1)
   12428:	819fe0ef          	jal	10c40 <ferror@plt>
   1242c:	02050e63          	beqz	a0,12468 <finish_output_gif+0x1c0>
   12430:	00043503          	ld	a0,0(s0)
   12434:	00053303          	ld	t1,0(a0)
   12438:	02500593          	li	a1,37
   1243c:	02b52423          	sw	a1,40(a0)
   12440:	00040513          	mv	a0,s0
   12444:	03813083          	ld	ra,56(sp)
   12448:	03013403          	ld	s0,48(sp)
   1244c:	02813483          	ld	s1,40(sp)
   12450:	02013903          	ld	s2,32(sp)
   12454:	01813983          	ld	s3,24(sp)
   12458:	01013a03          	ld	s4,16(sp)
   1245c:	00813a83          	ld	s5,8(sp)
   12460:	04010113          	addi	sp,sp,64
   12464:	00030067          	jr	t1
   12468:	03813083          	ld	ra,56(sp)
   1246c:	03013403          	ld	s0,48(sp)
   12470:	02813483          	ld	s1,40(sp)
   12474:	02013903          	ld	s2,32(sp)
   12478:	01813983          	ld	s3,24(sp)
   1247c:	01013a03          	ld	s4,16(sp)
   12480:	00813a83          	ld	s5,8(sp)
   12484:	04010113          	addi	sp,sp,64
   12488:	00008067          	ret

000000000001248c <emit_header>:
   1248c:	fa010113          	addi	sp,sp,-96
   12490:	04113c23          	sd	ra,88(sp)
   12494:	04813823          	sd	s0,80(sp)
   12498:	04913423          	sd	s1,72(sp)
   1249c:	05213023          	sd	s2,64(sp)
   124a0:	03313c23          	sd	s3,56(sp)
   124a4:	03413823          	sd	s4,48(sp)
   124a8:	03513423          	sd	s5,40(sp)
   124ac:	03613023          	sd	s6,32(sp)
   124b0:	01713c23          	sd	s7,24(sp)
   124b4:	01813823          	sd	s8,16(sp)
   124b8:	01913423          	sd	s9,8(sp)
   124bc:	01a13023          	sd	s10,0(sp)
   124c0:	00050413          	mv	s0,a0
   124c4:	03053503          	ld	a0,48(a0)
   124c8:	12852b83          	lw	s7,296(a0)
   124cc:	10100693          	li	a3,257
   124d0:	00060993          	mv	s3,a2
   124d4:	00058913          	mv	s2,a1
   124d8:	02d5c263          	blt	a1,a3,124fc <emit_header+0x70>
   124dc:	00053583          	ld	a1,0(a0)
   124e0:	0325a623          	sw	s2,44(a1)
   124e4:	03043503          	ld	a0,48(s0)
   124e8:	00053603          	ld	a2,0(a0)
   124ec:	00063603          	ld	a2,0(a2)
   124f0:	40f00693          	li	a3,1039
   124f4:	02d5a423          	sw	a3,40(a1)
   124f8:	000600e7          	jalr	a2
   124fc:	ff8b8b93          	addi	s7,s7,-8
   12500:	00100513          	li	a0,1
   12504:	ff000c13          	li	s8,-16
   12508:	00100a13          	li	s4,1
   1250c:	01451b3b          	sllw	s6,a0,s4
   12510:	001a0a1b          	addiw	s4,s4,1
   12514:	010c0c1b          	addiw	s8,s8,16
   12518:	ff2b4ae3          	blt	s6,s2,1250c <emit_header+0x80>
   1251c:	fffa0a9b          	addiw	s5,s4,-1
   12520:	00200513          	li	a0,2
   12524:	000a8493          	mv	s1,s5
   12528:	01556463          	bltu	a0,s5,12530 <emit_header+0xa4>
   1252c:	00200493          	li	s1,2
   12530:	01843583          	ld	a1,24(s0)
   12534:	04700513          	li	a0,71
   12538:	e78fe0ef          	jal	10bb0 <putc@plt>
   1253c:	01843583          	ld	a1,24(s0)
   12540:	04900513          	li	a0,73
   12544:	e6cfe0ef          	jal	10bb0 <putc@plt>
   12548:	01843583          	ld	a1,24(s0)
   1254c:	04600513          	li	a0,70
   12550:	e60fe0ef          	jal	10bb0 <putc@plt>
   12554:	01843583          	ld	a1,24(s0)
   12558:	03800513          	li	a0,56
   1255c:	e54fe0ef          	jal	10bb0 <putc@plt>
   12560:	01843583          	ld	a1,24(s0)
   12564:	03700513          	li	a0,55
   12568:	e48fe0ef          	jal	10bb0 <putc@plt>
   1256c:	01843583          	ld	a1,24(s0)
   12570:	06100513          	li	a0,97
   12574:	e3cfe0ef          	jal	10bb0 <putc@plt>
   12578:	03043503          	ld	a0,48(s0)
   1257c:	08852c83          	lw	s9,136(a0)
   12580:	01843583          	ld	a1,24(s0)
   12584:	0ffcf513          	zext.b	a0,s9
   12588:	e28fe0ef          	jal	10bb0 <putc@plt>
   1258c:	01843583          	ld	a1,24(s0)
   12590:	030c9513          	slli	a0,s9,0x30
   12594:	03855513          	srli	a0,a0,0x38
   12598:	e18fe0ef          	jal	10bb0 <putc@plt>
   1259c:	03043503          	ld	a0,48(s0)
   125a0:	08c52c83          	lw	s9,140(a0)
   125a4:	01843583          	ld	a1,24(s0)
   125a8:	0ffcf513          	zext.b	a0,s9
   125ac:	e04fe0ef          	jal	10bb0 <putc@plt>
   125b0:	01843583          	ld	a1,24(s0)
   125b4:	030c9513          	slli	a0,s9,0x30
   125b8:	03855513          	srli	a0,a0,0x38
   125bc:	df4fe0ef          	jal	10bb0 <putc@plt>
   125c0:	01843583          	ld	a1,24(s0)
   125c4:	ffea051b          	addiw	a0,s4,-2
   125c8:	01856533          	or	a0,a0,s8
   125cc:	08056513          	ori	a0,a0,128
   125d0:	de0fe0ef          	jal	10bb0 <putc@plt>
   125d4:	01843583          	ld	a1,24(s0)
   125d8:	00000513          	li	a0,0
   125dc:	dd4fe0ef          	jal	10bb0 <putc@plt>
   125e0:	01843583          	ld	a1,24(s0)
   125e4:	00000513          	li	a0,0
   125e8:	dc8fe0ef          	jal	10bb0 <putc@plt>
   125ec:	02000513          	li	a0,32
   125f0:	1aaa1863          	bne	s4,a0,127a0 <emit_header+0x314>
   125f4:	01843583          	ld	a1,24(s0)
   125f8:	02c00513          	li	a0,44
   125fc:	db4fe0ef          	jal	10bb0 <putc@plt>
   12600:	01843583          	ld	a1,24(s0)
   12604:	00000513          	li	a0,0
   12608:	da8fe0ef          	jal	10bb0 <putc@plt>
   1260c:	01843583          	ld	a1,24(s0)
   12610:	00000513          	li	a0,0
   12614:	d9cfe0ef          	jal	10bb0 <putc@plt>
   12618:	01843583          	ld	a1,24(s0)
   1261c:	00000513          	li	a0,0
   12620:	d90fe0ef          	jal	10bb0 <putc@plt>
   12624:	01843583          	ld	a1,24(s0)
   12628:	00000513          	li	a0,0
   1262c:	d84fe0ef          	jal	10bb0 <putc@plt>
   12630:	03043503          	ld	a0,48(s0)
   12634:	08852903          	lw	s2,136(a0)
   12638:	01843583          	ld	a1,24(s0)
   1263c:	0ff97513          	zext.b	a0,s2
   12640:	d70fe0ef          	jal	10bb0 <putc@plt>
   12644:	01843583          	ld	a1,24(s0)
   12648:	03091513          	slli	a0,s2,0x30
   1264c:	03855513          	srli	a0,a0,0x38
   12650:	d60fe0ef          	jal	10bb0 <putc@plt>
   12654:	03043503          	ld	a0,48(s0)
   12658:	08c52903          	lw	s2,140(a0)
   1265c:	01843583          	ld	a1,24(s0)
   12660:	0ff97513          	zext.b	a0,s2
   12664:	d4cfe0ef          	jal	10bb0 <putc@plt>
   12668:	01843583          	ld	a1,24(s0)
   1266c:	03091513          	slli	a0,s2,0x30
   12670:	03855513          	srli	a0,a0,0x38
   12674:	d3cfe0ef          	jal	10bb0 <putc@plt>
   12678:	01843583          	ld	a1,24(s0)
   1267c:	00000513          	li	a0,0
   12680:	d30fe0ef          	jal	10bb0 <putc@plt>
   12684:	01843583          	ld	a1,24(s0)
   12688:	00048513          	mv	a0,s1
   1268c:	d24fe0ef          	jal	10bb0 <putc@plt>
   12690:	00148593          	addi	a1,s1,1
   12694:	02b42c23          	sw	a1,56(s0)
   12698:	ffe00513          	li	a0,-2
   1269c:	0095153b          	sllw	a0,a0,s1
   126a0:	fff54513          	not	a0,a0
   126a4:	02a42e23          	sw	a0,60(s0)
   126a8:	00100513          	li	a0,1
   126ac:	0095153b          	sllw	a0,a0,s1
   126b0:	04a42623          	sw	a0,76(s0)
   126b4:	00150613          	addi	a2,a0,1
   126b8:	04c42823          	sw	a2,80(s0)
   126bc:	00250613          	addi	a2,a0,2
   126c0:	04c42a23          	sw	a2,84(s0)
   126c4:	04042c23          	sw	zero,88(s0)
   126c8:	04a43023          	sd	a0,64(s0)
   126cc:	00700613          	li	a2,7
   126d0:	04b42423          	sw	a1,72(s0)
   126d4:	08caea63          	bltu	s5,a2,12768 <emit_header+0x2dc>
   126d8:	00000593          	li	a1,0
   126dc:	05c40493          	addi	s1,s0,92
   126e0:	0ff00913          	li	s2,255
   126e4:	02500993          	li	s3,37
   126e8:	00f00a13          	li	s4,15
   126ec:	0280006f          	j	12714 <emit_header+0x288>
   126f0:	00000593          	li	a1,0
   126f4:	04042c23          	sw	zero,88(s0)
   126f8:	04043503          	ld	a0,64(s0)
   126fc:	04842603          	lw	a2,72(s0)
   12700:	40855513          	srai	a0,a0,0x8
   12704:	04a43023          	sd	a0,64(s0)
   12708:	ff860693          	addi	a3,a2,-8
   1270c:	04d42423          	sw	a3,72(s0)
   12710:	04ca5c63          	bge	s4,a2,12768 <emit_header+0x2dc>
   12714:	0015859b          	addiw	a1,a1,1
   12718:	04b42c23          	sw	a1,88(s0)
   1271c:	00b485b3          	add	a1,s1,a1
   12720:	00a58023          	sb	a0,0(a1)
   12724:	05842583          	lw	a1,88(s0)
   12728:	fd25c8e3          	blt	a1,s2,126f8 <emit_header+0x26c>
   1272c:	01843683          	ld	a3,24(s0)
   12730:	0015861b          	addiw	a2,a1,1
   12734:	04c42c23          	sw	a2,88(s0)
   12738:	04b40e23          	sb	a1,92(s0)
   1273c:	00100593          	li	a1,1
   12740:	00048513          	mv	a0,s1
   12744:	becfe0ef          	jal	10b30 <fwrite@plt>
   12748:	05842583          	lw	a1,88(s0)
   1274c:	fab502e3          	beq	a0,a1,126f0 <emit_header+0x264>
   12750:	03043503          	ld	a0,48(s0)
   12754:	00053583          	ld	a1,0(a0)
   12758:	0005b603          	ld	a2,0(a1)
   1275c:	0335a423          	sw	s3,40(a1)
   12760:	000600e7          	jalr	a2
   12764:	f8dff06f          	j	126f0 <emit_header+0x264>
   12768:	05813083          	ld	ra,88(sp)
   1276c:	05013403          	ld	s0,80(sp)
   12770:	04813483          	ld	s1,72(sp)
   12774:	04013903          	ld	s2,64(sp)
   12778:	03813983          	ld	s3,56(sp)
   1277c:	03013a03          	ld	s4,48(sp)
   12780:	02813a83          	ld	s5,40(sp)
   12784:	02013b03          	ld	s6,32(sp)
   12788:	01813b83          	ld	s7,24(sp)
   1278c:	01013c03          	ld	s8,16(sp)
   12790:	00813c83          	ld	s9,8(sp)
   12794:	00013d03          	ld	s10,0(sp)
   12798:	06010113          	addi	sp,sp,96
   1279c:	00008067          	ret
   127a0:	0a098863          	beqz	s3,12850 <emit_header+0x3c4>
   127a4:	01604463          	bgtz	s6,127ac <emit_header+0x320>
   127a8:	00100b13          	li	s6,1
   127ac:	00000c13          	li	s8,0
   127b0:	00200c93          	li	s9,2
   127b4:	0340006f          	j	127e8 <emit_header+0x35c>
   127b8:	01843583          	ld	a1,24(s0)
   127bc:	00000513          	li	a0,0
   127c0:	bf0fe0ef          	jal	10bb0 <putc@plt>
   127c4:	01843583          	ld	a1,24(s0)
   127c8:	00000513          	li	a0,0
   127cc:	be4fe0ef          	jal	10bb0 <putc@plt>
   127d0:	00000a13          	li	s4,0
   127d4:	01843583          	ld	a1,24(s0)
   127d8:	000a0513          	mv	a0,s4
   127dc:	bd4fe0ef          	jal	10bb0 <putc@plt>
   127e0:	001c0c13          	addi	s8,s8,1
   127e4:	e18b08e3          	beq	s6,s8,125f4 <emit_header+0x168>
   127e8:	fd2c58e3          	bge	s8,s2,127b8 <emit_header+0x32c>
   127ec:	03043503          	ld	a0,48(s0)
   127f0:	0009b583          	ld	a1,0(s3)
   127f4:	04052d03          	lw	s10,64(a0)
   127f8:	018585b3          	add	a1,a1,s8
   127fc:	0005c503          	lbu	a0,0(a1)
   12800:	01843583          	ld	a1,24(s0)
   12804:	01755a3b          	srlw	s4,a0,s7
   12808:	000a0513          	mv	a0,s4
   1280c:	ba4fe0ef          	jal	10bb0 <putc@plt>
   12810:	039d1863          	bne	s10,s9,12840 <emit_header+0x3b4>
   12814:	0089b503          	ld	a0,8(s3)
   12818:	01850533          	add	a0,a0,s8
   1281c:	00054503          	lbu	a0,0(a0)
   12820:	01843583          	ld	a1,24(s0)
   12824:	0175553b          	srlw	a0,a0,s7
   12828:	b88fe0ef          	jal	10bb0 <putc@plt>
   1282c:	0109b503          	ld	a0,16(s3)
   12830:	01850533          	add	a0,a0,s8
   12834:	00054503          	lbu	a0,0(a0)
   12838:	01755a3b          	srlw	s4,a0,s7
   1283c:	f99ff06f          	j	127d4 <emit_header+0x348>
   12840:	01843583          	ld	a1,24(s0)
   12844:	000a0513          	mv	a0,s4
   12848:	b68fe0ef          	jal	10bb0 <putc@plt>
   1284c:	f89ff06f          	j	127d4 <emit_header+0x348>
   12850:	fff90a13          	addi	s4,s2,-1
   12854:	01fa551b          	srliw	a0,s4,0x1f
   12858:	00aa0533          	add	a0,s4,a0
   1285c:	01604463          	bgtz	s6,12864 <emit_header+0x3d8>
   12860:	00100b13          	li	s6,1
   12864:	00000b93          	li	s7,0
   12868:	40155c1b          	sraiw	s8,a0,0x1
   1286c:	0380006f          	j	128a4 <emit_header+0x418>
   12870:	034c49bb          	divw	s3,s8,s4
   12874:	01843583          	ld	a1,24(s0)
   12878:	00098513          	mv	a0,s3
   1287c:	b34fe0ef          	jal	10bb0 <putc@plt>
   12880:	01843583          	ld	a1,24(s0)
   12884:	00098513          	mv	a0,s3
   12888:	b28fe0ef          	jal	10bb0 <putc@plt>
   1288c:	01843583          	ld	a1,24(s0)
   12890:	00098513          	mv	a0,s3
   12894:	b1cfe0ef          	jal	10bb0 <putc@plt>
   12898:	001b8b9b          	addiw	s7,s7,1
   1289c:	0ffc0c13          	addi	s8,s8,255
   128a0:	d57b0ae3          	beq	s6,s7,125f4 <emit_header+0x168>
   128a4:	fd2bc6e3          	blt	s7,s2,12870 <emit_header+0x3e4>
   128a8:	00000993          	li	s3,0
   128ac:	fc9ff06f          	j	12874 <emit_header+0x3e8>

00000000000128b0 <jinit_write_targa>:
   128b0:	fe010113          	addi	sp,sp,-32
   128b4:	00113c23          	sd	ra,24(sp)
   128b8:	00813823          	sd	s0,16(sp)
   128bc:	00913423          	sd	s1,8(sp)
   128c0:	01213023          	sd	s2,0(sp)
   128c4:	00050413          	mv	s0,a0
   128c8:	00853503          	ld	a0,8(a0)
   128cc:	00053683          	ld	a3,0(a0)
   128d0:	00100593          	li	a1,1
   128d4:	04000613          	li	a2,64
   128d8:	00100913          	li	s2,1
   128dc:	00040513          	mv	a0,s0
   128e0:	000680e7          	jalr	a3
   128e4:	00050493          	mv	s1,a0
   128e8:	00013537          	lui	a0,0x13
   128ec:	97850513          	addi	a0,a0,-1672 # 12978 <start_output_tga>
   128f0:	00a4b023          	sd	a0,0(s1)
   128f4:	00013537          	lui	a0,0x13
   128f8:	c8450513          	addi	a0,a0,-892 # 12c84 <finish_output_tga>
   128fc:	00a4b823          	sd	a0,16(s1)
   12900:	00040513          	mv	a0,s0
   12904:	329020ef          	jal	1542c <jpeg_calc_output_dimensions>
   12908:	08842503          	lw	a0,136(s0)
   1290c:	09442583          	lw	a1,148(s0)
   12910:	00843603          	ld	a2,8(s0)
   12914:	02a58533          	mul	a0,a1,a0
   12918:	00063683          	ld	a3,0(a2)
   1291c:	02a4ac23          	sw	a0,56(s1)
   12920:	02051513          	slli	a0,a0,0x20
   12924:	02055613          	srli	a2,a0,0x20
   12928:	00100593          	li	a1,1
   1292c:	00040513          	mv	a0,s0
   12930:	000680e7          	jalr	a3
   12934:	00843583          	ld	a1,8(s0)
   12938:	0105b703          	ld	a4,16(a1)
   1293c:	0384a603          	lw	a2,56(s1)
   12940:	02a4b823          	sd	a0,48(s1)
   12944:	00100593          	li	a1,1
   12948:	00100693          	li	a3,1
   1294c:	00040513          	mv	a0,s0
   12950:	000700e7          	jalr	a4
   12954:	02a4b023          	sd	a0,32(s1)
   12958:	0324a423          	sw	s2,40(s1)
   1295c:	00048513          	mv	a0,s1
   12960:	01813083          	ld	ra,24(sp)
   12964:	01013403          	ld	s0,16(sp)
   12968:	00813483          	ld	s1,8(sp)
   1296c:	00013903          	ld	s2,0(sp)
   12970:	02010113          	addi	sp,sp,32
   12974:	00008067          	ret

0000000000012978 <start_output_tga>:
   12978:	fb010113          	addi	sp,sp,-80
   1297c:	04113423          	sd	ra,72(sp)
   12980:	04813023          	sd	s0,64(sp)
   12984:	02913c23          	sd	s1,56(sp)
   12988:	03213823          	sd	s2,48(sp)
   1298c:	03313423          	sd	s3,40(sp)
   12990:	03413023          	sd	s4,32(sp)
   12994:	00050493          	mv	s1,a0
   12998:	04052503          	lw	a0,64(a0)
   1299c:	00200613          	li	a2,2
   129a0:	00058413          	mv	s0,a1
   129a4:	08c50863          	beq	a0,a2,12a34 <start_output_tga+0xbc>
   129a8:	00100593          	li	a1,1
   129ac:	0cb51c63          	bne	a0,a1,12a84 <start_output_tga+0x10c>
   129b0:	0884a503          	lw	a0,136(s1)
   129b4:	00013423          	sd	zero,8(sp)
   129b8:	00012823          	sw	zero,16(sp)
   129bc:	08c4a583          	lw	a1,140(s1)
   129c0:	00a10a23          	sb	a0,20(sp)
   129c4:	00855513          	srli	a0,a0,0x8
   129c8:	00a10aa3          	sb	a0,21(sp)
   129cc:	00b10b23          	sb	a1,22(sp)
   129d0:	0085d593          	srli	a1,a1,0x8
   129d4:	00b10ba3          	sb	a1,23(sp)
   129d8:	00300513          	li	a0,3
   129dc:	00a10523          	sb	a0,10(sp)
   129e0:	01843683          	ld	a3,24(s0)
   129e4:	00002537          	lui	a0,0x2
   129e8:	00850513          	addi	a0,a0,8 # 2008 <__abi_tag-0xe28c>
   129ec:	00a11c23          	sh	a0,24(sp)
   129f0:	00810513          	addi	a0,sp,8
   129f4:	00100593          	li	a1,1
   129f8:	01200613          	li	a2,18
   129fc:	01200913          	li	s2,18
   12a00:	930fe0ef          	jal	10b30 <fwrite@plt>
   12a04:	01250e63          	beq	a0,s2,12a20 <start_output_tga+0xa8>
   12a08:	0004b503          	ld	a0,0(s1)
   12a0c:	00053583          	ld	a1,0(a0)
   12a10:	02500613          	li	a2,37
   12a14:	02c52423          	sw	a2,40(a0)
   12a18:	00048513          	mv	a0,s1
   12a1c:	000580e7          	jalr	a1
   12a20:	06c4a503          	lw	a0,108(s1)
   12a24:	22050a63          	beqz	a0,12c58 <start_output_tga+0x2e0>
   12a28:	00013537          	lui	a0,0x13
   12a2c:	cf050513          	addi	a0,a0,-784 # 12cf0 <put_demapped_gray>
   12a30:	2300006f          	j	12c60 <start_output_tga+0x2e8>
   12a34:	06c4a503          	lw	a0,108(s1)
   12a38:	08050063          	beqz	a0,12ab8 <start_output_tga+0x140>
   12a3c:	09c4a983          	lw	s3,156(s1)
   12a40:	10100513          	li	a0,257
   12a44:	0ea9c863          	blt	s3,a0,12b34 <start_output_tga+0x1bc>
   12a48:	0004b503          	ld	a0,0(s1)
   12a4c:	40f00593          	li	a1,1039
   12a50:	02b52423          	sw	a1,40(a0)
   12a54:	03352623          	sw	s3,44(a0)
   12a58:	0004b503          	ld	a0,0(s1)
   12a5c:	00053583          	ld	a1,0(a0)
   12a60:	00048513          	mv	a0,s1
   12a64:	000580e7          	jalr	a1
   12a68:	0404a503          	lw	a0,64(s1)
   12a6c:	00010c23          	sb	zero,24(sp)
   12a70:	00013823          	sd	zero,16(sp)
   12a74:	00013423          	sd	zero,8(sp)
   12a78:	fff50513          	addi	a0,a0,-1
   12a7c:	00153613          	seqz	a2,a0
   12a80:	0d00006f          	j	12b50 <start_output_tga+0x1d8>
   12a84:	0004b503          	ld	a0,0(s1)
   12a88:	00053303          	ld	t1,0(a0)
   12a8c:	40a00593          	li	a1,1034
   12a90:	02b52423          	sw	a1,40(a0)
   12a94:	00048513          	mv	a0,s1
   12a98:	04813083          	ld	ra,72(sp)
   12a9c:	04013403          	ld	s0,64(sp)
   12aa0:	03813483          	ld	s1,56(sp)
   12aa4:	03013903          	ld	s2,48(sp)
   12aa8:	02813983          	ld	s3,40(sp)
   12aac:	02013a03          	ld	s4,32(sp)
   12ab0:	05010113          	addi	sp,sp,80
   12ab4:	00030067          	jr	t1
   12ab8:	0884a503          	lw	a0,136(s1)
   12abc:	00013423          	sd	zero,8(sp)
   12ac0:	00012823          	sw	zero,16(sp)
   12ac4:	08c4a583          	lw	a1,140(s1)
   12ac8:	00a10a23          	sb	a0,20(sp)
   12acc:	00855513          	srli	a0,a0,0x8
   12ad0:	00a10aa3          	sb	a0,21(sp)
   12ad4:	00b10b23          	sb	a1,22(sp)
   12ad8:	0085d593          	srli	a1,a1,0x8
   12adc:	00b10ba3          	sb	a1,23(sp)
   12ae0:	00200513          	li	a0,2
   12ae4:	00a10523          	sb	a0,10(sp)
   12ae8:	01843683          	ld	a3,24(s0)
   12aec:	00002537          	lui	a0,0x2
   12af0:	01850513          	addi	a0,a0,24 # 2018 <__abi_tag-0xe27c>
   12af4:	00a11c23          	sh	a0,24(sp)
   12af8:	00810513          	addi	a0,sp,8
   12afc:	00100593          	li	a1,1
   12b00:	01200613          	li	a2,18
   12b04:	01200913          	li	s2,18
   12b08:	828fe0ef          	jal	10b30 <fwrite@plt>
   12b0c:	01250e63          	beq	a0,s2,12b28 <start_output_tga+0x1b0>
   12b10:	0004b503          	ld	a0,0(s1)
   12b14:	00053583          	ld	a1,0(a0)
   12b18:	02500613          	li	a2,37
   12b1c:	02c52423          	sw	a2,40(a0)
   12b20:	00048513          	mv	a0,s1
   12b24:	000580e7          	jalr	a1
   12b28:	00013537          	lui	a0,0x13
   12b2c:	db050513          	addi	a0,a0,-592 # 12db0 <put_pixel_rows>
   12b30:	1300006f          	j	12c60 <start_output_tga+0x2e8>
   12b34:	00000613          	li	a2,0
   12b38:	00000593          	li	a1,0
   12b3c:	00000513          	li	a0,0
   12b40:	00010c23          	sb	zero,24(sp)
   12b44:	00013823          	sd	zero,16(sp)
   12b48:	00013423          	sd	zero,8(sp)
   12b4c:	03305263          	blez	s3,12b70 <start_output_tga+0x1f8>
   12b50:	00100513          	li	a0,1
   12b54:	00a104a3          	sb	a0,9(sp)
   12b58:	013106a3          	sb	s3,13(sp)
   12b5c:	0089d593          	srli	a1,s3,0x8
   12b60:	00b10723          	sb	a1,14(sp)
   12b64:	01800593          	li	a1,24
   12b68:	00b107a3          	sb	a1,15(sp)
   12b6c:	00060593          	mv	a1,a2
   12b70:	0884a603          	lw	a2,136(s1)
   12b74:	08c4a683          	lw	a3,140(s1)
   12b78:	00c10a23          	sb	a2,20(sp)
   12b7c:	00865613          	srli	a2,a2,0x8
   12b80:	00c10aa3          	sb	a2,21(sp)
   12b84:	00d10b23          	sb	a3,22(sp)
   12b88:	0086d693          	srli	a3,a3,0x8
   12b8c:	00d10ba3          	sb	a3,23(sp)
   12b90:	02000613          	li	a2,32
   12b94:	00c10ca3          	sb	a2,25(sp)
   12b98:	00058663          	beqz	a1,12ba4 <start_output_tga+0x22c>
   12b9c:	00300513          	li	a0,3
   12ba0:	00c0006f          	j	12bac <start_output_tga+0x234>
   12ba4:	00050a63          	beqz	a0,12bb8 <start_output_tga+0x240>
   12ba8:	00100513          	li	a0,1
   12bac:	00a10523          	sb	a0,10(sp)
   12bb0:	00800513          	li	a0,8
   12bb4:	0100006f          	j	12bc4 <start_output_tga+0x24c>
   12bb8:	00200513          	li	a0,2
   12bbc:	00a10523          	sb	a0,10(sp)
   12bc0:	01800513          	li	a0,24
   12bc4:	00a10c23          	sb	a0,24(sp)
   12bc8:	01843683          	ld	a3,24(s0)
   12bcc:	00810513          	addi	a0,sp,8
   12bd0:	00100593          	li	a1,1
   12bd4:	01200613          	li	a2,18
   12bd8:	01200913          	li	s2,18
   12bdc:	f55fd0ef          	jal	10b30 <fwrite@plt>
   12be0:	01250e63          	beq	a0,s2,12bfc <start_output_tga+0x284>
   12be4:	0004b503          	ld	a0,0(s1)
   12be8:	00053583          	ld	a1,0(a0)
   12bec:	02500613          	li	a2,37
   12bf0:	02c52423          	sw	a2,40(a0)
   12bf4:	00048513          	mv	a0,s1
   12bf8:	000580e7          	jalr	a1
   12bfc:	05305e63          	blez	s3,12c58 <start_output_tga+0x2e0>
   12c00:	01843903          	ld	s2,24(s0)
   12c04:	00000a13          	li	s4,0
   12c08:	0a04b503          	ld	a0,160(s1)
   12c0c:	01053503          	ld	a0,16(a0)
   12c10:	01450533          	add	a0,a0,s4
   12c14:	00054503          	lbu	a0,0(a0)
   12c18:	00090593          	mv	a1,s2
   12c1c:	f95fd0ef          	jal	10bb0 <putc@plt>
   12c20:	0a04b503          	ld	a0,160(s1)
   12c24:	00853503          	ld	a0,8(a0)
   12c28:	01450533          	add	a0,a0,s4
   12c2c:	00054503          	lbu	a0,0(a0)
   12c30:	00090593          	mv	a1,s2
   12c34:	f7dfd0ef          	jal	10bb0 <putc@plt>
   12c38:	0a04b503          	ld	a0,160(s1)
   12c3c:	00053503          	ld	a0,0(a0)
   12c40:	01450533          	add	a0,a0,s4
   12c44:	00054503          	lbu	a0,0(a0)
   12c48:	00090593          	mv	a1,s2
   12c4c:	f65fd0ef          	jal	10bb0 <putc@plt>
   12c50:	001a0a13          	addi	s4,s4,1
   12c54:	fb499ae3          	bne	s3,s4,12c08 <start_output_tga+0x290>
   12c58:	00013537          	lui	a0,0x13
   12c5c:	d5850513          	addi	a0,a0,-680 # 12d58 <put_gray_rows>
   12c60:	00a43423          	sd	a0,8(s0)
   12c64:	04813083          	ld	ra,72(sp)
   12c68:	04013403          	ld	s0,64(sp)
   12c6c:	03813483          	ld	s1,56(sp)
   12c70:	03013903          	ld	s2,48(sp)
   12c74:	02813983          	ld	s3,40(sp)
   12c78:	02013a03          	ld	s4,32(sp)
   12c7c:	05010113          	addi	sp,sp,80
   12c80:	00008067          	ret

0000000000012c84 <finish_output_tga>:
   12c84:	fe010113          	addi	sp,sp,-32
   12c88:	00113c23          	sd	ra,24(sp)
   12c8c:	00813823          	sd	s0,16(sp)
   12c90:	00913423          	sd	s1,8(sp)
   12c94:	00058493          	mv	s1,a1
   12c98:	0185b583          	ld	a1,24(a1)
   12c9c:	00050413          	mv	s0,a0
   12ca0:	00058513          	mv	a0,a1
   12ca4:	eddfd0ef          	jal	10b80 <fflush@plt>
   12ca8:	0184b503          	ld	a0,24(s1)
   12cac:	f95fd0ef          	jal	10c40 <ferror@plt>
   12cb0:	02050663          	beqz	a0,12cdc <finish_output_tga+0x58>
   12cb4:	00043503          	ld	a0,0(s0)
   12cb8:	00053303          	ld	t1,0(a0)
   12cbc:	02500593          	li	a1,37
   12cc0:	02b52423          	sw	a1,40(a0)
   12cc4:	00040513          	mv	a0,s0
   12cc8:	01813083          	ld	ra,24(sp)
   12ccc:	01013403          	ld	s0,16(sp)
   12cd0:	00813483          	ld	s1,8(sp)
   12cd4:	02010113          	addi	sp,sp,32
   12cd8:	00030067          	jr	t1
   12cdc:	01813083          	ld	ra,24(sp)
   12ce0:	01013403          	ld	s0,16(sp)
   12ce4:	00813483          	ld	s1,8(sp)
   12ce8:	02010113          	addi	sp,sp,32
   12cec:	00008067          	ret

0000000000012cf0 <put_demapped_gray>:
   12cf0:	00050613          	mv	a2,a0
   12cf4:	08852703          	lw	a4,136(a0)
   12cf8:	0305b503          	ld	a0,48(a1)
   12cfc:	04070663          	beqz	a4,12d48 <put_demapped_gray+0x58>
   12d00:	0a063603          	ld	a2,160(a2)
   12d04:	0205b683          	ld	a3,32(a1)
   12d08:	00063603          	ld	a2,0(a2)
   12d0c:	0006b683          	ld	a3,0(a3)
   12d10:	fff70713          	addi	a4,a4,-1
   12d14:	02071713          	slli	a4,a4,0x20
   12d18:	02075713          	srli	a4,a4,0x20
   12d1c:	00a70733          	add	a4,a4,a0
   12d20:	00170713          	addi	a4,a4,1
   12d24:	0006c783          	lbu	a5,0(a3)
   12d28:	00f607b3          	add	a5,a2,a5
   12d2c:	0007c783          	lbu	a5,0(a5)
   12d30:	00168693          	addi	a3,a3,1
   12d34:	00150813          	addi	a6,a0,1
   12d38:	00f50023          	sb	a5,0(a0)
   12d3c:	00080513          	mv	a0,a6
   12d40:	fee812e3          	bne	a6,a4,12d24 <put_demapped_gray+0x34>
   12d44:	0305b503          	ld	a0,48(a1)
   12d48:	0385e603          	lwu	a2,56(a1)
   12d4c:	0185b683          	ld	a3,24(a1)
   12d50:	00100593          	li	a1,1
   12d54:	dddfd06f          	j	10b30 <fwrite@plt>

0000000000012d58 <put_gray_rows>:
   12d58:	08852683          	lw	a3,136(a0)
   12d5c:	0305b503          	ld	a0,48(a1)
   12d60:	04068063          	beqz	a3,12da0 <put_gray_rows+0x48>
   12d64:	0205b603          	ld	a2,32(a1)
   12d68:	00063603          	ld	a2,0(a2)
   12d6c:	fff68693          	addi	a3,a3,-1
   12d70:	02069693          	slli	a3,a3,0x20
   12d74:	0206d693          	srli	a3,a3,0x20
   12d78:	00c686b3          	add	a3,a3,a2
   12d7c:	00168693          	addi	a3,a3,1
   12d80:	00064703          	lbu	a4,0(a2)
   12d84:	00160793          	addi	a5,a2,1
   12d88:	00150613          	addi	a2,a0,1
   12d8c:	00e50023          	sb	a4,0(a0)
   12d90:	00060513          	mv	a0,a2
   12d94:	00078613          	mv	a2,a5
   12d98:	fed794e3          	bne	a5,a3,12d80 <put_gray_rows+0x28>
   12d9c:	0305b503          	ld	a0,48(a1)
   12da0:	0385e603          	lwu	a2,56(a1)
   12da4:	0185b683          	ld	a3,24(a1)
   12da8:	00100593          	li	a1,1
   12dac:	d85fd06f          	j	10b30 <fwrite@plt>

0000000000012db0 <put_pixel_rows>:
   12db0:	08852683          	lw	a3,136(a0)
   12db4:	0305b503          	ld	a0,48(a1)
   12db8:	04068a63          	beqz	a3,12e0c <put_pixel_rows+0x5c>
   12dbc:	0205b603          	ld	a2,32(a1)
   12dc0:	00063603          	ld	a2,0(a2)
   12dc4:	00260613          	addi	a2,a2,2
   12dc8:	fff68693          	addi	a3,a3,-1
   12dcc:	02069693          	slli	a3,a3,0x20
   12dd0:	0206d713          	srli	a4,a3,0x20
   12dd4:	01f6d693          	srli	a3,a3,0x1f
   12dd8:	00e686b3          	add	a3,a3,a4
   12ddc:	00a686b3          	add	a3,a3,a0
   12de0:	00368693          	addi	a3,a3,3
   12de4:	00064703          	lbu	a4,0(a2)
   12de8:	00e50023          	sb	a4,0(a0)
   12dec:	fff64703          	lbu	a4,-1(a2)
   12df0:	00e500a3          	sb	a4,1(a0)
   12df4:	ffe64703          	lbu	a4,-2(a2)
   12df8:	00e50123          	sb	a4,2(a0)
   12dfc:	00350513          	addi	a0,a0,3
   12e00:	00360613          	addi	a2,a2,3
   12e04:	fed510e3          	bne	a0,a3,12de4 <put_pixel_rows+0x34>
   12e08:	0305b503          	ld	a0,48(a1)
   12e0c:	0385e603          	lwu	a2,56(a1)
   12e10:	0185b683          	ld	a3,24(a1)
   12e14:	00100593          	li	a1,1
   12e18:	d19fd06f          	j	10b30 <fwrite@plt>

0000000000012e1c <jinit_write_bmp>:
   12e1c:	fd010113          	addi	sp,sp,-48
   12e20:	02113423          	sd	ra,40(sp)
   12e24:	02813023          	sd	s0,32(sp)
   12e28:	00913c23          	sd	s1,24(sp)
   12e2c:	01213823          	sd	s2,16(sp)
   12e30:	01313423          	sd	s3,8(sp)
   12e34:	00050413          	mv	s0,a0
   12e38:	00853503          	ld	a0,8(a0)
   12e3c:	00053683          	ld	a3,0(a0)
   12e40:	00058913          	mv	s2,a1
   12e44:	00100593          	li	a1,1
   12e48:	05000613          	li	a2,80
   12e4c:	00100993          	li	s3,1
   12e50:	00040513          	mv	a0,s0
   12e54:	000680e7          	jalr	a3
   12e58:	00050493          	mv	s1,a0
   12e5c:	00013537          	lui	a0,0x13
   12e60:	f7850513          	addi	a0,a0,-136 # 12f78 <start_output_bmp>
   12e64:	00a4b023          	sd	a0,0(s1)
   12e68:	04042503          	lw	a0,64(s0)
   12e6c:	000135b7          	lui	a1,0x13
   12e70:	f7c58593          	addi	a1,a1,-132 # 12f7c <finish_output_bmp>
   12e74:	00b4b823          	sd	a1,16(s1)
   12e78:	00200593          	li	a1,2
   12e7c:	0324a823          	sw	s2,48(s1)
   12e80:	02b50263          	beq	a0,a1,12ea4 <jinit_write_bmp+0x88>
   12e84:	03350463          	beq	a0,s3,12eac <jinit_write_bmp+0x90>
   12e88:	00043503          	ld	a0,0(s0)
   12e8c:	00053583          	ld	a1,0(a0)
   12e90:	3ed00613          	li	a2,1005
   12e94:	02c52423          	sw	a2,40(a0)
   12e98:	00040513          	mv	a0,s0
   12e9c:	000580e7          	jalr	a1
   12ea0:	0180006f          	j	12eb8 <jinit_write_bmp+0x9c>
   12ea4:	06c42503          	lw	a0,108(s0)
   12ea8:	0c050263          	beqz	a0,12f6c <jinit_write_bmp+0x150>
   12eac:	00013537          	lui	a0,0x13
   12eb0:	49c50513          	addi	a0,a0,1180 # 1349c <put_gray_rows>
   12eb4:	00a4b423          	sd	a0,8(s1)
   12eb8:	00040513          	mv	a0,s0
   12ebc:	570020ef          	jal	1542c <jpeg_calc_output_dimensions>
   12ec0:	08842503          	lw	a0,136(s0)
   12ec4:	09442583          	lw	a1,148(s0)
   12ec8:	02a58533          	mul	a0,a1,a0
   12ecc:	00843583          	ld	a1,8(s0)
   12ed0:	04a4a023          	sw	a0,64(s1)
   12ed4:	40a0063b          	negw	a2,a0
   12ed8:	00367613          	andi	a2,a2,3
   12edc:	0205b803          	ld	a6,32(a1)
   12ee0:	08c42703          	lw	a4,140(s0)
   12ee4:	00c5093b          	addw	s2,a0,a2
   12ee8:	0524a223          	sw	s2,68(s1)
   12eec:	04c4a423          	sw	a2,72(s1)
   12ef0:	00100593          	li	a1,1
   12ef4:	00100793          	li	a5,1
   12ef8:	00100993          	li	s3,1
   12efc:	00040513          	mv	a0,s0
   12f00:	00000613          	li	a2,0
   12f04:	00090693          	mv	a3,s2
   12f08:	000800e7          	jalr	a6
   12f0c:	01043583          	ld	a1,16(s0)
   12f10:	02a4bc23          	sd	a0,56(s1)
   12f14:	0404a623          	sw	zero,76(s1)
   12f18:	00058863          	beqz	a1,12f28 <jinit_write_bmp+0x10c>
   12f1c:	0245a503          	lw	a0,36(a1)
   12f20:	00150513          	addi	a0,a0,1
   12f24:	02a5a223          	sw	a0,36(a1)
   12f28:	00843503          	ld	a0,8(s0)
   12f2c:	01053703          	ld	a4,16(a0)
   12f30:	00100593          	li	a1,1
   12f34:	00100693          	li	a3,1
   12f38:	00040513          	mv	a0,s0
   12f3c:	00090613          	mv	a2,s2
   12f40:	000700e7          	jalr	a4
   12f44:	02a4b023          	sd	a0,32(s1)
   12f48:	0334a423          	sw	s3,40(s1)
   12f4c:	00048513          	mv	a0,s1
   12f50:	02813083          	ld	ra,40(sp)
   12f54:	02013403          	ld	s0,32(sp)
   12f58:	01813483          	ld	s1,24(sp)
   12f5c:	01013903          	ld	s2,16(sp)
   12f60:	00813983          	ld	s3,8(sp)
   12f64:	03010113          	addi	sp,sp,48
   12f68:	00008067          	ret
   12f6c:	00013537          	lui	a0,0x13
   12f70:	56450513          	addi	a0,a0,1380 # 13564 <put_pixel_rows>
   12f74:	f41ff06f          	j	12eb4 <jinit_write_bmp+0x98>

0000000000012f78 <start_output_bmp>:
   12f78:	00008067          	ret

0000000000012f7c <finish_output_bmp>:
   12f7c:	f6010113          	addi	sp,sp,-160
   12f80:	08113c23          	sd	ra,152(sp)
   12f84:	08813823          	sd	s0,144(sp)
   12f88:	08913423          	sd	s1,136(sp)
   12f8c:	09213023          	sd	s2,128(sp)
   12f90:	07313c23          	sd	s3,120(sp)
   12f94:	07413823          	sd	s4,112(sp)
   12f98:	07513423          	sd	s5,104(sp)
   12f9c:	07613023          	sd	s6,96(sp)
   12fa0:	05713c23          	sd	s7,88(sp)
   12fa4:	05813823          	sd	s8,80(sp)
   12fa8:	05913423          	sd	s9,72(sp)
   12fac:	05a13023          	sd	s10,64(sp)
   12fb0:	00058913          	mv	s2,a1
   12fb4:	00050413          	mv	s0,a0
   12fb8:	0185b483          	ld	s1,24(a1)
   12fbc:	0305a503          	lw	a0,48(a1)
   12fc0:	01043a03          	ld	s4,16(s0)
   12fc4:	02050863          	beqz	a0,12ff4 <finish_output_bmp+0x78>
   12fc8:	04042583          	lw	a1,64(s0)
   12fcc:	00200613          	li	a2,2
   12fd0:	00100513          	li	a0,1
   12fd4:	04c59663          	bne	a1,a2,13020 <finish_output_bmp+0xa4>
   12fd8:	06c42603          	lw	a2,108(s0)
   12fdc:	00c03ab3          	snez	s5,a2
   12fe0:	00800593          	li	a1,8
   12fe4:	00061463          	bnez	a2,12fec <finish_output_bmp+0x70>
   12fe8:	01800593          	li	a1,24
   12fec:	008a9993          	slli	s3,s5,0x8
   12ff0:	03c0006f          	j	1302c <finish_output_bmp+0xb0>
   12ff4:	04042503          	lw	a0,64(s0)
   12ff8:	00200b13          	li	s6,2
   12ffc:	00100b93          	li	s7,1
   13000:	15651863          	bne	a0,s6,13150 <finish_output_bmp+0x1d4>
   13004:	06c42503          	lw	a0,108(s0)
   13008:	00a03ab3          	snez	s5,a0
   1300c:	00800c13          	li	s8,8
   13010:	00051463          	bnez	a0,13018 <finish_output_bmp+0x9c>
   13014:	01800c13          	li	s8,24
   13018:	008a9993          	slli	s3,s5,0x8
   1301c:	1400006f          	j	1315c <finish_output_bmp+0x1e0>
   13020:	10000993          	li	s3,256
   13024:	00800593          	li	a1,8
   13028:	00100a93          	li	s5,1
   1302c:	04496603          	lwu	a2,68(s2)
   13030:	08c46683          	lwu	a3,140(s0)
   13034:	00199713          	slli	a4,s3,0x1
   13038:	01370733          	add	a4,a4,s3
   1303c:	01a76793          	ori	a5,a4,26
   13040:	02c68633          	mul	a2,a3,a2
   13044:	00f60633          	add	a2,a2,a5
   13048:	000109a3          	sb	zero,19(sp)
   1304c:	00010923          	sb	zero,18(sp)
   13050:	000108a3          	sb	zero,17(sp)
   13054:	00010823          	sb	zero,16(sp)
   13058:	02010aa3          	sb	zero,53(sp)
   1305c:	02010a23          	sb	zero,52(sp)
   13060:	04200793          	li	a5,66
   13064:	00f10523          	sb	a5,10(sp)
   13068:	04d00793          	li	a5,77
   1306c:	00f105a3          	sb	a5,11(sp)
   13070:	00c10623          	sb	a2,12(sp)
   13074:	00865793          	srli	a5,a2,0x8
   13078:	00f106a3          	sb	a5,13(sp)
   1307c:	01065793          	srli	a5,a2,0x10
   13080:	00f10723          	sb	a5,14(sp)
   13084:	01865613          	srli	a2,a2,0x18
   13088:	00c107a3          	sb	a2,15(sp)
   1308c:	01a00613          	li	a2,26
   13090:	00c10a23          	sb	a2,20(sp)
   13094:	00875713          	srli	a4,a4,0x8
   13098:	00e10aa3          	sb	a4,21(sp)
   1309c:	00010b23          	sb	zero,22(sp)
   130a0:	00010ba3          	sb	zero,23(sp)
   130a4:	08842603          	lw	a2,136(s0)
   130a8:	00c00b13          	li	s6,12
   130ac:	03610923          	sb	s6,50(sp)
   130b0:	020109a3          	sb	zero,51(sp)
   130b4:	02c10b23          	sb	a2,54(sp)
   130b8:	00865613          	srli	a2,a2,0x8
   130bc:	02c10ba3          	sb	a2,55(sp)
   130c0:	02d10c23          	sb	a3,56(sp)
   130c4:	0086d693          	srli	a3,a3,0x8
   130c8:	02d10ca3          	sb	a3,57(sp)
   130cc:	02a10d23          	sb	a0,58(sp)
   130d0:	02010da3          	sb	zero,59(sp)
   130d4:	02b10e23          	sb	a1,60(sp)
   130d8:	02010ea3          	sb	zero,61(sp)
   130dc:	00a10513          	addi	a0,sp,10
   130e0:	00100593          	li	a1,1
   130e4:	00e00613          	li	a2,14
   130e8:	00e00b93          	li	s7,14
   130ec:	00048693          	mv	a3,s1
   130f0:	a41fd0ef          	jal	10b30 <fwrite@plt>
   130f4:	01750e63          	beq	a0,s7,13110 <finish_output_bmp+0x194>
   130f8:	00043503          	ld	a0,0(s0)
   130fc:	00053583          	ld	a1,0(a0)
   13100:	02500613          	li	a2,37
   13104:	02c52423          	sw	a2,40(a0)
   13108:	00040513          	mv	a0,s0
   1310c:	000580e7          	jalr	a1
   13110:	01893683          	ld	a3,24(s2)
   13114:	03210513          	addi	a0,sp,50
   13118:	00100593          	li	a1,1
   1311c:	00c00613          	li	a2,12
   13120:	a11fd0ef          	jal	10b30 <fwrite@plt>
   13124:	01650e63          	beq	a0,s6,13140 <finish_output_bmp+0x1c4>
   13128:	00043503          	ld	a0,0(s0)
   1312c:	00053583          	ld	a1,0(a0)
   13130:	02500613          	li	a2,37
   13134:	02c52423          	sw	a2,40(a0)
   13138:	00040513          	mv	a0,s0
   1313c:	000580e7          	jalr	a1
   13140:	1c0a8063          	beqz	s5,13300 <finish_output_bmp+0x384>
   13144:	01893583          	ld	a1,24(s2)
   13148:	00300693          	li	a3,3
   1314c:	1a80006f          	j	132f4 <finish_output_bmp+0x378>
   13150:	10000993          	li	s3,256
   13154:	00800c13          	li	s8,8
   13158:	00100a93          	li	s5,1
   1315c:	04496503          	lwu	a0,68(s2)
   13160:	08c46c83          	lwu	s9,140(s0)
   13164:	00299593          	slli	a1,s3,0x2
   13168:	0365e593          	ori	a1,a1,54
   1316c:	02ac8533          	mul	a0,s9,a0
   13170:	00b50d33          	add	s10,a0,a1
   13174:	02010da3          	sb	zero,59(sp)
   13178:	02010d23          	sb	zero,58(sp)
   1317c:	02010ca3          	sb	zero,57(sp)
   13180:	02010c23          	sb	zero,56(sp)
   13184:	00c10513          	addi	a0,sp,12
   13188:	02600613          	li	a2,38
   1318c:	00000593          	li	a1,0
   13190:	ac1fd0ef          	jal	10c50 <memset@plt>
   13194:	04200513          	li	a0,66
   13198:	02a10923          	sb	a0,50(sp)
   1319c:	04d00513          	li	a0,77
   131a0:	02a109a3          	sb	a0,51(sp)
   131a4:	03a10a23          	sb	s10,52(sp)
   131a8:	008d5513          	srli	a0,s10,0x8
   131ac:	02a10aa3          	sb	a0,53(sp)
   131b0:	010d5513          	srli	a0,s10,0x10
   131b4:	02a10b23          	sb	a0,54(sp)
   131b8:	018d5513          	srli	a0,s10,0x18
   131bc:	02a10ba3          	sb	a0,55(sp)
   131c0:	03600513          	li	a0,54
   131c4:	02a10e23          	sb	a0,60(sp)
   131c8:	0069d513          	srli	a0,s3,0x6
   131cc:	02a10ea3          	sb	a0,61(sp)
   131d0:	02010f23          	sb	zero,62(sp)
   131d4:	02010fa3          	sb	zero,63(sp)
   131d8:	08842503          	lw	a0,136(s0)
   131dc:	02800593          	li	a1,40
   131e0:	00b10523          	sb	a1,10(sp)
   131e4:	000105a3          	sb	zero,11(sp)
   131e8:	00a10723          	sb	a0,14(sp)
   131ec:	00855593          	srli	a1,a0,0x8
   131f0:	00b107a3          	sb	a1,15(sp)
   131f4:	01055593          	srli	a1,a0,0x10
   131f8:	00b10823          	sb	a1,16(sp)
   131fc:	01855513          	srli	a0,a0,0x18
   13200:	00a108a3          	sb	a0,17(sp)
   13204:	01910923          	sb	s9,18(sp)
   13208:	008cd513          	srli	a0,s9,0x8
   1320c:	00a109a3          	sb	a0,19(sp)
   13210:	010cd513          	srli	a0,s9,0x10
   13214:	00a10a23          	sb	a0,20(sp)
   13218:	17a44503          	lbu	a0,378(s0)
   1321c:	018cd593          	srli	a1,s9,0x18
   13220:	00b10aa3          	sb	a1,21(sp)
   13224:	01710b23          	sb	s7,22(sp)
   13228:	01810c23          	sb	s8,24(sp)
   1322c:	05651463          	bne	a0,s6,13274 <finish_output_bmp+0x2f8>
   13230:	17c45503          	lhu	a0,380(s0)
   13234:	06400593          	li	a1,100
   13238:	02b50533          	mul	a0,a0,a1
   1323c:	02a10123          	sb	a0,34(sp)
   13240:	00855613          	srli	a2,a0,0x8
   13244:	02c101a3          	sb	a2,35(sp)
   13248:	17e45603          	lhu	a2,382(s0)
   1324c:	01055513          	srli	a0,a0,0x10
   13250:	02a10223          	sb	a0,36(sp)
   13254:	020102a3          	sb	zero,37(sp)
   13258:	02b60533          	mul	a0,a2,a1
   1325c:	02a10323          	sb	a0,38(sp)
   13260:	00855593          	srli	a1,a0,0x8
   13264:	02b103a3          	sb	a1,39(sp)
   13268:	01055513          	srli	a0,a0,0x10
   1326c:	02a10423          	sb	a0,40(sp)
   13270:	020104a3          	sb	zero,41(sp)
   13274:	02010523          	sb	zero,42(sp)
   13278:	0089d513          	srli	a0,s3,0x8
   1327c:	02a105a3          	sb	a0,43(sp)
   13280:	03210513          	addi	a0,sp,50
   13284:	00100593          	li	a1,1
   13288:	00e00613          	li	a2,14
   1328c:	00e00b13          	li	s6,14
   13290:	00048693          	mv	a3,s1
   13294:	89dfd0ef          	jal	10b30 <fwrite@plt>
   13298:	01650e63          	beq	a0,s6,132b4 <finish_output_bmp+0x338>
   1329c:	00043503          	ld	a0,0(s0)
   132a0:	00053583          	ld	a1,0(a0)
   132a4:	02500613          	li	a2,37
   132a8:	02c52423          	sw	a2,40(a0)
   132ac:	00040513          	mv	a0,s0
   132b0:	000580e7          	jalr	a1
   132b4:	01893683          	ld	a3,24(s2)
   132b8:	00a10513          	addi	a0,sp,10
   132bc:	00100593          	li	a1,1
   132c0:	02800613          	li	a2,40
   132c4:	02800b13          	li	s6,40
   132c8:	869fd0ef          	jal	10b30 <fwrite@plt>
   132cc:	01650e63          	beq	a0,s6,132e8 <finish_output_bmp+0x36c>
   132d0:	00043503          	ld	a0,0(s0)
   132d4:	00053583          	ld	a1,0(a0)
   132d8:	02500613          	li	a2,37
   132dc:	02c52423          	sw	a2,40(a0)
   132e0:	00040513          	mv	a0,s0
   132e4:	000580e7          	jalr	a1
   132e8:	000a8c63          	beqz	s5,13300 <finish_output_bmp+0x384>
   132ec:	01893583          	ld	a1,24(s2)
   132f0:	00400693          	li	a3,4
   132f4:	00040513          	mv	a0,s0
   132f8:	00098613          	mv	a2,s3
   132fc:	338000ef          	jal	13634 <write_colormap>
   13300:	08c42983          	lw	s3,140(s0)
   13304:	0e098863          	beqz	s3,133f4 <finish_output_bmp+0x478>
   13308:	000a1663          	bnez	s4,13314 <finish_output_bmp+0x398>
   1330c:	08c0006f          	j	13398 <finish_output_bmp+0x41c>
   13310:	0e098263          	beqz	s3,133f4 <finish_output_bmp+0x478>
   13314:	08c46503          	lwu	a0,140(s0)
   13318:	413505bb          	subw	a1,a0,s3
   1331c:	02059593          	slli	a1,a1,0x20
   13320:	000a3603          	ld	a2,0(s4)
   13324:	0205d593          	srli	a1,a1,0x20
   13328:	00ba3423          	sd	a1,8(s4)
   1332c:	00aa3823          	sd	a0,16(s4)
   13330:	00040513          	mv	a0,s0
   13334:	000600e7          	jalr	a2
   13338:	00843503          	ld	a0,8(s0)
   1333c:	03853783          	ld	a5,56(a0)
   13340:	03893583          	ld	a1,56(s2)
   13344:	fff9899b          	addiw	s3,s3,-1
   13348:	00100693          	li	a3,1
   1334c:	00040513          	mv	a0,s0
   13350:	00098613          	mv	a2,s3
   13354:	00000713          	li	a4,0
   13358:	000780e7          	jalr	a5
   1335c:	04492583          	lw	a1,68(s2)
   13360:	fa0588e3          	beqz	a1,13310 <finish_output_bmp+0x394>
   13364:	00053a83          	ld	s5,0(a0)
   13368:	fff58593          	addi	a1,a1,-1
   1336c:	02059593          	slli	a1,a1,0x20
   13370:	0205d593          	srli	a1,a1,0x20
   13374:	00ba85b3          	add	a1,s5,a1
   13378:	00158b13          	addi	s6,a1,1
   1337c:	000ac503          	lbu	a0,0(s5)
   13380:	00048593          	mv	a1,s1
   13384:	82dfd0ef          	jal	10bb0 <putc@plt>
   13388:	001a8a93          	addi	s5,s5,1
   1338c:	ff6a98e3          	bne	s5,s6,1337c <finish_output_bmp+0x400>
   13390:	f81ff06f          	j	13310 <finish_output_bmp+0x394>
   13394:	06098063          	beqz	s3,133f4 <finish_output_bmp+0x478>
   13398:	00843503          	ld	a0,8(s0)
   1339c:	03853783          	ld	a5,56(a0)
   133a0:	03893583          	ld	a1,56(s2)
   133a4:	fff9899b          	addiw	s3,s3,-1
   133a8:	00100693          	li	a3,1
   133ac:	00040513          	mv	a0,s0
   133b0:	00098613          	mv	a2,s3
   133b4:	00000713          	li	a4,0
   133b8:	000780e7          	jalr	a5
   133bc:	04492583          	lw	a1,68(s2)
   133c0:	fc058ae3          	beqz	a1,13394 <finish_output_bmp+0x418>
   133c4:	00053a83          	ld	s5,0(a0)
   133c8:	fff58593          	addi	a1,a1,-1
   133cc:	02059593          	slli	a1,a1,0x20
   133d0:	0205d593          	srli	a1,a1,0x20
   133d4:	00ba85b3          	add	a1,s5,a1
   133d8:	00158b13          	addi	s6,a1,1
   133dc:	000ac503          	lbu	a0,0(s5)
   133e0:	00048593          	mv	a1,s1
   133e4:	fccfd0ef          	jal	10bb0 <putc@plt>
   133e8:	001a8a93          	addi	s5,s5,1
   133ec:	ff6a98e3          	bne	s5,s6,133dc <finish_output_bmp+0x460>
   133f0:	fa5ff06f          	j	13394 <finish_output_bmp+0x418>
   133f4:	000a0863          	beqz	s4,13404 <finish_output_bmp+0x488>
   133f8:	020a2503          	lw	a0,32(s4)
   133fc:	00150513          	addi	a0,a0,1
   13400:	02aa2023          	sw	a0,32(s4)
   13404:	00048513          	mv	a0,s1
   13408:	f78fd0ef          	jal	10b80 <fflush@plt>
   1340c:	00048513          	mv	a0,s1
   13410:	831fd0ef          	jal	10c40 <ferror@plt>
   13414:	04050863          	beqz	a0,13464 <finish_output_bmp+0x4e8>
   13418:	00043503          	ld	a0,0(s0)
   1341c:	00053303          	ld	t1,0(a0)
   13420:	02500593          	li	a1,37
   13424:	02b52423          	sw	a1,40(a0)
   13428:	00040513          	mv	a0,s0
   1342c:	09813083          	ld	ra,152(sp)
   13430:	09013403          	ld	s0,144(sp)
   13434:	08813483          	ld	s1,136(sp)
   13438:	08013903          	ld	s2,128(sp)
   1343c:	07813983          	ld	s3,120(sp)
   13440:	07013a03          	ld	s4,112(sp)
   13444:	06813a83          	ld	s5,104(sp)
   13448:	06013b03          	ld	s6,96(sp)
   1344c:	05813b83          	ld	s7,88(sp)
   13450:	05013c03          	ld	s8,80(sp)
   13454:	04813c83          	ld	s9,72(sp)
   13458:	04013d03          	ld	s10,64(sp)
   1345c:	0a010113          	addi	sp,sp,160
   13460:	00030067          	jr	t1
   13464:	09813083          	ld	ra,152(sp)
   13468:	09013403          	ld	s0,144(sp)
   1346c:	08813483          	ld	s1,136(sp)
   13470:	08013903          	ld	s2,128(sp)
   13474:	07813983          	ld	s3,120(sp)
   13478:	07013a03          	ld	s4,112(sp)
   1347c:	06813a83          	ld	s5,104(sp)
   13480:	06013b03          	ld	s6,96(sp)
   13484:	05813b83          	ld	s7,88(sp)
   13488:	05013c03          	ld	s8,80(sp)
   1348c:	04813c83          	ld	s9,72(sp)
   13490:	04013d03          	ld	s10,64(sp)
   13494:	0a010113          	addi	sp,sp,160
   13498:	00008067          	ret

000000000001349c <put_gray_rows>:
   1349c:	fe010113          	addi	sp,sp,-32
   134a0:	00113c23          	sd	ra,24(sp)
   134a4:	00813823          	sd	s0,16(sp)
   134a8:	00913423          	sd	s1,8(sp)
   134ac:	00050493          	mv	s1,a0
   134b0:	00853503          	ld	a0,8(a0)
   134b4:	00058413          	mv	s0,a1
   134b8:	03853783          	ld	a5,56(a0)
   134bc:	0385b583          	ld	a1,56(a1)
   134c0:	04c42603          	lw	a2,76(s0)
   134c4:	00100693          	li	a3,1
   134c8:	00100713          	li	a4,1
   134cc:	00048513          	mv	a0,s1
   134d0:	000780e7          	jalr	a5
   134d4:	04c42603          	lw	a2,76(s0)
   134d8:	0884a683          	lw	a3,136(s1)
   134dc:	00053583          	ld	a1,0(a0)
   134e0:	00160613          	addi	a2,a2,1
   134e4:	04c42623          	sw	a2,76(s0)
   134e8:	04068e63          	beqz	a3,13544 <put_gray_rows+0xa8>
   134ec:	02043503          	ld	a0,32(s0)
   134f0:	00053603          	ld	a2,0(a0)
   134f4:	fff68693          	addi	a3,a3,-1
   134f8:	02069693          	slli	a3,a3,0x20
   134fc:	0206d693          	srli	a3,a3,0x20
   13500:	00c686b3          	add	a3,a3,a2
   13504:	00168693          	addi	a3,a3,1
   13508:	00064703          	lbu	a4,0(a2)
   1350c:	00160793          	addi	a5,a2,1
   13510:	00158513          	addi	a0,a1,1
   13514:	00e58023          	sb	a4,0(a1)
   13518:	00050593          	mv	a1,a0
   1351c:	00078613          	mv	a2,a5
   13520:	fed794e3          	bne	a5,a3,13508 <put_gray_rows+0x6c>
   13524:	04842603          	lw	a2,72(s0)
   13528:	02c05463          	blez	a2,13550 <put_gray_rows+0xb4>
   1352c:	00000593          	li	a1,0
   13530:	01813083          	ld	ra,24(sp)
   13534:	01013403          	ld	s0,16(sp)
   13538:	00813483          	ld	s1,8(sp)
   1353c:	02010113          	addi	sp,sp,32
   13540:	f10fd06f          	j	10c50 <memset@plt>
   13544:	00058513          	mv	a0,a1
   13548:	04842603          	lw	a2,72(s0)
   1354c:	fec040e3          	bgtz	a2,1352c <put_gray_rows+0x90>
   13550:	01813083          	ld	ra,24(sp)
   13554:	01013403          	ld	s0,16(sp)
   13558:	00813483          	ld	s1,8(sp)
   1355c:	02010113          	addi	sp,sp,32
   13560:	00008067          	ret

0000000000013564 <put_pixel_rows>:
   13564:	fe010113          	addi	sp,sp,-32
   13568:	00113c23          	sd	ra,24(sp)
   1356c:	00813823          	sd	s0,16(sp)
   13570:	00913423          	sd	s1,8(sp)
   13574:	00050493          	mv	s1,a0
   13578:	00853503          	ld	a0,8(a0)
   1357c:	00058413          	mv	s0,a1
   13580:	03853783          	ld	a5,56(a0)
   13584:	0385b583          	ld	a1,56(a1)
   13588:	04c42603          	lw	a2,76(s0)
   1358c:	00100693          	li	a3,1
   13590:	00100713          	li	a4,1
   13594:	00048513          	mv	a0,s1
   13598:	000780e7          	jalr	a5
   1359c:	04c42583          	lw	a1,76(s0)
   135a0:	0884a603          	lw	a2,136(s1)
   135a4:	00053503          	ld	a0,0(a0)
   135a8:	00158593          	addi	a1,a1,1
   135ac:	04b42623          	sw	a1,76(s0)
   135b0:	04060863          	beqz	a2,13600 <put_pixel_rows+0x9c>
   135b4:	02043583          	ld	a1,32(s0)
   135b8:	0005b583          	ld	a1,0(a1)
   135bc:	fff60613          	addi	a2,a2,-1
   135c0:	02061613          	slli	a2,a2,0x20
   135c4:	02065693          	srli	a3,a2,0x20
   135c8:	01f65613          	srli	a2,a2,0x1f
   135cc:	00d60633          	add	a2,a2,a3
   135d0:	00b60633          	add	a2,a2,a1
   135d4:	00360613          	addi	a2,a2,3
   135d8:	0005c683          	lbu	a3,0(a1)
   135dc:	00d50123          	sb	a3,2(a0)
   135e0:	0015c683          	lbu	a3,1(a1)
   135e4:	00d500a3          	sb	a3,1(a0)
   135e8:	0025c683          	lbu	a3,2(a1)
   135ec:	00358713          	addi	a4,a1,3
   135f0:	00d50023          	sb	a3,0(a0)
   135f4:	00350513          	addi	a0,a0,3
   135f8:	00070593          	mv	a1,a4
   135fc:	fcc71ee3          	bne	a4,a2,135d8 <put_pixel_rows+0x74>
   13600:	04842603          	lw	a2,72(s0)
   13604:	00c05e63          	blez	a2,13620 <put_pixel_rows+0xbc>
   13608:	00000593          	li	a1,0
   1360c:	01813083          	ld	ra,24(sp)
   13610:	01013403          	ld	s0,16(sp)
   13614:	00813483          	ld	s1,8(sp)
   13618:	02010113          	addi	sp,sp,32
   1361c:	e34fd06f          	j	10c50 <memset@plt>
   13620:	01813083          	ld	ra,24(sp)
   13624:	01013403          	ld	s0,16(sp)
   13628:	00813483          	ld	s1,8(sp)
   1362c:	02010113          	addi	sp,sp,32
   13630:	00008067          	ret

0000000000013634 <write_colormap>:
   13634:	fc010113          	addi	sp,sp,-64
   13638:	02113c23          	sd	ra,56(sp)
   1363c:	02813823          	sd	s0,48(sp)
   13640:	02913423          	sd	s1,40(sp)
   13644:	03213023          	sd	s2,32(sp)
   13648:	01313c23          	sd	s3,24(sp)
   1364c:	01413823          	sd	s4,16(sp)
   13650:	01513423          	sd	s5,8(sp)
   13654:	01613023          	sd	s6,0(sp)
   13658:	00050993          	mv	s3,a0
   1365c:	0a053a03          	ld	s4,160(a0)
   13660:	00068913          	mv	s2,a3
   13664:	00060493          	mv	s1,a2
   13668:	00058413          	mv	s0,a1
   1366c:	0c0a0063          	beqz	s4,1372c <write_colormap+0xf8>
   13670:	0909a503          	lw	a0,144(s3)
   13674:	09c9aa83          	lw	s5,156(s3)
   13678:	00300593          	li	a1,3
   1367c:	12b51663          	bne	a0,a1,137a8 <write_colormap+0x174>
   13680:	1d505a63          	blez	s5,13854 <write_colormap+0x220>
   13684:	00000b13          	li	s6,0
   13688:	00400513          	li	a0,4
   1368c:	04a91c63          	bne	s2,a0,136e4 <write_colormap+0xb0>
   13690:	010a3503          	ld	a0,16(s4)
   13694:	01650533          	add	a0,a0,s6
   13698:	00054503          	lbu	a0,0(a0)
   1369c:	00040593          	mv	a1,s0
   136a0:	d10fd0ef          	jal	10bb0 <putc@plt>
   136a4:	008a3503          	ld	a0,8(s4)
   136a8:	01650533          	add	a0,a0,s6
   136ac:	00054503          	lbu	a0,0(a0)
   136b0:	00040593          	mv	a1,s0
   136b4:	cfcfd0ef          	jal	10bb0 <putc@plt>
   136b8:	000a3503          	ld	a0,0(s4)
   136bc:	01650533          	add	a0,a0,s6
   136c0:	00054503          	lbu	a0,0(a0)
   136c4:	00040593          	mv	a1,s0
   136c8:	ce8fd0ef          	jal	10bb0 <putc@plt>
   136cc:	00000513          	li	a0,0
   136d0:	00040593          	mv	a1,s0
   136d4:	cdcfd0ef          	jal	10bb0 <putc@plt>
   136d8:	001b0b13          	addi	s6,s6,1
   136dc:	fb6a9ae3          	bne	s5,s6,13690 <write_colormap+0x5c>
   136e0:	1780006f          	j	13858 <write_colormap+0x224>
   136e4:	010a3503          	ld	a0,16(s4)
   136e8:	01650533          	add	a0,a0,s6
   136ec:	00054503          	lbu	a0,0(a0)
   136f0:	00040593          	mv	a1,s0
   136f4:	cbcfd0ef          	jal	10bb0 <putc@plt>
   136f8:	008a3503          	ld	a0,8(s4)
   136fc:	01650533          	add	a0,a0,s6
   13700:	00054503          	lbu	a0,0(a0)
   13704:	00040593          	mv	a1,s0
   13708:	ca8fd0ef          	jal	10bb0 <putc@plt>
   1370c:	000a3503          	ld	a0,0(s4)
   13710:	01650533          	add	a0,a0,s6
   13714:	00054503          	lbu	a0,0(a0)
   13718:	00040593          	mv	a1,s0
   1371c:	c94fd0ef          	jal	10bb0 <putc@plt>
   13720:	001b0b13          	addi	s6,s6,1
   13724:	fd6a90e3          	bne	s5,s6,136e4 <write_colormap+0xb0>
   13728:	1300006f          	j	13858 <write_colormap+0x224>
   1372c:	00000a13          	li	s4,0
   13730:	10000a93          	li	s5,256
   13734:	00400513          	li	a0,4
   13738:	04a91063          	bne	s2,a0,13778 <write_colormap+0x144>
   1373c:	000a0513          	mv	a0,s4
   13740:	00040593          	mv	a1,s0
   13744:	c6cfd0ef          	jal	10bb0 <putc@plt>
   13748:	000a0513          	mv	a0,s4
   1374c:	00040593          	mv	a1,s0
   13750:	c60fd0ef          	jal	10bb0 <putc@plt>
   13754:	000a0513          	mv	a0,s4
   13758:	00040593          	mv	a1,s0
   1375c:	c54fd0ef          	jal	10bb0 <putc@plt>
   13760:	00000513          	li	a0,0
   13764:	00040593          	mv	a1,s0
   13768:	c48fd0ef          	jal	10bb0 <putc@plt>
   1376c:	001a0a1b          	addiw	s4,s4,1
   13770:	fd5a16e3          	bne	s4,s5,1373c <write_colormap+0x108>
   13774:	0e40006f          	j	13858 <write_colormap+0x224>
   13778:	000a0513          	mv	a0,s4
   1377c:	00040593          	mv	a1,s0
   13780:	c30fd0ef          	jal	10bb0 <putc@plt>
   13784:	000a0513          	mv	a0,s4
   13788:	00040593          	mv	a1,s0
   1378c:	c24fd0ef          	jal	10bb0 <putc@plt>
   13790:	000a0513          	mv	a0,s4
   13794:	00040593          	mv	a1,s0
   13798:	c18fd0ef          	jal	10bb0 <putc@plt>
   1379c:	001a0a1b          	addiw	s4,s4,1
   137a0:	fd5a1ce3          	bne	s4,s5,13778 <write_colormap+0x144>
   137a4:	0b40006f          	j	13858 <write_colormap+0x224>
   137a8:	17505a63          	blez	s5,1391c <write_colormap+0x2e8>
   137ac:	00000b13          	li	s6,0
   137b0:	00400513          	li	a0,4
   137b4:	04a91c63          	bne	s2,a0,1380c <write_colormap+0x1d8>
   137b8:	000a3503          	ld	a0,0(s4)
   137bc:	01650533          	add	a0,a0,s6
   137c0:	00054503          	lbu	a0,0(a0)
   137c4:	00040593          	mv	a1,s0
   137c8:	be8fd0ef          	jal	10bb0 <putc@plt>
   137cc:	000a3503          	ld	a0,0(s4)
   137d0:	01650533          	add	a0,a0,s6
   137d4:	00054503          	lbu	a0,0(a0)
   137d8:	00040593          	mv	a1,s0
   137dc:	bd4fd0ef          	jal	10bb0 <putc@plt>
   137e0:	000a3503          	ld	a0,0(s4)
   137e4:	01650533          	add	a0,a0,s6
   137e8:	00054503          	lbu	a0,0(a0)
   137ec:	00040593          	mv	a1,s0
   137f0:	bc0fd0ef          	jal	10bb0 <putc@plt>
   137f4:	00000513          	li	a0,0
   137f8:	00040593          	mv	a1,s0
   137fc:	bb4fd0ef          	jal	10bb0 <putc@plt>
   13800:	001b0b13          	addi	s6,s6,1
   13804:	fb6a9ae3          	bne	s5,s6,137b8 <write_colormap+0x184>
   13808:	0500006f          	j	13858 <write_colormap+0x224>
   1380c:	000a3503          	ld	a0,0(s4)
   13810:	01650533          	add	a0,a0,s6
   13814:	00054503          	lbu	a0,0(a0)
   13818:	00040593          	mv	a1,s0
   1381c:	b94fd0ef          	jal	10bb0 <putc@plt>
   13820:	000a3503          	ld	a0,0(s4)
   13824:	01650533          	add	a0,a0,s6
   13828:	00054503          	lbu	a0,0(a0)
   1382c:	00040593          	mv	a1,s0
   13830:	b80fd0ef          	jal	10bb0 <putc@plt>
   13834:	000a3503          	ld	a0,0(s4)
   13838:	01650533          	add	a0,a0,s6
   1383c:	00054503          	lbu	a0,0(a0)
   13840:	00040593          	mv	a1,s0
   13844:	b6cfd0ef          	jal	10bb0 <putc@plt>
   13848:	001b0b13          	addi	s6,s6,1
   1384c:	fd6a90e3          	bne	s5,s6,1380c <write_colormap+0x1d8>
   13850:	0080006f          	j	13858 <write_colormap+0x224>
   13854:	00000a93          	li	s5,0
   13858:	0354d263          	bge	s1,s5,1387c <write_colormap+0x248>
   1385c:	0009b503          	ld	a0,0(s3)
   13860:	03552623          	sw	s5,44(a0)
   13864:	0009b583          	ld	a1,0(s3)
   13868:	0005b583          	ld	a1,0(a1)
   1386c:	40f00613          	li	a2,1039
   13870:	02c52423          	sw	a2,40(a0)
   13874:	00098513          	mv	a0,s3
   13878:	000580e7          	jalr	a1
   1387c:	069adc63          	bge	s5,s1,138f4 <write_colormap+0x2c0>
   13880:	415484bb          	subw	s1,s1,s5
   13884:	00400513          	li	a0,4
   13888:	04a91063          	bne	s2,a0,138c8 <write_colormap+0x294>
   1388c:	00000513          	li	a0,0
   13890:	00040593          	mv	a1,s0
   13894:	b1cfd0ef          	jal	10bb0 <putc@plt>
   13898:	00000513          	li	a0,0
   1389c:	00040593          	mv	a1,s0
   138a0:	b10fd0ef          	jal	10bb0 <putc@plt>
   138a4:	00000513          	li	a0,0
   138a8:	00040593          	mv	a1,s0
   138ac:	b04fd0ef          	jal	10bb0 <putc@plt>
   138b0:	00000513          	li	a0,0
   138b4:	00040593          	mv	a1,s0
   138b8:	af8fd0ef          	jal	10bb0 <putc@plt>
   138bc:	fff4849b          	addiw	s1,s1,-1
   138c0:	fc0496e3          	bnez	s1,1388c <write_colormap+0x258>
   138c4:	0300006f          	j	138f4 <write_colormap+0x2c0>
   138c8:	00000513          	li	a0,0
   138cc:	00040593          	mv	a1,s0
   138d0:	ae0fd0ef          	jal	10bb0 <putc@plt>
   138d4:	00000513          	li	a0,0
   138d8:	00040593          	mv	a1,s0
   138dc:	ad4fd0ef          	jal	10bb0 <putc@plt>
   138e0:	00000513          	li	a0,0
   138e4:	00040593          	mv	a1,s0
   138e8:	ac8fd0ef          	jal	10bb0 <putc@plt>
   138ec:	fff4849b          	addiw	s1,s1,-1
   138f0:	fc049ce3          	bnez	s1,138c8 <write_colormap+0x294>
   138f4:	03813083          	ld	ra,56(sp)
   138f8:	03013403          	ld	s0,48(sp)
   138fc:	02813483          	ld	s1,40(sp)
   13900:	02013903          	ld	s2,32(sp)
   13904:	01813983          	ld	s3,24(sp)
   13908:	01013a03          	ld	s4,16(sp)
   1390c:	00813a83          	ld	s5,8(sp)
   13910:	00013b03          	ld	s6,0(sp)
   13914:	04010113          	addi	sp,sp,64
   13918:	00008067          	ret
   1391c:	00000a93          	li	s5,0
   13920:	f204cee3          	bltz	s1,1385c <write_colormap+0x228>
   13924:	f59ff06f          	j	1387c <write_colormap+0x248>

0000000000013928 <read_color_map>:
   13928:	f5010113          	addi	sp,sp,-176
   1392c:	0a113423          	sd	ra,168(sp)
   13930:	0a813023          	sd	s0,160(sp)
   13934:	08913c23          	sd	s1,152(sp)
   13938:	09213823          	sd	s2,144(sp)
   1393c:	09313423          	sd	s3,136(sp)
   13940:	09413023          	sd	s4,128(sp)
   13944:	07513c23          	sd	s5,120(sp)
   13948:	07613823          	sd	s6,112(sp)
   1394c:	07713423          	sd	s7,104(sp)
   13950:	07813023          	sd	s8,96(sp)
   13954:	05913c23          	sd	s9,88(sp)
   13958:	05a13823          	sd	s10,80(sp)
   1395c:	05b13423          	sd	s11,72(sp)
   13960:	00050b13          	mv	s6,a0
   13964:	00853503          	ld	a0,8(a0)
   13968:	01053703          	ld	a4,16(a0)
   1396c:	00058493          	mv	s1,a1
   13970:	00100593          	li	a1,1
   13974:	10000613          	li	a2,256
   13978:	00300693          	li	a3,3
   1397c:	000b0513          	mv	a0,s6
   13980:	000700e7          	jalr	a4
   13984:	0aab3023          	sd	a0,160(s6)
   13988:	080b2e23          	sw	zero,156(s6)
   1398c:	00048513          	mv	a0,s1
   13990:	a30fd0ef          	jal	10bc0 <getc@plt>
   13994:	05000593          	li	a1,80
   13998:	05613023          	sd	s6,64(sp)
   1399c:	0cb50663          	beq	a0,a1,13a68 <read_color_map+0x140>
   139a0:	04700593          	li	a1,71
   139a4:	26b51863          	bne	a0,a1,13c14 <read_color_map+0x2ec>
   139a8:	00048513          	mv	a0,s1
   139ac:	a14fd0ef          	jal	10bc0 <getc@plt>
   139b0:	fff00413          	li	s0,-1
   139b4:	00050913          	mv	s2,a0
   139b8:	64850263          	beq	a0,s0,13ffc <read_color_map+0x6d4>
   139bc:	00048513          	mv	a0,s1
   139c0:	a00fd0ef          	jal	10bc0 <getc@plt>
   139c4:	00050993          	mv	s3,a0
   139c8:	64850e63          	beq	a0,s0,14024 <read_color_map+0x6fc>
   139cc:	00048513          	mv	a0,s1
   139d0:	9f0fd0ef          	jal	10bc0 <getc@plt>
   139d4:	fff00413          	li	s0,-1
   139d8:	66850a63          	beq	a0,s0,1404c <read_color_map+0x724>
   139dc:	00048513          	mv	a0,s1
   139e0:	9e0fd0ef          	jal	10bc0 <getc@plt>
   139e4:	68850663          	beq	a0,s0,14070 <read_color_map+0x748>
   139e8:	00048513          	mv	a0,s1
   139ec:	9d4fd0ef          	jal	10bc0 <getc@plt>
   139f0:	fff00413          	li	s0,-1
   139f4:	6a850263          	beq	a0,s0,14098 <read_color_map+0x770>
   139f8:	00048513          	mv	a0,s1
   139fc:	9c4fd0ef          	jal	10bc0 <getc@plt>
   13a00:	6a850e63          	beq	a0,s0,140bc <read_color_map+0x794>
   13a04:	00048513          	mv	a0,s1
   13a08:	9b8fd0ef          	jal	10bc0 <getc@plt>
   13a0c:	fff00413          	li	s0,-1
   13a10:	6c850a63          	beq	a0,s0,140e4 <read_color_map+0x7bc>
   13a14:	00048513          	mv	a0,s1
   13a18:	9a8fd0ef          	jal	10bc0 <getc@plt>
   13a1c:	6e850663          	beq	a0,s0,14108 <read_color_map+0x7e0>
   13a20:	00048513          	mv	a0,s1
   13a24:	99cfd0ef          	jal	10bc0 <getc@plt>
   13a28:	fff00413          	li	s0,-1
   13a2c:	70850263          	beq	a0,s0,14130 <read_color_map+0x808>
   13a30:	00048513          	mv	a0,s1
   13a34:	98cfd0ef          	jal	10bc0 <getc@plt>
   13a38:	00050a13          	mv	s4,a0
   13a3c:	70850e63          	beq	a0,s0,14158 <read_color_map+0x830>
   13a40:	00048513          	mv	a0,s1
   13a44:	97cfd0ef          	jal	10bc0 <getc@plt>
   13a48:	fff00413          	li	s0,-1
   13a4c:	72850a63          	beq	a0,s0,14180 <read_color_map+0x858>
   13a50:	00048513          	mv	a0,s1
   13a54:	96cfd0ef          	jal	10bc0 <getc@plt>
   13a58:	74850663          	beq	a0,s0,141a4 <read_color_map+0x87c>
   13a5c:	04900513          	li	a0,73
   13a60:	76a90263          	beq	s2,a0,141c4 <read_color_map+0x89c>
   13a64:	7680006f          	j	141cc <read_color_map+0x8a4>
   13a68:	00048513          	mv	a0,s1
   13a6c:	954fd0ef          	jal	10bc0 <getc@plt>
   13a70:	00050a13          	mv	s4,a0
   13a74:	000b0513          	mv	a0,s6
   13a78:	00048593          	mv	a1,s1
   13a7c:	0ed000ef          	jal	14368 <read_pbm_integer>
   13a80:	00050413          	mv	s0,a0
   13a84:	000b0513          	mv	a0,s6
   13a88:	00048593          	mv	a1,s1
   13a8c:	0dd000ef          	jal	14368 <read_pbm_integer>
   13a90:	00a13823          	sd	a0,16(sp)
   13a94:	000b0513          	mv	a0,s6
   13a98:	00048593          	mv	a1,s1
   13a9c:	0cd000ef          	jal	14368 <read_pbm_integer>
   13aa0:	00050a93          	mv	s5,a0
   13aa4:	02813c23          	sd	s0,56(sp)
   13aa8:	1a040e63          	beqz	s0,13c64 <read_color_map+0x33c>
   13aac:	01013503          	ld	a0,16(sp)
   13ab0:	1a050a63          	beqz	a0,13c64 <read_color_map+0x33c>
   13ab4:	1a0a8863          	beqz	s5,13c64 <read_color_map+0x33c>
   13ab8:	0ff00513          	li	a0,255
   13abc:	1caa9463          	bne	s5,a0,13c84 <read_color_map+0x35c>
   13ac0:	03300513          	li	a0,51
   13ac4:	1eaa0063          	beq	s4,a0,13ca4 <read_color_map+0x37c>
   13ac8:	03600513          	li	a0,54
   13acc:	14aa1463          	bne	s4,a0,13c14 <read_color_map+0x2ec>
   13ad0:	03813503          	ld	a0,56(sp)
   13ad4:	04050ce3          	beqz	a0,1432c <read_color_map+0xa04>
   13ad8:	01013503          	ld	a0,16(sp)
   13adc:	040508e3          	beqz	a0,1432c <read_color_map+0xa04>
   13ae0:	00000593          	li	a1,0
   13ae4:	fff00b93          	li	s7,-1
   13ae8:	00100513          	li	a0,1
   13aec:	02851513          	slli	a0,a0,0x28
   13af0:	03950d13          	addi	s10,a0,57
   13af4:	0140006f          	j	13b08 <read_color_map+0x1e0>
   13af8:	03013583          	ld	a1,48(sp)
   13afc:	0015859b          	addiw	a1,a1,1
   13b00:	01013503          	ld	a0,16(sp)
   13b04:	02a584e3          	beq	a1,a0,1432c <read_color_map+0xa04>
   13b08:	02b13823          	sd	a1,48(sp)
   13b0c:	00000d93          	li	s11,0
   13b10:	0340006f          	j	13b44 <read_color_map+0x21c>
   13b14:	01340433          	add	s0,s0,s3
   13b18:	01440023          	sb	s4,0(s0)
   13b1c:	01390933          	add	s2,s2,s3
   13b20:	01590023          	sb	s5,0(s2)
   13b24:	013c09b3          	add	s3,s8,s3
   13b28:	01698023          	sb	s6,0(s3)
   13b2c:	09cca503          	lw	a0,156(s9)
   13b30:	00150513          	addi	a0,a0,1
   13b34:	08acae23          	sw	a0,156(s9)
   13b38:	001d8d9b          	addiw	s11,s11,1
   13b3c:	03813503          	ld	a0,56(sp)
   13b40:	faad8ce3          	beq	s11,a0,13af8 <read_color_map+0x1d0>
   13b44:	00048513          	mv	a0,s1
   13b48:	878fd0ef          	jal	10bc0 <getc@plt>
   13b4c:	00050a13          	mv	s4,a0
   13b50:	00048513          	mv	a0,s1
   13b54:	86cfd0ef          	jal	10bc0 <getc@plt>
   13b58:	00050a93          	mv	s5,a0
   13b5c:	00048513          	mv	a0,s1
   13b60:	860fd0ef          	jal	10bc0 <getc@plt>
   13b64:	00050b13          	mv	s6,a0
   13b68:	017a0663          	beq	s4,s7,13b74 <read_color_map+0x24c>
   13b6c:	017a8463          	beq	s5,s7,13b74 <read_color_map+0x24c>
   13b70:	017b1e63          	bne	s6,s7,13b8c <read_color_map+0x264>
   13b74:	04013503          	ld	a0,64(sp)
   13b78:	00053603          	ld	a2,0(a0)
   13b7c:	00063583          	ld	a1,0(a2)
   13b80:	40e00693          	li	a3,1038
   13b84:	02d62423          	sw	a3,40(a2)
   13b88:	000580e7          	jalr	a1
   13b8c:	04013c83          	ld	s9,64(sp)
   13b90:	0a0cb503          	ld	a0,160(s9)
   13b94:	00053403          	ld	s0,0(a0)
   13b98:	00853903          	ld	s2,8(a0)
   13b9c:	09cca983          	lw	s3,156(s9)
   13ba0:	01053c03          	ld	s8,16(a0)
   13ba4:	f73058e3          	blez	s3,13b14 <read_color_map+0x1ec>
   13ba8:	00040513          	mv	a0,s0
   13bac:	00090593          	mv	a1,s2
   13bb0:	000c0613          	mv	a2,s8
   13bb4:	00098693          	mv	a3,s3
   13bb8:	0180006f          	j	13bd0 <read_color_map+0x2a8>
   13bbc:	fff68693          	addi	a3,a3,-1
   13bc0:	00160613          	addi	a2,a2,1
   13bc4:	00158593          	addi	a1,a1,1
   13bc8:	00150513          	addi	a0,a0,1
   13bcc:	02068063          	beqz	a3,13bec <read_color_map+0x2c4>
   13bd0:	00054703          	lbu	a4,0(a0)
   13bd4:	feea14e3          	bne	s4,a4,13bbc <read_color_map+0x294>
   13bd8:	0005c703          	lbu	a4,0(a1)
   13bdc:	feea90e3          	bne	s5,a4,13bbc <read_color_map+0x294>
   13be0:	00064703          	lbu	a4,0(a2)
   13be4:	fceb1ce3          	bne	s6,a4,13bbc <read_color_map+0x294>
   13be8:	f51ff06f          	j	13b38 <read_color_map+0x210>
   13bec:	04013c83          	ld	s9,64(sp)
   13bf0:	10000513          	li	a0,256
   13bf4:	f2a9c0e3          	blt	s3,a0,13b14 <read_color_map+0x1ec>
   13bf8:	000cb503          	ld	a0,0(s9)
   13bfc:	03a53423          	sd	s10,40(a0)
   13c00:	000cb503          	ld	a0,0(s9)
   13c04:	00053583          	ld	a1,0(a0)
   13c08:	000c8513          	mv	a0,s9
   13c0c:	000580e7          	jalr	a1
   13c10:	f05ff06f          	j	13b14 <read_color_map+0x1ec>
   13c14:	000b3503          	ld	a0,0(s6)
   13c18:	00053303          	ld	t1,0(a0)
   13c1c:	40e00593          	li	a1,1038
   13c20:	02b52423          	sw	a1,40(a0)
   13c24:	000b0513          	mv	a0,s6
   13c28:	0a813083          	ld	ra,168(sp)
   13c2c:	0a013403          	ld	s0,160(sp)
   13c30:	09813483          	ld	s1,152(sp)
   13c34:	09013903          	ld	s2,144(sp)
   13c38:	08813983          	ld	s3,136(sp)
   13c3c:	08013a03          	ld	s4,128(sp)
   13c40:	07813a83          	ld	s5,120(sp)
   13c44:	07013b03          	ld	s6,112(sp)
   13c48:	06813b83          	ld	s7,104(sp)
   13c4c:	06013c03          	ld	s8,96(sp)
   13c50:	05813c83          	ld	s9,88(sp)
   13c54:	05013d03          	ld	s10,80(sp)
   13c58:	04813d83          	ld	s11,72(sp)
   13c5c:	0b010113          	addi	sp,sp,176
   13c60:	00030067          	jr	t1
   13c64:	000b3503          	ld	a0,0(s6)
   13c68:	00053583          	ld	a1,0(a0)
   13c6c:	40e00613          	li	a2,1038
   13c70:	02c52423          	sw	a2,40(a0)
   13c74:	000b0513          	mv	a0,s6
   13c78:	000580e7          	jalr	a1
   13c7c:	0ff00513          	li	a0,255
   13c80:	e4aa80e3          	beq	s5,a0,13ac0 <read_color_map+0x198>
   13c84:	000b3503          	ld	a0,0(s6)
   13c88:	00053583          	ld	a1,0(a0)
   13c8c:	40e00613          	li	a2,1038
   13c90:	02c52423          	sw	a2,40(a0)
   13c94:	000b0513          	mv	a0,s6
   13c98:	000580e7          	jalr	a1
   13c9c:	03300513          	li	a0,51
   13ca0:	e2aa14e3          	bne	s4,a0,13ac8 <read_color_map+0x1a0>
   13ca4:	03813503          	ld	a0,56(sp)
   13ca8:	68050263          	beqz	a0,1432c <read_color_map+0xa04>
   13cac:	01013503          	ld	a0,16(sp)
   13cb0:	66050e63          	beqz	a0,1432c <read_color_map+0xa04>
   13cb4:	00000593          	li	a1,0
   13cb8:	02300a93          	li	s5,35
   13cbc:	00a00b13          	li	s6,10
   13cc0:	fff00b93          	li	s7,-1
   13cc4:	02100c13          	li	s8,33
   13cc8:	40e00913          	li	s2,1038
   13ccc:	00100513          	li	a0,1
   13cd0:	02851513          	slli	a0,a0,0x28
   13cd4:	03950513          	addi	a0,a0,57
   13cd8:	00a13c23          	sd	a0,24(sp)
   13cdc:	00800537          	lui	a0,0x800
   13ce0:	0135051b          	addiw	a0,a0,19 # 800013 <__global_pointer$+0x7d575b>
   13ce4:	00a51a13          	slli	s4,a0,0xa
   13ce8:	0140006f          	j	13cfc <read_color_map+0x3d4>
   13cec:	00813583          	ld	a1,8(sp)
   13cf0:	0015859b          	addiw	a1,a1,1
   13cf4:	01013503          	ld	a0,16(sp)
   13cf8:	62a58a63          	beq	a1,a0,1432c <read_color_map+0xa04>
   13cfc:	00b13423          	sd	a1,8(sp)
   13d00:	00000413          	li	s0,0
   13d04:	03c0006f          	j	13d40 <read_color_map+0x418>
   13d08:	008d8db3          	add	s11,s11,s0
   13d0c:	013d8023          	sb	s3,0(s11)
   13d10:	00878533          	add	a0,a5,s0
   13d14:	01950023          	sb	s9,0(a0)
   13d18:	00880433          	add	s0,a6,s0
   13d1c:	01240023          	sb	s2,0(s0)
   13d20:	09cd2503          	lw	a0,156(s10)
   13d24:	00150513          	addi	a0,a0,1
   13d28:	08ad2e23          	sw	a0,156(s10)
   13d2c:	03013403          	ld	s0,48(sp)
   13d30:	0014041b          	addiw	s0,s0,1
   13d34:	03813503          	ld	a0,56(sp)
   13d38:	40e00913          	li	s2,1038
   13d3c:	faa408e3          	beq	s0,a0,13cec <read_color_map+0x3c4>
   13d40:	04013d03          	ld	s10,64(sp)
   13d44:	02813823          	sd	s0,48(sp)
   13d48:	00048513          	mv	a0,s1
   13d4c:	e75fc0ef          	jal	10bc0 <getc@plt>
   13d50:	01551a63          	bne	a0,s5,13d64 <read_color_map+0x43c>
   13d54:	00048513          	mv	a0,s1
   13d58:	e69fc0ef          	jal	10bc0 <getc@plt>
   13d5c:	01650463          	beq	a0,s6,13d64 <read_color_map+0x43c>
   13d60:	ff751ae3          	bne	a0,s7,13d54 <read_color_map+0x42c>
   13d64:	00150593          	addi	a1,a0,1
   13d68:	02bc6863          	bltu	s8,a1,13d98 <read_color_map+0x470>
   13d6c:	00ba5633          	srl	a2,s4,a1
   13d70:	00167613          	andi	a2,a2,1
   13d74:	fc061ae3          	bnez	a2,13d48 <read_color_map+0x420>
   13d78:	02059063          	bnez	a1,13d98 <read_color_map+0x470>
   13d7c:	00050413          	mv	s0,a0
   13d80:	000d3503          	ld	a0,0(s10)
   13d84:	00053583          	ld	a1,0(a0)
   13d88:	03252423          	sw	s2,40(a0)
   13d8c:	000d0513          	mv	a0,s10
   13d90:	000580e7          	jalr	a1
   13d94:	0140006f          	j	13da8 <read_color_map+0x480>
   13d98:	00050413          	mv	s0,a0
   13d9c:	fc65051b          	addiw	a0,a0,-58
   13da0:	ff500593          	li	a1,-11
   13da4:	00a5ec63          	bltu	a1,a0,13dbc <read_color_map+0x494>
   13da8:	000d3503          	ld	a0,0(s10)
   13dac:	00053583          	ld	a1,0(a0)
   13db0:	03252423          	sw	s2,40(a0)
   13db4:	000d0513          	mv	a0,s10
   13db8:	000580e7          	jalr	a1
   13dbc:	fd04099b          	addiw	s3,s0,-48
   13dc0:	00048513          	mv	a0,s1
   13dc4:	dfdfc0ef          	jal	10bc0 <getc@plt>
   13dc8:	01551a63          	bne	a0,s5,13ddc <read_color_map+0x4b4>
   13dcc:	00048513          	mv	a0,s1
   13dd0:	df1fc0ef          	jal	10bc0 <getc@plt>
   13dd4:	01650463          	beq	a0,s6,13ddc <read_color_map+0x4b4>
   13dd8:	ff751ae3          	bne	a0,s7,13dcc <read_color_map+0x4a4>
   13ddc:	fd05051b          	addiw	a0,a0,-48
   13de0:	01657e63          	bgeu	a0,s6,13dfc <read_color_map+0x4d4>
   13de4:	036985b3          	mul	a1,s3,s6
   13de8:	00b509bb          	addw	s3,a0,a1
   13dec:	00048513          	mv	a0,s1
   13df0:	dd1fc0ef          	jal	10bc0 <getc@plt>
   13df4:	fd550ce3          	beq	a0,s5,13dcc <read_color_map+0x4a4>
   13df8:	fe5ff06f          	j	13ddc <read_color_map+0x4b4>
   13dfc:	00048513          	mv	a0,s1
   13e00:	dc1fc0ef          	jal	10bc0 <getc@plt>
   13e04:	01551a63          	bne	a0,s5,13e18 <read_color_map+0x4f0>
   13e08:	00048513          	mv	a0,s1
   13e0c:	db5fc0ef          	jal	10bc0 <getc@plt>
   13e10:	01650463          	beq	a0,s6,13e18 <read_color_map+0x4f0>
   13e14:	ff751ae3          	bne	a0,s7,13e08 <read_color_map+0x4e0>
   13e18:	00150593          	addi	a1,a0,1
   13e1c:	02bc6863          	bltu	s8,a1,13e4c <read_color_map+0x524>
   13e20:	00ba5633          	srl	a2,s4,a1
   13e24:	00167613          	andi	a2,a2,1
   13e28:	fc061ae3          	bnez	a2,13dfc <read_color_map+0x4d4>
   13e2c:	02059063          	bnez	a1,13e4c <read_color_map+0x524>
   13e30:	00050413          	mv	s0,a0
   13e34:	000d3503          	ld	a0,0(s10)
   13e38:	00053583          	ld	a1,0(a0)
   13e3c:	03252423          	sw	s2,40(a0)
   13e40:	000d0513          	mv	a0,s10
   13e44:	000580e7          	jalr	a1
   13e48:	0140006f          	j	13e5c <read_color_map+0x534>
   13e4c:	00050413          	mv	s0,a0
   13e50:	fc65051b          	addiw	a0,a0,-58
   13e54:	ff500593          	li	a1,-11
   13e58:	00a5ec63          	bltu	a1,a0,13e70 <read_color_map+0x548>
   13e5c:	000d3503          	ld	a0,0(s10)
   13e60:	00053583          	ld	a1,0(a0)
   13e64:	03252423          	sw	s2,40(a0)
   13e68:	000d0513          	mv	a0,s10
   13e6c:	000580e7          	jalr	a1
   13e70:	fd040c9b          	addiw	s9,s0,-48
   13e74:	00048513          	mv	a0,s1
   13e78:	d49fc0ef          	jal	10bc0 <getc@plt>
   13e7c:	01551a63          	bne	a0,s5,13e90 <read_color_map+0x568>
   13e80:	00048513          	mv	a0,s1
   13e84:	d3dfc0ef          	jal	10bc0 <getc@plt>
   13e88:	01650463          	beq	a0,s6,13e90 <read_color_map+0x568>
   13e8c:	ff751ae3          	bne	a0,s7,13e80 <read_color_map+0x558>
   13e90:	fd05051b          	addiw	a0,a0,-48
   13e94:	01657e63          	bgeu	a0,s6,13eb0 <read_color_map+0x588>
   13e98:	036c85b3          	mul	a1,s9,s6
   13e9c:	00b50cbb          	addw	s9,a0,a1
   13ea0:	00048513          	mv	a0,s1
   13ea4:	d1dfc0ef          	jal	10bc0 <getc@plt>
   13ea8:	fd550ce3          	beq	a0,s5,13e80 <read_color_map+0x558>
   13eac:	fe5ff06f          	j	13e90 <read_color_map+0x568>
   13eb0:	00048513          	mv	a0,s1
   13eb4:	d0dfc0ef          	jal	10bc0 <getc@plt>
   13eb8:	01551a63          	bne	a0,s5,13ecc <read_color_map+0x5a4>
   13ebc:	00048513          	mv	a0,s1
   13ec0:	d01fc0ef          	jal	10bc0 <getc@plt>
   13ec4:	01650463          	beq	a0,s6,13ecc <read_color_map+0x5a4>
   13ec8:	ff751ae3          	bne	a0,s7,13ebc <read_color_map+0x594>
   13ecc:	00150593          	addi	a1,a0,1
   13ed0:	02bc6863          	bltu	s8,a1,13f00 <read_color_map+0x5d8>
   13ed4:	00ba5633          	srl	a2,s4,a1
   13ed8:	00167613          	andi	a2,a2,1
   13edc:	fc061ae3          	bnez	a2,13eb0 <read_color_map+0x588>
   13ee0:	02059063          	bnez	a1,13f00 <read_color_map+0x5d8>
   13ee4:	00050413          	mv	s0,a0
   13ee8:	000d3503          	ld	a0,0(s10)
   13eec:	00053583          	ld	a1,0(a0)
   13ef0:	03252423          	sw	s2,40(a0)
   13ef4:	000d0513          	mv	a0,s10
   13ef8:	000580e7          	jalr	a1
   13efc:	0140006f          	j	13f10 <read_color_map+0x5e8>
   13f00:	00050413          	mv	s0,a0
   13f04:	fc65051b          	addiw	a0,a0,-58
   13f08:	ff500593          	li	a1,-11
   13f0c:	00a5ec63          	bltu	a1,a0,13f24 <read_color_map+0x5fc>
   13f10:	000d3503          	ld	a0,0(s10)
   13f14:	00053583          	ld	a1,0(a0)
   13f18:	03252423          	sw	s2,40(a0)
   13f1c:	000d0513          	mv	a0,s10
   13f20:	000580e7          	jalr	a1
   13f24:	fd04091b          	addiw	s2,s0,-48
   13f28:	00048513          	mv	a0,s1
   13f2c:	c95fc0ef          	jal	10bc0 <getc@plt>
   13f30:	01551a63          	bne	a0,s5,13f44 <read_color_map+0x61c>
   13f34:	00048513          	mv	a0,s1
   13f38:	c89fc0ef          	jal	10bc0 <getc@plt>
   13f3c:	01650463          	beq	a0,s6,13f44 <read_color_map+0x61c>
   13f40:	ff751ae3          	bne	a0,s7,13f34 <read_color_map+0x60c>
   13f44:	fd05051b          	addiw	a0,a0,-48
   13f48:	01657e63          	bgeu	a0,s6,13f64 <read_color_map+0x63c>
   13f4c:	036905b3          	mul	a1,s2,s6
   13f50:	00b5093b          	addw	s2,a0,a1
   13f54:	00048513          	mv	a0,s1
   13f58:	c69fc0ef          	jal	10bc0 <getc@plt>
   13f5c:	fd550ce3          	beq	a0,s5,13f34 <read_color_map+0x60c>
   13f60:	fe5ff06f          	j	13f44 <read_color_map+0x61c>
   13f64:	0a0d3503          	ld	a0,160(s10)
   13f68:	00053d83          	ld	s11,0(a0)
   13f6c:	00853783          	ld	a5,8(a0)
   13f70:	09cd2403          	lw	s0,156(s10)
   13f74:	01053803          	ld	a6,16(a0)
   13f78:	d88058e3          	blez	s0,13d08 <read_color_map+0x3e0>
   13f7c:	000d8513          	mv	a0,s11
   13f80:	00078593          	mv	a1,a5
   13f84:	00080613          	mv	a2,a6
   13f88:	00040693          	mv	a3,s0
   13f8c:	0180006f          	j	13fa4 <read_color_map+0x67c>
   13f90:	fff68693          	addi	a3,a3,-1
   13f94:	00160613          	addi	a2,a2,1
   13f98:	00158593          	addi	a1,a1,1
   13f9c:	00150513          	addi	a0,a0,1
   13fa0:	02068063          	beqz	a3,13fc0 <read_color_map+0x698>
   13fa4:	00054703          	lbu	a4,0(a0)
   13fa8:	fee994e3          	bne	s3,a4,13f90 <read_color_map+0x668>
   13fac:	0005c703          	lbu	a4,0(a1)
   13fb0:	feec90e3          	bne	s9,a4,13f90 <read_color_map+0x668>
   13fb4:	00064703          	lbu	a4,0(a2)
   13fb8:	fce91ce3          	bne	s2,a4,13f90 <read_color_map+0x668>
   13fbc:	d71ff06f          	j	13d2c <read_color_map+0x404>
   13fc0:	04013d03          	ld	s10,64(sp)
   13fc4:	10000513          	li	a0,256
   13fc8:	d4a440e3          	blt	s0,a0,13d08 <read_color_map+0x3e0>
   13fcc:	000d3503          	ld	a0,0(s10)
   13fd0:	01813583          	ld	a1,24(sp)
   13fd4:	02b53423          	sd	a1,40(a0)
   13fd8:	000d3503          	ld	a0,0(s10)
   13fdc:	00053583          	ld	a1,0(a0)
   13fe0:	000d0513          	mv	a0,s10
   13fe4:	02f13423          	sd	a5,40(sp)
   13fe8:	03013023          	sd	a6,32(sp)
   13fec:	000580e7          	jalr	a1
   13ff0:	02013803          	ld	a6,32(sp)
   13ff4:	02813783          	ld	a5,40(sp)
   13ff8:	d11ff06f          	j	13d08 <read_color_map+0x3e0>
   13ffc:	000b3503          	ld	a0,0(s6)
   14000:	00053583          	ld	a1,0(a0)
   14004:	40e00613          	li	a2,1038
   14008:	02c52423          	sw	a2,40(a0)
   1400c:	000b0513          	mv	a0,s6
   14010:	000580e7          	jalr	a1
   14014:	00048513          	mv	a0,s1
   14018:	ba9fc0ef          	jal	10bc0 <getc@plt>
   1401c:	00050993          	mv	s3,a0
   14020:	9a8516e3          	bne	a0,s0,139cc <read_color_map+0xa4>
   14024:	000b3503          	ld	a0,0(s6)
   14028:	00053583          	ld	a1,0(a0)
   1402c:	40e00613          	li	a2,1038
   14030:	02c52423          	sw	a2,40(a0)
   14034:	000b0513          	mv	a0,s6
   14038:	000580e7          	jalr	a1
   1403c:	00048513          	mv	a0,s1
   14040:	b81fc0ef          	jal	10bc0 <getc@plt>
   14044:	fff00413          	li	s0,-1
   14048:	98851ae3          	bne	a0,s0,139dc <read_color_map+0xb4>
   1404c:	000b3503          	ld	a0,0(s6)
   14050:	00053583          	ld	a1,0(a0)
   14054:	40e00613          	li	a2,1038
   14058:	02c52423          	sw	a2,40(a0)
   1405c:	000b0513          	mv	a0,s6
   14060:	000580e7          	jalr	a1
   14064:	00048513          	mv	a0,s1
   14068:	b59fc0ef          	jal	10bc0 <getc@plt>
   1406c:	96851ee3          	bne	a0,s0,139e8 <read_color_map+0xc0>
   14070:	000b3503          	ld	a0,0(s6)
   14074:	00053583          	ld	a1,0(a0)
   14078:	40e00613          	li	a2,1038
   1407c:	02c52423          	sw	a2,40(a0)
   14080:	000b0513          	mv	a0,s6
   14084:	000580e7          	jalr	a1
   14088:	00048513          	mv	a0,s1
   1408c:	b35fc0ef          	jal	10bc0 <getc@plt>
   14090:	fff00413          	li	s0,-1
   14094:	968512e3          	bne	a0,s0,139f8 <read_color_map+0xd0>
   14098:	000b3503          	ld	a0,0(s6)
   1409c:	00053583          	ld	a1,0(a0)
   140a0:	40e00613          	li	a2,1038
   140a4:	02c52423          	sw	a2,40(a0)
   140a8:	000b0513          	mv	a0,s6
   140ac:	000580e7          	jalr	a1
   140b0:	00048513          	mv	a0,s1
   140b4:	b0dfc0ef          	jal	10bc0 <getc@plt>
   140b8:	948516e3          	bne	a0,s0,13a04 <read_color_map+0xdc>
   140bc:	000b3503          	ld	a0,0(s6)
   140c0:	00053583          	ld	a1,0(a0)
   140c4:	40e00613          	li	a2,1038
   140c8:	02c52423          	sw	a2,40(a0)
   140cc:	000b0513          	mv	a0,s6
   140d0:	000580e7          	jalr	a1
   140d4:	00048513          	mv	a0,s1
   140d8:	ae9fc0ef          	jal	10bc0 <getc@plt>
   140dc:	fff00413          	li	s0,-1
   140e0:	92851ae3          	bne	a0,s0,13a14 <read_color_map+0xec>
   140e4:	000b3503          	ld	a0,0(s6)
   140e8:	00053583          	ld	a1,0(a0)
   140ec:	40e00613          	li	a2,1038
   140f0:	02c52423          	sw	a2,40(a0)
   140f4:	000b0513          	mv	a0,s6
   140f8:	000580e7          	jalr	a1
   140fc:	00048513          	mv	a0,s1
   14100:	ac1fc0ef          	jal	10bc0 <getc@plt>
   14104:	90851ee3          	bne	a0,s0,13a20 <read_color_map+0xf8>
   14108:	000b3503          	ld	a0,0(s6)
   1410c:	00053583          	ld	a1,0(a0)
   14110:	40e00613          	li	a2,1038
   14114:	02c52423          	sw	a2,40(a0)
   14118:	000b0513          	mv	a0,s6
   1411c:	000580e7          	jalr	a1
   14120:	00048513          	mv	a0,s1
   14124:	a9dfc0ef          	jal	10bc0 <getc@plt>
   14128:	fff00413          	li	s0,-1
   1412c:	908512e3          	bne	a0,s0,13a30 <read_color_map+0x108>
   14130:	000b3503          	ld	a0,0(s6)
   14134:	00053583          	ld	a1,0(a0)
   14138:	40e00613          	li	a2,1038
   1413c:	02c52423          	sw	a2,40(a0)
   14140:	000b0513          	mv	a0,s6
   14144:	000580e7          	jalr	a1
   14148:	00048513          	mv	a0,s1
   1414c:	a75fc0ef          	jal	10bc0 <getc@plt>
   14150:	00050a13          	mv	s4,a0
   14154:	8e8516e3          	bne	a0,s0,13a40 <read_color_map+0x118>
   14158:	000b3503          	ld	a0,0(s6)
   1415c:	00053583          	ld	a1,0(a0)
   14160:	40e00613          	li	a2,1038
   14164:	02c52423          	sw	a2,40(a0)
   14168:	000b0513          	mv	a0,s6
   1416c:	000580e7          	jalr	a1
   14170:	00048513          	mv	a0,s1
   14174:	a4dfc0ef          	jal	10bc0 <getc@plt>
   14178:	fff00413          	li	s0,-1
   1417c:	8c851ae3          	bne	a0,s0,13a50 <read_color_map+0x128>
   14180:	000b3503          	ld	a0,0(s6)
   14184:	00053583          	ld	a1,0(a0)
   14188:	40e00613          	li	a2,1038
   1418c:	02c52423          	sw	a2,40(a0)
   14190:	000b0513          	mv	a0,s6
   14194:	000580e7          	jalr	a1
   14198:	00048513          	mv	a0,s1
   1419c:	a25fc0ef          	jal	10bc0 <getc@plt>
   141a0:	8a851ee3          	bne	a0,s0,13a5c <read_color_map+0x134>
   141a4:	000b3503          	ld	a0,0(s6)
   141a8:	00053583          	ld	a1,0(a0)
   141ac:	40e00613          	li	a2,1038
   141b0:	02c52423          	sw	a2,40(a0)
   141b4:	000b0513          	mv	a0,s6
   141b8:	000580e7          	jalr	a1
   141bc:	04900513          	li	a0,73
   141c0:	00a91663          	bne	s2,a0,141cc <read_color_map+0x8a4>
   141c4:	04600513          	li	a0,70
   141c8:	00a98e63          	beq	s3,a0,141e4 <read_color_map+0x8bc>
   141cc:	000b3503          	ld	a0,0(s6)
   141d0:	00053583          	ld	a1,0(a0)
   141d4:	40e00613          	li	a2,1038
   141d8:	02c52423          	sw	a2,40(a0)
   141dc:	000b0513          	mv	a0,s6
   141e0:	000580e7          	jalr	a1
   141e4:	080a7513          	andi	a0,s4,128
   141e8:	00051e63          	bnez	a0,14204 <read_color_map+0x8dc>
   141ec:	000b3503          	ld	a0,0(s6)
   141f0:	00053583          	ld	a1,0(a0)
   141f4:	40e00613          	li	a2,1038
   141f8:	02c52423          	sw	a2,40(a0)
   141fc:	000b0513          	mv	a0,s6
   14200:	000580e7          	jalr	a1
   14204:	00000a93          	li	s5,0
   14208:	007a7513          	andi	a0,s4,7
   1420c:	00200593          	li	a1,2
   14210:	00a59b3b          	sllw	s6,a1,a0
   14214:	fff00b93          	li	s7,-1
   14218:	00100513          	li	a0,1
   1421c:	02851513          	slli	a0,a0,0x28
   14220:	03950513          	addi	a0,a0,57
   14224:	02a13c23          	sd	a0,56(sp)
   14228:	0300006f          	j	14258 <read_color_map+0x930>
   1422c:	01840433          	add	s0,s0,s8
   14230:	01240023          	sb	s2,0(s0)
   14234:	018d8db3          	add	s11,s11,s8
   14238:	013d8023          	sb	s3,0(s11)
   1423c:	018c8c33          	add	s8,s9,s8
   14240:	014c0023          	sb	s4,0(s8)
   14244:	09cd2503          	lw	a0,156(s10)
   14248:	00150513          	addi	a0,a0,1
   1424c:	08ad2e23          	sw	a0,156(s10)
   14250:	001a8a9b          	addiw	s5,s5,1
   14254:	0d6a8c63          	beq	s5,s6,1432c <read_color_map+0xa04>
   14258:	00048513          	mv	a0,s1
   1425c:	965fc0ef          	jal	10bc0 <getc@plt>
   14260:	00050913          	mv	s2,a0
   14264:	00048513          	mv	a0,s1
   14268:	959fc0ef          	jal	10bc0 <getc@plt>
   1426c:	00050993          	mv	s3,a0
   14270:	00048513          	mv	a0,s1
   14274:	94dfc0ef          	jal	10bc0 <getc@plt>
   14278:	00050a13          	mv	s4,a0
   1427c:	01790663          	beq	s2,s7,14288 <read_color_map+0x960>
   14280:	01798463          	beq	s3,s7,14288 <read_color_map+0x960>
   14284:	017a1e63          	bne	s4,s7,142a0 <read_color_map+0x978>
   14288:	04013503          	ld	a0,64(sp)
   1428c:	00053603          	ld	a2,0(a0)
   14290:	00063583          	ld	a1,0(a2)
   14294:	40e00693          	li	a3,1038
   14298:	02d62423          	sw	a3,40(a2)
   1429c:	000580e7          	jalr	a1
   142a0:	04013d03          	ld	s10,64(sp)
   142a4:	0a0d3503          	ld	a0,160(s10)
   142a8:	00053403          	ld	s0,0(a0)
   142ac:	00853d83          	ld	s11,8(a0)
   142b0:	09cd2c03          	lw	s8,156(s10)
   142b4:	01053c83          	ld	s9,16(a0)
   142b8:	f7805ae3          	blez	s8,1422c <read_color_map+0x904>
   142bc:	00040513          	mv	a0,s0
   142c0:	000d8593          	mv	a1,s11
   142c4:	000c8613          	mv	a2,s9
   142c8:	000c0693          	mv	a3,s8
   142cc:	0180006f          	j	142e4 <read_color_map+0x9bc>
   142d0:	fff68693          	addi	a3,a3,-1
   142d4:	00160613          	addi	a2,a2,1
   142d8:	00158593          	addi	a1,a1,1
   142dc:	00150513          	addi	a0,a0,1
   142e0:	02068063          	beqz	a3,14300 <read_color_map+0x9d8>
   142e4:	00054703          	lbu	a4,0(a0)
   142e8:	fee914e3          	bne	s2,a4,142d0 <read_color_map+0x9a8>
   142ec:	0005c703          	lbu	a4,0(a1)
   142f0:	fee990e3          	bne	s3,a4,142d0 <read_color_map+0x9a8>
   142f4:	00064703          	lbu	a4,0(a2)
   142f8:	fcea1ce3          	bne	s4,a4,142d0 <read_color_map+0x9a8>
   142fc:	f55ff06f          	j	14250 <read_color_map+0x928>
   14300:	04013d03          	ld	s10,64(sp)
   14304:	10000513          	li	a0,256
   14308:	f2ac42e3          	blt	s8,a0,1422c <read_color_map+0x904>
   1430c:	000d3503          	ld	a0,0(s10)
   14310:	03813583          	ld	a1,56(sp)
   14314:	02b53423          	sd	a1,40(a0)
   14318:	000d3503          	ld	a0,0(s10)
   1431c:	00053583          	ld	a1,0(a0)
   14320:	000d0513          	mv	a0,s10
   14324:	000580e7          	jalr	a1
   14328:	f05ff06f          	j	1422c <read_color_map+0x904>
   1432c:	0a813083          	ld	ra,168(sp)
   14330:	0a013403          	ld	s0,160(sp)
   14334:	09813483          	ld	s1,152(sp)
   14338:	09013903          	ld	s2,144(sp)
   1433c:	08813983          	ld	s3,136(sp)
   14340:	08013a03          	ld	s4,128(sp)
   14344:	07813a83          	ld	s5,120(sp)
   14348:	07013b03          	ld	s6,112(sp)
   1434c:	06813b83          	ld	s7,104(sp)
   14350:	06013c03          	ld	s8,96(sp)
   14354:	05813c83          	ld	s9,88(sp)
   14358:	05013d03          	ld	s10,80(sp)
   1435c:	04813d83          	ld	s11,72(sp)
   14360:	0b010113          	addi	sp,sp,176
   14364:	00008067          	ret

0000000000014368 <read_pbm_integer>:
   14368:	fc010113          	addi	sp,sp,-64
   1436c:	02113c23          	sd	ra,56(sp)
   14370:	02813823          	sd	s0,48(sp)
   14374:	02913423          	sd	s1,40(sp)
   14378:	03213023          	sd	s2,32(sp)
   1437c:	01313c23          	sd	s3,24(sp)
   14380:	01413823          	sd	s4,16(sp)
   14384:	01513423          	sd	s5,8(sp)
   14388:	01613023          	sd	s6,0(sp)
   1438c:	00058413          	mv	s0,a1
   14390:	00050493          	mv	s1,a0
   14394:	02300913          	li	s2,35
   14398:	00a00993          	li	s3,10
   1439c:	fff00a13          	li	s4,-1
   143a0:	02100a93          	li	s5,33
   143a4:	00800537          	lui	a0,0x800
   143a8:	0135051b          	addiw	a0,a0,19 # 800013 <__global_pointer$+0x7d575b>
   143ac:	00a51b13          	slli	s6,a0,0xa
   143b0:	00040513          	mv	a0,s0
   143b4:	80dfc0ef          	jal	10bc0 <getc@plt>
   143b8:	01251a63          	bne	a0,s2,143cc <read_pbm_integer+0x64>
   143bc:	00040513          	mv	a0,s0
   143c0:	801fc0ef          	jal	10bc0 <getc@plt>
   143c4:	01350463          	beq	a0,s3,143cc <read_pbm_integer+0x64>
   143c8:	ff451ae3          	bne	a0,s4,143bc <read_pbm_integer+0x54>
   143cc:	00150593          	addi	a1,a0,1
   143d0:	02baea63          	bltu	s5,a1,14404 <read_pbm_integer+0x9c>
   143d4:	00bb5633          	srl	a2,s6,a1
   143d8:	00167613          	andi	a2,a2,1
   143dc:	fc061ae3          	bnez	a2,143b0 <read_pbm_integer+0x48>
   143e0:	02059263          	bnez	a1,14404 <read_pbm_integer+0x9c>
   143e4:	00050913          	mv	s2,a0
   143e8:	0004b503          	ld	a0,0(s1)
   143ec:	00053583          	ld	a1,0(a0)
   143f0:	40e00613          	li	a2,1038
   143f4:	02c52423          	sw	a2,40(a0)
   143f8:	00048513          	mv	a0,s1
   143fc:	000580e7          	jalr	a1
   14400:	0140006f          	j	14414 <read_pbm_integer+0xac>
   14404:	00050913          	mv	s2,a0
   14408:	fc65051b          	addiw	a0,a0,-58
   1440c:	ff500593          	li	a1,-11
   14410:	00a5ee63          	bltu	a1,a0,1442c <read_pbm_integer+0xc4>
   14414:	0004b503          	ld	a0,0(s1)
   14418:	00053583          	ld	a1,0(a0)
   1441c:	40e00613          	li	a2,1038
   14420:	02c52423          	sw	a2,40(a0)
   14424:	00048513          	mv	a0,s1
   14428:	000580e7          	jalr	a1
   1442c:	fd09049b          	addiw	s1,s2,-48
   14430:	02300913          	li	s2,35
   14434:	00a00993          	li	s3,10
   14438:	fff00a13          	li	s4,-1
   1443c:	00900a93          	li	s5,9
   14440:	00040513          	mv	a0,s0
   14444:	f7cfc0ef          	jal	10bc0 <getc@plt>
   14448:	01251a63          	bne	a0,s2,1445c <read_pbm_integer+0xf4>
   1444c:	00040513          	mv	a0,s0
   14450:	f70fc0ef          	jal	10bc0 <getc@plt>
   14454:	01350463          	beq	a0,s3,1445c <read_pbm_integer+0xf4>
   14458:	ff451ae3          	bne	a0,s4,1444c <read_pbm_integer+0xe4>
   1445c:	fd05051b          	addiw	a0,a0,-48
   14460:	00aaee63          	bltu	s5,a0,1447c <read_pbm_integer+0x114>
   14464:	033484b3          	mul	s1,s1,s3
   14468:	009504bb          	addw	s1,a0,s1
   1446c:	00040513          	mv	a0,s0
   14470:	f50fc0ef          	jal	10bc0 <getc@plt>
   14474:	fd250ce3          	beq	a0,s2,1444c <read_pbm_integer+0xe4>
   14478:	fe5ff06f          	j	1445c <read_pbm_integer+0xf4>
   1447c:	00048513          	mv	a0,s1
   14480:	03813083          	ld	ra,56(sp)
   14484:	03013403          	ld	s0,48(sp)
   14488:	02813483          	ld	s1,40(sp)
   1448c:	02013903          	ld	s2,32(sp)
   14490:	01813983          	ld	s3,24(sp)
   14494:	01013a03          	ld	s4,16(sp)
   14498:	00813a83          	ld	s5,8(sp)
   1449c:	00013b03          	ld	s6,0(sp)
   144a0:	04010113          	addi	sp,sp,64
   144a4:	00008067          	ret

00000000000144a8 <keymatch>:
   144a8:	fc010113          	addi	sp,sp,-64
   144ac:	02113c23          	sd	ra,56(sp)
   144b0:	02813823          	sd	s0,48(sp)
   144b4:	02913423          	sd	s1,40(sp)
   144b8:	03213023          	sd	s2,32(sp)
   144bc:	01313c23          	sd	s3,24(sp)
   144c0:	01413823          	sd	s4,16(sp)
   144c4:	01513423          	sd	s5,8(sp)
   144c8:	00054a03          	lbu	s4,0(a0)
   144cc:	00060413          	mv	s0,a2
   144d0:	060a0a63          	beqz	s4,14544 <keymatch+0x9c>
   144d4:	00058493          	mv	s1,a1
   144d8:	00000913          	li	s2,0
   144dc:	00150993          	addi	s3,a0,1
   144e0:	0300006f          	j	14510 <keymatch+0x68>
   144e4:	eecfc0ef          	jal	10bd0 <__ctype_tolower_loc@plt>
   144e8:	00053503          	ld	a0,0(a0)
   144ec:	002a1a13          	slli	s4,s4,0x2
   144f0:	01450533          	add	a0,a0,s4
   144f4:	00052503          	lw	a0,0(a0)
   144f8:	05551263          	bne	a0,s5,1453c <keymatch+0x94>
   144fc:	0009ca03          	lbu	s4,0(s3)
   14500:	00148493          	addi	s1,s1,1
   14504:	0019091b          	addiw	s2,s2,1
   14508:	00198993          	addi	s3,s3,1
   1450c:	020a0e63          	beqz	s4,14548 <keymatch+0xa0>
   14510:	0004ca83          	lbu	s5,0(s1)
   14514:	020a8463          	beqz	s5,1453c <keymatch+0x94>
   14518:	f48fc0ef          	jal	10c60 <__ctype_b_loc@plt>
   1451c:	00053503          	ld	a0,0(a0)
   14520:	001a1593          	slli	a1,s4,0x1
   14524:	00b50533          	add	a0,a0,a1
   14528:	00055503          	lhu	a0,0(a0)
   1452c:	10057513          	andi	a0,a0,256
   14530:	fa051ae3          	bnez	a0,144e4 <keymatch+0x3c>
   14534:	0ffa7513          	zext.b	a0,s4
   14538:	fd5502e3          	beq	a0,s5,144fc <keymatch+0x54>
   1453c:	00000513          	li	a0,0
   14540:	0100006f          	j	14550 <keymatch+0xa8>
   14544:	00000913          	li	s2,0
   14548:	00892533          	slt	a0,s2,s0
   1454c:	00154513          	xori	a0,a0,1
   14550:	03813083          	ld	ra,56(sp)
   14554:	03013403          	ld	s0,48(sp)
   14558:	02813483          	ld	s1,40(sp)
   1455c:	02013903          	ld	s2,32(sp)
   14560:	01813983          	ld	s3,24(sp)
   14564:	01013a03          	ld	s4,16(sp)
   14568:	00813a83          	ld	s5,8(sp)
   1456c:	04010113          	addi	sp,sp,64
   14570:	00008067          	ret

0000000000014574 <read_stdin>:
   14574:	8601b503          	ld	a0,-1952(gp) # 2a118 <stdin@GLIBC_2.27>
   14578:	00008067          	ret

000000000001457c <write_stdout>:
   1457c:	8701b503          	ld	a0,-1936(gp) # 2a128 <stdout@GLIBC_2.27>
   14580:	00008067          	ret

0000000000014584 <jpeg_CreateDecompress>:
   14584:	fe010113          	addi	sp,sp,-32
   14588:	00113c23          	sd	ra,24(sp)
   1458c:	00813823          	sd	s0,16(sp)
   14590:	00913423          	sd	s1,8(sp)
   14594:	01213023          	sd	s2,0(sp)
   14598:	00060493          	mv	s1,a2
   1459c:	00050413          	mv	s0,a0
   145a0:	03e00513          	li	a0,62
   145a4:	00043423          	sd	zero,8(s0)
   145a8:	02a58863          	beq	a1,a0,145d8 <jpeg_CreateDecompress+0x54>
   145ac:	00043503          	ld	a0,0(s0)
   145b0:	01f00613          	li	a2,31
   145b4:	02161613          	slli	a2,a2,0x21
   145b8:	00c60613          	addi	a2,a2,12
   145bc:	02c53423          	sd	a2,40(a0)
   145c0:	00043503          	ld	a0,0(s0)
   145c4:	02b52823          	sw	a1,48(a0)
   145c8:	00043503          	ld	a0,0(s0)
   145cc:	00053583          	ld	a1,0(a0)
   145d0:	00040513          	mv	a0,s0
   145d4:	000580e7          	jalr	a1
   145d8:	27800513          	li	a0,632
   145dc:	02a48863          	beq	s1,a0,1460c <jpeg_CreateDecompress+0x88>
   145e0:	00043503          	ld	a0,0(s0)
   145e4:	04f00593          	li	a1,79
   145e8:	02359593          	slli	a1,a1,0x23
   145ec:	01558593          	addi	a1,a1,21
   145f0:	02b53423          	sd	a1,40(a0)
   145f4:	00043503          	ld	a0,0(s0)
   145f8:	02952823          	sw	s1,48(a0)
   145fc:	00043503          	ld	a0,0(s0)
   14600:	00053583          	ld	a1,0(a0)
   14604:	00040513          	mv	a0,s0
   14608:	000580e7          	jalr	a1
   1460c:	00043483          	ld	s1,0(s0)
   14610:	01843903          	ld	s2,24(s0)
   14614:	00840513          	addi	a0,s0,8
   14618:	27000613          	li	a2,624
   1461c:	00000593          	li	a1,0
   14620:	e30fc0ef          	jal	10c50 <memset@plt>
   14624:	00943023          	sd	s1,0(s0)
   14628:	01243c23          	sd	s2,24(s0)
   1462c:	00100513          	li	a0,1
   14630:	02a42023          	sw	a0,32(s0)
   14634:	00040513          	mv	a0,s0
   14638:	0a0100ef          	jal	246d8 <jinit_memory_mgr>
   1463c:	00043823          	sd	zero,16(s0)
   14640:	02043423          	sd	zero,40(s0)
   14644:	0c840513          	addi	a0,s0,200
   14648:	18043823          	sd	zero,400(s0)
   1464c:	06000613          	li	a2,96
   14650:	00000593          	li	a1,0
   14654:	dfcfc0ef          	jal	10c50 <memset@plt>
   14658:	00040513          	mv	a0,s0
   1465c:	20c020ef          	jal	16868 <jinit_marker_reader>
   14660:	00040513          	mv	a0,s0
   14664:	78c010ef          	jal	15df0 <jinit_input_controller>
   14668:	0c800513          	li	a0,200
   1466c:	02a42223          	sw	a0,36(s0)
   14670:	01813083          	ld	ra,24(sp)
   14674:	01013403          	ld	s0,16(sp)
   14678:	00813483          	ld	s1,8(sp)
   1467c:	00013903          	ld	s2,0(sp)
   14680:	02010113          	addi	sp,sp,32
   14684:	00008067          	ret

0000000000014688 <jpeg_destroy_decompress>:
   14688:	4c50f06f          	j	2434c <jpeg_destroy>

000000000001468c <jpeg_abort_decompress>:
   1468c:	45d0f06f          	j	242e8 <jpeg_abort>

0000000000014690 <jpeg_read_header>:
   14690:	fe010113          	addi	sp,sp,-32
   14694:	00113c23          	sd	ra,24(sp)
   14698:	00813823          	sd	s0,16(sp)
   1469c:	00913423          	sd	s1,8(sp)
   146a0:	01213023          	sd	s2,0(sp)
   146a4:	00050413          	mv	s0,a0
   146a8:	02452503          	lw	a0,36(a0)
   146ac:	ffe57613          	andi	a2,a0,-2
   146b0:	0c800693          	li	a3,200
   146b4:	00058493          	mv	s1,a1
   146b8:	02d60263          	beq	a2,a3,146dc <jpeg_read_header+0x4c>
   146bc:	00043583          	ld	a1,0(s0)
   146c0:	02a5a623          	sw	a0,44(a1)
   146c4:	00043503          	ld	a0,0(s0)
   146c8:	00053603          	ld	a2,0(a0)
   146cc:	01400513          	li	a0,20
   146d0:	02a5a423          	sw	a0,40(a1)
   146d4:	00040513          	mv	a0,s0
   146d8:	000600e7          	jalr	a2
   146dc:	00040513          	mv	a0,s0
   146e0:	050000ef          	jal	14730 <jpeg_consume_input>
   146e4:	00200593          	li	a1,2
   146e8:	02b51863          	bne	a0,a1,14718 <jpeg_read_header+0x88>
   146ec:	00050913          	mv	s2,a0
   146f0:	00048e63          	beqz	s1,1470c <jpeg_read_header+0x7c>
   146f4:	00043503          	ld	a0,0(s0)
   146f8:	00053583          	ld	a1,0(a0)
   146fc:	03300613          	li	a2,51
   14700:	02c52423          	sw	a2,40(a0)
   14704:	00040513          	mv	a0,s0
   14708:	000580e7          	jalr	a1
   1470c:	00040513          	mv	a0,s0
   14710:	3d90f0ef          	jal	242e8 <jpeg_abort>
   14714:	00090513          	mv	a0,s2
   14718:	01813083          	ld	ra,24(sp)
   1471c:	01013403          	ld	s0,16(sp)
   14720:	00813483          	ld	s1,8(sp)
   14724:	00013903          	ld	s2,0(sp)
   14728:	02010113          	addi	sp,sp,32
   1472c:	00008067          	ret

0000000000014730 <jpeg_consume_input>:
   14730:	fe010113          	addi	sp,sp,-32
   14734:	00113c23          	sd	ra,24(sp)
   14738:	00813823          	sd	s0,16(sp)
   1473c:	00913423          	sd	s1,8(sp)
   14740:	01213023          	sd	s2,0(sp)
   14744:	02452603          	lw	a2,36(a0)
   14748:	f3860593          	addi	a1,a2,-200
   1474c:	00a00693          	li	a3,10
   14750:	0eb6ea63          	bltu	a3,a1,14844 <jpeg_consume_input+0x114>
   14754:	00259593          	slli	a1,a1,0x2
   14758:	000286b7          	lui	a3,0x28
   1475c:	bfc68693          	addi	a3,a3,-1028 # 27bfc <cdjpeg_message_table+0x1ed4>
   14760:	00d585b3          	add	a1,a1,a3
   14764:	0005a683          	lw	a3,0(a1)
   14768:	00100593          	li	a1,1
   1476c:	00068067          	jr	a3
   14770:	24053583          	ld	a1,576(a0)
   14774:	0005b303          	ld	t1,0(a1)
   14778:	01813083          	ld	ra,24(sp)
   1477c:	01013403          	ld	s0,16(sp)
   14780:	00813483          	ld	s1,8(sp)
   14784:	00013903          	ld	s2,0(sp)
   14788:	02010113          	addi	sp,sp,32
   1478c:	00030067          	jr	t1
   14790:	24053583          	ld	a1,576(a0)
   14794:	0085b583          	ld	a1,8(a1)
   14798:	00050413          	mv	s0,a0
   1479c:	000580e7          	jalr	a1
   147a0:	02843503          	ld	a0,40(s0)
   147a4:	01053583          	ld	a1,16(a0)
   147a8:	00040513          	mv	a0,s0
   147ac:	000580e7          	jalr	a1
   147b0:	00040513          	mv	a0,s0
   147b4:	0c900593          	li	a1,201
   147b8:	02b42223          	sw	a1,36(s0)
   147bc:	24053583          	ld	a1,576(a0)
   147c0:	0005b583          	ld	a1,0(a1)
   147c4:	00050413          	mv	s0,a0
   147c8:	000580e7          	jalr	a1
   147cc:	00100613          	li	a2,1
   147d0:	00050593          	mv	a1,a0
   147d4:	1cc51663          	bne	a0,a2,149a0 <jpeg_consume_input+0x270>
   147d8:	00040513          	mv	a0,s0
   147dc:	03842583          	lw	a1,56(s0)
   147e0:	0ac58463          	beq	a1,a2,14888 <jpeg_consume_input+0x158>
   147e4:	00400493          	li	s1,4
   147e8:	08958063          	beq	a1,s1,14868 <jpeg_consume_input+0x138>
   147ec:	00300913          	li	s2,3
   147f0:	0b259263          	bne	a1,s2,14894 <jpeg_consume_input+0x164>
   147f4:	17452583          	lw	a1,372(a0)
   147f8:	00200493          	li	s1,2
   147fc:	14059a63          	bnez	a1,14950 <jpeg_consume_input+0x220>
   14800:	18052583          	lw	a1,384(a0)
   14804:	0c058a63          	beqz	a1,148d8 <jpeg_consume_input+0x1a8>
   14808:	18454583          	lbu	a1,388(a0)
   1480c:	00200493          	li	s1,2
   14810:	10058663          	beqz	a1,1491c <jpeg_consume_input+0x1ec>
   14814:	00100613          	li	a2,1
   14818:	12c58c63          	beq	a1,a2,14950 <jpeg_consume_input+0x220>
   1481c:	00053603          	ld	a2,0(a0)
   14820:	02b62623          	sw	a1,44(a2)
   14824:	00053503          	ld	a0,0(a0)
   14828:	00853683          	ld	a3,8(a0)
   1482c:	07200513          	li	a0,114
   14830:	02a62423          	sw	a0,40(a2)
   14834:	fff00593          	li	a1,-1
   14838:	00040513          	mv	a0,s0
   1483c:	000680e7          	jalr	a3
   14840:	10c0006f          	j	1494c <jpeg_consume_input+0x21c>
   14844:	00053583          	ld	a1,0(a0)
   14848:	02c5a623          	sw	a2,44(a1)
   1484c:	00053603          	ld	a2,0(a0)
   14850:	00063603          	ld	a2,0(a2)
   14854:	01400693          	li	a3,20
   14858:	02d5a423          	sw	a3,40(a1)
   1485c:	000600e7          	jalr	a2
   14860:	00000593          	li	a1,0
   14864:	13c0006f          	j	149a0 <jpeg_consume_input+0x270>
   14868:	18052583          	lw	a1,384(a0)
   1486c:	02058a63          	beqz	a1,148a0 <jpeg_consume_input+0x170>
   14870:	18454583          	lbu	a1,388(a0)
   14874:	02058663          	beqz	a1,148a0 <jpeg_consume_input+0x170>
   14878:	00200613          	li	a2,2
   1487c:	02c59663          	bne	a1,a2,148a8 <jpeg_consume_input+0x178>
   14880:	00500913          	li	s2,5
   14884:	0cc0006f          	j	14950 <jpeg_consume_input+0x220>
   14888:	00058913          	mv	s2,a1
   1488c:	00058493          	mv	s1,a1
   14890:	0c00006f          	j	14950 <jpeg_consume_input+0x220>
   14894:	00000913          	li	s2,0
   14898:	00000493          	li	s1,0
   1489c:	0b40006f          	j	14950 <jpeg_consume_input+0x220>
   148a0:	00400913          	li	s2,4
   148a4:	0ac0006f          	j	14950 <jpeg_consume_input+0x220>
   148a8:	00053603          	ld	a2,0(a0)
   148ac:	02b62623          	sw	a1,44(a2)
   148b0:	00053503          	ld	a0,0(a0)
   148b4:	00853683          	ld	a3,8(a0)
   148b8:	07200513          	li	a0,114
   148bc:	02a62423          	sw	a0,40(a2)
   148c0:	fff00593          	li	a1,-1
   148c4:	00040513          	mv	a0,s0
   148c8:	000680e7          	jalr	a3
   148cc:	00040513          	mv	a0,s0
   148d0:	00500913          	li	s2,5
   148d4:	07c0006f          	j	14950 <jpeg_consume_input+0x220>
   148d8:	13053583          	ld	a1,304(a0)
   148dc:	0005a603          	lw	a2,0(a1)
   148e0:	0605a683          	lw	a3,96(a1)
   148e4:	0c05a583          	lw	a1,192(a1)
   148e8:	00100713          	li	a4,1
   148ec:	00e61a63          	bne	a2,a4,14900 <jpeg_consume_input+0x1d0>
   148f0:	00200713          	li	a4,2
   148f4:	00e69663          	bne	a3,a4,14900 <jpeg_consume_input+0x1d0>
   148f8:	00300713          	li	a4,3
   148fc:	04e58a63          	beq	a1,a4,14950 <jpeg_consume_input+0x220>
   14900:	05200713          	li	a4,82
   14904:	00200493          	li	s1,2
   14908:	00e61e63          	bne	a2,a4,14924 <jpeg_consume_input+0x1f4>
   1490c:	04700713          	li	a4,71
   14910:	00e69a63          	bne	a3,a4,14924 <jpeg_consume_input+0x1f4>
   14914:	04200713          	li	a4,66
   14918:	00e59663          	bne	a1,a4,14924 <jpeg_consume_input+0x1f4>
   1491c:	00200913          	li	s2,2
   14920:	0300006f          	j	14950 <jpeg_consume_input+0x220>
   14924:	00053503          	ld	a0,0(a0)
   14928:	02c52623          	sw	a2,44(a0)
   1492c:	02d52823          	sw	a3,48(a0)
   14930:	00853603          	ld	a2,8(a0)
   14934:	02b52a23          	sw	a1,52(a0)
   14938:	06f00593          	li	a1,111
   1493c:	02b52423          	sw	a1,40(a0)
   14940:	00100593          	li	a1,1
   14944:	00040513          	mv	a0,s0
   14948:	000600e7          	jalr	a2
   1494c:	00040513          	mv	a0,s0
   14950:	03252e23          	sw	s2,60(a0)
   14954:	04952023          	sw	s1,64(a0)
   14958:	00100593          	li	a1,1
   1495c:	04b52223          	sw	a1,68(a0)
   14960:	04b52423          	sw	a1,72(a0)
   14964:	3ff00613          	li	a2,1023
   14968:	03461613          	slli	a2,a2,0x34
   1496c:	04c53823          	sd	a2,80(a0)
   14970:	04053c23          	sd	zero,88(a0)
   14974:	02059613          	slli	a2,a1,0x20
   14978:	06c53023          	sd	a2,96(a0)
   1497c:	06b53423          	sd	a1,104(a0)
   14980:	00260613          	addi	a2,a2,2
   14984:	06c53823          	sd	a2,112(a0)
   14988:	10000613          	li	a2,256
   1498c:	06c53c23          	sd	a2,120(a0)
   14990:	0a053023          	sd	zero,160(a0)
   14994:	08053023          	sd	zero,128(a0)
   14998:	0ca00613          	li	a2,202
   1499c:	02c52223          	sw	a2,36(a0)
   149a0:	00058513          	mv	a0,a1
   149a4:	01813083          	ld	ra,24(sp)
   149a8:	01013403          	ld	s0,16(sp)
   149ac:	00813483          	ld	s1,8(sp)
   149b0:	00013903          	ld	s2,0(sp)
   149b4:	02010113          	addi	sp,sp,32
   149b8:	00008067          	ret

00000000000149bc <jpeg_input_complete>:
   149bc:	ff010113          	addi	sp,sp,-16
   149c0:	00113423          	sd	ra,8(sp)
   149c4:	00813023          	sd	s0,0(sp)
   149c8:	00050413          	mv	s0,a0
   149cc:	02452503          	lw	a0,36(a0)
   149d0:	f2d5059b          	addiw	a1,a0,-211
   149d4:	ff400613          	li	a2,-12
   149d8:	02b66263          	bltu	a2,a1,149fc <jpeg_input_complete+0x40>
   149dc:	00043583          	ld	a1,0(s0)
   149e0:	02a5a623          	sw	a0,44(a1)
   149e4:	00043503          	ld	a0,0(s0)
   149e8:	00053603          	ld	a2,0(a0)
   149ec:	01400513          	li	a0,20
   149f0:	02a5a423          	sw	a0,40(a1)
   149f4:	00040513          	mv	a0,s0
   149f8:	000600e7          	jalr	a2
   149fc:	24043503          	ld	a0,576(s0)
   14a00:	02452503          	lw	a0,36(a0)
   14a04:	00813083          	ld	ra,8(sp)
   14a08:	00013403          	ld	s0,0(sp)
   14a0c:	01010113          	addi	sp,sp,16
   14a10:	00008067          	ret

0000000000014a14 <jpeg_has_multiple_scans>:
   14a14:	ff010113          	addi	sp,sp,-16
   14a18:	00113423          	sd	ra,8(sp)
   14a1c:	00813023          	sd	s0,0(sp)
   14a20:	00050413          	mv	s0,a0
   14a24:	02452503          	lw	a0,36(a0)
   14a28:	f2d5059b          	addiw	a1,a0,-211
   14a2c:	ff600613          	li	a2,-10
   14a30:	02b66263          	bltu	a2,a1,14a54 <jpeg_has_multiple_scans+0x40>
   14a34:	00043583          	ld	a1,0(s0)
   14a38:	02a5a623          	sw	a0,44(a1)
   14a3c:	00043503          	ld	a0,0(s0)
   14a40:	00053603          	ld	a2,0(a0)
   14a44:	01400513          	li	a0,20
   14a48:	02a5a423          	sw	a0,40(a1)
   14a4c:	00040513          	mv	a0,s0
   14a50:	000600e7          	jalr	a2
   14a54:	24043503          	ld	a0,576(s0)
   14a58:	02052503          	lw	a0,32(a0)
   14a5c:	00813083          	ld	ra,8(sp)
   14a60:	00013403          	ld	s0,0(sp)
   14a64:	01010113          	addi	sp,sp,16
   14a68:	00008067          	ret

0000000000014a6c <jpeg_finish_decompress>:
   14a6c:	ff010113          	addi	sp,sp,-16
   14a70:	00113423          	sd	ra,8(sp)
   14a74:	00813023          	sd	s0,0(sp)
   14a78:	00050413          	mv	s0,a0
   14a7c:	02452503          	lw	a0,36(a0)
   14a80:	f335059b          	addiw	a1,a0,-205
   14a84:	00100613          	li	a2,1
   14a88:	00b66663          	bltu	a2,a1,14a94 <jpeg_finish_decompress+0x28>
   14a8c:	05842583          	lw	a1,88(s0)
   14a90:	02058c63          	beqz	a1,14ac8 <jpeg_finish_decompress+0x5c>
   14a94:	0d200593          	li	a1,210
   14a98:	06b50663          	beq	a0,a1,14b04 <jpeg_finish_decompress+0x98>
   14a9c:	0cf00593          	li	a1,207
   14aa0:	04b50e63          	beq	a0,a1,14afc <jpeg_finish_decompress+0x90>
   14aa4:	00043583          	ld	a1,0(s0)
   14aa8:	02a5a623          	sw	a0,44(a1)
   14aac:	00043503          	ld	a0,0(s0)
   14ab0:	00053603          	ld	a2,0(a0)
   14ab4:	01400513          	li	a0,20
   14ab8:	02a5a423          	sw	a0,40(a1)
   14abc:	00040513          	mv	a0,s0
   14ac0:	000600e7          	jalr	a2
   14ac4:	0400006f          	j	14b04 <jpeg_finish_decompress+0x98>
   14ac8:	0a842503          	lw	a0,168(s0)
   14acc:	08c42583          	lw	a1,140(s0)
   14ad0:	00b57e63          	bgeu	a0,a1,14aec <jpeg_finish_decompress+0x80>
   14ad4:	00043503          	ld	a0,0(s0)
   14ad8:	00053583          	ld	a1,0(a0)
   14adc:	04300613          	li	a2,67
   14ae0:	02c52423          	sw	a2,40(a0)
   14ae4:	00040513          	mv	a0,s0
   14ae8:	000580e7          	jalr	a1
   14aec:	22043503          	ld	a0,544(s0)
   14af0:	00853583          	ld	a1,8(a0)
   14af4:	00040513          	mv	a0,s0
   14af8:	000580e7          	jalr	a1
   14afc:	0d200513          	li	a0,210
   14b00:	02a42223          	sw	a0,36(s0)
   14b04:	24043503          	ld	a0,576(s0)
   14b08:	02452583          	lw	a1,36(a0)
   14b0c:	02059263          	bnez	a1,14b30 <jpeg_finish_decompress+0xc4>
   14b10:	00053583          	ld	a1,0(a0)
   14b14:	00040513          	mv	a0,s0
   14b18:	000580e7          	jalr	a1
   14b1c:	fe0514e3          	bnez	a0,14b04 <jpeg_finish_decompress+0x98>
   14b20:	00813083          	ld	ra,8(sp)
   14b24:	00013403          	ld	s0,0(sp)
   14b28:	01010113          	addi	sp,sp,16
   14b2c:	00008067          	ret
   14b30:	02843503          	ld	a0,40(s0)
   14b34:	03053583          	ld	a1,48(a0)
   14b38:	00040513          	mv	a0,s0
   14b3c:	000580e7          	jalr	a1
   14b40:	00040513          	mv	a0,s0
   14b44:	7a40f0ef          	jal	242e8 <jpeg_abort>
   14b48:	00100513          	li	a0,1
   14b4c:	00813083          	ld	ra,8(sp)
   14b50:	00013403          	ld	s0,0(sp)
   14b54:	01010113          	addi	sp,sp,16
   14b58:	00008067          	ret

0000000000014b5c <jpeg_start_decompress>:
   14b5c:	fe010113          	addi	sp,sp,-32
   14b60:	00113c23          	sd	ra,24(sp)
   14b64:	00813823          	sd	s0,16(sp)
   14b68:	00913423          	sd	s1,8(sp)
   14b6c:	01213023          	sd	s2,0(sp)
   14b70:	00050413          	mv	s0,a0
   14b74:	02452503          	lw	a0,36(a0)
   14b78:	0cc00593          	li	a1,204
   14b7c:	0eb50463          	beq	a0,a1,14c64 <jpeg_start_decompress+0x108>
   14b80:	0cb00593          	li	a1,203
   14b84:	02b50463          	beq	a0,a1,14bac <jpeg_start_decompress+0x50>
   14b88:	0ca00593          	li	a1,202
   14b8c:	08b51a63          	bne	a0,a1,14c20 <jpeg_start_decompress+0xc4>
   14b90:	00040513          	mv	a0,s0
   14b94:	43d000ef          	jal	157d0 <jinit_master_decompress>
   14b98:	05842583          	lw	a1,88(s0)
   14b9c:	0cf00513          	li	a0,207
   14ba0:	16059a63          	bnez	a1,14d14 <jpeg_start_decompress+0x1b8>
   14ba4:	0cb00513          	li	a0,203
   14ba8:	02a42223          	sw	a0,36(s0)
   14bac:	24043503          	ld	a0,576(s0)
   14bb0:	02052503          	lw	a0,32(a0)
   14bb4:	18050063          	beqz	a0,14d34 <jpeg_start_decompress+0x1d8>
   14bb8:	01043583          	ld	a1,16(s0)
   14bbc:	00200493          	li	s1,2
   14bc0:	00100913          	li	s2,1
   14bc4:	00058863          	beqz	a1,14bd4 <jpeg_start_decompress+0x78>
   14bc8:	0005b583          	ld	a1,0(a1)
   14bcc:	00040513          	mv	a0,s0
   14bd0:	000580e7          	jalr	a1
   14bd4:	24043503          	ld	a0,576(s0)
   14bd8:	00053583          	ld	a1,0(a0)
   14bdc:	00040513          	mv	a0,s0
   14be0:	000580e7          	jalr	a1
   14be4:	12050c63          	beqz	a0,14d1c <jpeg_start_decompress+0x1c0>
   14be8:	14950663          	beq	a0,s1,14d34 <jpeg_start_decompress+0x1d8>
   14bec:	01043583          	ld	a1,16(s0)
   14bf0:	ffd57513          	andi	a0,a0,-3
   14bf4:	fd2518e3          	bne	a0,s2,14bc4 <jpeg_start_decompress+0x68>
   14bf8:	fc0586e3          	beqz	a1,14bc4 <jpeg_start_decompress+0x68>
   14bfc:	0085b603          	ld	a2,8(a1)
   14c00:	0105b503          	ld	a0,16(a1)
   14c04:	00160613          	addi	a2,a2,1
   14c08:	00c5b423          	sd	a2,8(a1)
   14c0c:	faa64ce3          	blt	a2,a0,14bc4 <jpeg_start_decompress+0x68>
   14c10:	1a446603          	lwu	a2,420(s0)
   14c14:	00c50533          	add	a0,a0,a2
   14c18:	00a5b823          	sd	a0,16(a1)
   14c1c:	fa9ff06f          	j	14bc4 <jpeg_start_decompress+0x68>
   14c20:	00043583          	ld	a1,0(s0)
   14c24:	02a5a623          	sw	a0,44(a1)
   14c28:	00043503          	ld	a0,0(s0)
   14c2c:	00053603          	ld	a2,0(a0)
   14c30:	01400513          	li	a0,20
   14c34:	02a5a423          	sw	a0,40(a1)
   14c38:	00040513          	mv	a0,s0
   14c3c:	000600e7          	jalr	a2
   14c40:	02442503          	lw	a0,36(s0)
   14c44:	0cc00493          	li	s1,204
   14c48:	00950e63          	beq	a0,s1,14c64 <jpeg_start_decompress+0x108>
   14c4c:	22043503          	ld	a0,544(s0)
   14c50:	00053583          	ld	a1,0(a0)
   14c54:	00040513          	mv	a0,s0
   14c58:	000580e7          	jalr	a1
   14c5c:	0a042423          	sw	zero,168(s0)
   14c60:	02942223          	sw	s1,36(s0)
   14c64:	22043503          	ld	a0,544(s0)
   14c68:	01052503          	lw	a0,16(a0)
   14c6c:	08050e63          	beqz	a0,14d08 <jpeg_start_decompress+0x1ac>
   14c70:	0a846503          	lwu	a0,168(s0)
   14c74:	0a840493          	addi	s1,s0,168
   14c78:	0380006f          	j	14cb0 <jpeg_start_decompress+0x154>
   14c7c:	22043503          	ld	a0,544(s0)
   14c80:	00853583          	ld	a1,8(a0)
   14c84:	00040513          	mv	a0,s0
   14c88:	000580e7          	jalr	a1
   14c8c:	22043503          	ld	a0,544(s0)
   14c90:	00053583          	ld	a1,0(a0)
   14c94:	00040513          	mv	a0,s0
   14c98:	000580e7          	jalr	a1
   14c9c:	22043503          	ld	a0,544(s0)
   14ca0:	01052583          	lw	a1,16(a0)
   14ca4:	00000513          	li	a0,0
   14ca8:	0a042423          	sw	zero,168(s0)
   14cac:	04058e63          	beqz	a1,14d08 <jpeg_start_decompress+0x1ac>
   14cb0:	08c46583          	lwu	a1,140(s0)
   14cb4:	fcb574e3          	bgeu	a0,a1,14c7c <jpeg_start_decompress+0x120>
   14cb8:	01043603          	ld	a2,16(s0)
   14cbc:	00060e63          	beqz	a2,14cd8 <jpeg_start_decompress+0x17c>
   14cc0:	00063683          	ld	a3,0(a2)
   14cc4:	00a63423          	sd	a0,8(a2)
   14cc8:	00b63823          	sd	a1,16(a2)
   14ccc:	00040513          	mv	a0,s0
   14cd0:	000680e7          	jalr	a3
   14cd4:	0a846503          	lwu	a0,168(s0)
   14cd8:	22843583          	ld	a1,552(s0)
   14cdc:	0085b703          	ld	a4,8(a1)
   14ce0:	00050913          	mv	s2,a0
   14ce4:	00040513          	mv	a0,s0
   14ce8:	00000593          	li	a1,0
   14cec:	00048613          	mv	a2,s1
   14cf0:	00000693          	li	a3,0
   14cf4:	000700e7          	jalr	a4
   14cf8:	0a846503          	lwu	a0,168(s0)
   14cfc:	fb251ae3          	bne	a0,s2,14cb0 <jpeg_start_decompress+0x154>
   14d00:	00000513          	li	a0,0
   14d04:	0180006f          	j	14d1c <jpeg_start_decompress+0x1c0>
   14d08:	05c42503          	lw	a0,92(s0)
   14d0c:	00a03533          	snez	a0,a0
   14d10:	0cd50513          	addi	a0,a0,205
   14d14:	02a42223          	sw	a0,36(s0)
   14d18:	00100513          	li	a0,1
   14d1c:	01813083          	ld	ra,24(sp)
   14d20:	01013403          	ld	s0,16(sp)
   14d24:	00813483          	ld	s1,8(sp)
   14d28:	00013903          	ld	s2,0(sp)
   14d2c:	02010113          	addi	sp,sp,32
   14d30:	00008067          	ret
   14d34:	0ac42503          	lw	a0,172(s0)
   14d38:	0aa42a23          	sw	a0,180(s0)
   14d3c:	02442503          	lw	a0,36(s0)
   14d40:	0cc00493          	li	s1,204
   14d44:	f09514e3          	bne	a0,s1,14c4c <jpeg_start_decompress+0xf0>
   14d48:	f1dff06f          	j	14c64 <jpeg_start_decompress+0x108>

0000000000014d4c <jpeg_read_scanlines>:
   14d4c:	fd010113          	addi	sp,sp,-48
   14d50:	02113423          	sd	ra,40(sp)
   14d54:	02813023          	sd	s0,32(sp)
   14d58:	00913c23          	sd	s1,24(sp)
   14d5c:	01213823          	sd	s2,16(sp)
   14d60:	00050413          	mv	s0,a0
   14d64:	02452503          	lw	a0,36(a0)
   14d68:	0cd00693          	li	a3,205
   14d6c:	00060493          	mv	s1,a2
   14d70:	00058913          	mv	s2,a1
   14d74:	02d50263          	beq	a0,a3,14d98 <jpeg_read_scanlines+0x4c>
   14d78:	00043583          	ld	a1,0(s0)
   14d7c:	02a5a623          	sw	a0,44(a1)
   14d80:	00043503          	ld	a0,0(s0)
   14d84:	00053603          	ld	a2,0(a0)
   14d88:	01400513          	li	a0,20
   14d8c:	02a5a423          	sw	a0,40(a1)
   14d90:	00040513          	mv	a0,s0
   14d94:	000600e7          	jalr	a2
   14d98:	0a842603          	lw	a2,168(s0)
   14d9c:	08c42583          	lw	a1,140(s0)
   14da0:	06b67263          	bgeu	a2,a1,14e04 <jpeg_read_scanlines+0xb8>
   14da4:	01043503          	ld	a0,16(s0)
   14da8:	02050463          	beqz	a0,14dd0 <jpeg_read_scanlines+0x84>
   14dac:	02061613          	slli	a2,a2,0x20
   14db0:	02065613          	srli	a2,a2,0x20
   14db4:	02059593          	slli	a1,a1,0x20
   14db8:	00053683          	ld	a3,0(a0)
   14dbc:	0205d593          	srli	a1,a1,0x20
   14dc0:	00c53423          	sd	a2,8(a0)
   14dc4:	00b53823          	sd	a1,16(a0)
   14dc8:	00040513          	mv	a0,s0
   14dcc:	000680e7          	jalr	a3
   14dd0:	22843503          	ld	a0,552(s0)
   14dd4:	00853703          	ld	a4,8(a0)
   14dd8:	00012623          	sw	zero,12(sp)
   14ddc:	00c10613          	addi	a2,sp,12
   14de0:	00040513          	mv	a0,s0
   14de4:	00090593          	mv	a1,s2
   14de8:	00048693          	mv	a3,s1
   14dec:	000700e7          	jalr	a4
   14df0:	00c12503          	lw	a0,12(sp)
   14df4:	0a842583          	lw	a1,168(s0)
   14df8:	00a585b3          	add	a1,a1,a0
   14dfc:	0ab42423          	sw	a1,168(s0)
   14e00:	0240006f          	j	14e24 <jpeg_read_scanlines+0xd8>
   14e04:	00043503          	ld	a0,0(s0)
   14e08:	00853603          	ld	a2,8(a0)
   14e0c:	07b00593          	li	a1,123
   14e10:	02b52423          	sw	a1,40(a0)
   14e14:	fff00593          	li	a1,-1
   14e18:	00040513          	mv	a0,s0
   14e1c:	000600e7          	jalr	a2
   14e20:	00000513          	li	a0,0
   14e24:	02813083          	ld	ra,40(sp)
   14e28:	02013403          	ld	s0,32(sp)
   14e2c:	01813483          	ld	s1,24(sp)
   14e30:	01013903          	ld	s2,16(sp)
   14e34:	03010113          	addi	sp,sp,48
   14e38:	00008067          	ret

0000000000014e3c <jpeg_read_raw_data>:
   14e3c:	fd010113          	addi	sp,sp,-48
   14e40:	02113423          	sd	ra,40(sp)
   14e44:	02813023          	sd	s0,32(sp)
   14e48:	00913c23          	sd	s1,24(sp)
   14e4c:	01213823          	sd	s2,16(sp)
   14e50:	01313423          	sd	s3,8(sp)
   14e54:	00050413          	mv	s0,a0
   14e58:	02452503          	lw	a0,36(a0)
   14e5c:	0ce00693          	li	a3,206
   14e60:	00060913          	mv	s2,a2
   14e64:	00058493          	mv	s1,a1
   14e68:	02d50263          	beq	a0,a3,14e8c <jpeg_read_raw_data+0x50>
   14e6c:	00043583          	ld	a1,0(s0)
   14e70:	02a5a623          	sw	a0,44(a1)
   14e74:	00043503          	ld	a0,0(s0)
   14e78:	00053603          	ld	a2,0(a0)
   14e7c:	01400513          	li	a0,20
   14e80:	02a5a423          	sw	a0,40(a1)
   14e84:	00040513          	mv	a0,s0
   14e88:	000600e7          	jalr	a2
   14e8c:	0a842603          	lw	a2,168(s0)
   14e90:	08c42583          	lw	a1,140(s0)
   14e94:	08b67063          	bgeu	a2,a1,14f14 <jpeg_read_raw_data+0xd8>
   14e98:	01043503          	ld	a0,16(s0)
   14e9c:	02050463          	beqz	a0,14ec4 <jpeg_read_raw_data+0x88>
   14ea0:	02061613          	slli	a2,a2,0x20
   14ea4:	02065613          	srli	a2,a2,0x20
   14ea8:	02059593          	slli	a1,a1,0x20
   14eac:	00053683          	ld	a3,0(a0)
   14eb0:	0205d593          	srli	a1,a1,0x20
   14eb4:	00c53423          	sd	a2,8(a0)
   14eb8:	00b53823          	sd	a1,16(a0)
   14ebc:	00040513          	mv	a0,s0
   14ec0:	000680e7          	jalr	a3
   14ec4:	19c42503          	lw	a0,412(s0)
   14ec8:	1a042583          	lw	a1,416(s0)
   14ecc:	02a589bb          	mulw	s3,a1,a0
   14ed0:	01397e63          	bgeu	s2,s3,14eec <jpeg_read_raw_data+0xb0>
   14ed4:	00043503          	ld	a0,0(s0)
   14ed8:	00053583          	ld	a1,0(a0)
   14edc:	01700613          	li	a2,23
   14ee0:	02c52423          	sw	a2,40(a0)
   14ee4:	00040513          	mv	a0,s0
   14ee8:	000580e7          	jalr	a1
   14eec:	23043503          	ld	a0,560(s0)
   14ef0:	01853603          	ld	a2,24(a0)
   14ef4:	00040513          	mv	a0,s0
   14ef8:	00048593          	mv	a1,s1
   14efc:	000600e7          	jalr	a2
   14f00:	02050863          	beqz	a0,14f30 <jpeg_read_raw_data+0xf4>
   14f04:	0a842503          	lw	a0,168(s0)
   14f08:	01350533          	add	a0,a0,s3
   14f0c:	0aa42423          	sw	a0,168(s0)
   14f10:	0240006f          	j	14f34 <jpeg_read_raw_data+0xf8>
   14f14:	00043503          	ld	a0,0(s0)
   14f18:	00853603          	ld	a2,8(a0)
   14f1c:	07b00593          	li	a1,123
   14f20:	02b52423          	sw	a1,40(a0)
   14f24:	fff00593          	li	a1,-1
   14f28:	00040513          	mv	a0,s0
   14f2c:	000600e7          	jalr	a2
   14f30:	00000993          	li	s3,0
   14f34:	00098513          	mv	a0,s3
   14f38:	02813083          	ld	ra,40(sp)
   14f3c:	02013403          	ld	s0,32(sp)
   14f40:	01813483          	ld	s1,24(sp)
   14f44:	01013903          	ld	s2,16(sp)
   14f48:	00813983          	ld	s3,8(sp)
   14f4c:	03010113          	addi	sp,sp,48
   14f50:	00008067          	ret

0000000000014f54 <jpeg_start_output>:
   14f54:	fe010113          	addi	sp,sp,-32
   14f58:	00113c23          	sd	ra,24(sp)
   14f5c:	00813823          	sd	s0,16(sp)
   14f60:	00913423          	sd	s1,8(sp)
   14f64:	01213023          	sd	s2,0(sp)
   14f68:	00050413          	mv	s0,a0
   14f6c:	02452503          	lw	a0,36(a0)
   14f70:	0cc00613          	li	a2,204
   14f74:	02c50a63          	beq	a0,a2,14fa8 <jpeg_start_output+0x54>
   14f78:	0cf00613          	li	a2,207
   14f7c:	02c50663          	beq	a0,a2,14fa8 <jpeg_start_output+0x54>
   14f80:	00043603          	ld	a2,0(s0)
   14f84:	02a62623          	sw	a0,44(a2)
   14f88:	00043503          	ld	a0,0(s0)
   14f8c:	00053683          	ld	a3,0(a0)
   14f90:	01400513          	li	a0,20
   14f94:	02a62423          	sw	a0,40(a2)
   14f98:	00040513          	mv	a0,s0
   14f9c:	00058493          	mv	s1,a1
   14fa0:	000680e7          	jalr	a3
   14fa4:	00048593          	mv	a1,s1
   14fa8:	00b04463          	bgtz	a1,14fb0 <jpeg_start_output+0x5c>
   14fac:	00100593          	li	a1,1
   14fb0:	24043503          	ld	a0,576(s0)
   14fb4:	02452503          	lw	a0,36(a0)
   14fb8:	00050863          	beqz	a0,14fc8 <jpeg_start_output+0x74>
   14fbc:	0ac42503          	lw	a0,172(s0)
   14fc0:	00a5c463          	blt	a1,a0,14fc8 <jpeg_start_output+0x74>
   14fc4:	00050593          	mv	a1,a0
   14fc8:	02442503          	lw	a0,36(s0)
   14fcc:	0cc00493          	li	s1,204
   14fd0:	0ab42a23          	sw	a1,180(s0)
   14fd4:	00950e63          	beq	a0,s1,14ff0 <jpeg_start_output+0x9c>
   14fd8:	22043503          	ld	a0,544(s0)
   14fdc:	00053583          	ld	a1,0(a0)
   14fe0:	00040513          	mv	a0,s0
   14fe4:	000580e7          	jalr	a1
   14fe8:	0a042423          	sw	zero,168(s0)
   14fec:	02942223          	sw	s1,36(s0)
   14ff0:	22043503          	ld	a0,544(s0)
   14ff4:	01052503          	lw	a0,16(a0)
   14ff8:	08050e63          	beqz	a0,15094 <jpeg_start_output+0x140>
   14ffc:	0a846503          	lwu	a0,168(s0)
   15000:	0a840493          	addi	s1,s0,168
   15004:	0380006f          	j	1503c <jpeg_start_output+0xe8>
   15008:	22043503          	ld	a0,544(s0)
   1500c:	00853583          	ld	a1,8(a0)
   15010:	00040513          	mv	a0,s0
   15014:	000580e7          	jalr	a1
   15018:	22043503          	ld	a0,544(s0)
   1501c:	00053583          	ld	a1,0(a0)
   15020:	00040513          	mv	a0,s0
   15024:	000580e7          	jalr	a1
   15028:	22043503          	ld	a0,544(s0)
   1502c:	01052583          	lw	a1,16(a0)
   15030:	00000513          	li	a0,0
   15034:	0a042423          	sw	zero,168(s0)
   15038:	04058e63          	beqz	a1,15094 <jpeg_start_output+0x140>
   1503c:	08c46583          	lwu	a1,140(s0)
   15040:	fcb574e3          	bgeu	a0,a1,15008 <jpeg_start_output+0xb4>
   15044:	01043603          	ld	a2,16(s0)
   15048:	00060e63          	beqz	a2,15064 <jpeg_start_output+0x110>
   1504c:	00063683          	ld	a3,0(a2)
   15050:	00a63423          	sd	a0,8(a2)
   15054:	00b63823          	sd	a1,16(a2)
   15058:	00040513          	mv	a0,s0
   1505c:	000680e7          	jalr	a3
   15060:	0a846503          	lwu	a0,168(s0)
   15064:	22843583          	ld	a1,552(s0)
   15068:	0085b703          	ld	a4,8(a1)
   1506c:	00050913          	mv	s2,a0
   15070:	00040513          	mv	a0,s0
   15074:	00000593          	li	a1,0
   15078:	00048613          	mv	a2,s1
   1507c:	00000693          	li	a3,0
   15080:	000700e7          	jalr	a4
   15084:	0a846503          	lwu	a0,168(s0)
   15088:	fb251ae3          	bne	a0,s2,1503c <jpeg_start_output+0xe8>
   1508c:	00000513          	li	a0,0
   15090:	0180006f          	j	150a8 <jpeg_start_output+0x154>
   15094:	05c42503          	lw	a0,92(s0)
   15098:	00a03533          	snez	a0,a0
   1509c:	0cd50513          	addi	a0,a0,205
   150a0:	02a42223          	sw	a0,36(s0)
   150a4:	00100513          	li	a0,1
   150a8:	01813083          	ld	ra,24(sp)
   150ac:	01013403          	ld	s0,16(sp)
   150b0:	00813483          	ld	s1,8(sp)
   150b4:	00013903          	ld	s2,0(sp)
   150b8:	02010113          	addi	sp,sp,32
   150bc:	00008067          	ret

00000000000150c0 <jpeg_finish_output>:
   150c0:	ff010113          	addi	sp,sp,-16
   150c4:	00113423          	sd	ra,8(sp)
   150c8:	00813023          	sd	s0,0(sp)
   150cc:	00050413          	mv	s0,a0
   150d0:	02452503          	lw	a0,36(a0)
   150d4:	f335059b          	addiw	a1,a0,-205
   150d8:	00100613          	li	a2,1
   150dc:	02b66463          	bltu	a2,a1,15104 <jpeg_finish_output+0x44>
   150e0:	05842583          	lw	a1,88(s0)
   150e4:	02058463          	beqz	a1,1510c <jpeg_finish_output+0x4c>
   150e8:	22043503          	ld	a0,544(s0)
   150ec:	00853583          	ld	a1,8(a0)
   150f0:	00040513          	mv	a0,s0
   150f4:	000580e7          	jalr	a1
   150f8:	0d000513          	li	a0,208
   150fc:	02a42223          	sw	a0,36(s0)
   15100:	02c0006f          	j	1512c <jpeg_finish_output+0x6c>
   15104:	0d000593          	li	a1,208
   15108:	02b50263          	beq	a0,a1,1512c <jpeg_finish_output+0x6c>
   1510c:	00043583          	ld	a1,0(s0)
   15110:	02a5a623          	sw	a0,44(a1)
   15114:	00043503          	ld	a0,0(s0)
   15118:	00053603          	ld	a2,0(a0)
   1511c:	01400513          	li	a0,20
   15120:	02a5a423          	sw	a0,40(a1)
   15124:	00040513          	mv	a0,s0
   15128:	000600e7          	jalr	a2
   1512c:	0ac42503          	lw	a0,172(s0)
   15130:	0b442583          	lw	a1,180(s0)
   15134:	02a5c863          	blt	a1,a0,15164 <jpeg_finish_output+0xa4>
   15138:	24043503          	ld	a0,576(s0)
   1513c:	02452583          	lw	a1,36(a0)
   15140:	02059263          	bnez	a1,15164 <jpeg_finish_output+0xa4>
   15144:	00053583          	ld	a1,0(a0)
   15148:	00040513          	mv	a0,s0
   1514c:	000580e7          	jalr	a1
   15150:	fc051ee3          	bnez	a0,1512c <jpeg_finish_output+0x6c>
   15154:	00813083          	ld	ra,8(sp)
   15158:	00013403          	ld	s0,0(sp)
   1515c:	01010113          	addi	sp,sp,16
   15160:	00008067          	ret
   15164:	0cf00513          	li	a0,207
   15168:	02a42223          	sw	a0,36(s0)
   1516c:	00100513          	li	a0,1
   15170:	00813083          	ld	ra,8(sp)
   15174:	00013403          	ld	s0,0(sp)
   15178:	01010113          	addi	sp,sp,16
   1517c:	00008067          	ret

0000000000015180 <jpeg_stdio_src>:
   15180:	fe010113          	addi	sp,sp,-32
   15184:	00113c23          	sd	ra,24(sp)
   15188:	00813823          	sd	s0,16(sp)
   1518c:	00913423          	sd	s1,8(sp)
   15190:	01213023          	sd	s2,0(sp)
   15194:	02853603          	ld	a2,40(a0)
   15198:	00058413          	mv	s0,a1
   1519c:	04061263          	bnez	a2,151e0 <jpeg_stdio_src+0x60>
   151a0:	00853583          	ld	a1,8(a0)
   151a4:	0005b683          	ld	a3,0(a1)
   151a8:	05000613          	li	a2,80
   151ac:	00050493          	mv	s1,a0
   151b0:	00000593          	li	a1,0
   151b4:	000680e7          	jalr	a3
   151b8:	0084b583          	ld	a1,8(s1)
   151bc:	0005b683          	ld	a3,0(a1)
   151c0:	00050913          	mv	s2,a0
   151c4:	02a4b423          	sd	a0,40(s1)
   151c8:	00001637          	lui	a2,0x1
   151cc:	00048513          	mv	a0,s1
   151d0:	00000593          	li	a1,0
   151d4:	000680e7          	jalr	a3
   151d8:	0284b603          	ld	a2,40(s1)
   151dc:	04a93023          	sd	a0,64(s2)
   151e0:	00015537          	lui	a0,0x15
   151e4:	24050513          	addi	a0,a0,576 # 15240 <init_source>
   151e8:	00a63823          	sd	a0,16(a2) # 1010 <__abi_tag-0xf284>
   151ec:	00015537          	lui	a0,0x15
   151f0:	25050513          	addi	a0,a0,592 # 15250 <fill_input_buffer>
   151f4:	00a63c23          	sd	a0,24(a2)
   151f8:	00015537          	lui	a0,0x15
   151fc:	30850513          	addi	a0,a0,776 # 15308 <skip_input_data>
   15200:	02a63023          	sd	a0,32(a2)
   15204:	00016537          	lui	a0,0x16
   15208:	53050513          	addi	a0,a0,1328 # 16530 <jpeg_resync_to_restart>
   1520c:	02a63423          	sd	a0,40(a2)
   15210:	00015537          	lui	a0,0x15
   15214:	42850513          	addi	a0,a0,1064 # 15428 <term_source>
   15218:	02a63823          	sd	a0,48(a2)
   1521c:	02863c23          	sd	s0,56(a2)
   15220:	00063023          	sd	zero,0(a2)
   15224:	00063423          	sd	zero,8(a2)
   15228:	01813083          	ld	ra,24(sp)
   1522c:	01013403          	ld	s0,16(sp)
   15230:	00813483          	ld	s1,8(sp)
   15234:	00013903          	ld	s2,0(sp)
   15238:	02010113          	addi	sp,sp,32
   1523c:	00008067          	ret

0000000000015240 <init_source>:
   15240:	02853503          	ld	a0,40(a0)
   15244:	00100593          	li	a1,1
   15248:	04b52423          	sw	a1,72(a0)
   1524c:	00008067          	ret

0000000000015250 <fill_input_buffer>:
   15250:	fe010113          	addi	sp,sp,-32
   15254:	00113c23          	sd	ra,24(sp)
   15258:	00813823          	sd	s0,16(sp)
   1525c:	00913423          	sd	s1,8(sp)
   15260:	01213023          	sd	s2,0(sp)
   15264:	00050413          	mv	s0,a0
   15268:	02853483          	ld	s1,40(a0)
   1526c:	0404b503          	ld	a0,64(s1)
   15270:	0384b683          	ld	a3,56(s1)
   15274:	00100593          	li	a1,1
   15278:	00001637          	lui	a2,0x1
   1527c:	925fb0ef          	jal	10ba0 <fread@plt>
   15280:	04051e63          	bnez	a0,152dc <fill_input_buffer+0x8c>
   15284:	0484a503          	lw	a0,72(s1)
   15288:	00050e63          	beqz	a0,152a4 <fill_input_buffer+0x54>
   1528c:	00043503          	ld	a0,0(s0)
   15290:	00053583          	ld	a1,0(a0)
   15294:	02a00613          	li	a2,42
   15298:	02c52423          	sw	a2,40(a0)
   1529c:	00040513          	mv	a0,s0
   152a0:	000580e7          	jalr	a1
   152a4:	00043503          	ld	a0,0(s0)
   152a8:	00853603          	ld	a2,8(a0)
   152ac:	07800593          	li	a1,120
   152b0:	02b52423          	sw	a1,40(a0)
   152b4:	fff00593          	li	a1,-1
   152b8:	fff00913          	li	s2,-1
   152bc:	00040513          	mv	a0,s0
   152c0:	000600e7          	jalr	a2 # 1000 <__abi_tag-0xf294>
   152c4:	0404b503          	ld	a0,64(s1)
   152c8:	01250023          	sb	s2,0(a0)
   152cc:	0404b503          	ld	a0,64(s1)
   152d0:	0d900593          	li	a1,217
   152d4:	00b500a3          	sb	a1,1(a0)
   152d8:	00200513          	li	a0,2
   152dc:	0404b583          	ld	a1,64(s1)
   152e0:	00b4b023          	sd	a1,0(s1)
   152e4:	00a4b423          	sd	a0,8(s1)
   152e8:	00100513          	li	a0,1
   152ec:	0404a423          	sw	zero,72(s1)
   152f0:	01813083          	ld	ra,24(sp)
   152f4:	01013403          	ld	s0,16(sp)
   152f8:	00813483          	ld	s1,8(sp)
   152fc:	00013903          	ld	s2,0(sp)
   15300:	02010113          	addi	sp,sp,32
   15304:	00008067          	ret

0000000000015308 <skip_input_data>:
   15308:	10b05e63          	blez	a1,15424 <skip_input_data+0x11c>
   1530c:	fb010113          	addi	sp,sp,-80
   15310:	04113423          	sd	ra,72(sp)
   15314:	04813023          	sd	s0,64(sp)
   15318:	02913c23          	sd	s1,56(sp)
   1531c:	03213823          	sd	s2,48(sp)
   15320:	03313423          	sd	s3,40(sp)
   15324:	03413023          	sd	s4,32(sp)
   15328:	01513c23          	sd	s5,24(sp)
   1532c:	01613823          	sd	s6,16(sp)
   15330:	01713423          	sd	s7,8(sp)
   15334:	01813023          	sd	s8,0(sp)
   15338:	00058413          	mv	s0,a1
   1533c:	00050493          	mv	s1,a0
   15340:	02853903          	ld	s2,40(a0)
   15344:	00893983          	ld	s3,8(s2)
   15348:	08b9de63          	bge	s3,a1,153e4 <skip_input_data+0xdc>
   1534c:	07800a13          	li	s4,120
   15350:	fff00a93          	li	s5,-1
   15354:	0d900b13          	li	s6,217
   15358:	02a00b93          	li	s7,42
   1535c:	04c0006f          	j	153a8 <skip_input_data+0xa0>
   15360:	0004b503          	ld	a0,0(s1)
   15364:	00853603          	ld	a2,8(a0)
   15368:	03452423          	sw	s4,40(a0)
   1536c:	fff00593          	li	a1,-1
   15370:	00048513          	mv	a0,s1
   15374:	000600e7          	jalr	a2
   15378:	040c3503          	ld	a0,64(s8)
   1537c:	01550023          	sb	s5,0(a0)
   15380:	040c3503          	ld	a0,64(s8)
   15384:	016500a3          	sb	s6,1(a0)
   15388:	00200513          	li	a0,2
   1538c:	41340433          	sub	s0,s0,s3
   15390:	040c3583          	ld	a1,64(s8)
   15394:	00ac3423          	sd	a0,8(s8)
   15398:	00893983          	ld	s3,8(s2)
   1539c:	00bc3023          	sd	a1,0(s8)
   153a0:	040c2423          	sw	zero,72(s8)
   153a4:	0489d063          	bge	s3,s0,153e4 <skip_input_data+0xdc>
   153a8:	0284bc03          	ld	s8,40(s1)
   153ac:	040c3503          	ld	a0,64(s8)
   153b0:	038c3683          	ld	a3,56(s8)
   153b4:	00100593          	li	a1,1
   153b8:	00001637          	lui	a2,0x1
   153bc:	fe4fb0ef          	jal	10ba0 <fread@plt>
   153c0:	fc0516e3          	bnez	a0,1538c <skip_input_data+0x84>
   153c4:	048c2503          	lw	a0,72(s8)
   153c8:	f8050ce3          	beqz	a0,15360 <skip_input_data+0x58>
   153cc:	0004b503          	ld	a0,0(s1)
   153d0:	00053583          	ld	a1,0(a0)
   153d4:	03752423          	sw	s7,40(a0)
   153d8:	00048513          	mv	a0,s1
   153dc:	000580e7          	jalr	a1
   153e0:	f81ff06f          	j	15360 <skip_input_data+0x58>
   153e4:	00093503          	ld	a0,0(s2)
   153e8:	00850533          	add	a0,a0,s0
   153ec:	00a93023          	sd	a0,0(s2)
   153f0:	40898533          	sub	a0,s3,s0
   153f4:	00a93423          	sd	a0,8(s2)
   153f8:	04813083          	ld	ra,72(sp)
   153fc:	04013403          	ld	s0,64(sp)
   15400:	03813483          	ld	s1,56(sp)
   15404:	03013903          	ld	s2,48(sp)
   15408:	02813983          	ld	s3,40(sp)
   1540c:	02013a03          	ld	s4,32(sp)
   15410:	01813a83          	ld	s5,24(sp)
   15414:	01013b03          	ld	s6,16(sp)
   15418:	00813b83          	ld	s7,8(sp)
   1541c:	00013c03          	ld	s8,0(sp)
   15420:	05010113          	addi	sp,sp,80
   15424:	00008067          	ret

0000000000015428 <term_source>:
   15428:	00008067          	ret

000000000001542c <jpeg_calc_output_dimensions>:
   1542c:	fd010113          	addi	sp,sp,-48
   15430:	02113423          	sd	ra,40(sp)
   15434:	02813023          	sd	s0,32(sp)
   15438:	00913c23          	sd	s1,24(sp)
   1543c:	01213823          	sd	s2,16(sp)
   15440:	01313423          	sd	s3,8(sp)
   15444:	00050413          	mv	s0,a0
   15448:	02452503          	lw	a0,36(a0)
   1544c:	0ca00593          	li	a1,202
   15450:	02b50263          	beq	a0,a1,15474 <jpeg_calc_output_dimensions+0x48>
   15454:	00043583          	ld	a1,0(s0)
   15458:	02a5a623          	sw	a0,44(a1)
   1545c:	00043503          	ld	a0,0(s0)
   15460:	00053603          	ld	a2,0(a0)
   15464:	01400513          	li	a0,20
   15468:	02a5a423          	sw	a0,40(a1)
   1546c:	00040513          	mv	a0,s0
   15470:	000600e7          	jalr	a2 # 1000 <__abi_tag-0xf294>
   15474:	04442583          	lw	a1,68(s0)
   15478:	04842603          	lw	a2,72(s0)
   1547c:	0035951b          	slliw	a0,a1,0x3
   15480:	06a67a63          	bgeu	a2,a0,154f4 <jpeg_calc_output_dimensions+0xc8>
   15484:	0025951b          	slliw	a0,a1,0x2
   15488:	06a67e63          	bgeu	a2,a0,15504 <jpeg_calc_output_dimensions+0xd8>
   1548c:	03042503          	lw	a0,48(s0)
   15490:	0015959b          	slliw	a1,a1,0x1
   15494:	08b67063          	bgeu	a2,a1,15514 <jpeg_calc_output_dimensions+0xe8>
   15498:	03442603          	lw	a2,52(s0)
   1549c:	08a42423          	sw	a0,136(s0)
   154a0:	03842583          	lw	a1,56(s0)
   154a4:	08c42623          	sw	a2,140(s0)
   154a8:	00800693          	li	a3,8
   154ac:	1ad42023          	sw	a3,416(s0)
   154b0:	13040493          	addi	s1,s0,304
   154b4:	16b05863          	blez	a1,15624 <jpeg_calc_output_dimensions+0x1f8>
   154b8:	13043503          	ld	a0,304(s0)
   154bc:	00b02633          	sgtz	a2,a1
   154c0:	02450713          	addi	a4,a0,36
   154c4:	fff58793          	addi	a5,a1,-1
   154c8:	00300813          	li	a6,3
   154cc:	02581813          	slli	a6,a6,0x25
   154d0:	02079793          	slli	a5,a5,0x20
   154d4:	0307b7b3          	mulhu	a5,a5,a6
   154d8:	00a787b3          	add	a5,a5,a0
   154dc:	08478793          	addi	a5,a5,132
   154e0:	00d72023          	sw	a3,0(a4)
   154e4:	06070713          	addi	a4,a4,96
   154e8:	fef71ce3          	bne	a4,a5,154e0 <jpeg_calc_output_dimensions+0xb4>
   154ec:	0c061c63          	bnez	a2,155c4 <jpeg_calc_output_dimensions+0x198>
   154f0:	1340006f          	j	15624 <jpeg_calc_output_dimensions+0x1f8>
   154f4:	00100913          	li	s2,1
   154f8:	00800493          	li	s1,8
   154fc:	03042503          	lw	a0,48(s0)
   15500:	01c0006f          	j	1551c <jpeg_calc_output_dimensions+0xf0>
   15504:	00200913          	li	s2,2
   15508:	00400493          	li	s1,4
   1550c:	03042503          	lw	a0,48(s0)
   15510:	00c0006f          	j	1551c <jpeg_calc_output_dimensions+0xf0>
   15514:	00400913          	li	s2,4
   15518:	00200493          	li	s1,2
   1551c:	02051513          	slli	a0,a0,0x20
   15520:	02055513          	srli	a0,a0,0x20
   15524:	00048593          	mv	a1,s1
   15528:	6b90e0ef          	jal	243e0 <jdiv_round_up>
   1552c:	03446583          	lwu	a1,52(s0)
   15530:	08a42423          	sw	a0,136(s0)
   15534:	00058513          	mv	a0,a1
   15538:	00048593          	mv	a1,s1
   1553c:	6a50e0ef          	jal	243e0 <jdiv_round_up>
   15540:	03842583          	lw	a1,56(s0)
   15544:	08a42623          	sw	a0,140(s0)
   15548:	1b242023          	sw	s2,416(s0)
   1554c:	13040493          	addi	s1,s0,304
   15550:	0cb05a63          	blez	a1,15624 <jpeg_calc_output_dimensions+0x1f8>
   15554:	19842683          	lw	a3,408(s0)
   15558:	13043503          	ld	a0,304(s0)
   1555c:	00000613          	li	a2,0
   15560:	032686bb          	mulw	a3,a3,s2
   15564:	00400713          	li	a4,4
   15568:	00050793          	mv	a5,a0
   1556c:	0180006f          	j	15584 <jpeg_calc_output_dimensions+0x158>
   15570:	00088293          	mv	t0,a7
   15574:	0257a223          	sw	t0,36(a5)
   15578:	0016061b          	addiw	a2,a2,1
   1557c:	06078793          	addi	a5,a5,96
   15580:	02b60e63          	beq	a2,a1,155bc <jpeg_calc_output_dimensions+0x190>
   15584:	0087a803          	lw	a6,8(a5)
   15588:	00181813          	slli	a6,a6,0x1
   1558c:	00090293          	mv	t0,s2
   15590:	00028893          	mv	a7,t0
   15594:	030282bb          	mulw	t0,t0,a6
   15598:	fc56cce3          	blt	a3,t0,15570 <jpeg_calc_output_dimensions+0x144>
   1559c:	00c7a303          	lw	t1,12(a5)
   155a0:	19c42383          	lw	t2,412(s0)
   155a4:	0018929b          	slliw	t0,a7,0x1
   155a8:	0262833b          	mulw	t1,t0,t1
   155ac:	032383bb          	mulw	t2,t2,s2
   155b0:	fc63c0e3          	blt	t2,t1,15570 <jpeg_calc_output_dimensions+0x144>
   155b4:	fce8cee3          	blt	a7,a4,15590 <jpeg_calc_output_dimensions+0x164>
   155b8:	fbdff06f          	j	15574 <jpeg_calc_output_dimensions+0x148>
   155bc:	00100613          	li	a2,1
   155c0:	06060263          	beqz	a2,15624 <jpeg_calc_output_dimensions+0x1f8>
   155c4:	00000913          	li	s2,0
   155c8:	02450993          	addi	s3,a0,36
   155cc:	fe49a503          	lw	a0,-28(s3)
   155d0:	0009a583          	lw	a1,0(s3)
   155d4:	03046603          	lwu	a2,48(s0)
   155d8:	19842683          	lw	a3,408(s0)
   155dc:	02a5853b          	mulw	a0,a1,a0
   155e0:	02c50533          	mul	a0,a0,a2
   155e4:	0036959b          	slliw	a1,a3,0x3
   155e8:	5f90e0ef          	jal	243e0 <jdiv_round_up>
   155ec:	fe89a583          	lw	a1,-24(s3)
   155f0:	0009a603          	lw	a2,0(s3)
   155f4:	03446683          	lwu	a3,52(s0)
   155f8:	19c42703          	lw	a4,412(s0)
   155fc:	00a9a223          	sw	a0,4(s3)
   15600:	02b6053b          	mulw	a0,a2,a1
   15604:	02d50533          	mul	a0,a0,a3
   15608:	0037159b          	slliw	a1,a4,0x3
   1560c:	5d50e0ef          	jal	243e0 <jdiv_round_up>
   15610:	03842583          	lw	a1,56(s0)
   15614:	00a9a423          	sw	a0,8(s3)
   15618:	0019091b          	addiw	s2,s2,1
   1561c:	06098993          	addi	s3,s3,96
   15620:	fab946e3          	blt	s2,a1,155cc <jpeg_calc_output_dimensions+0x1a0>
   15624:	04042683          	lw	a3,64(s0)
   15628:	fff6851b          	addiw	a0,a3,-1
   1562c:	00400713          	li	a4,4
   15630:	00058613          	mv	a2,a1
   15634:	00a76c63          	bltu	a4,a0,1564c <jpeg_calc_output_dimensions+0x220>
   15638:	00251513          	slli	a0,a0,0x2
   1563c:	00028637          	lui	a2,0x28
   15640:	c2860613          	addi	a2,a2,-984 # 27c28 <cdjpeg_message_table+0x1f00>
   15644:	00a60533          	add	a0,a2,a0
   15648:	00052603          	lw	a2,0(a0)
   1564c:	06c42783          	lw	a5,108(s0)
   15650:	08c42823          	sw	a2,144(s0)
   15654:	00100513          	li	a0,1
   15658:	00060713          	mv	a4,a2
   1565c:	00078463          	beqz	a5,15664 <jpeg_calc_output_dimensions+0x238>
   15660:	00100713          	li	a4,1
   15664:	06442783          	lw	a5,100(s0)
   15668:	08e42a23          	sw	a4,148(s0)
   1566c:	00079663          	bnez	a5,15678 <jpeg_calc_output_dimensions+0x24c>
   15670:	18842703          	lw	a4,392(s0)
   15674:	02070263          	beqz	a4,15698 <jpeg_calc_output_dimensions+0x26c>
   15678:	08a42c23          	sw	a0,152(s0)
   1567c:	02813083          	ld	ra,40(sp)
   15680:	02013403          	ld	s0,32(sp)
   15684:	01813483          	ld	s1,24(sp)
   15688:	01013903          	ld	s2,16(sp)
   1568c:	00813983          	ld	s3,8(sp)
   15690:	03010113          	addi	sp,sp,48
   15694:	00008067          	ret
   15698:	00200713          	li	a4,2
   1569c:	fce69ee3          	bne	a3,a4,15678 <jpeg_calc_output_dimensions+0x24c>
   156a0:	00300693          	li	a3,3
   156a4:	fcd59ae3          	bne	a1,a3,15678 <jpeg_calc_output_dimensions+0x24c>
   156a8:	03c42583          	lw	a1,60(s0)
   156ac:	fcd596e3          	bne	a1,a3,15678 <jpeg_calc_output_dimensions+0x24c>
   156b0:	00300593          	li	a1,3
   156b4:	fcb612e3          	bne	a2,a1,15678 <jpeg_calc_output_dimensions+0x24c>
   156b8:	0004b583          	ld	a1,0(s1)
   156bc:	0085a603          	lw	a2,8(a1)
   156c0:	00200693          	li	a3,2
   156c4:	fad61ae3          	bne	a2,a3,15678 <jpeg_calc_output_dimensions+0x24c>
   156c8:	0685a603          	lw	a2,104(a1)
   156cc:	00100513          	li	a0,1
   156d0:	faa614e3          	bne	a2,a0,15678 <jpeg_calc_output_dimensions+0x24c>
   156d4:	0c85a603          	lw	a2,200(a1)
   156d8:	00100513          	li	a0,1
   156dc:	f8a61ee3          	bne	a2,a0,15678 <jpeg_calc_output_dimensions+0x24c>
   156e0:	00c5a603          	lw	a2,12(a1)
   156e4:	00200693          	li	a3,2
   156e8:	f8c6c8e3          	blt	a3,a2,15678 <jpeg_calc_output_dimensions+0x24c>
   156ec:	06c5a603          	lw	a2,108(a1)
   156f0:	00100513          	li	a0,1
   156f4:	f8a612e3          	bne	a2,a0,15678 <jpeg_calc_output_dimensions+0x24c>
   156f8:	0cc5a603          	lw	a2,204(a1)
   156fc:	00100513          	li	a0,1
   15700:	f6a61ce3          	bne	a2,a0,15678 <jpeg_calc_output_dimensions+0x24c>
   15704:	0245a603          	lw	a2,36(a1)
   15708:	1a042683          	lw	a3,416(s0)
   1570c:	f6d616e3          	bne	a2,a3,15678 <jpeg_calc_output_dimensions+0x24c>
   15710:	0845a683          	lw	a3,132(a1)
   15714:	f6c692e3          	bne	a3,a2,15678 <jpeg_calc_output_dimensions+0x24c>
   15718:	0e45a583          	lw	a1,228(a1)
   1571c:	f4c59ee3          	bne	a1,a2,15678 <jpeg_calc_output_dimensions+0x24c>
   15720:	19c42503          	lw	a0,412(s0)
   15724:	f55ff06f          	j	15678 <jpeg_calc_output_dimensions+0x24c>

0000000000015728 <jpeg_new_colormap>:
   15728:	fe010113          	addi	sp,sp,-32
   1572c:	00113c23          	sd	ra,24(sp)
   15730:	00813823          	sd	s0,16(sp)
   15734:	00913423          	sd	s1,8(sp)
   15738:	02452583          	lw	a1,36(a0)
   1573c:	22053483          	ld	s1,544(a0)
   15740:	0cf00613          	li	a2,207
   15744:	02c58463          	beq	a1,a2,1576c <jpeg_new_colormap+0x44>
   15748:	00053603          	ld	a2,0(a0)
   1574c:	02b62623          	sw	a1,44(a2)
   15750:	00053583          	ld	a1,0(a0)
   15754:	0005b583          	ld	a1,0(a1)
   15758:	01400693          	li	a3,20
   1575c:	02d62423          	sw	a3,40(a2)
   15760:	00050413          	mv	s0,a0
   15764:	000580e7          	jalr	a1
   15768:	00040513          	mv	a0,s0
   1576c:	06c52583          	lw	a1,108(a0)
   15770:	02058e63          	beqz	a1,157ac <jpeg_new_colormap+0x84>
   15774:	08052583          	lw	a1,128(a0)
   15778:	02058a63          	beqz	a1,157ac <jpeg_new_colormap+0x84>
   1577c:	0a053583          	ld	a1,160(a0)
   15780:	02058663          	beqz	a1,157ac <jpeg_new_colormap+0x84>
   15784:	0284b583          	ld	a1,40(s1)
   15788:	0185b603          	ld	a2,24(a1)
   1578c:	26b53823          	sd	a1,624(a0)
   15790:	000600e7          	jalr	a2
   15794:	0004a823          	sw	zero,16(s1)
   15798:	01813083          	ld	ra,24(sp)
   1579c:	01013403          	ld	s0,16(sp)
   157a0:	00813483          	ld	s1,8(sp)
   157a4:	02010113          	addi	sp,sp,32
   157a8:	00008067          	ret
   157ac:	00053583          	ld	a1,0(a0)
   157b0:	0005b303          	ld	t1,0(a1)
   157b4:	02e00613          	li	a2,46
   157b8:	02c5a423          	sw	a2,40(a1)
   157bc:	01813083          	ld	ra,24(sp)
   157c0:	01013403          	ld	s0,16(sp)
   157c4:	00813483          	ld	s1,8(sp)
   157c8:	02010113          	addi	sp,sp,32
   157cc:	00030067          	jr	t1

00000000000157d0 <jinit_master_decompress>:
   157d0:	fd010113          	addi	sp,sp,-48
   157d4:	02113423          	sd	ra,40(sp)
   157d8:	02813023          	sd	s0,32(sp)
   157dc:	00913c23          	sd	s1,24(sp)
   157e0:	01213823          	sd	s2,16(sp)
   157e4:	01313423          	sd	s3,8(sp)
   157e8:	01413023          	sd	s4,0(sp)
   157ec:	00050493          	mv	s1,a0
   157f0:	00853503          	ld	a0,8(a0)
   157f4:	00053683          	ld	a3,0(a0)
   157f8:	00100593          	li	a1,1
   157fc:	03000613          	li	a2,48
   15800:	00048513          	mv	a0,s1
   15804:	000680e7          	jalr	a3
   15808:	00050413          	mv	s0,a0
   1580c:	22a4b023          	sd	a0,544(s1)
   15810:	00016537          	lui	a0,0x16
   15814:	be850513          	addi	a0,a0,-1048 # 15be8 <prepare_for_output_pass>
   15818:	00a43023          	sd	a0,0(s0)
   1581c:	00016537          	lui	a0,0x16
   15820:	db050513          	addi	a0,a0,-592 # 15db0 <finish_output_pass>
   15824:	00a43423          	sd	a0,8(s0)
   15828:	00042823          	sw	zero,16(s0)
   1582c:	00048513          	mv	a0,s1
   15830:	bfdff0ef          	jal	1542c <jpeg_calc_output_dimensions>
   15834:	0084b503          	ld	a0,8(s1)
   15838:	00053683          	ld	a3,0(a0)
   1583c:	00100593          	li	a1,1
   15840:	58000613          	li	a2,1408
   15844:	00048513          	mv	a0,s1
   15848:	000680e7          	jalr	a3
   1584c:	00050913          	mv	s2,a0
   15850:	10050993          	addi	s3,a0,256
   15854:	1b34b423          	sd	s3,424(s1)
   15858:	10000613          	li	a2,256
   1585c:	10000a13          	li	s4,256
   15860:	00000593          	li	a1,0
   15864:	becfb0ef          	jal	10c50 <memset@plt>
   15868:	00000513          	li	a0,0
   1586c:	00a985b3          	add	a1,s3,a0
   15870:	00a58023          	sb	a0,0(a1)
   15874:	00150513          	addi	a0,a0,1
   15878:	ff451ae3          	bne	a0,s4,1586c <jinit_master_decompress+0x9c>
   1587c:	20090513          	addi	a0,s2,512
   15880:	0ff00593          	li	a1,255
   15884:	18000613          	li	a2,384
   15888:	bc8fb0ef          	jal	10c50 <memset@plt>
   1588c:	38090513          	addi	a0,s2,896
   15890:	18000613          	li	a2,384
   15894:	00000593          	li	a1,0
   15898:	bb8fb0ef          	jal	10c50 <memset@plt>
   1589c:	1a84b583          	ld	a1,424(s1)
   158a0:	50090513          	addi	a0,s2,1280
   158a4:	08000613          	li	a2,128
   158a8:	ae8fb0ef          	jal	10b90 <memcpy@plt>
   158ac:	0884e503          	lwu	a0,136(s1)
   158b0:	0904a583          	lw	a1,144(s1)
   158b4:	02a58533          	mul	a0,a1,a0
   158b8:	02055513          	srli	a0,a0,0x20
   158bc:	00050e63          	beqz	a0,158d8 <jinit_master_decompress+0x108>
   158c0:	0004b503          	ld	a0,0(s1)
   158c4:	00053583          	ld	a1,0(a0)
   158c8:	04600613          	li	a2,70
   158cc:	02c52423          	sw	a2,40(a0)
   158d0:	00048513          	mv	a0,s1
   158d4:	000580e7          	jalr	a1
   158d8:	0644a583          	lw	a1,100(s1)
   158dc:	00000513          	li	a0,0
   158e0:	00042c23          	sw	zero,24(s0)
   158e4:	0a059263          	bnez	a1,15988 <jinit_master_decompress+0x1b8>
   158e8:	1884a503          	lw	a0,392(s1)
   158ec:	08051c63          	bnez	a0,15984 <jinit_master_decompress+0x1b4>
   158f0:	03c4a583          	lw	a1,60(s1)
   158f4:	00300513          	li	a0,3
   158f8:	08a59663          	bne	a1,a0,15984 <jinit_master_decompress+0x1b4>
   158fc:	0384a583          	lw	a1,56(s1)
   15900:	08a59263          	bne	a1,a0,15984 <jinit_master_decompress+0x1b4>
   15904:	0404a503          	lw	a0,64(s1)
   15908:	00200593          	li	a1,2
   1590c:	06b51c63          	bne	a0,a1,15984 <jinit_master_decompress+0x1b4>
   15910:	0904a503          	lw	a0,144(s1)
   15914:	00300593          	li	a1,3
   15918:	06b51663          	bne	a0,a1,15984 <jinit_master_decompress+0x1b4>
   1591c:	1304b503          	ld	a0,304(s1)
   15920:	00852583          	lw	a1,8(a0)
   15924:	00200613          	li	a2,2
   15928:	04c59e63          	bne	a1,a2,15984 <jinit_master_decompress+0x1b4>
   1592c:	06852603          	lw	a2,104(a0)
   15930:	00100593          	li	a1,1
   15934:	04b61863          	bne	a2,a1,15984 <jinit_master_decompress+0x1b4>
   15938:	0c852603          	lw	a2,200(a0)
   1593c:	04b61463          	bne	a2,a1,15984 <jinit_master_decompress+0x1b4>
   15940:	00c52583          	lw	a1,12(a0)
   15944:	00200613          	li	a2,2
   15948:	02b64e63          	blt	a2,a1,15984 <jinit_master_decompress+0x1b4>
   1594c:	06c52603          	lw	a2,108(a0)
   15950:	00100593          	li	a1,1
   15954:	02b61863          	bne	a2,a1,15984 <jinit_master_decompress+0x1b4>
   15958:	0cc52603          	lw	a2,204(a0)
   1595c:	02b61463          	bne	a2,a1,15984 <jinit_master_decompress+0x1b4>
   15960:	02452583          	lw	a1,36(a0)
   15964:	1a04a603          	lw	a2,416(s1)
   15968:	00c59e63          	bne	a1,a2,15984 <jinit_master_decompress+0x1b4>
   1596c:	08452603          	lw	a2,132(a0)
   15970:	00b61a63          	bne	a2,a1,15984 <jinit_master_decompress+0x1b4>
   15974:	0e452503          	lw	a0,228(a0)
   15978:	00b54533          	xor	a0,a0,a1
   1597c:	00153513          	seqz	a0,a0
   15980:	0080006f          	j	15988 <jinit_master_decompress+0x1b8>
   15984:	00000513          	li	a0,0
   15988:	02043023          	sd	zero,32(s0)
   1598c:	02043423          	sd	zero,40(s0)
   15990:	06c4a583          	lw	a1,108(s1)
   15994:	00a42e23          	sw	a0,28(s0)
   15998:	04058a63          	beqz	a1,159ec <jinit_master_decompress+0x21c>
   1599c:	0584a503          	lw	a0,88(s1)
   159a0:	00051663          	bnez	a0,159ac <jinit_master_decompress+0x1dc>
   159a4:	0604ae23          	sw	zero,124(s1)
   159a8:	0804b023          	sd	zero,128(s1)
   159ac:	05c4a503          	lw	a0,92(s1)
   159b0:	00050e63          	beqz	a0,159cc <jinit_master_decompress+0x1fc>
   159b4:	0004b503          	ld	a0,0(s1)
   159b8:	00053583          	ld	a1,0(a0)
   159bc:	02f00613          	li	a2,47
   159c0:	02c52423          	sw	a2,40(a0)
   159c4:	00048513          	mv	a0,s1
   159c8:	000580e7          	jalr	a1
   159cc:	0904a503          	lw	a0,144(s1)
   159d0:	00300593          	li	a1,3
   159d4:	02b51263          	bne	a0,a1,159f8 <jinit_master_decompress+0x228>
   159d8:	0a04b503          	ld	a0,160(s1)
   159dc:	1e050663          	beqz	a0,15bc8 <jinit_master_decompress+0x3f8>
   159e0:	00100513          	li	a0,1
   159e4:	08a4a023          	sw	a0,128(s1)
   159e8:	0200006f          	j	15a08 <jinit_master_decompress+0x238>
   159ec:	0604ae23          	sw	zero,124(s1)
   159f0:	0804b023          	sd	zero,128(s1)
   159f4:	04c0006f          	j	15a40 <jinit_master_decompress+0x270>
   159f8:	00100513          	li	a0,1
   159fc:	06a4ae23          	sw	a0,124(s1)
   15a00:	0804b023          	sd	zero,128(s1)
   15a04:	0a04b023          	sd	zero,160(s1)
   15a08:	07c4a503          	lw	a0,124(s1)
   15a0c:	00050a63          	beqz	a0,15a20 <jinit_master_decompress+0x250>
   15a10:	00048513          	mv	a0,s1
   15a14:	4410a0ef          	jal	20654 <jinit_1pass_quantizer>
   15a18:	2704b503          	ld	a0,624(s1)
   15a1c:	02a43023          	sd	a0,32(s0)
   15a20:	0844a503          	lw	a0,132(s1)
   15a24:	00051663          	bnez	a0,15a30 <jinit_master_decompress+0x260>
   15a28:	0804a503          	lw	a0,128(s1)
   15a2c:	00050a63          	beqz	a0,15a40 <jinit_master_decompress+0x270>
   15a30:	00048513          	mv	a0,s1
   15a34:	5dd0b0ef          	jal	21810 <jinit_2pass_quantizer>
   15a38:	2704b503          	ld	a0,624(s1)
   15a3c:	02a43423          	sd	a0,40(s0)
   15a40:	05c4a503          	lw	a0,92(s1)
   15a44:	10050263          	beqz	a0,15b48 <jinit_master_decompress+0x378>
   15a48:	00048513          	mv	a0,s1
   15a4c:	1a5070ef          	jal	1d3f0 <jinit_inverse_dct>
   15a50:	13c4a503          	lw	a0,316(s1)
   15a54:	12050a63          	beqz	a0,15b88 <jinit_master_decompress+0x3b8>
   15a58:	0004b503          	ld	a0,0(s1)
   15a5c:	00053583          	ld	a1,0(a0)
   15a60:	00100613          	li	a2,1
   15a64:	02c52423          	sw	a2,40(a0)
   15a68:	00048513          	mv	a0,s1
   15a6c:	000580e7          	jalr	a1
   15a70:	2404b503          	ld	a0,576(s1)
   15a74:	02052503          	lw	a0,32(a0)
   15a78:	00100593          	li	a1,1
   15a7c:	00051663          	bnez	a0,15a88 <jinit_master_decompress+0x2b8>
   15a80:	0584a503          	lw	a0,88(s1)
   15a84:	00a035b3          	snez	a1,a0
   15a88:	00048513          	mv	a0,s1
   15a8c:	324060ef          	jal	1bdb0 <jinit_d_coef_controller>
   15a90:	05c4a503          	lw	a0,92(s1)
   15a94:	00051863          	bnez	a0,15aa4 <jinit_master_decompress+0x2d4>
   15a98:	00048513          	mv	a0,s1
   15a9c:	00000593          	li	a1,0
   15aa0:	369050ef          	jal	1b608 <jinit_d_main_controller>
   15aa4:	0084b503          	ld	a0,8(s1)
   15aa8:	03053583          	ld	a1,48(a0)
   15aac:	00048513          	mv	a0,s1
   15ab0:	000580e7          	jalr	a1
   15ab4:	2404b503          	ld	a0,576(s1)
   15ab8:	01053583          	ld	a1,16(a0)
   15abc:	00048513          	mv	a0,s1
   15ac0:	000580e7          	jalr	a1
   15ac4:	0104b503          	ld	a0,16(s1)
   15ac8:	06050063          	beqz	a0,15b28 <jinit_master_decompress+0x358>
   15acc:	0584a583          	lw	a1,88(s1)
   15ad0:	04059c63          	bnez	a1,15b28 <jinit_master_decompress+0x358>
   15ad4:	2404b583          	ld	a1,576(s1)
   15ad8:	0205a583          	lw	a1,32(a1)
   15adc:	04058663          	beqz	a1,15b28 <jinit_master_decompress+0x358>
   15ae0:	1384a603          	lw	a2,312(s1)
   15ae4:	0384a583          	lw	a1,56(s1)
   15ae8:	00060863          	beqz	a2,15af8 <jinit_master_decompress+0x328>
   15aec:	00159613          	slli	a2,a1,0x1
   15af0:	00b605b3          	add	a1,a2,a1
   15af4:	0025859b          	addiw	a1,a1,2
   15af8:	1a44e603          	lwu	a2,420(s1)
   15afc:	00053423          	sd	zero,8(a0)
   15b00:	02c585b3          	mul	a1,a1,a2
   15b04:	0844a603          	lw	a2,132(s1)
   15b08:	00b53823          	sd	a1,16(a0)
   15b0c:	00052c23          	sw	zero,24(a0)
   15b10:	01842583          	lw	a1,24(s0)
   15b14:	00163613          	seqz	a2,a2
   15b18:	00364613          	xori	a2,a2,3
   15b1c:	00c52e23          	sw	a2,28(a0)
   15b20:	00158593          	addi	a1,a1,1
   15b24:	00b42c23          	sw	a1,24(s0)
   15b28:	02813083          	ld	ra,40(sp)
   15b2c:	02013403          	ld	s0,32(sp)
   15b30:	01813483          	ld	s1,24(sp)
   15b34:	01013903          	ld	s2,16(sp)
   15b38:	00813983          	ld	s3,8(sp)
   15b3c:	00013a03          	ld	s4,0(sp)
   15b40:	03010113          	addi	sp,sp,48
   15b44:	00008067          	ret
   15b48:	01c42503          	lw	a0,28(s0)
   15b4c:	00050863          	beqz	a0,15b5c <jinit_master_decompress+0x38c>
   15b50:	00048513          	mv	a0,s1
   15b54:	7dd0d0ef          	jal	23b30 <jinit_merged_upsampler>
   15b58:	0140006f          	j	15b6c <jinit_master_decompress+0x39c>
   15b5c:	00048513          	mv	a0,s1
   15b60:	34c0a0ef          	jal	1feac <jinit_color_deconverter>
   15b64:	00048513          	mv	a0,s1
   15b68:	04d090ef          	jal	1f3b4 <jinit_upsampler>
   15b6c:	0844a583          	lw	a1,132(s1)
   15b70:	00048513          	mv	a0,s1
   15b74:	3c8070ef          	jal	1cf3c <jinit_d_post_controller>
   15b78:	00048513          	mv	a0,s1
   15b7c:	075070ef          	jal	1d3f0 <jinit_inverse_dct>
   15b80:	13c4a503          	lw	a0,316(s1)
   15b84:	ec051ae3          	bnez	a0,15a58 <jinit_master_decompress+0x288>
   15b88:	1384a503          	lw	a0,312(s1)
   15b8c:	02050063          	beqz	a0,15bac <jinit_master_decompress+0x3dc>
   15b90:	00048513          	mv	a0,s1
   15b94:	0dd040ef          	jal	1a470 <jinit_phuff_decoder>
   15b98:	2404b503          	ld	a0,576(s1)
   15b9c:	02052503          	lw	a0,32(a0)
   15ba0:	00100593          	li	a1,1
   15ba4:	ee0512e3          	bnez	a0,15a88 <jinit_master_decompress+0x2b8>
   15ba8:	ed9ff06f          	j	15a80 <jinit_master_decompress+0x2b0>
   15bac:	00048513          	mv	a0,s1
   15bb0:	11c040ef          	jal	19ccc <jinit_huff_decoder>
   15bb4:	2404b503          	ld	a0,576(s1)
   15bb8:	02052503          	lw	a0,32(a0)
   15bbc:	00100593          	li	a1,1
   15bc0:	ec0514e3          	bnez	a0,15a88 <jinit_master_decompress+0x2b8>
   15bc4:	ebdff06f          	j	15a80 <jinit_master_decompress+0x2b0>
   15bc8:	0744a503          	lw	a0,116(s1)
   15bcc:	00050863          	beqz	a0,15bdc <jinit_master_decompress+0x40c>
   15bd0:	00100513          	li	a0,1
   15bd4:	08a4a223          	sw	a0,132(s1)
   15bd8:	e31ff06f          	j	15a08 <jinit_master_decompress+0x238>
   15bdc:	00100513          	li	a0,1
   15be0:	06a4ae23          	sw	a0,124(s1)
   15be4:	e25ff06f          	j	15a08 <jinit_master_decompress+0x238>

0000000000015be8 <prepare_for_output_pass>:
   15be8:	fe010113          	addi	sp,sp,-32
   15bec:	00113c23          	sd	ra,24(sp)
   15bf0:	00813823          	sd	s0,16(sp)
   15bf4:	00913423          	sd	s1,8(sp)
   15bf8:	01213023          	sd	s2,0(sp)
   15bfc:	00050413          	mv	s0,a0
   15c00:	22053903          	ld	s2,544(a0)
   15c04:	01092503          	lw	a0,16(s2)
   15c08:	04050663          	beqz	a0,15c54 <prepare_for_output_pass+0x6c>
   15c0c:	27043503          	ld	a0,624(s0)
   15c10:	00053603          	ld	a2,0(a0)
   15c14:	00092823          	sw	zero,16(s2)
   15c18:	00040513          	mv	a0,s0
   15c1c:	00000593          	li	a1,0
   15c20:	000600e7          	jalr	a2
   15c24:	23843503          	ld	a0,568(s0)
   15c28:	00053603          	ld	a2,0(a0)
   15c2c:	00200593          	li	a1,2
   15c30:	00200493          	li	s1,2
   15c34:	00040513          	mv	a0,s0
   15c38:	000600e7          	jalr	a2
   15c3c:	22843503          	ld	a0,552(s0)
   15c40:	00053603          	ld	a2,0(a0)
   15c44:	00040513          	mv	a0,s0
   15c48:	00048593          	mv	a1,s1
   15c4c:	000600e7          	jalr	a2
   15c50:	03c0006f          	j	15c8c <prepare_for_output_pass+0xa4>
   15c54:	06c42503          	lw	a0,108(s0)
   15c58:	00050663          	beqz	a0,15c64 <prepare_for_output_pass+0x7c>
   15c5c:	0a043503          	ld	a0,160(s0)
   15c60:	0e050e63          	beqz	a0,15d5c <prepare_for_output_pass+0x174>
   15c64:	25843503          	ld	a0,600(s0)
   15c68:	00053583          	ld	a1,0(a0)
   15c6c:	00040513          	mv	a0,s0
   15c70:	000580e7          	jalr	a1
   15c74:	23043503          	ld	a0,560(s0)
   15c78:	01053583          	ld	a1,16(a0)
   15c7c:	00040513          	mv	a0,s0
   15c80:	000580e7          	jalr	a1
   15c84:	05c42503          	lw	a0,92(s0)
   15c88:	06050463          	beqz	a0,15cf0 <prepare_for_output_pass+0x108>
   15c8c:	01043503          	ld	a0,16(s0)
   15c90:	04050463          	beqz	a0,15cd8 <prepare_for_output_pass+0xf0>
   15c94:	01892583          	lw	a1,24(s2)
   15c98:	01092603          	lw	a2,16(s2)
   15c9c:	00b52c23          	sw	a1,24(a0)
   15ca0:	05842683          	lw	a3,88(s0)
   15ca4:	00163613          	seqz	a2,a2
   15ca8:	40c585bb          	subw	a1,a1,a2
   15cac:	00258593          	addi	a1,a1,2
   15cb0:	00b52e23          	sw	a1,28(a0)
   15cb4:	02068263          	beqz	a3,15cd8 <prepare_for_output_pass+0xf0>
   15cb8:	24043603          	ld	a2,576(s0)
   15cbc:	02462603          	lw	a2,36(a2)
   15cc0:	00061c63          	bnez	a2,15cd8 <prepare_for_output_pass+0xf0>
   15cc4:	08442603          	lw	a2,132(s0)
   15cc8:	00163613          	seqz	a2,a2
   15ccc:	40c585bb          	subw	a1,a1,a2
   15cd0:	00258593          	addi	a1,a1,2
   15cd4:	00b52e23          	sw	a1,28(a0)
   15cd8:	01813083          	ld	ra,24(sp)
   15cdc:	01013403          	ld	s0,16(sp)
   15ce0:	00813483          	ld	s1,8(sp)
   15ce4:	00013903          	ld	s2,0(sp)
   15ce8:	02010113          	addi	sp,sp,32
   15cec:	00008067          	ret
   15cf0:	01c92503          	lw	a0,28(s2)
   15cf4:	00051a63          	bnez	a0,15d08 <prepare_for_output_pass+0x120>
   15cf8:	26843503          	ld	a0,616(s0)
   15cfc:	00053583          	ld	a1,0(a0)
   15d00:	00040513          	mv	a0,s0
   15d04:	000580e7          	jalr	a1
   15d08:	26043503          	ld	a0,608(s0)
   15d0c:	00053583          	ld	a1,0(a0)
   15d10:	00040513          	mv	a0,s0
   15d14:	000580e7          	jalr	a1
   15d18:	06c42503          	lw	a0,108(s0)
   15d1c:	00050c63          	beqz	a0,15d34 <prepare_for_output_pass+0x14c>
   15d20:	27043503          	ld	a0,624(s0)
   15d24:	00053603          	ld	a2,0(a0)
   15d28:	01092583          	lw	a1,16(s2)
   15d2c:	00040513          	mv	a0,s0
   15d30:	000600e7          	jalr	a2
   15d34:	23843503          	ld	a0,568(s0)
   15d38:	01092583          	lw	a1,16(s2)
   15d3c:	00053603          	ld	a2,0(a0)
   15d40:	0015b513          	seqz	a0,a1
   15d44:	fff50513          	addi	a0,a0,-1
   15d48:	00357593          	andi	a1,a0,3
   15d4c:	00040513          	mv	a0,s0
   15d50:	000600e7          	jalr	a2
   15d54:	00000493          	li	s1,0
   15d58:	ee5ff06f          	j	15c3c <prepare_for_output_pass+0x54>
   15d5c:	07442503          	lw	a0,116(s0)
   15d60:	02050063          	beqz	a0,15d80 <prepare_for_output_pass+0x198>
   15d64:	08442503          	lw	a0,132(s0)
   15d68:	00050c63          	beqz	a0,15d80 <prepare_for_output_pass+0x198>
   15d6c:	02893503          	ld	a0,40(s2)
   15d70:	26a43823          	sd	a0,624(s0)
   15d74:	00100513          	li	a0,1
   15d78:	00a92823          	sw	a0,16(s2)
   15d7c:	ee9ff06f          	j	15c64 <prepare_for_output_pass+0x7c>
   15d80:	07c42503          	lw	a0,124(s0)
   15d84:	00050863          	beqz	a0,15d94 <prepare_for_output_pass+0x1ac>
   15d88:	02093503          	ld	a0,32(s2)
   15d8c:	26a43823          	sd	a0,624(s0)
   15d90:	ed5ff06f          	j	15c64 <prepare_for_output_pass+0x7c>
   15d94:	00043503          	ld	a0,0(s0)
   15d98:	00053583          	ld	a1,0(a0)
   15d9c:	02e00613          	li	a2,46
   15da0:	02c52423          	sw	a2,40(a0)
   15da4:	00040513          	mv	a0,s0
   15da8:	000580e7          	jalr	a1
   15dac:	eb9ff06f          	j	15c64 <prepare_for_output_pass+0x7c>

0000000000015db0 <finish_output_pass>:
   15db0:	ff010113          	addi	sp,sp,-16
   15db4:	00113423          	sd	ra,8(sp)
   15db8:	00813023          	sd	s0,0(sp)
   15dbc:	06c52583          	lw	a1,108(a0)
   15dc0:	22053403          	ld	s0,544(a0)
   15dc4:	00058863          	beqz	a1,15dd4 <finish_output_pass+0x24>
   15dc8:	27053583          	ld	a1,624(a0)
   15dcc:	0105b583          	ld	a1,16(a1)
   15dd0:	000580e7          	jalr	a1
   15dd4:	01842503          	lw	a0,24(s0)
   15dd8:	00150513          	addi	a0,a0,1
   15ddc:	00a42c23          	sw	a0,24(s0)
   15de0:	00813083          	ld	ra,8(sp)
   15de4:	00013403          	ld	s0,0(sp)
   15de8:	01010113          	addi	sp,sp,16
   15dec:	00008067          	ret

0000000000015df0 <jinit_input_controller>:
   15df0:	ff010113          	addi	sp,sp,-16
   15df4:	00113423          	sd	ra,8(sp)
   15df8:	00813023          	sd	s0,0(sp)
   15dfc:	00050413          	mv	s0,a0
   15e00:	00853503          	ld	a0,8(a0)
   15e04:	00053683          	ld	a3,0(a0)
   15e08:	03000613          	li	a2,48
   15e0c:	00040513          	mv	a0,s0
   15e10:	00000593          	li	a1,0
   15e14:	000680e7          	jalr	a3
   15e18:	24a43023          	sd	a0,576(s0)
   15e1c:	000165b7          	lui	a1,0x16
   15e20:	e6858593          	addi	a1,a1,-408 # 15e68 <consume_markers>
   15e24:	00b53023          	sd	a1,0(a0)
   15e28:	000165b7          	lui	a1,0x16
   15e2c:	1d858593          	addi	a1,a1,472 # 161d8 <reset_input_controller>
   15e30:	00b53423          	sd	a1,8(a0)
   15e34:	000165b7          	lui	a1,0x16
   15e38:	23858593          	addi	a1,a1,568 # 16238 <start_input_pass>
   15e3c:	00b53823          	sd	a1,16(a0)
   15e40:	000165b7          	lui	a1,0x16
   15e44:	51c58593          	addi	a1,a1,1308 # 1651c <finish_input_pass>
   15e48:	00b53c23          	sd	a1,24(a0)
   15e4c:	02053023          	sd	zero,32(a0)
   15e50:	00100593          	li	a1,1
   15e54:	02b52423          	sw	a1,40(a0)
   15e58:	00813083          	ld	ra,8(sp)
   15e5c:	00013403          	ld	s0,0(sp)
   15e60:	01010113          	addi	sp,sp,16
   15e64:	00008067          	ret

0000000000015e68 <consume_markers>:
   15e68:	fc010113          	addi	sp,sp,-64
   15e6c:	02113c23          	sd	ra,56(sp)
   15e70:	02813823          	sd	s0,48(sp)
   15e74:	02913423          	sd	s1,40(sp)
   15e78:	03213023          	sd	s2,32(sp)
   15e7c:	01313c23          	sd	s3,24(sp)
   15e80:	01413823          	sd	s4,16(sp)
   15e84:	01513423          	sd	s5,8(sp)
   15e88:	01613023          	sd	s6,0(sp)
   15e8c:	00050413          	mv	s0,a0
   15e90:	24053483          	ld	s1,576(a0)
   15e94:	0244a583          	lw	a1,36(s1)
   15e98:	00200513          	li	a0,2
   15e9c:	02058663          	beqz	a1,15ec8 <consume_markers+0x60>
   15ea0:	03813083          	ld	ra,56(sp)
   15ea4:	03013403          	ld	s0,48(sp)
   15ea8:	02813483          	ld	s1,40(sp)
   15eac:	02013903          	ld	s2,32(sp)
   15eb0:	01813983          	ld	s3,24(sp)
   15eb4:	01013a03          	ld	s4,16(sp)
   15eb8:	00813a83          	ld	s5,8(sp)
   15ebc:	00013b03          	ld	s6,0(sp)
   15ec0:	04010113          	addi	sp,sp,64
   15ec4:	00008067          	ret
   15ec8:	24843503          	ld	a0,584(s0)
   15ecc:	00853583          	ld	a1,8(a0)
   15ed0:	00040513          	mv	a0,s0
   15ed4:	000580e7          	jalr	a1
   15ed8:	00200593          	li	a1,2
   15edc:	12b50463          	beq	a0,a1,16004 <consume_markers+0x19c>
   15ee0:	00100593          	li	a1,1
   15ee4:	fab51ee3          	bne	a0,a1,15ea0 <consume_markers+0x38>
   15ee8:	0284a503          	lw	a0,40(s1)
   15eec:	26050063          	beqz	a0,1614c <consume_markers+0x2e4>
   15ef0:	03442583          	lw	a1,52(s0)
   15ef4:	00010537          	lui	a0,0x10
   15ef8:	fdc5061b          	addiw	a2,a0,-36 # ffdc <__abi_tag-0x2b8>
   15efc:	14b66463          	bltu	a2,a1,16044 <consume_markers+0x1dc>
   15f00:	03042583          	lw	a1,48(s0)
   15f04:	fdd5051b          	addiw	a0,a0,-35
   15f08:	12a5fe63          	bgeu	a1,a0,16044 <consume_markers+0x1dc>
   15f0c:	12842503          	lw	a0,296(s0)
   15f10:	00800593          	li	a1,8
   15f14:	16b51063          	bne	a0,a1,16074 <consume_markers+0x20c>
   15f18:	03842503          	lw	a0,56(s0)
   15f1c:	00b00593          	li	a1,11
   15f20:	02b54a63          	blt	a0,a1,15f54 <consume_markers+0xec>
   15f24:	00043583          	ld	a1,0(s0)
   15f28:	02a5a623          	sw	a0,44(a1)
   15f2c:	00043503          	ld	a0,0(s0)
   15f30:	01a00613          	li	a2,26
   15f34:	02c5a423          	sw	a2,40(a1)
   15f38:	00a00593          	li	a1,10
   15f3c:	02b52823          	sw	a1,48(a0)
   15f40:	00043503          	ld	a0,0(s0)
   15f44:	00053583          	ld	a1,0(a0)
   15f48:	00040513          	mv	a0,s0
   15f4c:	000580e7          	jalr	a1
   15f50:	03842503          	lw	a0,56(s0)
   15f54:	00100593          	li	a1,1
   15f58:	02059613          	slli	a2,a1,0x20
   15f5c:	00160613          	addi	a2,a2,1
   15f60:	18c43c23          	sd	a2,408(s0)
   15f64:	22a05863          	blez	a0,16194 <consume_markers+0x32c>
   15f68:	13043983          	ld	s3,304(s0)
   15f6c:	00000913          	li	s2,0
   15f70:	00c98993          	addi	s3,s3,12
   15f74:	00100593          	li	a1,1
   15f78:	ffc00a13          	li	s4,-4
   15f7c:	01200a93          	li	s5,18
   15f80:	ffb00b13          	li	s6,-5
   15f84:	00100613          	li	a2,1
   15f88:	0140006f          	j	15f9c <consume_markers+0x134>
   15f8c:	18b42e23          	sw	a1,412(s0)
   15f90:	0019091b          	addiw	s2,s2,1
   15f94:	06098993          	addi	s3,s3,96
   15f98:	10a95663          	bge	s2,a0,160a4 <consume_markers+0x23c>
   15f9c:	ffc9a703          	lw	a4,-4(s3)
   15fa0:	ffb7069b          	addiw	a3,a4,-5
   15fa4:	0346e063          	bltu	a3,s4,15fc4 <consume_markers+0x15c>
   15fa8:	0009a683          	lw	a3,0(s3)
   15fac:	ffb6879b          	addiw	a5,a3,-5
   15fb0:	00fb7a63          	bgeu	s6,a5,15fc4 <consume_markers+0x15c>
   15fb4:	02c75e63          	bge	a4,a2,15ff0 <consume_markers+0x188>
   15fb8:	18c42c23          	sw	a2,408(s0)
   15fbc:	fcb6c8e3          	blt	a3,a1,15f8c <consume_markers+0x124>
   15fc0:	03c0006f          	j	15ffc <consume_markers+0x194>
   15fc4:	00043503          	ld	a0,0(s0)
   15fc8:	00053583          	ld	a1,0(a0)
   15fcc:	03552423          	sw	s5,40(a0)
   15fd0:	00040513          	mv	a0,s0
   15fd4:	000580e7          	jalr	a1
   15fd8:	19842603          	lw	a2,408(s0)
   15fdc:	ffc9a703          	lw	a4,-4(s3)
   15fe0:	19c42583          	lw	a1,412(s0)
   15fe4:	0009a683          	lw	a3,0(s3)
   15fe8:	03842503          	lw	a0,56(s0)
   15fec:	fcc746e3          	blt	a4,a2,15fb8 <consume_markers+0x150>
   15ff0:	00070613          	mv	a2,a4
   15ff4:	18e42c23          	sw	a4,408(s0)
   15ff8:	f8b6cae3          	blt	a3,a1,15f8c <consume_markers+0x124>
   15ffc:	00068593          	mv	a1,a3
   16000:	f8dff06f          	j	15f8c <consume_markers+0x124>
   16004:	0284a503          	lw	a0,40(s1)
   16008:	00100593          	li	a1,1
   1600c:	02b4a223          	sw	a1,36(s1)
   16010:	16050663          	beqz	a0,1617c <consume_markers+0x314>
   16014:	24843503          	ld	a0,584(s0)
   16018:	01c52583          	lw	a1,28(a0)
   1601c:	00200513          	li	a0,2
   16020:	e80580e3          	beqz	a1,15ea0 <consume_markers+0x38>
   16024:	00043503          	ld	a0,0(s0)
   16028:	00053583          	ld	a1,0(a0)
   1602c:	03b00613          	li	a2,59
   16030:	02c52423          	sw	a2,40(a0)
   16034:	00040513          	mv	a0,s0
   16038:	000580e7          	jalr	a1
   1603c:	00200513          	li	a0,2
   16040:	e61ff06f          	j	15ea0 <consume_markers+0x38>
   16044:	00043503          	ld	a0,0(s0)
   16048:	03ff75b7          	lui	a1,0x3ff7
   1604c:	01659593          	slli	a1,a1,0x16
   16050:	02958593          	addi	a1,a1,41 # 3ff7029 <__global_pointer$+0x3fcc771>
   16054:	02b53423          	sd	a1,40(a0)
   16058:	00043503          	ld	a0,0(s0)
   1605c:	00053583          	ld	a1,0(a0)
   16060:	00040513          	mv	a0,s0
   16064:	000580e7          	jalr	a1
   16068:	12842503          	lw	a0,296(s0)
   1606c:	00800593          	li	a1,8
   16070:	eab504e3          	beq	a0,a1,15f18 <consume_markers+0xb0>
   16074:	00043583          	ld	a1,0(s0)
   16078:	02a5a623          	sw	a0,44(a1)
   1607c:	00043503          	ld	a0,0(s0)
   16080:	00053603          	ld	a2,0(a0)
   16084:	00f00513          	li	a0,15
   16088:	02a5a423          	sw	a0,40(a1)
   1608c:	00040513          	mv	a0,s0
   16090:	000600e7          	jalr	a2
   16094:	03842503          	lw	a0,56(s0)
   16098:	00b00593          	li	a1,11
   1609c:	e8b554e3          	bge	a0,a1,15f24 <consume_markers+0xbc>
   160a0:	eb5ff06f          	j	15f54 <consume_markers+0xec>
   160a4:	00800913          	li	s2,8
   160a8:	1b242023          	sw	s2,416(s0)
   160ac:	0ea05863          	blez	a0,1619c <consume_markers+0x334>
   160b0:	13043503          	ld	a0,304(s0)
   160b4:	00000993          	li	s3,0
   160b8:	02850a13          	addi	s4,a0,40
   160bc:	00100a93          	li	s5,1
   160c0:	03046503          	lwu	a0,48(s0)
   160c4:	fe0a2583          	lw	a1,-32(s4)
   160c8:	19842603          	lw	a2,408(s0)
   160cc:	ff2a2e23          	sw	s2,-4(s4)
   160d0:	02a58533          	mul	a0,a1,a0
   160d4:	0036159b          	slliw	a1,a2,0x3
   160d8:	3080e0ef          	jal	243e0 <jdiv_round_up>
   160dc:	03446583          	lwu	a1,52(s0)
   160e0:	fe4a2603          	lw	a2,-28(s4)
   160e4:	19c42683          	lw	a3,412(s0)
   160e8:	feaa2a23          	sw	a0,-12(s4)
   160ec:	02b60533          	mul	a0,a2,a1
   160f0:	0036959b          	slliw	a1,a3,0x3
   160f4:	2ec0e0ef          	jal	243e0 <jdiv_round_up>
   160f8:	03046603          	lwu	a2,48(s0)
   160fc:	fe0a2683          	lw	a3,-32(s4)
   16100:	19842583          	lw	a1,408(s0)
   16104:	feaa2c23          	sw	a0,-8(s4)
   16108:	02c68533          	mul	a0,a3,a2
   1610c:	2d40e0ef          	jal	243e0 <jdiv_round_up>
   16110:	03446603          	lwu	a2,52(s0)
   16114:	fe4a2683          	lw	a3,-28(s4)
   16118:	19c42583          	lw	a1,412(s0)
   1611c:	00aa2023          	sw	a0,0(s4)
   16120:	02c68533          	mul	a0,a3,a2
   16124:	2bc0e0ef          	jal	243e0 <jdiv_round_up>
   16128:	00aa2223          	sw	a0,4(s4)
   1612c:	03842503          	lw	a0,56(s0)
   16130:	015a2423          	sw	s5,8(s4)
   16134:	020a3423          	sd	zero,40(s4)
   16138:	0019899b          	addiw	s3,s3,1
   1613c:	060a0a13          	addi	s4,s4,96
   16140:	f8a9c0e3          	blt	s3,a0,160c0 <consume_markers+0x258>
   16144:	19c42583          	lw	a1,412(s0)
   16148:	0540006f          	j	1619c <consume_markers+0x334>
   1614c:	0204a503          	lw	a0,32(s1)
   16150:	00051e63          	bnez	a0,1616c <consume_markers+0x304>
   16154:	00043503          	ld	a0,0(s0)
   16158:	00053583          	ld	a1,0(a0)
   1615c:	02300613          	li	a2,35
   16160:	02c52423          	sw	a2,40(a0)
   16164:	00040513          	mv	a0,s0
   16168:	000580e7          	jalr	a1
   1616c:	00040513          	mv	a0,s0
   16170:	0c8000ef          	jal	16238 <start_input_pass>
   16174:	00100513          	li	a0,1
   16178:	d29ff06f          	j	15ea0 <consume_markers+0x38>
   1617c:	0b442603          	lw	a2,180(s0)
   16180:	0ac42583          	lw	a1,172(s0)
   16184:	00200513          	li	a0,2
   16188:	d0c5dce3          	bge	a1,a2,15ea0 <consume_markers+0x38>
   1618c:	0ab42a23          	sw	a1,180(s0)
   16190:	d11ff06f          	j	15ea0 <consume_markers+0x38>
   16194:	00800513          	li	a0,8
   16198:	1aa42023          	sw	a0,416(s0)
   1619c:	03446503          	lwu	a0,52(s0)
   161a0:	0035959b          	slliw	a1,a1,0x3
   161a4:	23c0e0ef          	jal	243e0 <jdiv_round_up>
   161a8:	1b042603          	lw	a2,432(s0)
   161ac:	03842683          	lw	a3,56(s0)
   161b0:	1aa42223          	sw	a0,420(s0)
   161b4:	00100513          	li	a0,1
   161b8:	00100593          	li	a1,1
   161bc:	00d64663          	blt	a2,a3,161c8 <consume_markers+0x360>
   161c0:	13842583          	lw	a1,312(s0)
   161c4:	00b035b3          	snez	a1,a1
   161c8:	24043603          	ld	a2,576(s0)
   161cc:	02b62023          	sw	a1,32(a2)
   161d0:	0204a423          	sw	zero,40(s1)
   161d4:	ccdff06f          	j	15ea0 <consume_markers+0x38>

00000000000161d8 <reset_input_controller>:
   161d8:	ff010113          	addi	sp,sp,-16
   161dc:	00113423          	sd	ra,8(sp)
   161e0:	00813023          	sd	s0,0(sp)
   161e4:	00050413          	mv	s0,a0
   161e8:	24053503          	ld	a0,576(a0)
   161ec:	02053023          	sd	zero,32(a0)
   161f0:	00043583          	ld	a1,0(s0)
   161f4:	00016637          	lui	a2,0x16
   161f8:	e6860613          	addi	a2,a2,-408 # 15e68 <consume_markers>
   161fc:	0205b583          	ld	a1,32(a1)
   16200:	00c53023          	sd	a2,0(a0)
   16204:	00100613          	li	a2,1
   16208:	02c52423          	sw	a2,40(a0)
   1620c:	00040513          	mv	a0,s0
   16210:	000580e7          	jalr	a1
   16214:	24843503          	ld	a0,584(s0)
   16218:	00053583          	ld	a1,0(a0)
   1621c:	00040513          	mv	a0,s0
   16220:	000580e7          	jalr	a1
   16224:	0c043023          	sd	zero,192(s0)
   16228:	00813083          	ld	ra,8(sp)
   1622c:	00013403          	ld	s0,0(sp)
   16230:	01010113          	addi	sp,sp,16
   16234:	00008067          	ret

0000000000016238 <start_input_pass>:
   16238:	fb010113          	addi	sp,sp,-80
   1623c:	04113423          	sd	ra,72(sp)
   16240:	04813023          	sd	s0,64(sp)
   16244:	02913c23          	sd	s1,56(sp)
   16248:	03213823          	sd	s2,48(sp)
   1624c:	03313423          	sd	s3,40(sp)
   16250:	03413023          	sd	s4,32(sp)
   16254:	01513c23          	sd	s5,24(sp)
   16258:	01613823          	sd	s6,16(sp)
   1625c:	01713423          	sd	s7,8(sp)
   16260:	00050413          	mv	s0,a0
   16264:	1b052583          	lw	a1,432(a0)
   16268:	00100513          	li	a0,1
   1626c:	1b840913          	addi	s2,s0,440
   16270:	04a59a63          	bne	a1,a0,162c4 <start_input_pass+0x8c>
   16274:	1b843583          	ld	a1,440(s0)
   16278:	01c5a603          	lw	a2,28(a1)
   1627c:	0205a683          	lw	a3,32(a1)
   16280:	1cc42c23          	sw	a2,472(s0)
   16284:	1cd42e23          	sw	a3,476(s0)
   16288:	02a5aa23          	sw	a0,52(a1)
   1628c:	02051713          	slli	a4,a0,0x20
   16290:	0245a783          	lw	a5,36(a1)
   16294:	00c5a603          	lw	a2,12(a1)
   16298:	00170713          	addi	a4,a4,1
   1629c:	02e5bc23          	sd	a4,56(a1)
   162a0:	04f5a023          	sw	a5,64(a1)
   162a4:	02c6f6bb          	remuw	a3,a3,a2
   162a8:	04a5a223          	sw	a0,68(a1)
   162ac:	00068463          	beqz	a3,162b4 <start_input_pass+0x7c>
   162b0:	00068613          	mv	a2,a3
   162b4:	04c5a423          	sw	a2,72(a1)
   162b8:	1ea42023          	sw	a0,480(s0)
   162bc:	1e042223          	sw	zero,484(s0)
   162c0:	1640006f          	j	16424 <start_input_pass+0x1ec>
   162c4:	ffb5851b          	addiw	a0,a1,-5
   162c8:	ffb00613          	li	a2,-5
   162cc:	02a66863          	bltu	a2,a0,162fc <start_input_pass+0xc4>
   162d0:	00043503          	ld	a0,0(s0)
   162d4:	02b52623          	sw	a1,44(a0)
   162d8:	00043583          	ld	a1,0(s0)
   162dc:	01a00613          	li	a2,26
   162e0:	02c52423          	sw	a2,40(a0)
   162e4:	00400513          	li	a0,4
   162e8:	02a5a823          	sw	a0,48(a1)
   162ec:	00043503          	ld	a0,0(s0)
   162f0:	00053583          	ld	a1,0(a0)
   162f4:	00040513          	mv	a0,s0
   162f8:	000580e7          	jalr	a1
   162fc:	19842583          	lw	a1,408(s0)
   16300:	03046503          	lwu	a0,48(s0)
   16304:	0035959b          	slliw	a1,a1,0x3
   16308:	0d80e0ef          	jal	243e0 <jdiv_round_up>
   1630c:	19c42583          	lw	a1,412(s0)
   16310:	03446603          	lwu	a2,52(s0)
   16314:	1ca42c23          	sw	a0,472(s0)
   16318:	0035959b          	slliw	a1,a1,0x3
   1631c:	00060513          	mv	a0,a2
   16320:	0c00e0ef          	jal	243e0 <jdiv_round_up>
   16324:	1b042583          	lw	a1,432(s0)
   16328:	1ca42e23          	sw	a0,476(s0)
   1632c:	1e042023          	sw	zero,480(s0)
   16330:	18b05863          	blez	a1,164c0 <start_input_pass+0x288>
   16334:	00000493          	li	s1,0
   16338:	1e440993          	addi	s3,s0,484
   1633c:	00b00a13          	li	s4,11
   16340:	00d00a93          	li	s5,13
   16344:	00100b13          	li	s6,1
   16348:	0100006f          	j	16358 <start_input_pass+0x120>
   1634c:	1b042503          	lw	a0,432(s0)
   16350:	00148493          	addi	s1,s1,1
   16354:	0ca4d663          	bge	s1,a0,16420 <start_input_pass+0x1e8>
   16358:	00349513          	slli	a0,s1,0x3
   1635c:	00a90533          	add	a0,s2,a0
   16360:	00053503          	ld	a0,0(a0)
   16364:	00852603          	lw	a2,8(a0)
   16368:	00c52583          	lw	a1,12(a0)
   1636c:	02c52a23          	sw	a2,52(a0)
   16370:	02b52c23          	sw	a1,56(a0)
   16374:	02452683          	lw	a3,36(a0)
   16378:	01c52703          	lw	a4,28(a0)
   1637c:	02c58bbb          	mulw	s7,a1,a2
   16380:	03752e23          	sw	s7,60(a0)
   16384:	02c687b3          	mul	a5,a3,a2
   16388:	02c776bb          	remuw	a3,a4,a2
   1638c:	04f52023          	sw	a5,64(a0)
   16390:	02069663          	bnez	a3,163bc <start_input_pass+0x184>
   16394:	02052683          	lw	a3,32(a0)
   16398:	02b6f6bb          	remuw	a3,a3,a1
   1639c:	04c52223          	sw	a2,68(a0)
   163a0:	02069863          	bnez	a3,163d0 <start_input_pass+0x198>
   163a4:	1e042603          	lw	a2,480(s0)
   163a8:	0176063b          	addw	a2,a2,s7
   163ac:	04b52423          	sw	a1,72(a0)
   163b0:	03465863          	bge	a2,s4,163e0 <start_input_pass+0x1a8>
   163b4:	05704263          	bgtz	s7,163f8 <start_input_pass+0x1c0>
   163b8:	f95ff06f          	j	1634c <start_input_pass+0x114>
   163bc:	00068613          	mv	a2,a3
   163c0:	02052683          	lw	a3,32(a0)
   163c4:	02b6f6bb          	remuw	a3,a3,a1
   163c8:	04c52223          	sw	a2,68(a0)
   163cc:	fc068ce3          	beqz	a3,163a4 <start_input_pass+0x16c>
   163d0:	1e042603          	lw	a2,480(s0)
   163d4:	0176063b          	addw	a2,a2,s7
   163d8:	04d52423          	sw	a3,72(a0)
   163dc:	fd464ce3          	blt	a2,s4,163b4 <start_input_pass+0x17c>
   163e0:	00043503          	ld	a0,0(s0)
   163e4:	00053583          	ld	a1,0(a0)
   163e8:	03552423          	sw	s5,40(a0)
   163ec:	00040513          	mv	a0,s0
   163f0:	000580e7          	jalr	a1
   163f4:	f5705ce3          	blez	s7,1634c <start_input_pass+0x114>
   163f8:	001b8b93          	addi	s7,s7,1
   163fc:	1e042503          	lw	a0,480(s0)
   16400:	00150593          	addi	a1,a0,1
   16404:	1eb42023          	sw	a1,480(s0)
   16408:	00251513          	slli	a0,a0,0x2
   1640c:	00a98533          	add	a0,s3,a0
   16410:	fffb8b9b          	addiw	s7,s7,-1
   16414:	00952023          	sw	s1,0(a0)
   16418:	ff7b62e3          	bltu	s6,s7,163fc <start_input_pass+0x1c4>
   1641c:	f31ff06f          	j	1634c <start_input_pass+0x114>
   16420:	0aa05063          	blez	a0,164c0 <start_input_pass+0x288>
   16424:	00000993          	li	s3,0
   16428:	0c840a13          	addi	s4,s0,200
   1642c:	00300a93          	li	s5,3
   16430:	03400b13          	li	s6,52
   16434:	0640006f          	j	16498 <start_input_pass+0x260>
   16438:	00043503          	ld	a0,0(s0)
   1643c:	02952623          	sw	s1,44(a0)
   16440:	00043583          	ld	a1,0(s0)
   16444:	0005b583          	ld	a1,0(a1)
   16448:	03652423          	sw	s6,40(a0)
   1644c:	00040513          	mv	a0,s0
   16450:	000580e7          	jalr	a1
   16454:	00843503          	ld	a0,8(s0)
   16458:	00053683          	ld	a3,0(a0)
   1645c:	00100593          	li	a1,1
   16460:	08400613          	li	a2,132
   16464:	00040513          	mv	a0,s0
   16468:	000680e7          	jalr	a3
   1646c:	00349493          	slli	s1,s1,0x3
   16470:	009a04b3          	add	s1,s4,s1
   16474:	0004b583          	ld	a1,0(s1)
   16478:	00050493          	mv	s1,a0
   1647c:	08400613          	li	a2,132
   16480:	f10fa0ef          	jal	10b90 <memcpy@plt>
   16484:	1b042503          	lw	a0,432(s0)
   16488:	049bb823          	sd	s1,80(s7)
   1648c:	00198993          	addi	s3,s3,1
   16490:	00890913          	addi	s2,s2,8
   16494:	02a9d663          	bge	s3,a0,164c0 <start_input_pass+0x288>
   16498:	00093b83          	ld	s7,0(s2)
   1649c:	050bb583          	ld	a1,80(s7)
   164a0:	fe0596e3          	bnez	a1,1648c <start_input_pass+0x254>
   164a4:	010ba483          	lw	s1,16(s7)
   164a8:	f89ae8e3          	bltu	s5,s1,16438 <start_input_pass+0x200>
   164ac:	00349513          	slli	a0,s1,0x3
   164b0:	00aa0533          	add	a0,s4,a0
   164b4:	00053503          	ld	a0,0(a0)
   164b8:	f8051ee3          	bnez	a0,16454 <start_input_pass+0x21c>
   164bc:	f7dff06f          	j	16438 <start_input_pass+0x200>
   164c0:	25043503          	ld	a0,592(s0)
   164c4:	00053583          	ld	a1,0(a0)
   164c8:	00040513          	mv	a0,s0
   164cc:	000580e7          	jalr	a1
   164d0:	23043503          	ld	a0,560(s0)
   164d4:	00053583          	ld	a1,0(a0)
   164d8:	00040513          	mv	a0,s0
   164dc:	000580e7          	jalr	a1
   164e0:	23043503          	ld	a0,560(s0)
   164e4:	00853503          	ld	a0,8(a0)
   164e8:	24043583          	ld	a1,576(s0)
   164ec:	00a5b023          	sd	a0,0(a1)
   164f0:	04813083          	ld	ra,72(sp)
   164f4:	04013403          	ld	s0,64(sp)
   164f8:	03813483          	ld	s1,56(sp)
   164fc:	03013903          	ld	s2,48(sp)
   16500:	02813983          	ld	s3,40(sp)
   16504:	02013a03          	ld	s4,32(sp)
   16508:	01813a83          	ld	s5,24(sp)
   1650c:	01013b03          	ld	s6,16(sp)
   16510:	00813b83          	ld	s7,8(sp)
   16514:	05010113          	addi	sp,sp,80
   16518:	00008067          	ret

000000000001651c <finish_input_pass>:
   1651c:	24053503          	ld	a0,576(a0)
   16520:	000165b7          	lui	a1,0x16
   16524:	e6858593          	addi	a1,a1,-408 # 15e68 <consume_markers>
   16528:	00b53023          	sd	a1,0(a0)
   1652c:	00008067          	ret

0000000000016530 <jpeg_resync_to_restart>:
   16530:	fa010113          	addi	sp,sp,-96
   16534:	04113c23          	sd	ra,88(sp)
   16538:	04813823          	sd	s0,80(sp)
   1653c:	04913423          	sd	s1,72(sp)
   16540:	05213023          	sd	s2,64(sp)
   16544:	03313c23          	sd	s3,56(sp)
   16548:	03413823          	sd	s4,48(sp)
   1654c:	03513423          	sd	s5,40(sp)
   16550:	03613023          	sd	s6,32(sp)
   16554:	01713c23          	sd	s7,24(sp)
   16558:	01813823          	sd	s8,16(sp)
   1655c:	01913423          	sd	s9,8(sp)
   16560:	00050413          	mv	s0,a0
   16564:	21c52903          	lw	s2,540(a0)
   16568:	00053503          	ld	a0,0(a0)
   1656c:	03252623          	sw	s2,44(a0)
   16570:	00043603          	ld	a2,0(s0)
   16574:	00058493          	mv	s1,a1
   16578:	07900593          	li	a1,121
   1657c:	02b52423          	sw	a1,40(a0)
   16580:	02962823          	sw	s1,48(a2)
   16584:	00043503          	ld	a0,0(s0)
   16588:	00853603          	ld	a2,8(a0)
   1658c:	fff00593          	li	a1,-1
   16590:	00040513          	mv	a0,s0
   16594:	000600e7          	jalr	a2
   16598:	00148513          	addi	a0,s1,1
   1659c:	00757513          	andi	a0,a0,7
   165a0:	0d050993          	addi	s3,a0,208
   165a4:	00248513          	addi	a0,s1,2
   165a8:	00757513          	andi	a0,a0,7
   165ac:	0d050a13          	addi	s4,a0,208
   165b0:	fff48513          	addi	a0,s1,-1
   165b4:	00757513          	andi	a0,a0,7
   165b8:	0d050a93          	addi	s5,a0,208
   165bc:	00648493          	addi	s1,s1,6
   165c0:	0074f493          	andi	s1,s1,7
   165c4:	0d048493          	addi	s1,s1,208
   165c8:	0c000b13          	li	s6,192
   165cc:	06100b93          	li	s7,97
   165d0:	00200c13          	li	s8,2
   165d4:	ff800c93          	li	s9,-8
   165d8:	01694e63          	blt	s2,s6,165f4 <jpeg_resync_to_restart+0xc4>
   165dc:	f289051b          	addiw	a0,s2,-216
   165e0:	05956a63          	bltu	a0,s9,16634 <jpeg_resync_to_restart+0x104>
   165e4:	05390863          	beq	s2,s3,16634 <jpeg_resync_to_restart+0x104>
   165e8:	05490663          	beq	s2,s4,16634 <jpeg_resync_to_restart+0x104>
   165ec:	01590463          	beq	s2,s5,165f4 <jpeg_resync_to_restart+0xc4>
   165f0:	06991e63          	bne	s2,s1,1666c <jpeg_resync_to_restart+0x13c>
   165f4:	00043503          	ld	a0,0(s0)
   165f8:	03252623          	sw	s2,44(a0)
   165fc:	00043583          	ld	a1,0(s0)
   16600:	03752423          	sw	s7,40(a0)
   16604:	0385a823          	sw	s8,48(a1)
   16608:	00043503          	ld	a0,0(s0)
   1660c:	00853603          	ld	a2,8(a0)
   16610:	00400593          	li	a1,4
   16614:	00040513          	mv	a0,s0
   16618:	000600e7          	jalr	a2
   1661c:	00040513          	mv	a0,s0
   16620:	0b8000ef          	jal	166d8 <next_marker>
   16624:	08050063          	beqz	a0,166a4 <jpeg_resync_to_restart+0x174>
   16628:	21c42903          	lw	s2,540(s0)
   1662c:	fb6958e3          	bge	s2,s6,165dc <jpeg_resync_to_restart+0xac>
   16630:	fc5ff06f          	j	165f4 <jpeg_resync_to_restart+0xc4>
   16634:	00043503          	ld	a0,0(s0)
   16638:	03252623          	sw	s2,44(a0)
   1663c:	00043583          	ld	a1,0(s0)
   16640:	06100613          	li	a2,97
   16644:	02c52423          	sw	a2,40(a0)
   16648:	00300513          	li	a0,3
   1664c:	02a5a823          	sw	a0,48(a1)
   16650:	00043503          	ld	a0,0(s0)
   16654:	00853603          	ld	a2,8(a0)
   16658:	00400593          	li	a1,4
   1665c:	00040513          	mv	a0,s0
   16660:	000600e7          	jalr	a2
   16664:	00100513          	li	a0,1
   16668:	03c0006f          	j	166a4 <jpeg_resync_to_restart+0x174>
   1666c:	00043503          	ld	a0,0(s0)
   16670:	03252623          	sw	s2,44(a0)
   16674:	00043583          	ld	a1,0(s0)
   16678:	06100613          	li	a2,97
   1667c:	02c52423          	sw	a2,40(a0)
   16680:	00100513          	li	a0,1
   16684:	02a5a823          	sw	a0,48(a1)
   16688:	00043503          	ld	a0,0(s0)
   1668c:	00853603          	ld	a2,8(a0)
   16690:	00400593          	li	a1,4
   16694:	00040513          	mv	a0,s0
   16698:	000600e7          	jalr	a2
   1669c:	00100513          	li	a0,1
   166a0:	20042e23          	sw	zero,540(s0)
   166a4:	05813083          	ld	ra,88(sp)
   166a8:	05013403          	ld	s0,80(sp)
   166ac:	04813483          	ld	s1,72(sp)
   166b0:	04013903          	ld	s2,64(sp)
   166b4:	03813983          	ld	s3,56(sp)
   166b8:	03013a03          	ld	s4,48(sp)
   166bc:	02813a83          	ld	s5,40(sp)
   166c0:	02013b03          	ld	s6,32(sp)
   166c4:	01813b83          	ld	s7,24(sp)
   166c8:	01013c03          	ld	s8,16(sp)
   166cc:	00813c83          	ld	s9,8(sp)
   166d0:	06010113          	addi	sp,sp,96
   166d4:	00008067          	ret

00000000000166d8 <next_marker>:
   166d8:	fc010113          	addi	sp,sp,-64
   166dc:	02113c23          	sd	ra,56(sp)
   166e0:	02813823          	sd	s0,48(sp)
   166e4:	02913423          	sd	s1,40(sp)
   166e8:	03213023          	sd	s2,32(sp)
   166ec:	01313c23          	sd	s3,24(sp)
   166f0:	01413823          	sd	s4,16(sp)
   166f4:	01513423          	sd	s5,8(sp)
   166f8:	00050413          	mv	s0,a0
   166fc:	02853483          	ld	s1,40(a0)
   16700:	0004ba03          	ld	s4,0(s1)
   16704:	0084b983          	ld	s3,8(s1)
   16708:	0ff00913          	li	s2,255
   1670c:	00098c63          	beqz	s3,16724 <next_marker+0x4c>
   16710:	000a4583          	lbu	a1,0(s4)
   16714:	001a0513          	addi	a0,s4,1
   16718:	fff98993          	addi	s3,s3,-1
   1671c:	05259a63          	bne	a1,s2,16770 <next_marker+0x98>
   16720:	02c0006f          	j	1674c <next_marker+0x74>
   16724:	0184b583          	ld	a1,24(s1)
   16728:	00040513          	mv	a0,s0
   1672c:	000580e7          	jalr	a1
   16730:	10050a63          	beqz	a0,16844 <next_marker+0x16c>
   16734:	0004ba03          	ld	s4,0(s1)
   16738:	0084b983          	ld	s3,8(s1)
   1673c:	000a4583          	lbu	a1,0(s4)
   16740:	001a0513          	addi	a0,s4,1
   16744:	fff98993          	addi	s3,s3,-1
   16748:	03259463          	bne	a1,s2,16770 <next_marker+0x98>
   1674c:	00050a13          	mv	s4,a0
   16750:	0600006f          	j	167b0 <next_marker+0xd8>
   16754:	0004b503          	ld	a0,0(s1)
   16758:	0084b983          	ld	s3,8(s1)
   1675c:	00054583          	lbu	a1,0(a0)
   16760:	00150a13          	addi	s4,a0,1
   16764:	fff98993          	addi	s3,s3,-1
   16768:	000a0513          	mv	a0,s4
   1676c:	05258263          	beq	a1,s2,167b0 <next_marker+0xd8>
   16770:	24843583          	ld	a1,584(s0)
   16774:	0245a603          	lw	a2,36(a1)
   16778:	00160613          	addi	a2,a2,1
   1677c:	02c5a223          	sw	a2,36(a1)
   16780:	00a4b023          	sd	a0,0(s1)
   16784:	0134b423          	sd	s3,8(s1)
   16788:	fc099ae3          	bnez	s3,1675c <next_marker+0x84>
   1678c:	0184b583          	ld	a1,24(s1)
   16790:	00040513          	mv	a0,s0
   16794:	000580e7          	jalr	a1
   16798:	fa051ee3          	bnez	a0,16754 <next_marker+0x7c>
   1679c:	0a80006f          	j	16844 <next_marker+0x16c>
   167a0:	000a4a83          	lbu	s5,0(s4)
   167a4:	fff98993          	addi	s3,s3,-1
   167a8:	001a0a13          	addi	s4,s4,1
   167ac:	032a9263          	bne	s5,s2,167d0 <next_marker+0xf8>
   167b0:	fe0998e3          	bnez	s3,167a0 <next_marker+0xc8>
   167b4:	0184b583          	ld	a1,24(s1)
   167b8:	00040513          	mv	a0,s0
   167bc:	000580e7          	jalr	a1
   167c0:	08050263          	beqz	a0,16844 <next_marker+0x16c>
   167c4:	0004ba03          	ld	s4,0(s1)
   167c8:	0084b983          	ld	s3,8(s1)
   167cc:	fd5ff06f          	j	167a0 <next_marker+0xc8>
   167d0:	020a9263          	bnez	s5,167f4 <next_marker+0x11c>
   167d4:	24843503          	ld	a0,584(s0)
   167d8:	02452583          	lw	a1,36(a0)
   167dc:	00258593          	addi	a1,a1,2
   167e0:	02b52223          	sw	a1,36(a0)
   167e4:	0144b023          	sd	s4,0(s1)
   167e8:	0134b423          	sd	s3,8(s1)
   167ec:	f20992e3          	bnez	s3,16710 <next_marker+0x38>
   167f0:	f35ff06f          	j	16724 <next_marker+0x4c>
   167f4:	24843503          	ld	a0,584(s0)
   167f8:	02452503          	lw	a0,36(a0)
   167fc:	02050c63          	beqz	a0,16834 <next_marker+0x15c>
   16800:	00043583          	ld	a1,0(s0)
   16804:	02a5a623          	sw	a0,44(a1)
   16808:	00043503          	ld	a0,0(s0)
   1680c:	07400613          	li	a2,116
   16810:	02c5a423          	sw	a2,40(a1)
   16814:	03552823          	sw	s5,48(a0)
   16818:	00043503          	ld	a0,0(s0)
   1681c:	00853603          	ld	a2,8(a0)
   16820:	fff00593          	li	a1,-1
   16824:	00040513          	mv	a0,s0
   16828:	000600e7          	jalr	a2
   1682c:	24843503          	ld	a0,584(s0)
   16830:	02052223          	sw	zero,36(a0)
   16834:	21542e23          	sw	s5,540(s0)
   16838:	0144b023          	sd	s4,0(s1)
   1683c:	0134b423          	sd	s3,8(s1)
   16840:	00100513          	li	a0,1
   16844:	03813083          	ld	ra,56(sp)
   16848:	03013403          	ld	s0,48(sp)
   1684c:	02813483          	ld	s1,40(sp)
   16850:	02013903          	ld	s2,32(sp)
   16854:	01813983          	ld	s3,24(sp)
   16858:	01013a03          	ld	s4,16(sp)
   1685c:	00813a83          	ld	s5,8(sp)
   16860:	04010113          	addi	sp,sp,64
   16864:	00008067          	ret

0000000000016868 <jinit_marker_reader>:
   16868:	ff010113          	addi	sp,sp,-16
   1686c:	00113423          	sd	ra,8(sp)
   16870:	00813023          	sd	s0,0(sp)
   16874:	00050413          	mv	s0,a0
   16878:	00853503          	ld	a0,8(a0)
   1687c:	00053683          	ld	a3,0(a0)
   16880:	10800613          	li	a2,264
   16884:	00040513          	mv	a0,s0
   16888:	00000593          	li	a1,0
   1688c:	000680e7          	jalr	a3
   16890:	24a43423          	sd	a0,584(s0)
   16894:	000175b7          	lui	a1,0x17
   16898:	97858593          	addi	a1,a1,-1672 # 16978 <reset_marker_reader>
   1689c:	00b53023          	sd	a1,0(a0)
   168a0:	000175b7          	lui	a1,0x17
   168a4:	99858593          	addi	a1,a1,-1640 # 16998 <read_markers>
   168a8:	00b53423          	sd	a1,8(a0)
   168ac:	000185b7          	lui	a1,0x18
   168b0:	cd458593          	addi	a1,a1,-812 # 17cd4 <read_restart_marker>
   168b4:	00b53823          	sd	a1,16(a0)
   168b8:	000185b7          	lui	a1,0x18
   168bc:	d8458593          	addi	a1,a1,-636 # 17d84 <skip_variable>
   168c0:	02b53423          	sd	a1,40(a0)
   168c4:	0a053823          	sd	zero,176(a0)
   168c8:	02b53c23          	sd	a1,56(a0)
   168cc:	0a052c23          	sw	zero,184(a0)
   168d0:	04b53023          	sd	a1,64(a0)
   168d4:	0a052e23          	sw	zero,188(a0)
   168d8:	04b53423          	sd	a1,72(a0)
   168dc:	0c052023          	sw	zero,192(a0)
   168e0:	04b53823          	sd	a1,80(a0)
   168e4:	0c052223          	sw	zero,196(a0)
   168e8:	04b53c23          	sd	a1,88(a0)
   168ec:	0c052423          	sw	zero,200(a0)
   168f0:	06b53023          	sd	a1,96(a0)
   168f4:	0c052623          	sw	zero,204(a0)
   168f8:	06b53423          	sd	a1,104(a0)
   168fc:	0c052823          	sw	zero,208(a0)
   16900:	06b53823          	sd	a1,112(a0)
   16904:	0c052a23          	sw	zero,212(a0)
   16908:	06b53c23          	sd	a1,120(a0)
   1690c:	0c052c23          	sw	zero,216(a0)
   16910:	08b53023          	sd	a1,128(a0)
   16914:	0c052e23          	sw	zero,220(a0)
   16918:	08b53423          	sd	a1,136(a0)
   1691c:	0e052023          	sw	zero,224(a0)
   16920:	08b53823          	sd	a1,144(a0)
   16924:	0e052223          	sw	zero,228(a0)
   16928:	08b53c23          	sd	a1,152(a0)
   1692c:	0e052423          	sw	zero,232(a0)
   16930:	0e052623          	sw	zero,236(a0)
   16934:	0ab53423          	sd	a1,168(a0)
   16938:	0e052823          	sw	zero,240(a0)
   1693c:	000185b7          	lui	a1,0x18
   16940:	eb058593          	addi	a1,a1,-336 # 17eb0 <get_interesting_appn>
   16944:	02b53823          	sd	a1,48(a0)
   16948:	0ab53023          	sd	a1,160(a0)
   1694c:	24843503          	ld	a0,584(s0)
   16950:	12043823          	sd	zero,304(s0)
   16954:	0a042623          	sw	zero,172(s0)
   16958:	20042e23          	sw	zero,540(s0)
   1695c:	00053c23          	sd	zero,24(a0)
   16960:	02052223          	sw	zero,36(a0)
   16964:	0e053c23          	sd	zero,248(a0)
   16968:	00813083          	ld	ra,8(sp)
   1696c:	00013403          	ld	s0,0(sp)
   16970:	01010113          	addi	sp,sp,16
   16974:	00008067          	ret

0000000000016978 <reset_marker_reader>:
   16978:	24853583          	ld	a1,584(a0)
   1697c:	12053823          	sd	zero,304(a0)
   16980:	0a052623          	sw	zero,172(a0)
   16984:	20052e23          	sw	zero,540(a0)
   16988:	0005bc23          	sd	zero,24(a1)
   1698c:	0205a223          	sw	zero,36(a1)
   16990:	0e05bc23          	sd	zero,248(a1)
   16994:	00008067          	ret

0000000000016998 <read_markers>:
   16998:	df010113          	addi	sp,sp,-528
   1699c:	20113423          	sd	ra,520(sp)
   169a0:	20813023          	sd	s0,512(sp)
   169a4:	1e913c23          	sd	s1,504(sp)
   169a8:	1f213823          	sd	s2,496(sp)
   169ac:	1f313423          	sd	s3,488(sp)
   169b0:	1f413023          	sd	s4,480(sp)
   169b4:	1d513c23          	sd	s5,472(sp)
   169b8:	1d613823          	sd	s6,464(sp)
   169bc:	1d713423          	sd	s7,456(sp)
   169c0:	1d813023          	sd	s8,448(sp)
   169c4:	1b913c23          	sd	s9,440(sp)
   169c8:	1ba13823          	sd	s10,432(sp)
   169cc:	1bb13423          	sd	s11,424(sp)
   169d0:	00050413          	mv	s0,a0
   169d4:	0c850513          	addi	a0,a0,200
   169d8:	04a13823          	sd	a0,80(sp)
   169dc:	10840513          	addi	a0,s0,264
   169e0:	02a13023          	sd	a0,32(sp)
   169e4:	0e840513          	addi	a0,s0,232
   169e8:	00a13c23          	sd	a0,24(sp)
   169ec:	14040513          	addi	a0,s0,320
   169f0:	04a13423          	sd	a0,72(sp)
   169f4:	15040513          	addi	a0,s0,336
   169f8:	04a13023          	sd	a0,64(sp)
   169fc:	16040513          	addi	a0,s0,352
   16a00:	02a13c23          	sd	a0,56(sp)
   16a04:	21c42483          	lw	s1,540(s0)
   16a08:	0ff00b13          	li	s6,255
   16a0c:	03500b93          	li	s7,53
   16a10:	0d800d13          	li	s10,216
   16a14:	0fd00d93          	li	s11,253
   16a18:	00028c37          	lui	s8,0x28
   16a1c:	c3cc0c13          	addi	s8,s8,-964 # 27c3c <cdjpeg_message_table+0x1f14>
   16a20:	00010537          	lui	a0,0x10
   16a24:	00150513          	addi	a0,a0,1 # 10001 <__abi_tag-0x293>
   16a28:	02a13823          	sd	a0,48(sp)
   16a2c:	0280006f          	j	16a54 <read_markers+0xbc>
   16a30:	24843503          	ld	a0,584(s0)
   16a34:	00349493          	slli	s1,s1,0x3
   16a38:	00a48533          	add	a0,s1,a0
   16a3c:	93053583          	ld	a1,-1744(a0)
   16a40:	00040513          	mv	a0,s0
   16a44:	000580e7          	jalr	a1
   16a48:	6e050ae3          	beqz	a0,1793c <read_markers+0xfa4>
   16a4c:	00000493          	li	s1,0
   16a50:	20042e23          	sw	zero,540(s0)
   16a54:	04048263          	beqz	s1,16a98 <read_markers+0x100>
   16a58:	fff48513          	addi	a0,s1,-1
   16a5c:	12adee63          	bltu	s11,a0,16b98 <read_markers+0x200>
   16a60:	00251513          	slli	a0,a0,0x2
   16a64:	01850533          	add	a0,a0,s8
   16a68:	00052503          	lw	a0,0(a0)
   16a6c:	00050067          	jr	a0
   16a70:	00043503          	ld	a0,0(s0)
   16a74:	02952623          	sw	s1,44(a0)
   16a78:	00043583          	ld	a1,0(s0)
   16a7c:	0085b603          	ld	a2,8(a1)
   16a80:	05c00593          	li	a1,92
   16a84:	02b52423          	sw	a1,40(a0)
   16a88:	00100593          	li	a1,1
   16a8c:	00040513          	mv	a0,s0
   16a90:	000600e7          	jalr	a2
   16a94:	fb9ff06f          	j	16a4c <read_markers+0xb4>
   16a98:	24843503          	ld	a0,584(s0)
   16a9c:	01852503          	lw	a0,24(a0)
   16aa0:	04050263          	beqz	a0,16ae4 <read_markers+0x14c>
   16aa4:	00040513          	mv	a0,s0
   16aa8:	c31ff0ef          	jal	166d8 <next_marker>
   16aac:	680508e3          	beqz	a0,1793c <read_markers+0xfa4>
   16ab0:	21c42483          	lw	s1,540(s0)
   16ab4:	fff48513          	addi	a0,s1,-1
   16ab8:	faadf4e3          	bgeu	s11,a0,16a60 <read_markers+0xc8>
   16abc:	0dc0006f          	j	16b98 <read_markers+0x200>
   16ac0:	00043503          	ld	a0,0(s0)
   16ac4:	02952623          	sw	s1,44(a0)
   16ac8:	00043583          	ld	a1,0(s0)
   16acc:	0005b583          	ld	a1,0(a1)
   16ad0:	03c00613          	li	a2,60
   16ad4:	02c52423          	sw	a2,40(a0)
   16ad8:	00040513          	mv	a0,s0
   16adc:	000580e7          	jalr	a1
   16ae0:	f6dff06f          	j	16a4c <read_markers+0xb4>
   16ae4:	02843903          	ld	s2,40(s0)
   16ae8:	00893a03          	ld	s4,8(s2)
   16aec:	020a0263          	beqz	s4,16b10 <read_markers+0x178>
   16af0:	00093a83          	ld	s5,0(s2)
   16af4:	000ac983          	lbu	s3,0(s5)
   16af8:	fffa0a13          	addi	s4,s4,-1
   16afc:	020a0c63          	beqz	s4,16b34 <read_markers+0x19c>
   16b00:	001a8a93          	addi	s5,s5,1
   16b04:	000ac483          	lbu	s1,0(s5)
   16b08:	05698663          	beq	s3,s6,16b54 <read_markers+0x1bc>
   16b0c:	04c0006f          	j	16b58 <read_markers+0x1c0>
   16b10:	01893583          	ld	a1,24(s2)
   16b14:	00040513          	mv	a0,s0
   16b18:	000580e7          	jalr	a1
   16b1c:	620500e3          	beqz	a0,1793c <read_markers+0xfa4>
   16b20:	00893a03          	ld	s4,8(s2)
   16b24:	00093a83          	ld	s5,0(s2)
   16b28:	000ac983          	lbu	s3,0(s5)
   16b2c:	fffa0a13          	addi	s4,s4,-1
   16b30:	fc0a18e3          	bnez	s4,16b00 <read_markers+0x168>
   16b34:	01893583          	ld	a1,24(s2)
   16b38:	00040513          	mv	a0,s0
   16b3c:	000580e7          	jalr	a1
   16b40:	5e050ee3          	beqz	a0,1793c <read_markers+0xfa4>
   16b44:	00093a83          	ld	s5,0(s2)
   16b48:	00893a03          	ld	s4,8(s2)
   16b4c:	000ac483          	lbu	s1,0(s5)
   16b50:	01699463          	bne	s3,s6,16b58 <read_markers+0x1c0>
   16b54:	03a48463          	beq	s1,s10,16b7c <read_markers+0x1e4>
   16b58:	00043503          	ld	a0,0(s0)
   16b5c:	03352623          	sw	s3,44(a0)
   16b60:	00043583          	ld	a1,0(s0)
   16b64:	03752423          	sw	s7,40(a0)
   16b68:	0295a823          	sw	s1,48(a1)
   16b6c:	00043503          	ld	a0,0(s0)
   16b70:	00053583          	ld	a1,0(a0)
   16b74:	00040513          	mv	a0,s0
   16b78:	000580e7          	jalr	a1
   16b7c:	fffa0a13          	addi	s4,s4,-1
   16b80:	001a8a93          	addi	s5,s5,1
   16b84:	20942e23          	sw	s1,540(s0)
   16b88:	01593023          	sd	s5,0(s2)
   16b8c:	01493423          	sd	s4,8(s2)
   16b90:	fff48513          	addi	a0,s1,-1
   16b94:	ecadf6e3          	bgeu	s11,a0,16a60 <read_markers+0xc8>
   16b98:	00043503          	ld	a0,0(s0)
   16b9c:	02952623          	sw	s1,44(a0)
   16ba0:	00043583          	ld	a1,0(s0)
   16ba4:	0005b583          	ld	a1,0(a1)
   16ba8:	04400613          	li	a2,68
   16bac:	f29ff06f          	j	16ad4 <read_markers+0x13c>
   16bb0:	00040513          	mv	a0,s0
   16bb4:	00000593          	li	a1,0
   16bb8:	00000613          	li	a2,0
   16bbc:	2d9010ef          	jal	18694 <get_sof>
   16bc0:	e80516e3          	bnez	a0,16a4c <read_markers+0xb4>
   16bc4:	5790006f          	j	1793c <read_markers+0xfa4>
   16bc8:	02843483          	ld	s1,40(s0)
   16bcc:	0084b503          	ld	a0,8(s1)
   16bd0:	18050863          	beqz	a0,16d60 <read_markers+0x3c8>
   16bd4:	0004b583          	ld	a1,0(s1)
   16bd8:	0005c903          	lbu	s2,0(a1)
   16bdc:	fff50513          	addi	a0,a0,-1
   16be0:	1a050263          	beqz	a0,16d84 <read_markers+0x3ec>
   16be4:	00158593          	addi	a1,a1,1
   16be8:	1b40006f          	j	16d9c <read_markers+0x404>
   16bec:	02843483          	ld	s1,40(s0)
   16bf0:	0084ba83          	ld	s5,8(s1)
   16bf4:	200a8a63          	beqz	s5,16e08 <read_markers+0x470>
   16bf8:	0004b983          	ld	s3,0(s1)
   16bfc:	0009c903          	lbu	s2,0(s3)
   16c00:	fffa8a93          	addi	s5,s5,-1
   16c04:	220a8463          	beqz	s5,16e2c <read_markers+0x494>
   16c08:	00198993          	addi	s3,s3,1
   16c0c:	2380006f          	j	16e44 <read_markers+0x4ac>
   16c10:	02843483          	ld	s1,40(s0)
   16c14:	0084b983          	ld	s3,8(s1)
   16c18:	4a098663          	beqz	s3,170c4 <read_markers+0x72c>
   16c1c:	0004b903          	ld	s2,0(s1)
   16c20:	00094a03          	lbu	s4,0(s2)
   16c24:	fff98993          	addi	s3,s3,-1
   16c28:	4c098063          	beqz	s3,170e8 <read_markers+0x750>
   16c2c:	00190913          	addi	s2,s2,1
   16c30:	4d00006f          	j	17100 <read_markers+0x768>
   16c34:	02843a03          	ld	s4,40(s0)
   16c38:	008a3b83          	ld	s7,8(s4)
   16c3c:	500b8863          	beqz	s7,1714c <read_markers+0x7b4>
   16c40:	000a3b03          	ld	s6,0(s4)
   16c44:	000b4483          	lbu	s1,0(s6)
   16c48:	fffb8b93          	addi	s7,s7,-1
   16c4c:	520b8663          	beqz	s7,17178 <read_markers+0x7e0>
   16c50:	001b0b13          	addi	s6,s6,1
   16c54:	5440006f          	j	17198 <read_markers+0x800>
   16c58:	24843503          	ld	a0,584(s0)
   16c5c:	02853583          	ld	a1,40(a0)
   16c60:	00040513          	mv	a0,s0
   16c64:	000580e7          	jalr	a1
   16c68:	de0512e3          	bnez	a0,16a4c <read_markers+0xb4>
   16c6c:	4d10006f          	j	1793c <read_markers+0xfa4>
   16c70:	00100593          	li	a1,1
   16c74:	00100613          	li	a2,1
   16c78:	00040513          	mv	a0,s0
   16c7c:	219010ef          	jal	18694 <get_sof>
   16c80:	dc0516e3          	bnez	a0,16a4c <read_markers+0xb4>
   16c84:	4b90006f          	j	1793c <read_markers+0xfa4>
   16c88:	00100593          	li	a1,1
   16c8c:	00040513          	mv	a0,s0
   16c90:	00000613          	li	a2,0
   16c94:	201010ef          	jal	18694 <get_sof>
   16c98:	da051ae3          	bnez	a0,16a4c <read_markers+0xb4>
   16c9c:	4a10006f          	j	1793c <read_markers+0xfa4>
   16ca0:	00100613          	li	a2,1
   16ca4:	00040513          	mv	a0,s0
   16ca8:	00000593          	li	a1,0
   16cac:	1e9010ef          	jal	18694 <get_sof>
   16cb0:	d8051ee3          	bnez	a0,16a4c <read_markers+0xb4>
   16cb4:	4890006f          	j	1793c <read_markers+0xfa4>
   16cb8:	00043503          	ld	a0,0(s0)
   16cbc:	00853603          	ld	a2,8(a0)
   16cc0:	06600593          	li	a1,102
   16cc4:	02b52423          	sw	a1,40(a0)
   16cc8:	00100593          	li	a1,1
   16ccc:	00040513          	mv	a0,s0
   16cd0:	000600e7          	jalr	a2
   16cd4:	24843483          	ld	s1,584(s0)
   16cd8:	0184a503          	lw	a0,24(s1)
   16cdc:	02050063          	beqz	a0,16cfc <read_markers+0x364>
   16ce0:	00043503          	ld	a0,0(s0)
   16ce4:	00053583          	ld	a1,0(a0)
   16ce8:	03d00613          	li	a2,61
   16cec:	02c52423          	sw	a2,40(a0)
   16cf0:	00040513          	mv	a0,s0
   16cf4:	000580e7          	jalr	a1
   16cf8:	24843483          	ld	s1,584(s0)
   16cfc:	01000613          	li	a2,16
   16d00:	04813503          	ld	a0,72(sp)
   16d04:	00000593          	li	a1,0
   16d08:	f49f90ef          	jal	10c50 <memset@plt>
   16d0c:	00100593          	li	a1,1
   16d10:	01000613          	li	a2,16
   16d14:	04013503          	ld	a0,64(sp)
   16d18:	f39f90ef          	jal	10c50 <memset@plt>
   16d1c:	00500593          	li	a1,5
   16d20:	01000613          	li	a2,16
   16d24:	03813503          	ld	a0,56(sp)
   16d28:	f29f90ef          	jal	10c50 <memset@plt>
   16d2c:	16043823          	sd	zero,368(s0)
   16d30:	02042e23          	sw	zero,60(s0)
   16d34:	18042423          	sw	zero,392(s0)
   16d38:	10100513          	li	a0,257
   16d3c:	16a41c23          	sh	a0,376(s0)
   16d40:	16040d23          	sb	zero,378(s0)
   16d44:	03013503          	ld	a0,48(sp)
   16d48:	16a42e23          	sw	a0,380(s0)
   16d4c:	18042023          	sw	zero,384(s0)
   16d50:	18040223          	sb	zero,388(s0)
   16d54:	00100513          	li	a0,1
   16d58:	00a4ac23          	sw	a0,24(s1)
   16d5c:	cf1ff06f          	j	16a4c <read_markers+0xb4>
   16d60:	0184b583          	ld	a1,24(s1)
   16d64:	00040513          	mv	a0,s0
   16d68:	000580e7          	jalr	a1
   16d6c:	3c0508e3          	beqz	a0,1793c <read_markers+0xfa4>
   16d70:	0084b503          	ld	a0,8(s1)
   16d74:	0004b583          	ld	a1,0(s1)
   16d78:	0005c903          	lbu	s2,0(a1)
   16d7c:	fff50513          	addi	a0,a0,-1
   16d80:	e60512e3          	bnez	a0,16be4 <read_markers+0x24c>
   16d84:	0184b583          	ld	a1,24(s1)
   16d88:	00040513          	mv	a0,s0
   16d8c:	000580e7          	jalr	a1
   16d90:	3a0506e3          	beqz	a0,1793c <read_markers+0xfa4>
   16d94:	0004b583          	ld	a1,0(s1)
   16d98:	0084b503          	ld	a0,8(s1)
   16d9c:	00043603          	ld	a2,0(s0)
   16da0:	21c42683          	lw	a3,540(s0)
   16da4:	0005c703          	lbu	a4,0(a1)
   16da8:	00891913          	slli	s2,s2,0x8
   16dac:	02d62623          	sw	a3,44(a2)
   16db0:	00043683          	ld	a3,0(s0)
   16db4:	00e96933          	or	s2,s2,a4
   16db8:	ffe90a13          	addi	s4,s2,-2
   16dbc:	05b00713          	li	a4,91
   16dc0:	02e62423          	sw	a4,40(a2)
   16dc4:	0346a823          	sw	s4,48(a3)
   16dc8:	00043603          	ld	a2,0(s0)
   16dcc:	00863603          	ld	a2,8(a2)
   16dd0:	fff50993          	addi	s3,a0,-1
   16dd4:	00158a93          	addi	s5,a1,1
   16dd8:	00100593          	li	a1,1
   16ddc:	00040513          	mv	a0,s0
   16de0:	000600e7          	jalr	a2
   16de4:	0154b023          	sd	s5,0(s1)
   16de8:	0134b423          	sd	s3,8(s1)
   16dec:	00300513          	li	a0,3
   16df0:	c4a96ee3          	bltu	s2,a0,16a4c <read_markers+0xb4>
   16df4:	02843503          	ld	a0,40(s0)
   16df8:	02053603          	ld	a2,32(a0)
   16dfc:	00040513          	mv	a0,s0
   16e00:	000a0593          	mv	a1,s4
   16e04:	c8dff06f          	j	16a90 <read_markers+0xf8>
   16e08:	0184b583          	ld	a1,24(s1)
   16e0c:	00040513          	mv	a0,s0
   16e10:	000580e7          	jalr	a1
   16e14:	320504e3          	beqz	a0,1793c <read_markers+0xfa4>
   16e18:	0084ba83          	ld	s5,8(s1)
   16e1c:	0004b983          	ld	s3,0(s1)
   16e20:	0009c903          	lbu	s2,0(s3)
   16e24:	fffa8a93          	addi	s5,s5,-1
   16e28:	de0a90e3          	bnez	s5,16c08 <read_markers+0x270>
   16e2c:	0184b583          	ld	a1,24(s1)
   16e30:	00040513          	mv	a0,s0
   16e34:	000580e7          	jalr	a1
   16e38:	300502e3          	beqz	a0,1793c <read_markers+0xfa4>
   16e3c:	0004b983          	ld	s3,0(s1)
   16e40:	0084ba83          	ld	s5,8(s1)
   16e44:	0009c503          	lbu	a0,0(s3)
   16e48:	00891913          	slli	s2,s2,0x8
   16e4c:	fffa8a93          	addi	s5,s5,-1
   16e50:	00198993          	addi	s3,s3,1
   16e54:	00a96533          	or	a0,s2,a0
   16e58:	ffe50913          	addi	s2,a0,-2
   16e5c:	00300593          	li	a1,3
   16e60:	02b57e63          	bgeu	a0,a1,16e9c <read_markers+0x504>
   16e64:	00090e63          	beqz	s2,16e80 <read_markers+0x4e8>
   16e68:	00043503          	ld	a0,0(s0)
   16e6c:	00053583          	ld	a1,0(a0)
   16e70:	00b00613          	li	a2,11
   16e74:	02c52423          	sw	a2,40(a0)
   16e78:	00040513          	mv	a0,s0
   16e7c:	000580e7          	jalr	a1
   16e80:	0134b023          	sd	s3,0(s1)
   16e84:	0154b423          	sd	s5,8(s1)
   16e88:	bc5ff06f          	j	16a4c <read_markers+0xb4>
   16e8c:	01250933          	add	s2,a0,s2
   16e90:	0ff00b13          	li	s6,255
   16e94:	03500b93          	li	s7,53
   16e98:	fd2056e3          	blez	s2,16e64 <read_markers+0x4cc>
   16e9c:	000a9e63          	bnez	s5,16eb8 <read_markers+0x520>
   16ea0:	0184b583          	ld	a1,24(s1)
   16ea4:	00040513          	mv	a0,s0
   16ea8:	000580e7          	jalr	a1
   16eac:	280508e3          	beqz	a0,1793c <read_markers+0xfa4>
   16eb0:	0004b983          	ld	s3,0(s1)
   16eb4:	0084ba83          	ld	s5,8(s1)
   16eb8:	0009cb83          	lbu	s7,0(s3)
   16ebc:	00043503          	ld	a0,0(s0)
   16ec0:	00fbfa13          	andi	s4,s7,15
   16ec4:	03452623          	sw	s4,44(a0)
   16ec8:	00043583          	ld	a1,0(s0)
   16ecc:	004bd613          	srli	a2,s7,0x4
   16ed0:	05100693          	li	a3,81
   16ed4:	02d52423          	sw	a3,40(a0)
   16ed8:	02c5a823          	sw	a2,48(a1)
   16edc:	00043503          	ld	a0,0(s0)
   16ee0:	00853603          	ld	a2,8(a0)
   16ee4:	00100593          	li	a1,1
   16ee8:	00040513          	mv	a0,s0
   16eec:	000600e7          	jalr	a2
   16ef0:	00400513          	li	a0,4
   16ef4:	02aa6263          	bltu	s4,a0,16f18 <read_markers+0x580>
   16ef8:	00043503          	ld	a0,0(s0)
   16efc:	03452623          	sw	s4,44(a0)
   16f00:	00043583          	ld	a1,0(s0)
   16f04:	0005b583          	ld	a1,0(a1)
   16f08:	01f00613          	li	a2,31
   16f0c:	02c52423          	sw	a2,40(a0)
   16f10:	00040513          	mv	a0,s0
   16f14:	000580e7          	jalr	a1
   16f18:	003a1a13          	slli	s4,s4,0x3
   16f1c:	05013b03          	ld	s6,80(sp)
   16f20:	014b0b33          	add	s6,s6,s4
   16f24:	000b3a03          	ld	s4,0(s6)
   16f28:	000a1a63          	bnez	s4,16f3c <read_markers+0x5a4>
   16f2c:	00040513          	mv	a0,s0
   16f30:	4580d0ef          	jal	24388 <jpeg_alloc_quant_table>
   16f34:	00050a13          	mv	s4,a0
   16f38:	00ab3023          	sd	a0,0(s6)
   16f3c:	fffa8a93          	addi	s5,s5,-1
   16f40:	00198993          	addi	s3,s3,1
   16f44:	04000b13          	li	s6,64
   16f48:	00028c37          	lui	s8,0x28
   16f4c:	2dcc0c13          	addi	s8,s8,732 # 282dc <jpeg_natural_order>
   16f50:	01000513          	li	a0,16
   16f54:	02abe863          	bltu	s7,a0,16f84 <read_markers+0x5ec>
   16f58:	0800006f          	j	16fd8 <read_markers+0x640>
   16f5c:	000c2503          	lw	a0,0(s8)
   16f60:	0009c583          	lbu	a1,0(s3)
   16f64:	00151513          	slli	a0,a0,0x1
   16f68:	00aa0533          	add	a0,s4,a0
   16f6c:	00b51023          	sh	a1,0(a0)
   16f70:	fffa8a93          	addi	s5,s5,-1
   16f74:	00198993          	addi	s3,s3,1
   16f78:	fffb0b13          	addi	s6,s6,-1
   16f7c:	004c0c13          	addi	s8,s8,4
   16f80:	0a0b0663          	beqz	s6,1702c <read_markers+0x694>
   16f84:	fc0a9ce3          	bnez	s5,16f5c <read_markers+0x5c4>
   16f88:	0184b583          	ld	a1,24(s1)
   16f8c:	00040513          	mv	a0,s0
   16f90:	000580e7          	jalr	a1
   16f94:	1a0504e3          	beqz	a0,1793c <read_markers+0xfa4>
   16f98:	0004b983          	ld	s3,0(s1)
   16f9c:	0084ba83          	ld	s5,8(s1)
   16fa0:	fbdff06f          	j	16f5c <read_markers+0x5c4>
   16fa4:	00198993          	addi	s3,s3,1
   16fa8:	0009c503          	lbu	a0,0(s3)
   16fac:	000c2583          	lw	a1,0(s8)
   16fb0:	008c9c93          	slli	s9,s9,0x8
   16fb4:	00ace533          	or	a0,s9,a0
   16fb8:	00159593          	slli	a1,a1,0x1
   16fbc:	00ba05b3          	add	a1,s4,a1
   16fc0:	00a59023          	sh	a0,0(a1)
   16fc4:	fffa8a93          	addi	s5,s5,-1
   16fc8:	00198993          	addi	s3,s3,1
   16fcc:	fffb0b13          	addi	s6,s6,-1
   16fd0:	004c0c13          	addi	s8,s8,4
   16fd4:	040b0c63          	beqz	s6,1702c <read_markers+0x694>
   16fd8:	000a8a63          	beqz	s5,16fec <read_markers+0x654>
   16fdc:	0009cc83          	lbu	s9,0(s3)
   16fe0:	fffa8a93          	addi	s5,s5,-1
   16fe4:	fc0a90e3          	bnez	s5,16fa4 <read_markers+0x60c>
   16fe8:	0280006f          	j	17010 <read_markers+0x678>
   16fec:	0184b583          	ld	a1,24(s1)
   16ff0:	00040513          	mv	a0,s0
   16ff4:	000580e7          	jalr	a1
   16ff8:	140502e3          	beqz	a0,1793c <read_markers+0xfa4>
   16ffc:	0004b983          	ld	s3,0(s1)
   17000:	0084ba83          	ld	s5,8(s1)
   17004:	0009cc83          	lbu	s9,0(s3)
   17008:	fffa8a93          	addi	s5,s5,-1
   1700c:	f80a9ce3          	bnez	s5,16fa4 <read_markers+0x60c>
   17010:	0184b583          	ld	a1,24(s1)
   17014:	00040513          	mv	a0,s0
   17018:	000580e7          	jalr	a1
   1701c:	120500e3          	beqz	a0,1793c <read_markers+0xfa4>
   17020:	0004b983          	ld	s3,0(s1)
   17024:	0084ba83          	ld	s5,8(s1)
   17028:	f81ff06f          	j	16fa8 <read_markers+0x610>
   1702c:	00043503          	ld	a0,0(s0)
   17030:	07c52503          	lw	a0,124(a0)
   17034:	00200593          	li	a1,2
   17038:	05d00c13          	li	s8,93
   1703c:	06b54663          	blt	a0,a1,170a8 <read_markers+0x710>
   17040:	008a0b13          	addi	s6,s4,8
   17044:	088a0a13          	addi	s4,s4,136
   17048:	00043503          	ld	a0,0(s0)
   1704c:	ff8b5583          	lhu	a1,-8(s6)
   17050:	ffab5603          	lhu	a2,-6(s6)
   17054:	02b52623          	sw	a1,44(a0)
   17058:	ffcb5583          	lhu	a1,-4(s6)
   1705c:	ffeb5683          	lhu	a3,-2(s6)
   17060:	02c52823          	sw	a2,48(a0)
   17064:	000b5603          	lhu	a2,0(s6)
   17068:	02b52a23          	sw	a1,52(a0)
   1706c:	02d52c23          	sw	a3,56(a0)
   17070:	002b5583          	lhu	a1,2(s6)
   17074:	02c52e23          	sw	a2,60(a0)
   17078:	004b5603          	lhu	a2,4(s6)
   1707c:	006b5683          	lhu	a3,6(s6)
   17080:	04b52023          	sw	a1,64(a0)
   17084:	00853703          	ld	a4,8(a0)
   17088:	04c52223          	sw	a2,68(a0)
   1708c:	04d52423          	sw	a3,72(a0)
   17090:	03852423          	sw	s8,40(a0)
   17094:	00200593          	li	a1,2
   17098:	00040513          	mv	a0,s0
   1709c:	000700e7          	jalr	a4
   170a0:	010b0b13          	addi	s6,s6,16
   170a4:	fb4b12e3          	bne	s6,s4,17048 <read_markers+0x6b0>
   170a8:	fbf00513          	li	a0,-65
   170ac:	00028c37          	lui	s8,0x28
   170b0:	c3cc0c13          	addi	s8,s8,-964 # 27c3c <cdjpeg_message_table+0x1f14>
   170b4:	01000593          	li	a1,16
   170b8:	dcbbeae3          	bltu	s7,a1,16e8c <read_markers+0x4f4>
   170bc:	f7f00513          	li	a0,-129
   170c0:	dcdff06f          	j	16e8c <read_markers+0x4f4>
   170c4:	0184b583          	ld	a1,24(s1)
   170c8:	00040513          	mv	a0,s0
   170cc:	000580e7          	jalr	a1
   170d0:	060506e3          	beqz	a0,1793c <read_markers+0xfa4>
   170d4:	0084b983          	ld	s3,8(s1)
   170d8:	0004b903          	ld	s2,0(s1)
   170dc:	00094a03          	lbu	s4,0(s2)
   170e0:	fff98993          	addi	s3,s3,-1
   170e4:	b40994e3          	bnez	s3,16c2c <read_markers+0x294>
   170e8:	0184b583          	ld	a1,24(s1)
   170ec:	00040513          	mv	a0,s0
   170f0:	000580e7          	jalr	a1
   170f4:	040504e3          	beqz	a0,1793c <read_markers+0xfa4>
   170f8:	0004b903          	ld	s2,0(s1)
   170fc:	0084b983          	ld	s3,8(s1)
   17100:	00094503          	lbu	a0,0(s2)
   17104:	008a1a13          	slli	s4,s4,0x8
   17108:	00aa6533          	or	a0,s4,a0
   1710c:	00400593          	li	a1,4
   17110:	00b50e63          	beq	a0,a1,1712c <read_markers+0x794>
   17114:	00043503          	ld	a0,0(s0)
   17118:	00053583          	ld	a1,0(a0)
   1711c:	00b00613          	li	a2,11
   17120:	02c52423          	sw	a2,40(a0)
   17124:	00040513          	mv	a0,s0
   17128:	000580e7          	jalr	a1
   1712c:	fff98513          	addi	a0,s3,-1
   17130:	78050263          	beqz	a0,178b4 <read_markers+0xf1c>
   17134:	00190593          	addi	a1,s2,1
   17138:	0005c903          	lbu	s2,0(a1)
   1713c:	fff50513          	addi	a0,a0,-1
   17140:	78050c63          	beqz	a0,178d8 <read_markers+0xf40>
   17144:	00158593          	addi	a1,a1,1
   17148:	7a80006f          	j	178f0 <read_markers+0xf58>
   1714c:	018a3583          	ld	a1,24(s4)
   17150:	00040513          	mv	a0,s0
   17154:	000580e7          	jalr	a1
   17158:	7e050063          	beqz	a0,17938 <read_markers+0xfa0>
   1715c:	008a3b83          	ld	s7,8(s4)
   17160:	0d800d13          	li	s10,216
   17164:	0fd00d93          	li	s11,253
   17168:	000a3b03          	ld	s6,0(s4)
   1716c:	000b4483          	lbu	s1,0(s6)
   17170:	fffb8b93          	addi	s7,s7,-1
   17174:	ac0b9ee3          	bnez	s7,16c50 <read_markers+0x2b8>
   17178:	018a3583          	ld	a1,24(s4)
   1717c:	00040513          	mv	a0,s0
   17180:	000580e7          	jalr	a1
   17184:	7a050a63          	beqz	a0,17938 <read_markers+0xfa0>
   17188:	000a3b03          	ld	s6,0(s4)
   1718c:	008a3b83          	ld	s7,8(s4)
   17190:	0d800d13          	li	s10,216
   17194:	0fd00d93          	li	s11,253
   17198:	000b4503          	lbu	a0,0(s6)
   1719c:	00849493          	slli	s1,s1,0x8
   171a0:	fffb8b93          	addi	s7,s7,-1
   171a4:	001b0b13          	addi	s6,s6,1
   171a8:	00a4e533          	or	a0,s1,a0
   171ac:	ffe50c93          	addi	s9,a0,-2
   171b0:	01300593          	li	a1,19
   171b4:	0cb57a63          	bgeu	a0,a1,17288 <read_markers+0x8f0>
   171b8:	000c8e63          	beqz	s9,171d4 <read_markers+0x83c>
   171bc:	00043503          	ld	a0,0(s0)
   171c0:	00053583          	ld	a1,0(a0)
   171c4:	00b00613          	li	a2,11
   171c8:	02c52423          	sw	a2,40(a0)
   171cc:	00040513          	mv	a0,s0
   171d0:	000580e7          	jalr	a1
   171d4:	016a3023          	sd	s6,0(s4)
   171d8:	017a3423          	sd	s7,8(s4)
   171dc:	0ff00b13          	li	s6,255
   171e0:	03500b93          	li	s7,53
   171e4:	00028c37          	lui	s8,0x28
   171e8:	c3cc0c13          	addi	s8,s8,-964 # 27c3c <cdjpeg_message_table+0x1f14>
   171ec:	861ff06f          	j	16a4c <read_markers+0xb4>
   171f0:	00050023          	sb	zero,0(a0)
   171f4:	0a013583          	ld	a1,160(sp)
   171f8:	00b500a3          	sb	a1,1(a0)
   171fc:	09813583          	ld	a1,152(sp)
   17200:	00b50123          	sb	a1,2(a0)
   17204:	09013583          	ld	a1,144(sp)
   17208:	00b501a3          	sb	a1,3(a0)
   1720c:	08813583          	ld	a1,136(sp)
   17210:	00b50223          	sb	a1,4(a0)
   17214:	08013583          	ld	a1,128(sp)
   17218:	00b502a3          	sb	a1,5(a0)
   1721c:	07813583          	ld	a1,120(sp)
   17220:	00b50323          	sb	a1,6(a0)
   17224:	07013583          	ld	a1,112(sp)
   17228:	00b503a3          	sb	a1,7(a0)
   1722c:	06813583          	ld	a1,104(sp)
   17230:	00b50423          	sb	a1,8(a0)
   17234:	06013583          	ld	a1,96(sp)
   17238:	00b504a3          	sb	a1,9(a0)
   1723c:	05813583          	ld	a1,88(sp)
   17240:	00b50523          	sb	a1,10(a0)
   17244:	012505a3          	sb	s2,11(a0)
   17248:	00950623          	sb	s1,12(a0)
   1724c:	013506a3          	sb	s3,13(a0)
   17250:	01550723          	sb	s5,14(a0)
   17254:	018507a3          	sb	s8,15(a0)
   17258:	01a50823          	sb	s10,16(a0)
   1725c:	000cb503          	ld	a0,0(s9)
   17260:	00813583          	ld	a1,8(sp)
   17264:	02813603          	ld	a2,40(sp)
   17268:	40b60cb3          	sub	s9,a2,a1
   1726c:	01150513          	addi	a0,a0,17
   17270:	0a810593          	addi	a1,sp,168
   17274:	10000613          	li	a2,256
   17278:	919f90ef          	jal	10b90 <memcpy@plt>
   1727c:	0d800d13          	li	s10,216
   17280:	01000513          	li	a0,16
   17284:	f3955ae3          	bge	a0,s9,171b8 <read_markers+0x820>
   17288:	000b9e63          	bnez	s7,172a4 <read_markers+0x90c>
   1728c:	018a3583          	ld	a1,24(s4)
   17290:	00040513          	mv	a0,s0
   17294:	000580e7          	jalr	a1
   17298:	6a050063          	beqz	a0,17938 <read_markers+0xfa0>
   1729c:	000a3b03          	ld	s6,0(s4)
   172a0:	008a3b83          	ld	s7,8(s4)
   172a4:	000b4583          	lbu	a1,0(s6)
   172a8:	00043503          	ld	a0,0(s0)
   172ac:	00b13823          	sd	a1,16(sp)
   172b0:	02b52623          	sw	a1,44(a0)
   172b4:	00043583          	ld	a1,0(s0)
   172b8:	0085b603          	ld	a2,8(a1)
   172bc:	05000593          	li	a1,80
   172c0:	02b52423          	sw	a1,40(a0)
   172c4:	00100593          	li	a1,1
   172c8:	00040513          	mv	a0,s0
   172cc:	000600e7          	jalr	a2
   172d0:	fffb8b93          	addi	s7,s7,-1
   172d4:	120b8463          	beqz	s7,173fc <read_markers+0xa64>
   172d8:	001b0b13          	addi	s6,s6,1
   172dc:	000b4503          	lbu	a0,0(s6)
   172e0:	0aa13023          	sd	a0,160(sp)
   172e4:	fffb8b93          	addi	s7,s7,-1
   172e8:	120b8e63          	beqz	s7,17424 <read_markers+0xa8c>
   172ec:	001b0b13          	addi	s6,s6,1
   172f0:	000b4503          	lbu	a0,0(s6)
   172f4:	08a13c23          	sd	a0,152(sp)
   172f8:	fffb8b93          	addi	s7,s7,-1
   172fc:	140b8863          	beqz	s7,1744c <read_markers+0xab4>
   17300:	001b0b13          	addi	s6,s6,1
   17304:	000b4503          	lbu	a0,0(s6)
   17308:	08a13823          	sd	a0,144(sp)
   1730c:	fffb8b93          	addi	s7,s7,-1
   17310:	160b8263          	beqz	s7,17474 <read_markers+0xadc>
   17314:	001b0b13          	addi	s6,s6,1
   17318:	000b4503          	lbu	a0,0(s6)
   1731c:	08a13423          	sd	a0,136(sp)
   17320:	fffb8b93          	addi	s7,s7,-1
   17324:	160b8c63          	beqz	s7,1749c <read_markers+0xb04>
   17328:	001b0b13          	addi	s6,s6,1
   1732c:	000b4503          	lbu	a0,0(s6)
   17330:	08a13023          	sd	a0,128(sp)
   17334:	fffb8b93          	addi	s7,s7,-1
   17338:	180b8663          	beqz	s7,174c4 <read_markers+0xb2c>
   1733c:	001b0b13          	addi	s6,s6,1
   17340:	000b4503          	lbu	a0,0(s6)
   17344:	06a13c23          	sd	a0,120(sp)
   17348:	fffb8b93          	addi	s7,s7,-1
   1734c:	1a0b8063          	beqz	s7,174ec <read_markers+0xb54>
   17350:	001b0b13          	addi	s6,s6,1
   17354:	000b4503          	lbu	a0,0(s6)
   17358:	06a13823          	sd	a0,112(sp)
   1735c:	fffb8b93          	addi	s7,s7,-1
   17360:	1a0b8a63          	beqz	s7,17514 <read_markers+0xb7c>
   17364:	001b0b13          	addi	s6,s6,1
   17368:	000b4503          	lbu	a0,0(s6)
   1736c:	06a13423          	sd	a0,104(sp)
   17370:	fffb8b93          	addi	s7,s7,-1
   17374:	1c0b8463          	beqz	s7,1753c <read_markers+0xba4>
   17378:	001b0b13          	addi	s6,s6,1
   1737c:	000b4503          	lbu	a0,0(s6)
   17380:	06a13023          	sd	a0,96(sp)
   17384:	fffb8b93          	addi	s7,s7,-1
   17388:	1c0b8e63          	beqz	s7,17564 <read_markers+0xbcc>
   1738c:	001b0b13          	addi	s6,s6,1
   17390:	000b4503          	lbu	a0,0(s6)
   17394:	04a13c23          	sd	a0,88(sp)
   17398:	fffb8b93          	addi	s7,s7,-1
   1739c:	1e0b8863          	beqz	s7,1758c <read_markers+0xbf4>
   173a0:	001b0b13          	addi	s6,s6,1
   173a4:	000b4903          	lbu	s2,0(s6)
   173a8:	fffb8b93          	addi	s7,s7,-1
   173ac:	200b8263          	beqz	s7,175b0 <read_markers+0xc18>
   173b0:	001b0b13          	addi	s6,s6,1
   173b4:	000b4483          	lbu	s1,0(s6)
   173b8:	fffb8b93          	addi	s7,s7,-1
   173bc:	200b8c63          	beqz	s7,175d4 <read_markers+0xc3c>
   173c0:	001b0b13          	addi	s6,s6,1
   173c4:	000b4983          	lbu	s3,0(s6)
   173c8:	fffb8b93          	addi	s7,s7,-1
   173cc:	220b8663          	beqz	s7,175f8 <read_markers+0xc60>
   173d0:	001b0b13          	addi	s6,s6,1
   173d4:	000b4a83          	lbu	s5,0(s6)
   173d8:	fffb8b93          	addi	s7,s7,-1
   173dc:	240b8063          	beqz	s7,1761c <read_markers+0xc84>
   173e0:	001b0b13          	addi	s6,s6,1
   173e4:	000b4c03          	lbu	s8,0(s6)
   173e8:	fffb8b93          	addi	s7,s7,-1
   173ec:	240b8a63          	beqz	s7,17640 <read_markers+0xca8>
   173f0:	01713023          	sd	s7,0(sp)
   173f4:	001b0f93          	addi	t6,s6,1
   173f8:	2640006f          	j	1765c <read_markers+0xcc4>
   173fc:	018a3583          	ld	a1,24(s4)
   17400:	00040513          	mv	a0,s0
   17404:	000580e7          	jalr	a1
   17408:	52050863          	beqz	a0,17938 <read_markers+0xfa0>
   1740c:	000a3b03          	ld	s6,0(s4)
   17410:	008a3b83          	ld	s7,8(s4)
   17414:	000b4503          	lbu	a0,0(s6)
   17418:	0aa13023          	sd	a0,160(sp)
   1741c:	fffb8b93          	addi	s7,s7,-1
   17420:	ec0b96e3          	bnez	s7,172ec <read_markers+0x954>
   17424:	018a3583          	ld	a1,24(s4)
   17428:	00040513          	mv	a0,s0
   1742c:	000580e7          	jalr	a1
   17430:	50050463          	beqz	a0,17938 <read_markers+0xfa0>
   17434:	000a3b03          	ld	s6,0(s4)
   17438:	008a3b83          	ld	s7,8(s4)
   1743c:	000b4503          	lbu	a0,0(s6)
   17440:	08a13c23          	sd	a0,152(sp)
   17444:	fffb8b93          	addi	s7,s7,-1
   17448:	ea0b9ce3          	bnez	s7,17300 <read_markers+0x968>
   1744c:	018a3583          	ld	a1,24(s4)
   17450:	00040513          	mv	a0,s0
   17454:	000580e7          	jalr	a1
   17458:	4e050063          	beqz	a0,17938 <read_markers+0xfa0>
   1745c:	000a3b03          	ld	s6,0(s4)
   17460:	008a3b83          	ld	s7,8(s4)
   17464:	000b4503          	lbu	a0,0(s6)
   17468:	08a13823          	sd	a0,144(sp)
   1746c:	fffb8b93          	addi	s7,s7,-1
   17470:	ea0b92e3          	bnez	s7,17314 <read_markers+0x97c>
   17474:	018a3583          	ld	a1,24(s4)
   17478:	00040513          	mv	a0,s0
   1747c:	000580e7          	jalr	a1
   17480:	4a050c63          	beqz	a0,17938 <read_markers+0xfa0>
   17484:	000a3b03          	ld	s6,0(s4)
   17488:	008a3b83          	ld	s7,8(s4)
   1748c:	000b4503          	lbu	a0,0(s6)
   17490:	08a13423          	sd	a0,136(sp)
   17494:	fffb8b93          	addi	s7,s7,-1
   17498:	e80b98e3          	bnez	s7,17328 <read_markers+0x990>
   1749c:	018a3583          	ld	a1,24(s4)
   174a0:	00040513          	mv	a0,s0
   174a4:	000580e7          	jalr	a1
   174a8:	48050863          	beqz	a0,17938 <read_markers+0xfa0>
   174ac:	000a3b03          	ld	s6,0(s4)
   174b0:	008a3b83          	ld	s7,8(s4)
   174b4:	000b4503          	lbu	a0,0(s6)
   174b8:	08a13023          	sd	a0,128(sp)
   174bc:	fffb8b93          	addi	s7,s7,-1
   174c0:	e60b9ee3          	bnez	s7,1733c <read_markers+0x9a4>
   174c4:	018a3583          	ld	a1,24(s4)
   174c8:	00040513          	mv	a0,s0
   174cc:	000580e7          	jalr	a1
   174d0:	46050463          	beqz	a0,17938 <read_markers+0xfa0>
   174d4:	000a3b03          	ld	s6,0(s4)
   174d8:	008a3b83          	ld	s7,8(s4)
   174dc:	000b4503          	lbu	a0,0(s6)
   174e0:	06a13c23          	sd	a0,120(sp)
   174e4:	fffb8b93          	addi	s7,s7,-1
   174e8:	e60b94e3          	bnez	s7,17350 <read_markers+0x9b8>
   174ec:	018a3583          	ld	a1,24(s4)
   174f0:	00040513          	mv	a0,s0
   174f4:	000580e7          	jalr	a1
   174f8:	44050063          	beqz	a0,17938 <read_markers+0xfa0>
   174fc:	000a3b03          	ld	s6,0(s4)
   17500:	008a3b83          	ld	s7,8(s4)
   17504:	000b4503          	lbu	a0,0(s6)
   17508:	06a13823          	sd	a0,112(sp)
   1750c:	fffb8b93          	addi	s7,s7,-1
   17510:	e40b9ae3          	bnez	s7,17364 <read_markers+0x9cc>
   17514:	018a3583          	ld	a1,24(s4)
   17518:	00040513          	mv	a0,s0
   1751c:	000580e7          	jalr	a1
   17520:	40050c63          	beqz	a0,17938 <read_markers+0xfa0>
   17524:	000a3b03          	ld	s6,0(s4)
   17528:	008a3b83          	ld	s7,8(s4)
   1752c:	000b4503          	lbu	a0,0(s6)
   17530:	06a13423          	sd	a0,104(sp)
   17534:	fffb8b93          	addi	s7,s7,-1
   17538:	e40b90e3          	bnez	s7,17378 <read_markers+0x9e0>
   1753c:	018a3583          	ld	a1,24(s4)
   17540:	00040513          	mv	a0,s0
   17544:	000580e7          	jalr	a1
   17548:	3e050863          	beqz	a0,17938 <read_markers+0xfa0>
   1754c:	000a3b03          	ld	s6,0(s4)
   17550:	008a3b83          	ld	s7,8(s4)
   17554:	000b4503          	lbu	a0,0(s6)
   17558:	06a13023          	sd	a0,96(sp)
   1755c:	fffb8b93          	addi	s7,s7,-1
   17560:	e20b96e3          	bnez	s7,1738c <read_markers+0x9f4>
   17564:	018a3583          	ld	a1,24(s4)
   17568:	00040513          	mv	a0,s0
   1756c:	000580e7          	jalr	a1
   17570:	3c050463          	beqz	a0,17938 <read_markers+0xfa0>
   17574:	000a3b03          	ld	s6,0(s4)
   17578:	008a3b83          	ld	s7,8(s4)
   1757c:	000b4503          	lbu	a0,0(s6)
   17580:	04a13c23          	sd	a0,88(sp)
   17584:	fffb8b93          	addi	s7,s7,-1
   17588:	e00b9ce3          	bnez	s7,173a0 <read_markers+0xa08>
   1758c:	018a3583          	ld	a1,24(s4)
   17590:	00040513          	mv	a0,s0
   17594:	000580e7          	jalr	a1
   17598:	3a050063          	beqz	a0,17938 <read_markers+0xfa0>
   1759c:	000a3b03          	ld	s6,0(s4)
   175a0:	008a3b83          	ld	s7,8(s4)
   175a4:	000b4903          	lbu	s2,0(s6)
   175a8:	fffb8b93          	addi	s7,s7,-1
   175ac:	e00b92e3          	bnez	s7,173b0 <read_markers+0xa18>
   175b0:	018a3583          	ld	a1,24(s4)
   175b4:	00040513          	mv	a0,s0
   175b8:	000580e7          	jalr	a1
   175bc:	36050e63          	beqz	a0,17938 <read_markers+0xfa0>
   175c0:	000a3b03          	ld	s6,0(s4)
   175c4:	008a3b83          	ld	s7,8(s4)
   175c8:	000b4483          	lbu	s1,0(s6)
   175cc:	fffb8b93          	addi	s7,s7,-1
   175d0:	de0b98e3          	bnez	s7,173c0 <read_markers+0xa28>
   175d4:	018a3583          	ld	a1,24(s4)
   175d8:	00040513          	mv	a0,s0
   175dc:	000580e7          	jalr	a1
   175e0:	34050c63          	beqz	a0,17938 <read_markers+0xfa0>
   175e4:	000a3b03          	ld	s6,0(s4)
   175e8:	008a3b83          	ld	s7,8(s4)
   175ec:	000b4983          	lbu	s3,0(s6)
   175f0:	fffb8b93          	addi	s7,s7,-1
   175f4:	dc0b9ee3          	bnez	s7,173d0 <read_markers+0xa38>
   175f8:	018a3583          	ld	a1,24(s4)
   175fc:	00040513          	mv	a0,s0
   17600:	000580e7          	jalr	a1
   17604:	32050a63          	beqz	a0,17938 <read_markers+0xfa0>
   17608:	000a3b03          	ld	s6,0(s4)
   1760c:	008a3b83          	ld	s7,8(s4)
   17610:	000b4a83          	lbu	s5,0(s6)
   17614:	fffb8b93          	addi	s7,s7,-1
   17618:	dc0b94e3          	bnez	s7,173e0 <read_markers+0xa48>
   1761c:	018a3583          	ld	a1,24(s4)
   17620:	00040513          	mv	a0,s0
   17624:	000580e7          	jalr	a1
   17628:	30050863          	beqz	a0,17938 <read_markers+0xfa0>
   1762c:	000a3b03          	ld	s6,0(s4)
   17630:	008a3b83          	ld	s7,8(s4)
   17634:	000b4c03          	lbu	s8,0(s6)
   17638:	fffb8b93          	addi	s7,s7,-1
   1763c:	da0b9ae3          	bnez	s7,173f0 <read_markers+0xa58>
   17640:	018a3583          	ld	a1,24(s4)
   17644:	00040513          	mv	a0,s0
   17648:	000580e7          	jalr	a1
   1764c:	2e050663          	beqz	a0,17938 <read_markers+0xfa0>
   17650:	000a3f83          	ld	t6,0(s4)
   17654:	008a3503          	ld	a0,8(s4)
   17658:	00a13023          	sd	a0,0(sp)
   1765c:	0a013603          	ld	a2,160(sp)
   17660:	09813683          	ld	a3,152(sp)
   17664:	00c68533          	add	a0,a3,a2
   17668:	09013703          	ld	a4,144(sp)
   1766c:	00e50533          	add	a0,a0,a4
   17670:	08813783          	ld	a5,136(sp)
   17674:	00f50533          	add	a0,a0,a5
   17678:	08013803          	ld	a6,128(sp)
   1767c:	01050533          	add	a0,a0,a6
   17680:	07813883          	ld	a7,120(sp)
   17684:	01150533          	add	a0,a0,a7
   17688:	07013283          	ld	t0,112(sp)
   1768c:	00550533          	add	a0,a0,t0
   17690:	06813303          	ld	t1,104(sp)
   17694:	00650533          	add	a0,a0,t1
   17698:	06013d83          	ld	s11,96(sp)
   1769c:	01b50533          	add	a0,a0,s11
   176a0:	05813b03          	ld	s6,88(sp)
   176a4:	01650533          	add	a0,a0,s6
   176a8:	01250533          	add	a0,a0,s2
   176ac:	00950533          	add	a0,a0,s1
   176b0:	01350533          	add	a0,a0,s3
   176b4:	01f13423          	sd	t6,8(sp)
   176b8:	000fcd03          	lbu	s10,0(t6)
   176bc:	01550533          	add	a0,a0,s5
   176c0:	00043583          	ld	a1,0(s0)
   176c4:	01850533          	add	a0,a0,s8
   176c8:	01a50bb3          	add	s7,a0,s10
   176cc:	fefc8c93          	addi	s9,s9,-17
   176d0:	03913423          	sd	s9,40(sp)
   176d4:	02c5a623          	sw	a2,44(a1)
   176d8:	02d5a823          	sw	a3,48(a1)
   176dc:	02e5aa23          	sw	a4,52(a1)
   176e0:	02f5ac23          	sw	a5,56(a1)
   176e4:	0305ae23          	sw	a6,60(a1)
   176e8:	0515a023          	sw	a7,64(a1)
   176ec:	0085b603          	ld	a2,8(a1)
   176f0:	0455a223          	sw	t0,68(a1)
   176f4:	0465a423          	sw	t1,72(a1)
   176f8:	05600c93          	li	s9,86
   176fc:	0395a423          	sw	s9,40(a1)
   17700:	00200593          	li	a1,2
   17704:	00040513          	mv	a0,s0
   17708:	000600e7          	jalr	a2
   1770c:	00043503          	ld	a0,0(s0)
   17710:	03b52623          	sw	s11,44(a0)
   17714:	03652823          	sw	s6,48(a0)
   17718:	000b8b13          	mv	s6,s7
   1771c:	03252a23          	sw	s2,52(a0)
   17720:	02952c23          	sw	s1,56(a0)
   17724:	03352e23          	sw	s3,60(a0)
   17728:	05552023          	sw	s5,64(a0)
   1772c:	00853603          	ld	a2,8(a0)
   17730:	05852223          	sw	s8,68(a0)
   17734:	05a52423          	sw	s10,72(a0)
   17738:	03952423          	sw	s9,40(a0)
   1773c:	00200593          	li	a1,2
   17740:	00040513          	mv	a0,s0
   17744:	000600e7          	jalr	a2
   17748:	10000513          	li	a0,256
   1774c:	01756663          	bltu	a0,s7,17758 <read_markers+0xdc0>
   17750:	02813503          	ld	a0,40(sp)
   17754:	01657e63          	bgeu	a0,s6,17770 <read_markers+0xdd8>
   17758:	00043503          	ld	a0,0(s0)
   1775c:	00053583          	ld	a1,0(a0)
   17760:	00800613          	li	a2,8
   17764:	02c52423          	sw	a2,40(a0)
   17768:	00040513          	mv	a0,s0
   1776c:	000580e7          	jalr	a1
   17770:	00813503          	ld	a0,8(sp)
   17774:	00150513          	addi	a0,a0,1
   17778:	00013b83          	ld	s7,0(sp)
   1777c:	fffb8b93          	addi	s7,s7,-1
   17780:	01613423          	sd	s6,8(sp)
   17784:	0a0b0863          	beqz	s6,17834 <read_markers+0xe9c>
   17788:	0a013583          	ld	a1,160(sp)
   1778c:	09813603          	ld	a2,152(sp)
   17790:	00b605b3          	add	a1,a2,a1
   17794:	09013603          	ld	a2,144(sp)
   17798:	00c585b3          	add	a1,a1,a2
   1779c:	08813603          	ld	a2,136(sp)
   177a0:	00c585b3          	add	a1,a1,a2
   177a4:	08013603          	ld	a2,128(sp)
   177a8:	00c585b3          	add	a1,a1,a2
   177ac:	07813603          	ld	a2,120(sp)
   177b0:	00c585b3          	add	a1,a1,a2
   177b4:	07013603          	ld	a2,112(sp)
   177b8:	00c585b3          	add	a1,a1,a2
   177bc:	06813603          	ld	a2,104(sp)
   177c0:	00c585b3          	add	a1,a1,a2
   177c4:	06013603          	ld	a2,96(sp)
   177c8:	00c585b3          	add	a1,a1,a2
   177cc:	05813603          	ld	a2,88(sp)
   177d0:	00c585b3          	add	a1,a1,a2
   177d4:	012585b3          	add	a1,a1,s2
   177d8:	009585b3          	add	a1,a1,s1
   177dc:	013585b3          	add	a1,a1,s3
   177e0:	015585b3          	add	a1,a1,s5
   177e4:	018585b3          	add	a1,a1,s8
   177e8:	01a58cbb          	addw	s9,a1,s10
   177ec:	0a810d93          	addi	s11,sp,168
   177f0:	0240006f          	j	17814 <read_markers+0xe7c>
   177f4:	00054583          	lbu	a1,0(a0)
   177f8:	fffb8b93          	addi	s7,s7,-1
   177fc:	00150b13          	addi	s6,a0,1
   17800:	00bd8023          	sb	a1,0(s11)
   17804:	fffc8c93          	addi	s9,s9,-1
   17808:	001d8d93          	addi	s11,s11,1
   1780c:	000b0513          	mv	a0,s6
   17810:	020c8463          	beqz	s9,17838 <read_markers+0xea0>
   17814:	fe0b90e3          	bnez	s7,177f4 <read_markers+0xe5c>
   17818:	018a3583          	ld	a1,24(s4)
   1781c:	00040513          	mv	a0,s0
   17820:	000580e7          	jalr	a1
   17824:	10050a63          	beqz	a0,17938 <read_markers+0xfa0>
   17828:	000a3503          	ld	a0,0(s4)
   1782c:	008a3b83          	ld	s7,8(s4)
   17830:	fc5ff06f          	j	177f4 <read_markers+0xe5c>
   17834:	00050b13          	mv	s6,a0
   17838:	01013583          	ld	a1,16(sp)
   1783c:	0105f513          	andi	a0,a1,16
   17840:	02050263          	beqz	a0,17864 <read_markers+0xecc>
   17844:	ff058593          	addi	a1,a1,-16
   17848:	00359c93          	slli	s9,a1,0x3
   1784c:	02013503          	ld	a0,32(sp)
   17850:	01950cb3          	add	s9,a0,s9
   17854:	0fd00d93          	li	s11,253
   17858:	00400513          	li	a0,4
   1785c:	02a5d063          	bge	a1,a0,1787c <read_markers+0xee4>
   17860:	03c0006f          	j	1789c <read_markers+0xf04>
   17864:	00359c93          	slli	s9,a1,0x3
   17868:	01813503          	ld	a0,24(sp)
   1786c:	01950cb3          	add	s9,a0,s9
   17870:	0fd00d93          	li	s11,253
   17874:	00400513          	li	a0,4
   17878:	02a5c263          	blt	a1,a0,1789c <read_markers+0xf04>
   1787c:	00043503          	ld	a0,0(s0)
   17880:	02b52623          	sw	a1,44(a0)
   17884:	00043583          	ld	a1,0(s0)
   17888:	0005b583          	ld	a1,0(a1)
   1788c:	01e00613          	li	a2,30
   17890:	02c52423          	sw	a2,40(a0)
   17894:	00040513          	mv	a0,s0
   17898:	000580e7          	jalr	a1
   1789c:	000cb503          	ld	a0,0(s9)
   178a0:	940518e3          	bnez	a0,171f0 <read_markers+0x858>
   178a4:	00040513          	mv	a0,s0
   178a8:	30d0c0ef          	jal	243b4 <jpeg_alloc_huff_table>
   178ac:	00acb023          	sd	a0,0(s9)
   178b0:	941ff06f          	j	171f0 <read_markers+0x858>
   178b4:	0184b583          	ld	a1,24(s1)
   178b8:	00040513          	mv	a0,s0
   178bc:	000580e7          	jalr	a1
   178c0:	06050e63          	beqz	a0,1793c <read_markers+0xfa4>
   178c4:	0004b583          	ld	a1,0(s1)
   178c8:	0084b503          	ld	a0,8(s1)
   178cc:	0005c903          	lbu	s2,0(a1)
   178d0:	fff50513          	addi	a0,a0,-1
   178d4:	860518e3          	bnez	a0,17144 <read_markers+0x7ac>
   178d8:	0184b583          	ld	a1,24(s1)
   178dc:	00040513          	mv	a0,s0
   178e0:	000580e7          	jalr	a1
   178e4:	04050c63          	beqz	a0,1793c <read_markers+0xfa4>
   178e8:	0004b583          	ld	a1,0(s1)
   178ec:	0084b503          	ld	a0,8(s1)
   178f0:	0005c603          	lbu	a2,0(a1)
   178f4:	00043683          	ld	a3,0(s0)
   178f8:	00891913          	slli	s2,s2,0x8
   178fc:	00c96933          	or	s2,s2,a2
   17900:	0326a623          	sw	s2,44(a3)
   17904:	00043603          	ld	a2,0(s0)
   17908:	00863603          	ld	a2,8(a2)
   1790c:	fff50993          	addi	s3,a0,-1
   17910:	00158a13          	addi	s4,a1,1
   17914:	05200513          	li	a0,82
   17918:	02a6a423          	sw	a0,40(a3)
   1791c:	00100593          	li	a1,1
   17920:	00040513          	mv	a0,s0
   17924:	000600e7          	jalr	a2
   17928:	17242823          	sw	s2,368(s0)
   1792c:	0144b023          	sd	s4,0(s1)
   17930:	0134b423          	sd	s3,8(s1)
   17934:	918ff06f          	j	16a4c <read_markers+0xb4>
   17938:	00000513          	li	a0,0
   1793c:	20813083          	ld	ra,520(sp)
   17940:	20013403          	ld	s0,512(sp)
   17944:	1f813483          	ld	s1,504(sp)
   17948:	1f013903          	ld	s2,496(sp)
   1794c:	1e813983          	ld	s3,488(sp)
   17950:	1e013a03          	ld	s4,480(sp)
   17954:	1d813a83          	ld	s5,472(sp)
   17958:	1d013b03          	ld	s6,464(sp)
   1795c:	1c813b83          	ld	s7,456(sp)
   17960:	1c013c03          	ld	s8,448(sp)
   17964:	1b813c83          	ld	s9,440(sp)
   17968:	1b013d03          	ld	s10,432(sp)
   1796c:	1a813d83          	ld	s11,424(sp)
   17970:	21010113          	addi	sp,sp,528
   17974:	00008067          	ret
   17978:	02843483          	ld	s1,40(s0)
   1797c:	24843503          	ld	a0,584(s0)
   17980:	0004b903          	ld	s2,0(s1)
   17984:	01c52503          	lw	a0,28(a0)
   17988:	0084ba03          	ld	s4,8(s1)
   1798c:	00051e63          	bnez	a0,179a8 <read_markers+0x1010>
   17990:	00043503          	ld	a0,0(s0)
   17994:	00053583          	ld	a1,0(a0)
   17998:	03e00613          	li	a2,62
   1799c:	02c52423          	sw	a2,40(a0)
   179a0:	00040513          	mv	a0,s0
   179a4:	000580e7          	jalr	a1
   179a8:	000a1e63          	bnez	s4,179c4 <read_markers+0x102c>
   179ac:	0184b583          	ld	a1,24(s1)
   179b0:	00040513          	mv	a0,s0
   179b4:	000580e7          	jalr	a1
   179b8:	f80502e3          	beqz	a0,1793c <read_markers+0xfa4>
   179bc:	0004b903          	ld	s2,0(s1)
   179c0:	0084ba03          	ld	s4,8(s1)
   179c4:	00094983          	lbu	s3,0(s2)
   179c8:	fffa0b93          	addi	s7,s4,-1
   179cc:	020b8a63          	beqz	s7,17a00 <read_markers+0x1068>
   179d0:	00190913          	addi	s2,s2,1
   179d4:	0440006f          	j	17a18 <read_markers+0x1080>
   179d8:	00043503          	ld	a0,0(s0)
   179dc:	00853603          	ld	a2,8(a0)
   179e0:	05500593          	li	a1,85
   179e4:	02b52423          	sw	a1,40(a0)
   179e8:	00100593          	li	a1,1
   179ec:	00040513          	mv	a0,s0
   179f0:	000600e7          	jalr	a2
   179f4:	20042e23          	sw	zero,540(s0)
   179f8:	00200513          	li	a0,2
   179fc:	f41ff06f          	j	1793c <read_markers+0xfa4>
   17a00:	0184b583          	ld	a1,24(s1)
   17a04:	00040513          	mv	a0,s0
   17a08:	000580e7          	jalr	a1
   17a0c:	f20508e3          	beqz	a0,1793c <read_markers+0xfa4>
   17a10:	0004b903          	ld	s2,0(s1)
   17a14:	0084bb83          	ld	s7,8(s1)
   17a18:	00094a03          	lbu	s4,0(s2)
   17a1c:	fffb8b93          	addi	s7,s7,-1
   17a20:	000b8663          	beqz	s7,17a2c <read_markers+0x1094>
   17a24:	00190c13          	addi	s8,s2,1
   17a28:	01c0006f          	j	17a44 <read_markers+0x10ac>
   17a2c:	0184b583          	ld	a1,24(s1)
   17a30:	00040513          	mv	a0,s0
   17a34:	000580e7          	jalr	a1
   17a38:	f00502e3          	beqz	a0,1793c <read_markers+0xfa4>
   17a3c:	0004bc03          	ld	s8,0(s1)
   17a40:	0084bb83          	ld	s7,8(s1)
   17a44:	000c4903          	lbu	s2,0(s8)
   17a48:	00043503          	ld	a0,0(s0)
   17a4c:	03252623          	sw	s2,44(a0)
   17a50:	00043583          	ld	a1,0(s0)
   17a54:	00899993          	slli	s3,s3,0x8
   17a58:	0085b603          	ld	a2,8(a1)
   17a5c:	0149e9b3          	or	s3,s3,s4
   17a60:	06700593          	li	a1,103
   17a64:	02b52423          	sw	a1,40(a0)
   17a68:	00100593          	li	a1,1
   17a6c:	00040513          	mv	a0,s0
   17a70:	000600e7          	jalr	a2
   17a74:	00191513          	slli	a0,s2,0x1
   17a78:	00650513          	addi	a0,a0,6
   17a7c:	02a99063          	bne	s3,a0,17a9c <read_markers+0x1104>
   17a80:	ffb90513          	addi	a0,s2,-5
   17a84:	ffc00593          	li	a1,-4
   17a88:	00b56a63          	bltu	a0,a1,17a9c <read_markers+0x1104>
   17a8c:	1b242823          	sw	s2,432(s0)
   17a90:	001c0c13          	addi	s8,s8,1
   17a94:	fffb8b93          	addi	s7,s7,-1
   17a98:	02c0006f          	j	17ac4 <read_markers+0x112c>
   17a9c:	00043503          	ld	a0,0(s0)
   17aa0:	00053583          	ld	a1,0(a0)
   17aa4:	00b00613          	li	a2,11
   17aa8:	02c52423          	sw	a2,40(a0)
   17aac:	00040513          	mv	a0,s0
   17ab0:	000580e7          	jalr	a1
   17ab4:	1b242823          	sw	s2,432(s0)
   17ab8:	001c0c13          	addi	s8,s8,1
   17abc:	fffb8b93          	addi	s7,s7,-1
   17ac0:	10090c63          	beqz	s2,17bd8 <read_markers+0x1240>
   17ac4:	00000993          	li	s3,0
   17ac8:	1b840a13          	addi	s4,s0,440
   17acc:	06800a93          	li	s5,104
   17ad0:	00500b13          	li	s6,5
   17ad4:	0780006f          	j	17b4c <read_markers+0x11b4>
   17ad8:	00043503          	ld	a0,0(s0)
   17adc:	03952623          	sw	s9,44(a0)
   17ae0:	00043583          	ld	a1,0(s0)
   17ae4:	0005b583          	ld	a1,0(a1)
   17ae8:	03652423          	sw	s6,40(a0)
   17aec:	00040513          	mv	a0,s0
   17af0:	000580e7          	jalr	a1
   17af4:	004dd513          	srli	a0,s11,0x4
   17af8:	00043583          	ld	a1,0(s0)
   17afc:	00ad2a23          	sw	a0,20(s10)
   17b00:	00fdf513          	andi	a0,s11,15
   17b04:	00ad2c23          	sw	a0,24(s10)
   17b08:	0395a623          	sw	s9,44(a1)
   17b0c:	014d2503          	lw	a0,20(s10)
   17b10:	00399613          	slli	a2,s3,0x3
   17b14:	00ca0633          	add	a2,s4,a2
   17b18:	02a5a823          	sw	a0,48(a1)
   17b1c:	018d2503          	lw	a0,24(s10)
   17b20:	01a63023          	sd	s10,0(a2)
   17b24:	0085b603          	ld	a2,8(a1)
   17b28:	02a5aa23          	sw	a0,52(a1)
   17b2c:	0355a423          	sw	s5,40(a1)
   17b30:	00100593          	li	a1,1
   17b34:	00040513          	mv	a0,s0
   17b38:	000600e7          	jalr	a2
   17b3c:	00198993          	addi	s3,s3,1
   17b40:	001c0c13          	addi	s8,s8,1
   17b44:	fffb8b93          	addi	s7,s7,-1
   17b48:	09298863          	beq	s3,s2,17bd8 <read_markers+0x1240>
   17b4c:	020b8463          	beqz	s7,17b74 <read_markers+0x11dc>
   17b50:	000c4c83          	lbu	s9,0(s8)
   17b54:	fffb8b93          	addi	s7,s7,-1
   17b58:	040b8063          	beqz	s7,17b98 <read_markers+0x1200>
   17b5c:	001c0c13          	addi	s8,s8,1
   17b60:	000c4d83          	lbu	s11,0(s8)
   17b64:	03842503          	lw	a0,56(s0)
   17b68:	13043d03          	ld	s10,304(s0)
   17b6c:	04a04a63          	bgtz	a0,17bc0 <read_markers+0x1228>
   17b70:	f69ff06f          	j	17ad8 <read_markers+0x1140>
   17b74:	0184b583          	ld	a1,24(s1)
   17b78:	00040513          	mv	a0,s0
   17b7c:	000580e7          	jalr	a1
   17b80:	da050ee3          	beqz	a0,1793c <read_markers+0xfa4>
   17b84:	0004bc03          	ld	s8,0(s1)
   17b88:	0084bb83          	ld	s7,8(s1)
   17b8c:	000c4c83          	lbu	s9,0(s8)
   17b90:	fffb8b93          	addi	s7,s7,-1
   17b94:	fc0b94e3          	bnez	s7,17b5c <read_markers+0x11c4>
   17b98:	0184b583          	ld	a1,24(s1)
   17b9c:	00040513          	mv	a0,s0
   17ba0:	000580e7          	jalr	a1
   17ba4:	d8050ce3          	beqz	a0,1793c <read_markers+0xfa4>
   17ba8:	0004bc03          	ld	s8,0(s1)
   17bac:	0084bb83          	ld	s7,8(s1)
   17bb0:	000c4d83          	lbu	s11,0(s8)
   17bb4:	03842503          	lw	a0,56(s0)
   17bb8:	13043d03          	ld	s10,304(s0)
   17bbc:	f0a05ee3          	blez	a0,17ad8 <read_markers+0x1140>
   17bc0:	000d2583          	lw	a1,0(s10)
   17bc4:	f39588e3          	beq	a1,s9,17af4 <read_markers+0x115c>
   17bc8:	fff5051b          	addiw	a0,a0,-1
   17bcc:	060d0d13          	addi	s10,s10,96
   17bd0:	fe0518e3          	bnez	a0,17bc0 <read_markers+0x1228>
   17bd4:	f05ff06f          	j	17ad8 <read_markers+0x1140>
   17bd8:	000b9e63          	bnez	s7,17bf4 <read_markers+0x125c>
   17bdc:	0184b583          	ld	a1,24(s1)
   17be0:	00040513          	mv	a0,s0
   17be4:	000580e7          	jalr	a1
   17be8:	d4050ae3          	beqz	a0,1793c <read_markers+0xfa4>
   17bec:	0004bc03          	ld	s8,0(s1)
   17bf0:	0084bb83          	ld	s7,8(s1)
   17bf4:	000c4583          	lbu	a1,0(s8)
   17bf8:	fffb8513          	addi	a0,s7,-1
   17bfc:	20b42623          	sw	a1,524(s0)
   17c00:	00050663          	beqz	a0,17c0c <read_markers+0x1274>
   17c04:	001c0593          	addi	a1,s8,1
   17c08:	01c0006f          	j	17c24 <read_markers+0x128c>
   17c0c:	0184b583          	ld	a1,24(s1)
   17c10:	00040513          	mv	a0,s0
   17c14:	000580e7          	jalr	a1
   17c18:	d20502e3          	beqz	a0,1793c <read_markers+0xfa4>
   17c1c:	0004b583          	ld	a1,0(s1)
   17c20:	0084b503          	ld	a0,8(s1)
   17c24:	0005c603          	lbu	a2,0(a1)
   17c28:	fff50513          	addi	a0,a0,-1
   17c2c:	20c42823          	sw	a2,528(s0)
   17c30:	00050663          	beqz	a0,17c3c <read_markers+0x12a4>
   17c34:	00158593          	addi	a1,a1,1
   17c38:	01c0006f          	j	17c54 <read_markers+0x12bc>
   17c3c:	0184b583          	ld	a1,24(s1)
   17c40:	00040513          	mv	a0,s0
   17c44:	000580e7          	jalr	a1
   17c48:	ce050ae3          	beqz	a0,1793c <read_markers+0xfa4>
   17c4c:	0004b583          	ld	a1,0(s1)
   17c50:	0084b503          	ld	a0,8(s1)
   17c54:	0005c603          	lbu	a2,0(a1)
   17c58:	00465693          	srli	a3,a2,0x4
   17c5c:	00043703          	ld	a4,0(s0)
   17c60:	20c42783          	lw	a5,524(s0)
   17c64:	20d42a23          	sw	a3,532(s0)
   17c68:	00f67613          	andi	a2,a2,15
   17c6c:	20c42c23          	sw	a2,536(s0)
   17c70:	02f72623          	sw	a5,44(a4)
   17c74:	21042603          	lw	a2,528(s0)
   17c78:	02c72823          	sw	a2,48(a4)
   17c7c:	21442603          	lw	a2,532(s0)
   17c80:	02c72a23          	sw	a2,52(a4)
   17c84:	21842603          	lw	a2,536(s0)
   17c88:	fff50913          	addi	s2,a0,-1
   17c8c:	00158993          	addi	s3,a1,1
   17c90:	00873683          	ld	a3,8(a4)
   17c94:	02c72c23          	sw	a2,56(a4)
   17c98:	06900513          	li	a0,105
   17c9c:	02a72423          	sw	a0,40(a4)
   17ca0:	00100593          	li	a1,1
   17ca4:	00040513          	mv	a0,s0
   17ca8:	000680e7          	jalr	a3
   17cac:	00100513          	li	a0,1
   17cb0:	24843583          	ld	a1,584(s0)
   17cb4:	0ac42603          	lw	a2,172(s0)
   17cb8:	0205a023          	sw	zero,32(a1)
   17cbc:	00160613          	addi	a2,a2,1
   17cc0:	0ac42623          	sw	a2,172(s0)
   17cc4:	0134b023          	sd	s3,0(s1)
   17cc8:	0124b423          	sd	s2,8(s1)
   17ccc:	20042e23          	sw	zero,540(s0)
   17cd0:	c6dff06f          	j	1793c <read_markers+0xfa4>

0000000000017cd4 <read_restart_marker>:
   17cd4:	ff010113          	addi	sp,sp,-16
   17cd8:	00113423          	sd	ra,8(sp)
   17cdc:	00813023          	sd	s0,0(sp)
   17ce0:	00050413          	mv	s0,a0
   17ce4:	21c52503          	lw	a0,540(a0)
   17ce8:	04050063          	beqz	a0,17d28 <read_restart_marker+0x54>
   17cec:	24843583          	ld	a1,584(s0)
   17cf0:	0205a583          	lw	a1,32(a1)
   17cf4:	0d05861b          	addiw	a2,a1,208
   17cf8:	04c51863          	bne	a0,a2,17d48 <read_restart_marker+0x74>
   17cfc:	00043503          	ld	a0,0(s0)
   17d00:	02b52623          	sw	a1,44(a0)
   17d04:	00043583          	ld	a1,0(s0)
   17d08:	0085b603          	ld	a2,8(a1)
   17d0c:	06200593          	li	a1,98
   17d10:	02b52423          	sw	a1,40(a0)
   17d14:	00300593          	li	a1,3
   17d18:	00040513          	mv	a0,s0
   17d1c:	000600e7          	jalr	a2
   17d20:	20042e23          	sw	zero,540(s0)
   17d24:	0380006f          	j	17d5c <read_restart_marker+0x88>
   17d28:	00040513          	mv	a0,s0
   17d2c:	9adfe0ef          	jal	166d8 <next_marker>
   17d30:	04050263          	beqz	a0,17d74 <read_restart_marker+0xa0>
   17d34:	21c42503          	lw	a0,540(s0)
   17d38:	24843583          	ld	a1,584(s0)
   17d3c:	0205a583          	lw	a1,32(a1)
   17d40:	0d05861b          	addiw	a2,a1,208
   17d44:	fac50ce3          	beq	a0,a2,17cfc <read_restart_marker+0x28>
   17d48:	02843503          	ld	a0,40(s0)
   17d4c:	02853603          	ld	a2,40(a0)
   17d50:	00040513          	mv	a0,s0
   17d54:	000600e7          	jalr	a2
   17d58:	00050e63          	beqz	a0,17d74 <read_restart_marker+0xa0>
   17d5c:	24843503          	ld	a0,584(s0)
   17d60:	02052583          	lw	a1,32(a0)
   17d64:	00158593          	addi	a1,a1,1
   17d68:	0075f593          	andi	a1,a1,7
   17d6c:	02b52023          	sw	a1,32(a0)
   17d70:	00100513          	li	a0,1
   17d74:	00813083          	ld	ra,8(sp)
   17d78:	00013403          	ld	s0,0(sp)
   17d7c:	01010113          	addi	sp,sp,16
   17d80:	00008067          	ret

0000000000017d84 <skip_variable>:
   17d84:	fc010113          	addi	sp,sp,-64
   17d88:	02113c23          	sd	ra,56(sp)
   17d8c:	02813823          	sd	s0,48(sp)
   17d90:	02913423          	sd	s1,40(sp)
   17d94:	03213023          	sd	s2,32(sp)
   17d98:	01313c23          	sd	s3,24(sp)
   17d9c:	01413823          	sd	s4,16(sp)
   17da0:	01513423          	sd	s5,8(sp)
   17da4:	01613023          	sd	s6,0(sp)
   17da8:	00050413          	mv	s0,a0
   17dac:	02853983          	ld	s3,40(a0)
   17db0:	0089b503          	ld	a0,8(s3)
   17db4:	00050e63          	beqz	a0,17dd0 <skip_variable+0x4c>
   17db8:	0009b583          	ld	a1,0(s3)
   17dbc:	0005c483          	lbu	s1,0(a1)
   17dc0:	fff50513          	addi	a0,a0,-1
   17dc4:	02050863          	beqz	a0,17df4 <skip_variable+0x70>
   17dc8:	00158593          	addi	a1,a1,1
   17dcc:	0400006f          	j	17e0c <skip_variable+0x88>
   17dd0:	0189b583          	ld	a1,24(s3)
   17dd4:	00040513          	mv	a0,s0
   17dd8:	000580e7          	jalr	a1
   17ddc:	0a050263          	beqz	a0,17e80 <skip_variable+0xfc>
   17de0:	0089b503          	ld	a0,8(s3)
   17de4:	0009b583          	ld	a1,0(s3)
   17de8:	0005c483          	lbu	s1,0(a1)
   17dec:	fff50513          	addi	a0,a0,-1
   17df0:	fc051ce3          	bnez	a0,17dc8 <skip_variable+0x44>
   17df4:	0189b583          	ld	a1,24(s3)
   17df8:	00040513          	mv	a0,s0
   17dfc:	000580e7          	jalr	a1
   17e00:	08050063          	beqz	a0,17e80 <skip_variable+0xfc>
   17e04:	0009b583          	ld	a1,0(s3)
   17e08:	0089b503          	ld	a0,8(s3)
   17e0c:	0005c603          	lbu	a2,0(a1)
   17e10:	00043683          	ld	a3,0(s0)
   17e14:	21c42703          	lw	a4,540(s0)
   17e18:	00849493          	slli	s1,s1,0x8
   17e1c:	00c4ea33          	or	s4,s1,a2
   17e20:	02e6a623          	sw	a4,44(a3)
   17e24:	00043603          	ld	a2,0(s0)
   17e28:	ffea0913          	addi	s2,s4,-2
   17e2c:	05b00713          	li	a4,91
   17e30:	02e6a423          	sw	a4,40(a3)
   17e34:	03262823          	sw	s2,48(a2)
   17e38:	00043603          	ld	a2,0(s0)
   17e3c:	00863603          	ld	a2,8(a2)
   17e40:	fff50a93          	addi	s5,a0,-1
   17e44:	00158b13          	addi	s6,a1,1
   17e48:	00100593          	li	a1,1
   17e4c:	00100493          	li	s1,1
   17e50:	00040513          	mv	a0,s0
   17e54:	000600e7          	jalr	a2
   17e58:	0169b023          	sd	s6,0(s3)
   17e5c:	00300513          	li	a0,3
   17e60:	0159b423          	sd	s5,8(s3)
   17e64:	02aa6063          	bltu	s4,a0,17e84 <skip_variable+0x100>
   17e68:	02843503          	ld	a0,40(s0)
   17e6c:	02053603          	ld	a2,32(a0)
   17e70:	00040513          	mv	a0,s0
   17e74:	00090593          	mv	a1,s2
   17e78:	000600e7          	jalr	a2
   17e7c:	0080006f          	j	17e84 <skip_variable+0x100>
   17e80:	00000493          	li	s1,0
   17e84:	00048513          	mv	a0,s1
   17e88:	03813083          	ld	ra,56(sp)
   17e8c:	03013403          	ld	s0,48(sp)
   17e90:	02813483          	ld	s1,40(sp)
   17e94:	02013903          	ld	s2,32(sp)
   17e98:	01813983          	ld	s3,24(sp)
   17e9c:	01013a03          	ld	s4,16(sp)
   17ea0:	00813a83          	ld	s5,8(sp)
   17ea4:	00013b03          	ld	s6,0(sp)
   17ea8:	04010113          	addi	sp,sp,64
   17eac:	00008067          	ret

0000000000017eb0 <get_interesting_appn>:
   17eb0:	fa010113          	addi	sp,sp,-96
   17eb4:	04113c23          	sd	ra,88(sp)
   17eb8:	04813823          	sd	s0,80(sp)
   17ebc:	04913423          	sd	s1,72(sp)
   17ec0:	05213023          	sd	s2,64(sp)
   17ec4:	03313c23          	sd	s3,56(sp)
   17ec8:	03413823          	sd	s4,48(sp)
   17ecc:	03513423          	sd	s5,40(sp)
   17ed0:	03613023          	sd	s6,32(sp)
   17ed4:	01713c23          	sd	s7,24(sp)
   17ed8:	01813823          	sd	s8,16(sp)
   17edc:	00050413          	mv	s0,a0
   17ee0:	02853903          	ld	s2,40(a0)
   17ee4:	00893a03          	ld	s4,8(s2)
   17ee8:	000a0e63          	beqz	s4,17f04 <get_interesting_appn+0x54>
   17eec:	00093983          	ld	s3,0(s2)
   17ef0:	0009c483          	lbu	s1,0(s3)
   17ef4:	fffa0a13          	addi	s4,s4,-1
   17ef8:	020a0863          	beqz	s4,17f28 <get_interesting_appn+0x78>
   17efc:	00198993          	addi	s3,s3,1
   17f00:	0400006f          	j	17f40 <get_interesting_appn+0x90>
   17f04:	01893583          	ld	a1,24(s2)
   17f08:	00040513          	mv	a0,s0
   17f0c:	000580e7          	jalr	a1
   17f10:	0a050463          	beqz	a0,17fb8 <get_interesting_appn+0x108>
   17f14:	00893a03          	ld	s4,8(s2)
   17f18:	00093983          	ld	s3,0(s2)
   17f1c:	0009c483          	lbu	s1,0(s3)
   17f20:	fffa0a13          	addi	s4,s4,-1
   17f24:	fc0a1ce3          	bnez	s4,17efc <get_interesting_appn+0x4c>
   17f28:	01893583          	ld	a1,24(s2)
   17f2c:	00040513          	mv	a0,s0
   17f30:	000580e7          	jalr	a1
   17f34:	08050263          	beqz	a0,17fb8 <get_interesting_appn+0x108>
   17f38:	00093983          	ld	s3,0(s2)
   17f3c:	00893a03          	ld	s4,8(s2)
   17f40:	0009c503          	lbu	a0,0(s3)
   17f44:	00849493          	slli	s1,s1,0x8
   17f48:	00a4e533          	or	a0,s1,a0
   17f4c:	00f00593          	li	a1,15
   17f50:	ffe50493          	addi	s1,a0,-2
   17f54:	06a5f663          	bgeu	a1,a0,17fc0 <get_interesting_appn+0x110>
   17f58:	00e00a93          	li	s5,14
   17f5c:	00198993          	addi	s3,s3,1
   17f60:	fffa0a13          	addi	s4,s4,-1
   17f64:	060a8a63          	beqz	s5,17fd8 <get_interesting_appn+0x128>
   17f68:	020a9513          	slli	a0,s5,0x20
   17f6c:	02055b13          	srli	s6,a0,0x20
   17f70:	00210b93          	addi	s7,sp,2
   17f74:	000b0c13          	mv	s8,s6
   17f78:	0200006f          	j	17f98 <get_interesting_appn+0xe8>
   17f7c:	0009c503          	lbu	a0,0(s3)
   17f80:	00ab8023          	sb	a0,0(s7)
   17f84:	00198993          	addi	s3,s3,1
   17f88:	fffa0a13          	addi	s4,s4,-1
   17f8c:	fffc0c13          	addi	s8,s8,-1
   17f90:	001b8b93          	addi	s7,s7,1
   17f94:	040c0463          	beqz	s8,17fdc <get_interesting_appn+0x12c>
   17f98:	fe0a12e3          	bnez	s4,17f7c <get_interesting_appn+0xcc>
   17f9c:	01893583          	ld	a1,24(s2)
   17fa0:	00040513          	mv	a0,s0
   17fa4:	000580e7          	jalr	a1
   17fa8:	00050863          	beqz	a0,17fb8 <get_interesting_appn+0x108>
   17fac:	00093983          	ld	s3,0(s2)
   17fb0:	00893a03          	ld	s4,8(s2)
   17fb4:	fc9ff06f          	j	17f7c <get_interesting_appn+0xcc>
   17fb8:	00000913          	li	s2,0
   17fbc:	0700006f          	j	1802c <get_interesting_appn+0x17c>
   17fc0:	00353513          	sltiu	a0,a0,3
   17fc4:	fff50513          	addi	a0,a0,-1
   17fc8:	00957ab3          	and	s5,a0,s1
   17fcc:	00198993          	addi	s3,s3,1
   17fd0:	fffa0a13          	addi	s4,s4,-1
   17fd4:	f80a9ae3          	bnez	s5,17f68 <get_interesting_appn+0xb8>
   17fd8:	00000b13          	li	s6,0
   17fdc:	21c42503          	lw	a0,540(s0)
   17fe0:	0ee00593          	li	a1,238
   17fe4:	416484b3          	sub	s1,s1,s6
   17fe8:	06b50c63          	beq	a0,a1,18060 <get_interesting_appn+0x1b0>
   17fec:	0e000593          	li	a1,224
   17ff0:	12b51c63          	bne	a0,a1,18128 <get_interesting_appn+0x278>
   17ff4:	000a861b          	sext.w	a2,s5
   17ff8:	00210593          	addi	a1,sp,2
   17ffc:	00040513          	mv	a0,s0
   18000:	00048693          	mv	a3,s1
   18004:	2d5000ef          	jal	18ad8 <examine_app0>
   18008:	01393023          	sd	s3,0(s2)
   1800c:	01493423          	sd	s4,8(s2)
   18010:	00100913          	li	s2,1
   18014:	00905c63          	blez	s1,1802c <get_interesting_appn+0x17c>
   18018:	02843503          	ld	a0,40(s0)
   1801c:	02053603          	ld	a2,32(a0)
   18020:	00040513          	mv	a0,s0
   18024:	00048593          	mv	a1,s1
   18028:	000600e7          	jalr	a2
   1802c:	00090513          	mv	a0,s2
   18030:	05813083          	ld	ra,88(sp)
   18034:	05013403          	ld	s0,80(sp)
   18038:	04813483          	ld	s1,72(sp)
   1803c:	04013903          	ld	s2,64(sp)
   18040:	03813983          	ld	s3,56(sp)
   18044:	03013a03          	ld	s4,48(sp)
   18048:	02813a83          	ld	s5,40(sp)
   1804c:	02013b03          	ld	s6,32(sp)
   18050:	01813b83          	ld	s7,24(sp)
   18054:	01013c03          	ld	s8,16(sp)
   18058:	06010113          	addi	sp,sp,96
   1805c:	00008067          	ret
   18060:	000a851b          	sext.w	a0,s5
   18064:	00c00593          	li	a1,12
   18068:	0eb56a63          	bltu	a0,a1,1815c <get_interesting_appn+0x2ac>
   1806c:	00214503          	lbu	a0,2(sp)
   18070:	04100593          	li	a1,65
   18074:	0eb51463          	bne	a0,a1,1815c <get_interesting_appn+0x2ac>
   18078:	00314503          	lbu	a0,3(sp)
   1807c:	06400593          	li	a1,100
   18080:	0cb51e63          	bne	a0,a1,1815c <get_interesting_appn+0x2ac>
   18084:	00414503          	lbu	a0,4(sp)
   18088:	06f00593          	li	a1,111
   1808c:	0cb51863          	bne	a0,a1,1815c <get_interesting_appn+0x2ac>
   18090:	00514503          	lbu	a0,5(sp)
   18094:	06200593          	li	a1,98
   18098:	0cb51263          	bne	a0,a1,1815c <get_interesting_appn+0x2ac>
   1809c:	00614503          	lbu	a0,6(sp)
   180a0:	06500593          	li	a1,101
   180a4:	0ab51c63          	bne	a0,a1,1815c <get_interesting_appn+0x2ac>
   180a8:	00714503          	lbu	a0,7(sp)
   180ac:	00814583          	lbu	a1,8(sp)
   180b0:	00914603          	lbu	a2,9(sp)
   180b4:	00851513          	slli	a0,a0,0x8
   180b8:	00b56533          	or	a0,a0,a1
   180bc:	00a14583          	lbu	a1,10(sp)
   180c0:	00861613          	slli	a2,a2,0x8
   180c4:	00b14683          	lbu	a3,11(sp)
   180c8:	00c14703          	lbu	a4,12(sp)
   180cc:	00b665b3          	or	a1,a2,a1
   180d0:	00043603          	ld	a2,0(s0)
   180d4:	00869693          	slli	a3,a3,0x8
   180d8:	00e6e6b3          	or	a3,a3,a4
   180dc:	00d14a83          	lbu	s5,13(sp)
   180e0:	02a62623          	sw	a0,44(a2)
   180e4:	02b62823          	sw	a1,48(a2)
   180e8:	02d62a23          	sw	a3,52(a2)
   180ec:	00863683          	ld	a3,8(a2)
   180f0:	03562c23          	sw	s5,56(a2)
   180f4:	04c00513          	li	a0,76
   180f8:	02a62423          	sw	a0,40(a2)
   180fc:	00100593          	li	a1,1
   18100:	00100b13          	li	s6,1
   18104:	00040513          	mv	a0,s0
   18108:	000680e7          	jalr	a3
   1810c:	19642023          	sw	s6,384(s0)
   18110:	19540223          	sb	s5,388(s0)
   18114:	01393023          	sd	s3,0(s2)
   18118:	01493423          	sd	s4,8(s2)
   1811c:	00100913          	li	s2,1
   18120:	ee904ce3          	bgtz	s1,18018 <get_interesting_appn+0x168>
   18124:	f09ff06f          	j	1802c <get_interesting_appn+0x17c>
   18128:	00043583          	ld	a1,0(s0)
   1812c:	02a5a623          	sw	a0,44(a1)
   18130:	00043503          	ld	a0,0(s0)
   18134:	00053603          	ld	a2,0(a0)
   18138:	04400513          	li	a0,68
   1813c:	02a5a423          	sw	a0,40(a1)
   18140:	00040513          	mv	a0,s0
   18144:	000600e7          	jalr	a2
   18148:	01393023          	sd	s3,0(s2)
   1814c:	01493423          	sd	s4,8(s2)
   18150:	00100913          	li	s2,1
   18154:	ec9042e3          	bgtz	s1,18018 <get_interesting_appn+0x168>
   18158:	ed5ff06f          	j	1802c <get_interesting_appn+0x17c>
   1815c:	00043503          	ld	a0,0(s0)
   18160:	009a8ab3          	add	s5,s5,s1
   18164:	03552623          	sw	s5,44(a0)
   18168:	00043583          	ld	a1,0(s0)
   1816c:	0085b603          	ld	a2,8(a1)
   18170:	04e00593          	li	a1,78
   18174:	02b52423          	sw	a1,40(a0)
   18178:	00100593          	li	a1,1
   1817c:	00040513          	mv	a0,s0
   18180:	000600e7          	jalr	a2
   18184:	01393023          	sd	s3,0(s2)
   18188:	01493423          	sd	s4,8(s2)
   1818c:	00100913          	li	s2,1
   18190:	e89044e3          	bgtz	s1,18018 <get_interesting_appn+0x168>
   18194:	e99ff06f          	j	1802c <get_interesting_appn+0x17c>

0000000000018198 <jpeg_save_markers>:
   18198:	00853683          	ld	a3,8(a0)
   1819c:	0606b703          	ld	a4,96(a3)
   181a0:	fe070713          	addi	a4,a4,-32
   181a4:	02061693          	slli	a3,a2,0x20
   181a8:	0206d693          	srli	a3,a3,0x20
   181ac:	00d74463          	blt	a4,a3,181b4 <jpeg_save_markers+0x1c>
   181b0:	00060713          	mv	a4,a2
   181b4:	24853603          	ld	a2,584(a0)
   181b8:	0007069b          	sext.w	a3,a4
   181bc:	02068463          	beqz	a3,181e4 <jpeg_save_markers+0x4c>
   181c0:	0e000793          	li	a5,224
   181c4:	04f59263          	bne	a1,a5,18208 <jpeg_save_markers+0x70>
   181c8:	0007079b          	sext.w	a5,a4
   181cc:	00e00813          	li	a6,14
   181d0:	0307fc63          	bgeu	a5,a6,18208 <jpeg_save_markers+0x70>
   181d4:	00018737          	lui	a4,0x18
   181d8:	29870713          	addi	a4,a4,664 # 18298 <save_marker>
   181dc:	00e00693          	li	a3,14
   181e0:	05c0006f          	j	1823c <jpeg_save_markers+0xa4>
   181e4:	f2058693          	addi	a3,a1,-224
   181e8:	0016b693          	seqz	a3,a3
   181ec:	f1258713          	addi	a4,a1,-238
   181f0:	00173713          	seqz	a4,a4
   181f4:	00e6e6b3          	or	a3,a3,a4
   181f8:	06069263          	bnez	a3,1825c <jpeg_save_markers+0xc4>
   181fc:	00018737          	lui	a4,0x18
   18200:	d8470713          	addi	a4,a4,-636 # 17d84 <skip_variable>
   18204:	0600006f          	j	18264 <jpeg_save_markers+0xcc>
   18208:	00c00793          	li	a5,12
   1820c:	00d7e463          	bltu	a5,a3,18214 <jpeg_save_markers+0x7c>
   18210:	00c00693          	li	a3,12
   18214:	0ee00793          	li	a5,238
   18218:	00f58463          	beq	a1,a5,18220 <jpeg_save_markers+0x88>
   1821c:	00070693          	mv	a3,a4
   18220:	00018737          	lui	a4,0x18
   18224:	29870713          	addi	a4,a4,664 # 18298 <save_marker>
   18228:	0fe00793          	li	a5,254
   1822c:	04f58263          	beq	a1,a5,18270 <jpeg_save_markers+0xd8>
   18230:	ff05f793          	andi	a5,a1,-16
   18234:	0e000813          	li	a6,224
   18238:	05079263          	bne	a5,a6,1827c <jpeg_save_markers+0xe4>
   1823c:	f205851b          	addiw	a0,a1,-224
   18240:	00351593          	slli	a1,a0,0x3
   18244:	00b605b3          	add	a1,a2,a1
   18248:	02e5b823          	sd	a4,48(a1)
   1824c:	00251513          	slli	a0,a0,0x2
   18250:	00a60533          	add	a0,a2,a0
   18254:	0ad52a23          	sw	a3,180(a0)
   18258:	00008067          	ret
   1825c:	00018737          	lui	a4,0x18
   18260:	eb070713          	addi	a4,a4,-336 # 17eb0 <get_interesting_appn>
   18264:	00000693          	li	a3,0
   18268:	0fe00793          	li	a5,254
   1826c:	fcf592e3          	bne	a1,a5,18230 <jpeg_save_markers+0x98>
   18270:	02e63423          	sd	a4,40(a2)
   18274:	0ad62823          	sw	a3,176(a2)
   18278:	00008067          	ret
   1827c:	00053603          	ld	a2,0(a0)
   18280:	02b62623          	sw	a1,44(a2)
   18284:	00053583          	ld	a1,0(a0)
   18288:	0005b303          	ld	t1,0(a1)
   1828c:	04400593          	li	a1,68
   18290:	02b62423          	sw	a1,40(a2)
   18294:	00030067          	jr	t1

0000000000018298 <save_marker>:
   18298:	fa010113          	addi	sp,sp,-96
   1829c:	04113c23          	sd	ra,88(sp)
   182a0:	04813823          	sd	s0,80(sp)
   182a4:	04913423          	sd	s1,72(sp)
   182a8:	05213023          	sd	s2,64(sp)
   182ac:	03313c23          	sd	s3,56(sp)
   182b0:	03413823          	sd	s4,48(sp)
   182b4:	03513423          	sd	s5,40(sp)
   182b8:	03613023          	sd	s6,32(sp)
   182bc:	01713c23          	sd	s7,24(sp)
   182c0:	01813823          	sd	s8,16(sp)
   182c4:	01913423          	sd	s9,8(sp)
   182c8:	00050413          	mv	s0,a0
   182cc:	24853b03          	ld	s6,584(a0)
   182d0:	02853983          	ld	s3,40(a0)
   182d4:	0f8b3903          	ld	s2,248(s6)
   182d8:	0009ba03          	ld	s4,0(s3)
   182dc:	0089ba83          	ld	s5,8(s3)
   182e0:	0a090663          	beqz	s2,1838c <save_marker+0xf4>
   182e4:	100b6c03          	lwu	s8,256(s6)
   182e8:	01893483          	ld	s1,24(s2)
   182ec:	01092b83          	lw	s7,16(s2)
   182f0:	018484b3          	add	s1,s1,s8
   182f4:	000b8c9b          	sext.w	s9,s7
   182f8:	0100006f          	j	18308 <save_marker+0x70>
   182fc:	40ba8ab3          	sub	s5,s5,a1
   18300:	00ba0a33          	add	s4,s4,a1
   18304:	00b484b3          	add	s1,s1,a1
   18308:	000c051b          	sext.w	a0,s8
   1830c:	07957463          	bgeu	a0,s9,18374 <save_marker+0xdc>
   18310:	0149b023          	sd	s4,0(s3)
   18314:	0159b423          	sd	s5,8(s3)
   18318:	118b2023          	sw	s8,256(s6)
   1831c:	000a9e63          	bnez	s5,18338 <save_marker+0xa0>
   18320:	0189b583          	ld	a1,24(s3)
   18324:	00040513          	mv	a0,s0
   18328:	000580e7          	jalr	a1
   1832c:	16050463          	beqz	a0,18494 <save_marker+0x1fc>
   18330:	0009ba03          	ld	s4,0(s3)
   18334:	0089ba83          	ld	s5,8(s3)
   18338:	000c051b          	sext.w	a0,s8
   1833c:	fd9576e3          	bgeu	a0,s9,18308 <save_marker+0x70>
   18340:	fc0a84e3          	beqz	s5,18308 <save_marker+0x70>
   18344:	00000593          	li	a1,0
   18348:	fffa8513          	addi	a0,s5,-1
   1834c:	00058613          	mv	a2,a1
   18350:	00ba05b3          	add	a1,s4,a1
   18354:	0005c583          	lbu	a1,0(a1)
   18358:	00c486b3          	add	a3,s1,a2
   1835c:	00b68023          	sb	a1,0(a3)
   18360:	001c0c1b          	addiw	s8,s8,1
   18364:	00160593          	addi	a1,a2,1
   18368:	f99c7ae3          	bgeu	s8,s9,182fc <save_marker+0x64>
   1836c:	fec510e3          	bne	a0,a2,1834c <save_marker+0xb4>
   18370:	f8dff06f          	j	182fc <save_marker+0x64>
   18374:	19043583          	ld	a1,400(s0)
   18378:	02058663          	beqz	a1,183a4 <save_marker+0x10c>
   1837c:	00058513          	mv	a0,a1
   18380:	0005b583          	ld	a1,0(a1)
   18384:	fe059ce3          	bnez	a1,1837c <save_marker+0xe4>
   18388:	0200006f          	j	183a8 <save_marker+0x110>
   1838c:	080a8463          	beqz	s5,18414 <save_marker+0x17c>
   18390:	000a4483          	lbu	s1,0(s4)
   18394:	fffa8a93          	addi	s5,s5,-1
   18398:	0a0a8063          	beqz	s5,18438 <save_marker+0x1a0>
   1839c:	001a0a13          	addi	s4,s4,1
   183a0:	0b00006f          	j	18450 <save_marker+0x1b8>
   183a4:	19040513          	addi	a0,s0,400
   183a8:	00c92603          	lw	a2,12(s2)
   183ac:	01253023          	sd	s2,0(a0)
   183b0:	01893583          	ld	a1,24(s2)
   183b4:	4176053b          	subw	a0,a2,s7
   183b8:	02051513          	slli	a0,a0,0x20
   183bc:	02055493          	srli	s1,a0,0x20
   183c0:	21c42503          	lw	a0,540(s0)
   183c4:	0ee00613          	li	a2,238
   183c8:	0e0b3c23          	sd	zero,248(s6)
   183cc:	0ec50463          	beq	a0,a2,184b4 <save_marker+0x21c>
   183d0:	0e000613          	li	a2,224
   183d4:	00c51c63          	bne	a0,a2,183ec <save_marker+0x154>
   183d8:	000b861b          	sext.w	a2,s7
   183dc:	00040513          	mv	a0,s0
   183e0:	00048693          	mv	a3,s1
   183e4:	6f4000ef          	jal	18ad8 <examine_app0>
   183e8:	1ac0006f          	j	18594 <save_marker+0x2fc>
   183ec:	00043583          	ld	a1,0(s0)
   183f0:	02a5a623          	sw	a0,44(a1)
   183f4:	00043503          	ld	a0,0(s0)
   183f8:	05b00613          	li	a2,91
   183fc:	02c5a423          	sw	a2,40(a1)
   18400:	009b8bb3          	add	s7,s7,s1
   18404:	03752823          	sw	s7,48(a0)
   18408:	00043503          	ld	a0,0(s0)
   1840c:	00853603          	ld	a2,8(a0)
   18410:	1780006f          	j	18588 <save_marker+0x2f0>
   18414:	0189b583          	ld	a1,24(s3)
   18418:	00040513          	mv	a0,s0
   1841c:	000580e7          	jalr	a1
   18420:	06050a63          	beqz	a0,18494 <save_marker+0x1fc>
   18424:	0009ba03          	ld	s4,0(s3)
   18428:	0089ba83          	ld	s5,8(s3)
   1842c:	000a4483          	lbu	s1,0(s4)
   18430:	fffa8a93          	addi	s5,s5,-1
   18434:	f60a94e3          	bnez	s5,1839c <save_marker+0x104>
   18438:	0189b583          	ld	a1,24(s3)
   1843c:	00040513          	mv	a0,s0
   18440:	000580e7          	jalr	a1
   18444:	04050863          	beqz	a0,18494 <save_marker+0x1fc>
   18448:	0009ba03          	ld	s4,0(s3)
   1844c:	0089ba83          	ld	s5,8(s3)
   18450:	000a4503          	lbu	a0,0(s4)
   18454:	00849493          	slli	s1,s1,0x8
   18458:	fffa8a93          	addi	s5,s5,-1
   1845c:	001a0a13          	addi	s4,s4,1
   18460:	00a4e533          	or	a0,s1,a0
   18464:	00200593          	li	a1,2
   18468:	ffe50493          	addi	s1,a0,-2
   1846c:	02b56863          	bltu	a0,a1,1849c <save_marker+0x204>
   18470:	21c42503          	lw	a0,540(s0)
   18474:	0fe00593          	li	a1,254
   18478:	16b50c63          	beq	a0,a1,185f0 <save_marker+0x358>
   1847c:	00251513          	slli	a0,a0,0x2
   18480:	01650533          	add	a0,a0,s6
   18484:	d3450513          	addi	a0,a0,-716
   18488:	00052b83          	lw	s7,0(a0)
   1848c:	169bf863          	bgeu	s7,s1,185fc <save_marker+0x364>
   18490:	1700006f          	j	18600 <save_marker+0x368>
   18494:	00000913          	li	s2,0
   18498:	1200006f          	j	185b8 <save_marker+0x320>
   1849c:	00000b93          	li	s7,0
   184a0:	00000593          	li	a1,0
   184a4:	21c42503          	lw	a0,540(s0)
   184a8:	0ee00613          	li	a2,238
   184ac:	0e0b3c23          	sd	zero,248(s6)
   184b0:	f2c510e3          	bne	a0,a2,183d0 <save_marker+0x138>
   184b4:	000b851b          	sext.w	a0,s7
   184b8:	00c00613          	li	a2,12
   184bc:	0ac56863          	bltu	a0,a2,1856c <save_marker+0x2d4>
   184c0:	0005c503          	lbu	a0,0(a1)
   184c4:	04100613          	li	a2,65
   184c8:	0ac51263          	bne	a0,a2,1856c <save_marker+0x2d4>
   184cc:	0015c503          	lbu	a0,1(a1)
   184d0:	06400613          	li	a2,100
   184d4:	08c51c63          	bne	a0,a2,1856c <save_marker+0x2d4>
   184d8:	0025c503          	lbu	a0,2(a1)
   184dc:	06f00613          	li	a2,111
   184e0:	08c51663          	bne	a0,a2,1856c <save_marker+0x2d4>
   184e4:	0035c503          	lbu	a0,3(a1)
   184e8:	06200613          	li	a2,98
   184ec:	08c51063          	bne	a0,a2,1856c <save_marker+0x2d4>
   184f0:	0045c503          	lbu	a0,4(a1)
   184f4:	06500613          	li	a2,101
   184f8:	06c51a63          	bne	a0,a2,1856c <save_marker+0x2d4>
   184fc:	0055c503          	lbu	a0,5(a1)
   18500:	0065c603          	lbu	a2,6(a1)
   18504:	0075c683          	lbu	a3,7(a1)
   18508:	00851513          	slli	a0,a0,0x8
   1850c:	00c56533          	or	a0,a0,a2
   18510:	0085c603          	lbu	a2,8(a1)
   18514:	00869693          	slli	a3,a3,0x8
   18518:	0095c703          	lbu	a4,9(a1)
   1851c:	00a5c783          	lbu	a5,10(a1)
   18520:	00c6e633          	or	a2,a3,a2
   18524:	00043683          	ld	a3,0(s0)
   18528:	00871713          	slli	a4,a4,0x8
   1852c:	00f76733          	or	a4,a4,a5
   18530:	00b5c903          	lbu	s2,11(a1)
   18534:	02a6a623          	sw	a0,44(a3)
   18538:	02c6a823          	sw	a2,48(a3)
   1853c:	02e6aa23          	sw	a4,52(a3)
   18540:	0086b603          	ld	a2,8(a3)
   18544:	0326ac23          	sw	s2,56(a3)
   18548:	04c00513          	li	a0,76
   1854c:	02a6a423          	sw	a0,40(a3)
   18550:	00100593          	li	a1,1
   18554:	00100b13          	li	s6,1
   18558:	00040513          	mv	a0,s0
   1855c:	000600e7          	jalr	a2
   18560:	19642023          	sw	s6,384(s0)
   18564:	19240223          	sb	s2,388(s0)
   18568:	02c0006f          	j	18594 <save_marker+0x2fc>
   1856c:	00043503          	ld	a0,0(s0)
   18570:	009b8bb3          	add	s7,s7,s1
   18574:	03752623          	sw	s7,44(a0)
   18578:	00043583          	ld	a1,0(s0)
   1857c:	0085b603          	ld	a2,8(a1)
   18580:	04e00593          	li	a1,78
   18584:	02b52423          	sw	a1,40(a0)
   18588:	00100593          	li	a1,1
   1858c:	00040513          	mv	a0,s0
   18590:	000600e7          	jalr	a2
   18594:	0149b023          	sd	s4,0(s3)
   18598:	0159b423          	sd	s5,8(s3)
   1859c:	00100913          	li	s2,1
   185a0:	00905c63          	blez	s1,185b8 <save_marker+0x320>
   185a4:	02843503          	ld	a0,40(s0)
   185a8:	02053603          	ld	a2,32(a0)
   185ac:	00040513          	mv	a0,s0
   185b0:	00048593          	mv	a1,s1
   185b4:	000600e7          	jalr	a2
   185b8:	00090513          	mv	a0,s2
   185bc:	05813083          	ld	ra,88(sp)
   185c0:	05013403          	ld	s0,80(sp)
   185c4:	04813483          	ld	s1,72(sp)
   185c8:	04013903          	ld	s2,64(sp)
   185cc:	03813983          	ld	s3,56(sp)
   185d0:	03013a03          	ld	s4,48(sp)
   185d4:	02813a83          	ld	s5,40(sp)
   185d8:	02013b03          	ld	s6,32(sp)
   185dc:	01813b83          	ld	s7,24(sp)
   185e0:	01013c03          	ld	s8,16(sp)
   185e4:	00813c83          	ld	s9,8(sp)
   185e8:	06010113          	addi	sp,sp,96
   185ec:	00008067          	ret
   185f0:	0b0b0513          	addi	a0,s6,176
   185f4:	00052b83          	lw	s7,0(a0)
   185f8:	009be463          	bltu	s7,s1,18600 <save_marker+0x368>
   185fc:	00048b93          	mv	s7,s1
   18600:	00843503          	ld	a0,8(s0)
   18604:	00853683          	ld	a3,8(a0)
   18608:	020b8613          	addi	a2,s7,32
   1860c:	00100593          	li	a1,1
   18610:	00040513          	mv	a0,s0
   18614:	000680e7          	jalr	a3
   18618:	21c44583          	lbu	a1,540(s0)
   1861c:	00050913          	mv	s2,a0
   18620:	00000c13          	li	s8,0
   18624:	00053023          	sd	zero,0(a0)
   18628:	00b50423          	sb	a1,8(a0)
   1862c:	00952623          	sw	s1,12(a0)
   18630:	01752823          	sw	s7,16(a0)
   18634:	02050493          	addi	s1,a0,32
   18638:	00953c23          	sd	s1,24(a0)
   1863c:	0eab3c23          	sd	a0,248(s6)
   18640:	100b2023          	sw	zero,256(s6)
   18644:	cb1ff06f          	j	182f4 <save_marker+0x5c>

0000000000018648 <jpeg_set_marker_processor>:
   18648:	24853683          	ld	a3,584(a0)
   1864c:	0fe00713          	li	a4,254
   18650:	00e59663          	bne	a1,a4,1865c <jpeg_set_marker_processor+0x14>
   18654:	02c6b423          	sd	a2,40(a3)
   18658:	00008067          	ret
   1865c:	ff05f713          	andi	a4,a1,-16
   18660:	0e000793          	li	a5,224
   18664:	00f71a63          	bne	a4,a5,18678 <jpeg_set_marker_processor+0x30>
   18668:	00359593          	slli	a1,a1,0x3
   1866c:	00d585b3          	add	a1,a1,a3
   18670:	92c5b823          	sd	a2,-1744(a1)
   18674:	00008067          	ret
   18678:	00053603          	ld	a2,0(a0)
   1867c:	02b62623          	sw	a1,44(a2)
   18680:	00053583          	ld	a1,0(a0)
   18684:	0005b303          	ld	t1,0(a1)
   18688:	04400593          	li	a1,68
   1868c:	02b62423          	sw	a1,40(a2)
   18690:	00030067          	jr	t1

0000000000018694 <get_sof>:
   18694:	fc010113          	addi	sp,sp,-64
   18698:	02113c23          	sd	ra,56(sp)
   1869c:	02813823          	sd	s0,48(sp)
   186a0:	02913423          	sd	s1,40(sp)
   186a4:	03213023          	sd	s2,32(sp)
   186a8:	01313c23          	sd	s3,24(sp)
   186ac:	01413823          	sd	s4,16(sp)
   186b0:	01513423          	sd	s5,8(sp)
   186b4:	01613023          	sd	s6,0(sp)
   186b8:	00050413          	mv	s0,a0
   186bc:	02853483          	ld	s1,40(a0)
   186c0:	0084b683          	ld	a3,8(s1)
   186c4:	0004b503          	ld	a0,0(s1)
   186c8:	12b42c23          	sw	a1,312(s0)
   186cc:	12c42e23          	sw	a2,316(s0)
   186d0:	02068e63          	beqz	a3,1870c <get_sof+0x78>
   186d4:	00054903          	lbu	s2,0(a0)
   186d8:	fff68693          	addi	a3,a3,-1
   186dc:	04068a63          	beqz	a3,18730 <get_sof+0x9c>
   186e0:	00150513          	addi	a0,a0,1
   186e4:	00054983          	lbu	s3,0(a0)
   186e8:	fff68593          	addi	a1,a3,-1
   186ec:	06058463          	beqz	a1,18754 <get_sof+0xc0>
   186f0:	00150513          	addi	a0,a0,1
   186f4:	00054603          	lbu	a2,0(a0)
   186f8:	fff58593          	addi	a1,a1,-1
   186fc:	12c42423          	sw	a2,296(s0)
   18700:	06058e63          	beqz	a1,1877c <get_sof+0xe8>
   18704:	00150513          	addi	a0,a0,1
   18708:	08c0006f          	j	18794 <get_sof+0x100>
   1870c:	0184b583          	ld	a1,24(s1)
   18710:	00040513          	mv	a0,s0
   18714:	000580e7          	jalr	a1
   18718:	38050c63          	beqz	a0,18ab0 <get_sof+0x41c>
   1871c:	0004b503          	ld	a0,0(s1)
   18720:	0084b683          	ld	a3,8(s1)
   18724:	00054903          	lbu	s2,0(a0)
   18728:	fff68693          	addi	a3,a3,-1
   1872c:	fa069ae3          	bnez	a3,186e0 <get_sof+0x4c>
   18730:	0184b583          	ld	a1,24(s1)
   18734:	00040513          	mv	a0,s0
   18738:	000580e7          	jalr	a1
   1873c:	36050a63          	beqz	a0,18ab0 <get_sof+0x41c>
   18740:	0004b503          	ld	a0,0(s1)
   18744:	0084b683          	ld	a3,8(s1)
   18748:	00054983          	lbu	s3,0(a0)
   1874c:	fff68593          	addi	a1,a3,-1
   18750:	fa0590e3          	bnez	a1,186f0 <get_sof+0x5c>
   18754:	0184b583          	ld	a1,24(s1)
   18758:	00040513          	mv	a0,s0
   1875c:	000580e7          	jalr	a1
   18760:	34050863          	beqz	a0,18ab0 <get_sof+0x41c>
   18764:	0004b503          	ld	a0,0(s1)
   18768:	0084b583          	ld	a1,8(s1)
   1876c:	00054603          	lbu	a2,0(a0)
   18770:	fff58593          	addi	a1,a1,-1
   18774:	12c42423          	sw	a2,296(s0)
   18778:	f80596e3          	bnez	a1,18704 <get_sof+0x70>
   1877c:	0184b583          	ld	a1,24(s1)
   18780:	00040513          	mv	a0,s0
   18784:	000580e7          	jalr	a1
   18788:	32050463          	beqz	a0,18ab0 <get_sof+0x41c>
   1878c:	0004b503          	ld	a0,0(s1)
   18790:	0084b583          	ld	a1,8(s1)
   18794:	00054603          	lbu	a2,0(a0)
   18798:	fff58593          	addi	a1,a1,-1
   1879c:	00861613          	slli	a2,a2,0x8
   187a0:	02c42a23          	sw	a2,52(s0)
   187a4:	00058663          	beqz	a1,187b0 <get_sof+0x11c>
   187a8:	00150513          	addi	a0,a0,1
   187ac:	0200006f          	j	187cc <get_sof+0x138>
   187b0:	0184b583          	ld	a1,24(s1)
   187b4:	00040513          	mv	a0,s0
   187b8:	000580e7          	jalr	a1
   187bc:	2e050a63          	beqz	a0,18ab0 <get_sof+0x41c>
   187c0:	0004b503          	ld	a0,0(s1)
   187c4:	0084b583          	ld	a1,8(s1)
   187c8:	03442603          	lw	a2,52(s0)
   187cc:	00054683          	lbu	a3,0(a0)
   187d0:	fff58593          	addi	a1,a1,-1
   187d4:	00d60633          	add	a2,a2,a3
   187d8:	02c42a23          	sw	a2,52(s0)
   187dc:	00058663          	beqz	a1,187e8 <get_sof+0x154>
   187e0:	00150a93          	addi	s5,a0,1
   187e4:	01c0006f          	j	18800 <get_sof+0x16c>
   187e8:	0184b583          	ld	a1,24(s1)
   187ec:	00040513          	mv	a0,s0
   187f0:	000580e7          	jalr	a1
   187f4:	2a050e63          	beqz	a0,18ab0 <get_sof+0x41c>
   187f8:	0004ba83          	ld	s5,0(s1)
   187fc:	0084b583          	ld	a1,8(s1)
   18800:	000ac503          	lbu	a0,0(s5)
   18804:	fff58a13          	addi	s4,a1,-1
   18808:	00851513          	slli	a0,a0,0x8
   1880c:	02a42823          	sw	a0,48(s0)
   18810:	000a0663          	beqz	s4,1881c <get_sof+0x188>
   18814:	001a8a93          	addi	s5,s5,1
   18818:	0200006f          	j	18838 <get_sof+0x1a4>
   1881c:	0184b583          	ld	a1,24(s1)
   18820:	00040513          	mv	a0,s0
   18824:	000580e7          	jalr	a1
   18828:	28050463          	beqz	a0,18ab0 <get_sof+0x41c>
   1882c:	0004ba83          	ld	s5,0(s1)
   18830:	0084ba03          	ld	s4,8(s1)
   18834:	03042503          	lw	a0,48(s0)
   18838:	000ac583          	lbu	a1,0(s5)
   1883c:	fffa0a13          	addi	s4,s4,-1
   18840:	00b50533          	add	a0,a0,a1
   18844:	02a42823          	sw	a0,48(s0)
   18848:	000a0663          	beqz	s4,18854 <get_sof+0x1c0>
   1884c:	001a8a93          	addi	s5,s5,1
   18850:	01c0006f          	j	1886c <get_sof+0x1d8>
   18854:	0184b583          	ld	a1,24(s1)
   18858:	00040513          	mv	a0,s0
   1885c:	000580e7          	jalr	a1
   18860:	24050863          	beqz	a0,18ab0 <get_sof+0x41c>
   18864:	0004ba83          	ld	s5,0(s1)
   18868:	0084ba03          	ld	s4,8(s1)
   1886c:	000ac503          	lbu	a0,0(s5)
   18870:	00043583          	ld	a1,0(s0)
   18874:	21c42603          	lw	a2,540(s0)
   18878:	02a42c23          	sw	a0,56(s0)
   1887c:	02c5a623          	sw	a2,44(a1)
   18880:	03042503          	lw	a0,48(s0)
   18884:	02a5a823          	sw	a0,48(a1)
   18888:	03442503          	lw	a0,52(s0)
   1888c:	02a5aa23          	sw	a0,52(a1)
   18890:	03842503          	lw	a0,56(s0)
   18894:	00891913          	slli	s2,s2,0x8
   18898:	01396933          	or	s2,s2,s3
   1889c:	0085b603          	ld	a2,8(a1)
   188a0:	02a5ac23          	sw	a0,56(a1)
   188a4:	06400513          	li	a0,100
   188a8:	02a5a423          	sw	a0,40(a1)
   188ac:	00100593          	li	a1,1
   188b0:	00040513          	mv	a0,s0
   188b4:	000600e7          	jalr	a2
   188b8:	24843503          	ld	a0,584(s0)
   188bc:	01c52503          	lw	a0,28(a0)
   188c0:	00050e63          	beqz	a0,188dc <get_sof+0x248>
   188c4:	00043503          	ld	a0,0(s0)
   188c8:	00053583          	ld	a1,0(a0)
   188cc:	03a00613          	li	a2,58
   188d0:	02c52423          	sw	a2,40(a0)
   188d4:	00040513          	mv	a0,s0
   188d8:	000580e7          	jalr	a1
   188dc:	03442503          	lw	a0,52(s0)
   188e0:	ff890913          	addi	s2,s2,-8
   188e4:	02050c63          	beqz	a0,1891c <get_sof+0x288>
   188e8:	03042503          	lw	a0,48(s0)
   188ec:	02050863          	beqz	a0,1891c <get_sof+0x288>
   188f0:	03842603          	lw	a2,56(s0)
   188f4:	02c05463          	blez	a2,1891c <get_sof+0x288>
   188f8:	00161513          	slli	a0,a2,0x1
   188fc:	00c5053b          	addw	a0,a0,a2
   18900:	04a91263          	bne	s2,a0,18944 <get_sof+0x2b0>
   18904:	13043503          	ld	a0,304(s0)
   18908:	06050063          	beqz	a0,18968 <get_sof+0x2d4>
   1890c:	001a8a93          	addi	s5,s5,1
   18910:	fffa0593          	addi	a1,s4,-1
   18914:	08c04263          	bgtz	a2,18998 <get_sof+0x304>
   18918:	1840006f          	j	18a9c <get_sof+0x408>
   1891c:	00043503          	ld	a0,0(s0)
   18920:	00053583          	ld	a1,0(a0)
   18924:	02000613          	li	a2,32
   18928:	02c52423          	sw	a2,40(a0)
   1892c:	00040513          	mv	a0,s0
   18930:	000580e7          	jalr	a1
   18934:	03842603          	lw	a2,56(s0)
   18938:	00161513          	slli	a0,a2,0x1
   1893c:	00c5053b          	addw	a0,a0,a2
   18940:	fca902e3          	beq	s2,a0,18904 <get_sof+0x270>
   18944:	00043503          	ld	a0,0(s0)
   18948:	00053583          	ld	a1,0(a0)
   1894c:	00b00613          	li	a2,11
   18950:	02c52423          	sw	a2,40(a0)
   18954:	00040513          	mv	a0,s0
   18958:	000580e7          	jalr	a1
   1895c:	03842603          	lw	a2,56(s0)
   18960:	13043503          	ld	a0,304(s0)
   18964:	fa0514e3          	bnez	a0,1890c <get_sof+0x278>
   18968:	00843503          	ld	a0,8(s0)
   1896c:	00053683          	ld	a3,0(a0)
   18970:	06000513          	li	a0,96
   18974:	02a60633          	mul	a2,a2,a0
   18978:	00100593          	li	a1,1
   1897c:	00040513          	mv	a0,s0
   18980:	000680e7          	jalr	a3
   18984:	03842603          	lw	a2,56(s0)
   18988:	12a43823          	sd	a0,304(s0)
   1898c:	001a8a93          	addi	s5,s5,1
   18990:	fffa0593          	addi	a1,s4,-1
   18994:	10c05463          	blez	a2,18a9c <get_sof+0x408>
   18998:	00000913          	li	s2,0
   1899c:	01050993          	addi	s3,a0,16
   189a0:	06500a13          	li	s4,101
   189a4:	0600006f          	j	18a04 <get_sof+0x370>
   189a8:	001a8a93          	addi	s5,s5,1
   189ac:	000ac503          	lbu	a0,0(s5)
   189b0:	00043583          	ld	a1,0(s0)
   189b4:	ff09a603          	lw	a2,-16(s3)
   189b8:	00a9a023          	sw	a0,0(s3)
   189bc:	02c5a623          	sw	a2,44(a1)
   189c0:	ff89a503          	lw	a0,-8(s3)
   189c4:	02a5a823          	sw	a0,48(a1)
   189c8:	ffc9a503          	lw	a0,-4(s3)
   189cc:	02a5aa23          	sw	a0,52(a1)
   189d0:	0009a503          	lw	a0,0(s3)
   189d4:	0085b603          	ld	a2,8(a1)
   189d8:	02a5ac23          	sw	a0,56(a1)
   189dc:	0345a423          	sw	s4,40(a1)
   189e0:	00100593          	li	a1,1
   189e4:	00040513          	mv	a0,s0
   189e8:	000600e7          	jalr	a2
   189ec:	03842503          	lw	a0,56(s0)
   189f0:	0019091b          	addiw	s2,s2,1
   189f4:	001a8a93          	addi	s5,s5,1
   189f8:	fffb0593          	addi	a1,s6,-1
   189fc:	06098993          	addi	s3,s3,96
   18a00:	08a95e63          	bge	s2,a0,18a9c <get_sof+0x408>
   18a04:	ff29aa23          	sw	s2,-12(s3)
   18a08:	00058e63          	beqz	a1,18a24 <get_sof+0x390>
   18a0c:	000ac503          	lbu	a0,0(s5)
   18a10:	fff58593          	addi	a1,a1,-1
   18a14:	fea9a823          	sw	a0,-16(s3)
   18a18:	02058a63          	beqz	a1,18a4c <get_sof+0x3b8>
   18a1c:	001a8a93          	addi	s5,s5,1
   18a20:	0440006f          	j	18a64 <get_sof+0x3d0>
   18a24:	0184b583          	ld	a1,24(s1)
   18a28:	00040513          	mv	a0,s0
   18a2c:	000580e7          	jalr	a1
   18a30:	08050063          	beqz	a0,18ab0 <get_sof+0x41c>
   18a34:	0004ba83          	ld	s5,0(s1)
   18a38:	0084b583          	ld	a1,8(s1)
   18a3c:	000ac503          	lbu	a0,0(s5)
   18a40:	fff58593          	addi	a1,a1,-1
   18a44:	fea9a823          	sw	a0,-16(s3)
   18a48:	fc059ae3          	bnez	a1,18a1c <get_sof+0x388>
   18a4c:	0184b583          	ld	a1,24(s1)
   18a50:	00040513          	mv	a0,s0
   18a54:	000580e7          	jalr	a1
   18a58:	04050c63          	beqz	a0,18ab0 <get_sof+0x41c>
   18a5c:	0004ba83          	ld	s5,0(s1)
   18a60:	0084b583          	ld	a1,8(s1)
   18a64:	000ac503          	lbu	a0,0(s5)
   18a68:	fff58b13          	addi	s6,a1,-1
   18a6c:	00455593          	srli	a1,a0,0x4
   18a70:	feb9ac23          	sw	a1,-8(s3)
   18a74:	00f57513          	andi	a0,a0,15
   18a78:	fea9ae23          	sw	a0,-4(s3)
   18a7c:	f20b16e3          	bnez	s6,189a8 <get_sof+0x314>
   18a80:	0184b583          	ld	a1,24(s1)
   18a84:	00040513          	mv	a0,s0
   18a88:	000580e7          	jalr	a1
   18a8c:	02050263          	beqz	a0,18ab0 <get_sof+0x41c>
   18a90:	0004ba83          	ld	s5,0(s1)
   18a94:	0084bb03          	ld	s6,8(s1)
   18a98:	f15ff06f          	j	189ac <get_sof+0x318>
   18a9c:	24843603          	ld	a2,584(s0)
   18aa0:	00100513          	li	a0,1
   18aa4:	00a62e23          	sw	a0,28(a2)
   18aa8:	0154b023          	sd	s5,0(s1)
   18aac:	00b4b423          	sd	a1,8(s1)
   18ab0:	03813083          	ld	ra,56(sp)
   18ab4:	03013403          	ld	s0,48(sp)
   18ab8:	02813483          	ld	s1,40(sp)
   18abc:	02013903          	ld	s2,32(sp)
   18ac0:	01813983          	ld	s3,24(sp)
   18ac4:	01013a03          	ld	s4,16(sp)
   18ac8:	00813a83          	ld	s5,8(sp)
   18acc:	00013b03          	ld	s6,0(sp)
   18ad0:	04010113          	addi	sp,sp,64
   18ad4:	00008067          	ret

0000000000018ad8 <examine_app0>:
   18ad8:	fe010113          	addi	sp,sp,-32
   18adc:	00113c23          	sd	ra,24(sp)
   18ae0:	00813823          	sd	s0,16(sp)
   18ae4:	00913423          	sd	s1,8(sp)
   18ae8:	01213023          	sd	s2,0(sp)
   18aec:	02061713          	slli	a4,a2,0x20
   18af0:	02075713          	srli	a4,a4,0x20
   18af4:	00e00793          	li	a5,14
   18af8:	00d704b3          	add	s1,a4,a3
   18afc:	18f66663          	bltu	a2,a5,18c88 <examine_app0+0x1b0>
   18b00:	0005c603          	lbu	a2,0(a1)
   18b04:	04a00693          	li	a3,74
   18b08:	1ad61e63          	bne	a2,a3,18cc4 <examine_app0+0x1ec>
   18b0c:	0015c603          	lbu	a2,1(a1)
   18b10:	04600693          	li	a3,70
   18b14:	18d61463          	bne	a2,a3,18c9c <examine_app0+0x1c4>
   18b18:	0025c603          	lbu	a2,2(a1)
   18b1c:	04900693          	li	a3,73
   18b20:	16d61e63          	bne	a2,a3,18c9c <examine_app0+0x1c4>
   18b24:	0035c603          	lbu	a2,3(a1)
   18b28:	04600693          	li	a3,70
   18b2c:	16d61863          	bne	a2,a3,18c9c <examine_app0+0x1c4>
   18b30:	0045c603          	lbu	a2,4(a1)
   18b34:	16061463          	bnez	a2,18c9c <examine_app0+0x1c4>
   18b38:	00100693          	li	a3,1
   18b3c:	16d52a23          	sw	a3,372(a0)
   18b40:	0055c803          	lbu	a6,5(a1)
   18b44:	17050c23          	sb	a6,376(a0)
   18b48:	0065c703          	lbu	a4,6(a1)
   18b4c:	16e50ca3          	sb	a4,377(a0)
   18b50:	0075c603          	lbu	a2,7(a1)
   18b54:	16c50d23          	sb	a2,378(a0)
   18b58:	0085c783          	lbu	a5,8(a1)
   18b5c:	0095c883          	lbu	a7,9(a1)
   18b60:	00879793          	slli	a5,a5,0x8
   18b64:	0117e7b3          	or	a5,a5,a7
   18b68:	16f51e23          	sh	a5,380(a0)
   18b6c:	00a5c883          	lbu	a7,10(a1)
   18b70:	00058913          	mv	s2,a1
   18b74:	00b5c583          	lbu	a1,11(a1)
   18b78:	00889893          	slli	a7,a7,0x8
   18b7c:	00b8e5b3          	or	a1,a7,a1
   18b80:	16b51f23          	sh	a1,382(a0)
   18b84:	00050413          	mv	s0,a0
   18b88:	04d80663          	beq	a6,a3,18bd4 <examine_app0+0xfc>
   18b8c:	00053583          	ld	a1,0(a0)
   18b90:	0305a623          	sw	a6,44(a1)
   18b94:	17954603          	lbu	a2,377(a0)
   18b98:	00053683          	ld	a3,0(a0)
   18b9c:	07700713          	li	a4,119
   18ba0:	02e5a423          	sw	a4,40(a1)
   18ba4:	02c6a823          	sw	a2,48(a3)
   18ba8:	00053503          	ld	a0,0(a0)
   18bac:	00853603          	ld	a2,8(a0)
   18bb0:	fff00593          	li	a1,-1
   18bb4:	00040513          	mv	a0,s0
   18bb8:	000600e7          	jalr	a2
   18bbc:	00040513          	mv	a0,s0
   18bc0:	17844683          	lbu	a3,376(s0)
   18bc4:	17944703          	lbu	a4,377(s0)
   18bc8:	17c45783          	lhu	a5,380(s0)
   18bcc:	17e45583          	lhu	a1,382(s0)
   18bd0:	17a44603          	lbu	a2,378(s0)
   18bd4:	00053803          	ld	a6,0(a0)
   18bd8:	02d82623          	sw	a3,44(a6)
   18bdc:	02e82823          	sw	a4,48(a6)
   18be0:	000106b7          	lui	a3,0x10
   18be4:	fff68693          	addi	a3,a3,-1 # ffff <__abi_tag-0x295>
   18be8:	00d7f7b3          	and	a5,a5,a3
   18bec:	02f82a23          	sw	a5,52(a6)
   18bf0:	00d5f5b3          	and	a1,a1,a3
   18bf4:	02b82c23          	sw	a1,56(a6)
   18bf8:	00883683          	ld	a3,8(a6)
   18bfc:	02c82e23          	sw	a2,60(a6)
   18c00:	05700593          	li	a1,87
   18c04:	02b82423          	sw	a1,40(a6)
   18c08:	00100593          	li	a1,1
   18c0c:	000680e7          	jalr	a3
   18c10:	00c94503          	lbu	a0,12(s2)
   18c14:	00d94583          	lbu	a1,13(s2)
   18c18:	00a5e633          	or	a2,a1,a0
   18c1c:	04060063          	beqz	a2,18c5c <examine_app0+0x184>
   18c20:	00040513          	mv	a0,s0
   18c24:	00043583          	ld	a1,0(s0)
   18c28:	05a00613          	li	a2,90
   18c2c:	02c5a423          	sw	a2,40(a1)
   18c30:	00c94603          	lbu	a2,12(s2)
   18c34:	02c5a623          	sw	a2,44(a1)
   18c38:	00d94583          	lbu	a1,13(s2)
   18c3c:	00043603          	ld	a2,0(s0)
   18c40:	02b62823          	sw	a1,48(a2)
   18c44:	00043583          	ld	a1,0(s0)
   18c48:	0085b603          	ld	a2,8(a1)
   18c4c:	00100593          	li	a1,1
   18c50:	000600e7          	jalr	a2
   18c54:	00c94503          	lbu	a0,12(s2)
   18c58:	00d94583          	lbu	a1,13(s2)
   18c5c:	ff248493          	addi	s1,s1,-14
   18c60:	02b50533          	mul	a0,a0,a1
   18c64:	00151593          	slli	a1,a0,0x1
   18c68:	00a58533          	add	a0,a1,a0
   18c6c:	0aa49a63          	bne	s1,a0,18d20 <examine_app0+0x248>
   18c70:	01813083          	ld	ra,24(sp)
   18c74:	01013403          	ld	s0,16(sp)
   18c78:	00813483          	ld	s1,8(sp)
   18c7c:	00013903          	ld	s2,0(sp)
   18c80:	02010113          	addi	sp,sp,32
   18c84:	00008067          	ret
   18c88:	00600693          	li	a3,6
   18c8c:	02d66c63          	bltu	a2,a3,18cc4 <examine_app0+0x1ec>
   18c90:	0005c603          	lbu	a2,0(a1)
   18c94:	04a00693          	li	a3,74
   18c98:	02d61663          	bne	a2,a3,18cc4 <examine_app0+0x1ec>
   18c9c:	0015c603          	lbu	a2,1(a1)
   18ca0:	04600693          	li	a3,70
   18ca4:	02d61063          	bne	a2,a3,18cc4 <examine_app0+0x1ec>
   18ca8:	0025c683          	lbu	a3,2(a1)
   18cac:	05800613          	li	a2,88
   18cb0:	00c69a63          	bne	a3,a2,18cc4 <examine_app0+0x1ec>
   18cb4:	0035c683          	lbu	a3,3(a1)
   18cb8:	00c69663          	bne	a3,a2,18cc4 <examine_app0+0x1ec>
   18cbc:	0045c603          	lbu	a2,4(a1)
   18cc0:	02060c63          	beqz	a2,18cf8 <examine_app0+0x220>
   18cc4:	00053583          	ld	a1,0(a0)
   18cc8:	04d00613          	li	a2,77
   18ccc:	02c5a423          	sw	a2,40(a1)
   18cd0:	0295a623          	sw	s1,44(a1)
   18cd4:	00053583          	ld	a1,0(a0)
   18cd8:	0085b303          	ld	t1,8(a1)
   18cdc:	00100593          	li	a1,1
   18ce0:	01813083          	ld	ra,24(sp)
   18ce4:	01013403          	ld	s0,16(sp)
   18ce8:	00813483          	ld	s1,8(sp)
   18cec:	00013903          	ld	s2,0(sp)
   18cf0:	02010113          	addi	sp,sp,32
   18cf4:	00030067          	jr	t1
   18cf8:	0055c683          	lbu	a3,5(a1)
   18cfc:	00053603          	ld	a2,0(a0)
   18d00:	01300713          	li	a4,19
   18d04:	02e68a63          	beq	a3,a4,18d38 <examine_app0+0x260>
   18d08:	01100713          	li	a4,17
   18d0c:	02e68263          	beq	a3,a4,18d30 <examine_app0+0x258>
   18d10:	01000713          	li	a4,16
   18d14:	02e69a63          	bne	a3,a4,18d48 <examine_app0+0x270>
   18d18:	06c00593          	li	a1,108
   18d1c:	0200006f          	j	18d3c <examine_app0+0x264>
   18d20:	00040513          	mv	a0,s0
   18d24:	00043583          	ld	a1,0(s0)
   18d28:	05800613          	li	a2,88
   18d2c:	fa1ff06f          	j	18ccc <examine_app0+0x1f4>
   18d30:	06d00593          	li	a1,109
   18d34:	0080006f          	j	18d3c <examine_app0+0x264>
   18d38:	06e00593          	li	a1,110
   18d3c:	02b62423          	sw	a1,40(a2)
   18d40:	02962623          	sw	s1,44(a2)
   18d44:	f91ff06f          	j	18cd4 <examine_app0+0x1fc>
   18d48:	05900693          	li	a3,89
   18d4c:	02d62423          	sw	a3,40(a2)
   18d50:	0055c583          	lbu	a1,5(a1)
   18d54:	02b62623          	sw	a1,44(a2)
   18d58:	00053583          	ld	a1,0(a0)
   18d5c:	0295a823          	sw	s1,48(a1)
   18d60:	f75ff06f          	j	18cd4 <examine_app0+0x1fc>

0000000000018d64 <jpeg_make_d_derived_tbl>:
   18d64:	a8010113          	addi	sp,sp,-1408
   18d68:	56113c23          	sd	ra,1400(sp)
   18d6c:	56813823          	sd	s0,1392(sp)
   18d70:	56913423          	sd	s1,1384(sp)
   18d74:	57213023          	sd	s2,1376(sp)
   18d78:	55313c23          	sd	s3,1368(sp)
   18d7c:	55413823          	sd	s4,1360(sp)
   18d80:	55513423          	sd	s5,1352(sp)
   18d84:	55613023          	sd	s6,1344(sp)
   18d88:	53713c23          	sd	s7,1336(sp)
   18d8c:	53813823          	sd	s8,1328(sp)
   18d90:	53913423          	sd	s9,1320(sp)
   18d94:	53a13023          	sd	s10,1312(sp)
   18d98:	51b13c23          	sd	s11,1304(sp)
   18d9c:	00400713          	li	a4,4
   18da0:	00068913          	mv	s2,a3
   18da4:	00060993          	mv	s3,a2
   18da8:	00058493          	mv	s1,a1
   18dac:	00050413          	mv	s0,a0
   18db0:	38e67ae3          	bgeu	a2,a4,19944 <jpeg_make_d_derived_tbl+0xbe0>
   18db4:	00399513          	slli	a0,s3,0x3
   18db8:	0e800593          	li	a1,232
   18dbc:	3a048ae3          	beqz	s1,19970 <jpeg_make_d_derived_tbl+0xc0c>
   18dc0:	00b405b3          	add	a1,s0,a1
   18dc4:	00a58533          	add	a0,a1,a0
   18dc8:	00053a83          	ld	s5,0(a0)
   18dcc:	3a0a8ce3          	beqz	s5,19984 <jpeg_make_d_derived_tbl+0xc20>
   18dd0:	00913423          	sd	s1,8(sp)
   18dd4:	00093983          	ld	s3,0(s2)
   18dd8:	3c098ce3          	beqz	s3,199b0 <jpeg_make_d_derived_tbl+0xc4c>
   18ddc:	00000b13          	li	s6,0
   18de0:	1159bc23          	sd	s5,280(s3)
   18de4:	00100913          	li	s2,1
   18de8:	10100493          	li	s1,257
   18dec:	00800b93          	li	s7,8
   18df0:	01100c13          	li	s8,17
   18df4:	41710c93          	addi	s9,sp,1047
   18df8:	00c0006f          	j	18e04 <jpeg_make_d_derived_tbl+0xa0>
   18dfc:	00190913          	addi	s2,s2,1
   18e00:	05890263          	beq	s2,s8,18e44 <jpeg_make_d_derived_tbl+0xe0>
   18e04:	012a8533          	add	a0,s5,s2
   18e08:	00054a03          	lbu	s4,0(a0)
   18e0c:	014b0d3b          	addw	s10,s6,s4
   18e10:	009d4c63          	blt	s10,s1,18e28 <jpeg_make_d_derived_tbl+0xc4>
   18e14:	00043503          	ld	a0,0(s0)
   18e18:	00053583          	ld	a1,0(a0)
   18e1c:	03752423          	sw	s7,40(a0)
   18e20:	00040513          	mv	a0,s0
   18e24:	000580e7          	jalr	a1
   18e28:	fc0a0ae3          	beqz	s4,18dfc <jpeg_make_d_derived_tbl+0x98>
   18e2c:	016c8533          	add	a0,s9,s6
   18e30:	00090593          	mv	a1,s2
   18e34:	000a0613          	mv	a2,s4
   18e38:	e19f70ef          	jal	10c50 <memset@plt>
   18e3c:	000d0b13          	mv	s6,s10
   18e40:	fbdff06f          	j	18dfc <jpeg_make_d_derived_tbl+0x98>
   18e44:	41710913          	addi	s2,sp,1047
   18e48:	01690533          	add	a0,s2,s6
   18e4c:	00050023          	sb	zero,0(a0)
   18e50:	41714a03          	lbu	s4,1047(sp)
   18e54:	080a0663          	beqz	s4,18ee0 <jpeg_make_d_derived_tbl+0x17c>
   18e58:	00000b93          	li	s7,0
   18e5c:	00000c13          	li	s8,0
   18e60:	41810c93          	addi	s9,sp,1048
   18e64:	01010d13          	addi	s10,sp,16
   18e68:	00100d93          	li	s11,1
   18e6c:	00800493          	li	s1,8
   18e70:	000a0513          	mv	a0,s4
   18e74:	0180006f          	j	18e8c <jpeg_make_d_derived_tbl+0x128>
   18e78:	01790533          	add	a0,s2,s7
   18e7c:	00054503          	lbu	a0,0(a0)
   18e80:	001c1c13          	slli	s8,s8,0x1
   18e84:	001a0a13          	addi	s4,s4,1
   18e88:	04050c63          	beqz	a0,18ee0 <jpeg_make_d_derived_tbl+0x17c>
   18e8c:	02aa1663          	bne	s4,a0,18eb8 <jpeg_make_d_derived_tbl+0x154>
   18e90:	002b9513          	slli	a0,s7,0x2
   18e94:	00ad0533          	add	a0,s10,a0
   18e98:	017c85b3          	add	a1,s9,s7
   18e9c:	01852023          	sw	s8,0(a0)
   18ea0:	0005c603          	lbu	a2,0(a1)
   18ea4:	001c0c13          	addi	s8,s8,1
   18ea8:	00450513          	addi	a0,a0,4
   18eac:	001b8b9b          	addiw	s7,s7,1
   18eb0:	00158593          	addi	a1,a1,1
   18eb4:	feca04e3          	beq	s4,a2,18e9c <jpeg_make_d_derived_tbl+0x138>
   18eb8:	020c1513          	slli	a0,s8,0x20
   18ebc:	02055513          	srli	a0,a0,0x20
   18ec0:	014d95b3          	sll	a1,s11,s4
   18ec4:	fab54ae3          	blt	a0,a1,18e78 <jpeg_make_d_derived_tbl+0x114>
   18ec8:	00043503          	ld	a0,0(s0)
   18ecc:	00053583          	ld	a1,0(a0)
   18ed0:	02952423          	sw	s1,40(a0)
   18ed4:	00040513          	mv	a0,s0
   18ed8:	000580e7          	jalr	a1
   18edc:	f9dff06f          	j	18e78 <jpeg_make_d_derived_tbl+0x114>
   18ee0:	00000513          	li	a0,0
   18ee4:	09898593          	addi	a1,s3,152
   18ee8:	001a8613          	addi	a2,s5,1
   18eec:	11898693          	addi	a3,s3,280
   18ef0:	01010713          	addi	a4,sp,16
   18ef4:	00813483          	ld	s1,8(sp)
   18ef8:	03c0006f          	j	18f34 <jpeg_make_d_derived_tbl+0x1d0>
   18efc:	00251793          	slli	a5,a0,0x2
   18f00:	00f707b3          	add	a5,a4,a5
   18f04:	0007e783          	lwu	a5,0(a5)
   18f08:	40f507b3          	sub	a5,a0,a5
   18f0c:	00f5b023          	sd	a5,0(a1)
   18f10:	00064783          	lbu	a5,0(a2)
   18f14:	00f5053b          	addw	a0,a0,a5
   18f18:	00251793          	slli	a5,a0,0x2
   18f1c:	00e787b3          	add	a5,a5,a4
   18f20:	ffc7e783          	lwu	a5,-4(a5)
   18f24:	f6f5b823          	sd	a5,-144(a1)
   18f28:	00858593          	addi	a1,a1,8
   18f2c:	00160613          	addi	a2,a2,1
   18f30:	02d58063          	beq	a1,a3,18f50 <jpeg_make_d_derived_tbl+0x1ec>
   18f34:	00064783          	lbu	a5,0(a2)
   18f38:	fc0792e3          	bnez	a5,18efc <jpeg_make_d_derived_tbl+0x198>
   18f3c:	fff00793          	li	a5,-1
   18f40:	f6f5b823          	sd	a5,-144(a1)
   18f44:	00858593          	addi	a1,a1,8
   18f48:	00160613          	addi	a2,a2,1
   18f4c:	fed594e3          	bne	a1,a3,18f34 <jpeg_make_d_derived_tbl+0x1d0>
   18f50:	00100537          	lui	a0,0x100
   18f54:	fff5051b          	addiw	a0,a0,-1 # fffff <__global_pointer$+0xd5747>
   18f58:	08a9b423          	sd	a0,136(s3)
   18f5c:	12098913          	addi	s2,s3,288
   18f60:	40000613          	li	a2,1024
   18f64:	00090513          	mv	a0,s2
   18f68:	00000593          	li	a1,0
   18f6c:	ce5f70ef          	jal	10c50 <memset@plt>
   18f70:	001ac583          	lbu	a1,1(s5)
   18f74:	011a8a13          	addi	s4,s5,17
   18f78:	52098513          	addi	a0,s3,1312
   18f7c:	06058463          	beqz	a1,18fe4 <jpeg_make_d_derived_tbl+0x280>
   18f80:	00000593          	li	a1,0
   18f84:	5a098613          	addi	a2,s3,1440
   18f88:	00100693          	li	a3,1
   18f8c:	01010713          	addi	a4,sp,16
   18f90:	00100813          	li	a6,1
   18f94:	00259793          	slli	a5,a1,0x2
   18f98:	00f707b3          	add	a5,a4,a5
   18f9c:	0007a883          	lw	a7,0(a5)
   18fa0:	00080793          	mv	a5,a6
   18fa4:	0078931b          	slliw	t1,a7,0x7
   18fa8:	00ba0833          	add	a6,s4,a1
   18fac:	006508b3          	add	a7,a0,t1
   18fb0:	00231293          	slli	t0,t1,0x2
   18fb4:	005902b3          	add	t0,s2,t0
   18fb8:	00660333          	add	t1,a2,t1
   18fbc:	00d2a023          	sw	a3,0(t0)
   18fc0:	00084383          	lbu	t2,0(a6)
   18fc4:	00788023          	sb	t2,0(a7)
   18fc8:	00188893          	addi	a7,a7,1
   18fcc:	00428293          	addi	t0,t0,4
   18fd0:	fe6896e3          	bne	a7,t1,18fbc <jpeg_make_d_derived_tbl+0x258>
   18fd4:	001ac883          	lbu	a7,1(s5)
   18fd8:	0017881b          	addiw	a6,a5,1
   18fdc:	00158593          	addi	a1,a1,1
   18fe0:	fb17eae3          	bltu	a5,a7,18f94 <jpeg_make_d_derived_tbl+0x230>
   18fe4:	002ac603          	lbu	a2,2(s5)
   18fe8:	06060463          	beqz	a2,19050 <jpeg_make_d_derived_tbl+0x2ec>
   18fec:	0005859b          	sext.w	a1,a1
   18ff0:	56098613          	addi	a2,s3,1376
   18ff4:	00100813          	li	a6,1
   18ff8:	01010693          	addi	a3,sp,16
   18ffc:	00200713          	li	a4,2
   19000:	00259793          	slli	a5,a1,0x2
   19004:	00f687b3          	add	a5,a3,a5
   19008:	0007a883          	lw	a7,0(a5)
   1900c:	00080793          	mv	a5,a6
   19010:	0068931b          	slliw	t1,a7,0x6
   19014:	00ba0833          	add	a6,s4,a1
   19018:	006508b3          	add	a7,a0,t1
   1901c:	00231293          	slli	t0,t1,0x2
   19020:	005902b3          	add	t0,s2,t0
   19024:	00660333          	add	t1,a2,t1
   19028:	00e2a023          	sw	a4,0(t0)
   1902c:	00084383          	lbu	t2,0(a6)
   19030:	00788023          	sb	t2,0(a7)
   19034:	00188893          	addi	a7,a7,1
   19038:	00428293          	addi	t0,t0,4
   1903c:	fe6896e3          	bne	a7,t1,19028 <jpeg_make_d_derived_tbl+0x2c4>
   19040:	002ac883          	lbu	a7,2(s5)
   19044:	0017881b          	addiw	a6,a5,1
   19048:	00158593          	addi	a1,a1,1
   1904c:	fb17eae3          	bltu	a5,a7,19000 <jpeg_make_d_derived_tbl+0x29c>
   19050:	003ac603          	lbu	a2,3(s5)
   19054:	3c060063          	beqz	a2,19414 <jpeg_make_d_derived_tbl+0x6b0>
   19058:	00000613          	li	a2,0
   1905c:	0005871b          	sext.w	a4,a1
   19060:	015706b3          	add	a3,a4,s5
   19064:	01168693          	addi	a3,a3,17
   19068:	00271713          	slli	a4,a4,0x2
   1906c:	01010793          	addi	a5,sp,16
   19070:	00e78733          	add	a4,a5,a4
   19074:	00300793          	li	a5,3
   19078:	00072803          	lw	a6,0(a4)
   1907c:	0058181b          	slliw	a6,a6,0x5
   19080:	00281893          	slli	a7,a6,0x2
   19084:	011908b3          	add	a7,s2,a7
   19088:	00f8a023          	sw	a5,0(a7)
   1908c:	0006c883          	lbu	a7,0(a3)
   19090:	010502b3          	add	t0,a0,a6
   19094:	01128023          	sb	a7,0(t0)
   19098:	00180893          	addi	a7,a6,1
   1909c:	00289293          	slli	t0,a7,0x2
   190a0:	005902b3          	add	t0,s2,t0
   190a4:	00f2a023          	sw	a5,0(t0)
   190a8:	0006c283          	lbu	t0,0(a3)
   190ac:	011508b3          	add	a7,a0,a7
   190b0:	00588023          	sb	t0,0(a7)
   190b4:	00280893          	addi	a7,a6,2
   190b8:	00289293          	slli	t0,a7,0x2
   190bc:	005902b3          	add	t0,s2,t0
   190c0:	00f2a023          	sw	a5,0(t0)
   190c4:	0006c283          	lbu	t0,0(a3)
   190c8:	011508b3          	add	a7,a0,a7
   190cc:	00588023          	sb	t0,0(a7)
   190d0:	00380893          	addi	a7,a6,3
   190d4:	00289293          	slli	t0,a7,0x2
   190d8:	005902b3          	add	t0,s2,t0
   190dc:	00f2a023          	sw	a5,0(t0)
   190e0:	0006c283          	lbu	t0,0(a3)
   190e4:	011508b3          	add	a7,a0,a7
   190e8:	00588023          	sb	t0,0(a7)
   190ec:	00480893          	addi	a7,a6,4
   190f0:	00289293          	slli	t0,a7,0x2
   190f4:	005902b3          	add	t0,s2,t0
   190f8:	00f2a023          	sw	a5,0(t0)
   190fc:	0006c283          	lbu	t0,0(a3)
   19100:	011508b3          	add	a7,a0,a7
   19104:	00588023          	sb	t0,0(a7)
   19108:	00580893          	addi	a7,a6,5
   1910c:	00289293          	slli	t0,a7,0x2
   19110:	005902b3          	add	t0,s2,t0
   19114:	00f2a023          	sw	a5,0(t0)
   19118:	0006c283          	lbu	t0,0(a3)
   1911c:	011508b3          	add	a7,a0,a7
   19120:	00588023          	sb	t0,0(a7)
   19124:	00680893          	addi	a7,a6,6
   19128:	00289293          	slli	t0,a7,0x2
   1912c:	005902b3          	add	t0,s2,t0
   19130:	00f2a023          	sw	a5,0(t0)
   19134:	0006c283          	lbu	t0,0(a3)
   19138:	011508b3          	add	a7,a0,a7
   1913c:	00588023          	sb	t0,0(a7)
   19140:	00780893          	addi	a7,a6,7
   19144:	00289293          	slli	t0,a7,0x2
   19148:	005902b3          	add	t0,s2,t0
   1914c:	00f2a023          	sw	a5,0(t0)
   19150:	0006c283          	lbu	t0,0(a3)
   19154:	011508b3          	add	a7,a0,a7
   19158:	00588023          	sb	t0,0(a7)
   1915c:	00880893          	addi	a7,a6,8
   19160:	00289293          	slli	t0,a7,0x2
   19164:	005902b3          	add	t0,s2,t0
   19168:	00f2a023          	sw	a5,0(t0)
   1916c:	0006c283          	lbu	t0,0(a3)
   19170:	011508b3          	add	a7,a0,a7
   19174:	00588023          	sb	t0,0(a7)
   19178:	00980893          	addi	a7,a6,9
   1917c:	00289293          	slli	t0,a7,0x2
   19180:	005902b3          	add	t0,s2,t0
   19184:	00f2a023          	sw	a5,0(t0)
   19188:	0006c283          	lbu	t0,0(a3)
   1918c:	011508b3          	add	a7,a0,a7
   19190:	00588023          	sb	t0,0(a7)
   19194:	00a80893          	addi	a7,a6,10
   19198:	00289293          	slli	t0,a7,0x2
   1919c:	005902b3          	add	t0,s2,t0
   191a0:	00f2a023          	sw	a5,0(t0)
   191a4:	0006c283          	lbu	t0,0(a3)
   191a8:	011508b3          	add	a7,a0,a7
   191ac:	00588023          	sb	t0,0(a7)
   191b0:	00b80893          	addi	a7,a6,11
   191b4:	00289293          	slli	t0,a7,0x2
   191b8:	005902b3          	add	t0,s2,t0
   191bc:	00f2a023          	sw	a5,0(t0)
   191c0:	0006c283          	lbu	t0,0(a3)
   191c4:	011508b3          	add	a7,a0,a7
   191c8:	00588023          	sb	t0,0(a7)
   191cc:	00c80893          	addi	a7,a6,12
   191d0:	00289293          	slli	t0,a7,0x2
   191d4:	005902b3          	add	t0,s2,t0
   191d8:	00f2a023          	sw	a5,0(t0)
   191dc:	0006c283          	lbu	t0,0(a3)
   191e0:	011508b3          	add	a7,a0,a7
   191e4:	00588023          	sb	t0,0(a7)
   191e8:	00d80893          	addi	a7,a6,13
   191ec:	00289293          	slli	t0,a7,0x2
   191f0:	005902b3          	add	t0,s2,t0
   191f4:	00f2a023          	sw	a5,0(t0)
   191f8:	0006c283          	lbu	t0,0(a3)
   191fc:	011508b3          	add	a7,a0,a7
   19200:	00588023          	sb	t0,0(a7)
   19204:	00e80893          	addi	a7,a6,14
   19208:	00289293          	slli	t0,a7,0x2
   1920c:	005902b3          	add	t0,s2,t0
   19210:	00f2a023          	sw	a5,0(t0)
   19214:	0006c283          	lbu	t0,0(a3)
   19218:	011508b3          	add	a7,a0,a7
   1921c:	00588023          	sb	t0,0(a7)
   19220:	00f80893          	addi	a7,a6,15
   19224:	00289293          	slli	t0,a7,0x2
   19228:	005902b3          	add	t0,s2,t0
   1922c:	00f2a023          	sw	a5,0(t0)
   19230:	0006c283          	lbu	t0,0(a3)
   19234:	011508b3          	add	a7,a0,a7
   19238:	00588023          	sb	t0,0(a7)
   1923c:	01080893          	addi	a7,a6,16
   19240:	00289293          	slli	t0,a7,0x2
   19244:	005902b3          	add	t0,s2,t0
   19248:	00f2a023          	sw	a5,0(t0)
   1924c:	0006c283          	lbu	t0,0(a3)
   19250:	011508b3          	add	a7,a0,a7
   19254:	00588023          	sb	t0,0(a7)
   19258:	01180893          	addi	a7,a6,17
   1925c:	00289293          	slli	t0,a7,0x2
   19260:	005902b3          	add	t0,s2,t0
   19264:	00f2a023          	sw	a5,0(t0)
   19268:	0006c283          	lbu	t0,0(a3)
   1926c:	011508b3          	add	a7,a0,a7
   19270:	00588023          	sb	t0,0(a7)
   19274:	01280893          	addi	a7,a6,18
   19278:	00289293          	slli	t0,a7,0x2
   1927c:	005902b3          	add	t0,s2,t0
   19280:	00f2a023          	sw	a5,0(t0)
   19284:	0006c283          	lbu	t0,0(a3)
   19288:	011508b3          	add	a7,a0,a7
   1928c:	00588023          	sb	t0,0(a7)
   19290:	01380893          	addi	a7,a6,19
   19294:	00289293          	slli	t0,a7,0x2
   19298:	005902b3          	add	t0,s2,t0
   1929c:	00f2a023          	sw	a5,0(t0)
   192a0:	0006c283          	lbu	t0,0(a3)
   192a4:	011508b3          	add	a7,a0,a7
   192a8:	00588023          	sb	t0,0(a7)
   192ac:	01480893          	addi	a7,a6,20
   192b0:	00289293          	slli	t0,a7,0x2
   192b4:	005902b3          	add	t0,s2,t0
   192b8:	00f2a023          	sw	a5,0(t0)
   192bc:	0006c283          	lbu	t0,0(a3)
   192c0:	011508b3          	add	a7,a0,a7
   192c4:	00588023          	sb	t0,0(a7)
   192c8:	01580893          	addi	a7,a6,21
   192cc:	00289293          	slli	t0,a7,0x2
   192d0:	005902b3          	add	t0,s2,t0
   192d4:	00f2a023          	sw	a5,0(t0)
   192d8:	0006c283          	lbu	t0,0(a3)
   192dc:	011508b3          	add	a7,a0,a7
   192e0:	00588023          	sb	t0,0(a7)
   192e4:	01680893          	addi	a7,a6,22
   192e8:	00289293          	slli	t0,a7,0x2
   192ec:	005902b3          	add	t0,s2,t0
   192f0:	00f2a023          	sw	a5,0(t0)
   192f4:	0006c283          	lbu	t0,0(a3)
   192f8:	011508b3          	add	a7,a0,a7
   192fc:	00588023          	sb	t0,0(a7)
   19300:	01780893          	addi	a7,a6,23
   19304:	00289293          	slli	t0,a7,0x2
   19308:	005902b3          	add	t0,s2,t0
   1930c:	00f2a023          	sw	a5,0(t0)
   19310:	0006c283          	lbu	t0,0(a3)
   19314:	011508b3          	add	a7,a0,a7
   19318:	00588023          	sb	t0,0(a7)
   1931c:	01880893          	addi	a7,a6,24
   19320:	00289293          	slli	t0,a7,0x2
   19324:	005902b3          	add	t0,s2,t0
   19328:	00f2a023          	sw	a5,0(t0)
   1932c:	0006c283          	lbu	t0,0(a3)
   19330:	011508b3          	add	a7,a0,a7
   19334:	00588023          	sb	t0,0(a7)
   19338:	01980893          	addi	a7,a6,25
   1933c:	00289293          	slli	t0,a7,0x2
   19340:	005902b3          	add	t0,s2,t0
   19344:	00f2a023          	sw	a5,0(t0)
   19348:	0006c283          	lbu	t0,0(a3)
   1934c:	011508b3          	add	a7,a0,a7
   19350:	00588023          	sb	t0,0(a7)
   19354:	01a80893          	addi	a7,a6,26
   19358:	00289293          	slli	t0,a7,0x2
   1935c:	005902b3          	add	t0,s2,t0
   19360:	00f2a023          	sw	a5,0(t0)
   19364:	0006c283          	lbu	t0,0(a3)
   19368:	011508b3          	add	a7,a0,a7
   1936c:	00588023          	sb	t0,0(a7)
   19370:	01b80893          	addi	a7,a6,27
   19374:	00289293          	slli	t0,a7,0x2
   19378:	005902b3          	add	t0,s2,t0
   1937c:	00f2a023          	sw	a5,0(t0)
   19380:	0006c283          	lbu	t0,0(a3)
   19384:	011508b3          	add	a7,a0,a7
   19388:	00588023          	sb	t0,0(a7)
   1938c:	01c80893          	addi	a7,a6,28
   19390:	00289293          	slli	t0,a7,0x2
   19394:	005902b3          	add	t0,s2,t0
   19398:	00f2a023          	sw	a5,0(t0)
   1939c:	0006c283          	lbu	t0,0(a3)
   193a0:	011508b3          	add	a7,a0,a7
   193a4:	00588023          	sb	t0,0(a7)
   193a8:	01d80893          	addi	a7,a6,29
   193ac:	00289293          	slli	t0,a7,0x2
   193b0:	005902b3          	add	t0,s2,t0
   193b4:	00f2a023          	sw	a5,0(t0)
   193b8:	0006c283          	lbu	t0,0(a3)
   193bc:	011508b3          	add	a7,a0,a7
   193c0:	00588023          	sb	t0,0(a7)
   193c4:	01e80893          	addi	a7,a6,30
   193c8:	00289293          	slli	t0,a7,0x2
   193cc:	005902b3          	add	t0,s2,t0
   193d0:	00f2a023          	sw	a5,0(t0)
   193d4:	0006c283          	lbu	t0,0(a3)
   193d8:	011508b3          	add	a7,a0,a7
   193dc:	00588023          	sb	t0,0(a7)
   193e0:	01f80813          	addi	a6,a6,31
   193e4:	00281893          	slli	a7,a6,0x2
   193e8:	011908b3          	add	a7,s2,a7
   193ec:	00f8a023          	sw	a5,0(a7)
   193f0:	0006c883          	lbu	a7,0(a3)
   193f4:	01050833          	add	a6,a0,a6
   193f8:	01180023          	sb	a7,0(a6)
   193fc:	003ac803          	lbu	a6,3(s5)
   19400:	00158593          	addi	a1,a1,1
   19404:	00168693          	addi	a3,a3,1
   19408:	0016061b          	addiw	a2,a2,1
   1940c:	00470713          	addi	a4,a4,4
   19410:	c70664e3          	bltu	a2,a6,19078 <jpeg_make_d_derived_tbl+0x314>
   19414:	004ac603          	lbu	a2,4(s5)
   19418:	20060063          	beqz	a2,19618 <jpeg_make_d_derived_tbl+0x8b4>
   1941c:	00000613          	li	a2,0
   19420:	0005871b          	sext.w	a4,a1
   19424:	015706b3          	add	a3,a4,s5
   19428:	01168693          	addi	a3,a3,17
   1942c:	00271713          	slli	a4,a4,0x2
   19430:	01010793          	addi	a5,sp,16
   19434:	00e78733          	add	a4,a5,a4
   19438:	00400793          	li	a5,4
   1943c:	00072803          	lw	a6,0(a4)
   19440:	0048181b          	slliw	a6,a6,0x4
   19444:	00281893          	slli	a7,a6,0x2
   19448:	011908b3          	add	a7,s2,a7
   1944c:	00f8a023          	sw	a5,0(a7)
   19450:	0006c883          	lbu	a7,0(a3)
   19454:	010502b3          	add	t0,a0,a6
   19458:	01128023          	sb	a7,0(t0)
   1945c:	00180893          	addi	a7,a6,1
   19460:	00289293          	slli	t0,a7,0x2
   19464:	005902b3          	add	t0,s2,t0
   19468:	00f2a023          	sw	a5,0(t0)
   1946c:	0006c283          	lbu	t0,0(a3)
   19470:	011508b3          	add	a7,a0,a7
   19474:	00588023          	sb	t0,0(a7)
   19478:	00280893          	addi	a7,a6,2
   1947c:	00289293          	slli	t0,a7,0x2
   19480:	005902b3          	add	t0,s2,t0
   19484:	00f2a023          	sw	a5,0(t0)
   19488:	0006c283          	lbu	t0,0(a3)
   1948c:	011508b3          	add	a7,a0,a7
   19490:	00588023          	sb	t0,0(a7)
   19494:	00380893          	addi	a7,a6,3
   19498:	00289293          	slli	t0,a7,0x2
   1949c:	005902b3          	add	t0,s2,t0
   194a0:	00f2a023          	sw	a5,0(t0)
   194a4:	0006c283          	lbu	t0,0(a3)
   194a8:	011508b3          	add	a7,a0,a7
   194ac:	00588023          	sb	t0,0(a7)
   194b0:	00480893          	addi	a7,a6,4
   194b4:	00289293          	slli	t0,a7,0x2
   194b8:	005902b3          	add	t0,s2,t0
   194bc:	00f2a023          	sw	a5,0(t0)
   194c0:	0006c283          	lbu	t0,0(a3)
   194c4:	011508b3          	add	a7,a0,a7
   194c8:	00588023          	sb	t0,0(a7)
   194cc:	00580893          	addi	a7,a6,5
   194d0:	00289293          	slli	t0,a7,0x2
   194d4:	005902b3          	add	t0,s2,t0
   194d8:	00f2a023          	sw	a5,0(t0)
   194dc:	0006c283          	lbu	t0,0(a3)
   194e0:	011508b3          	add	a7,a0,a7
   194e4:	00588023          	sb	t0,0(a7)
   194e8:	00680893          	addi	a7,a6,6
   194ec:	00289293          	slli	t0,a7,0x2
   194f0:	005902b3          	add	t0,s2,t0
   194f4:	00f2a023          	sw	a5,0(t0)
   194f8:	0006c283          	lbu	t0,0(a3)
   194fc:	011508b3          	add	a7,a0,a7
   19500:	00588023          	sb	t0,0(a7)
   19504:	00780893          	addi	a7,a6,7
   19508:	00289293          	slli	t0,a7,0x2
   1950c:	005902b3          	add	t0,s2,t0
   19510:	00f2a023          	sw	a5,0(t0)
   19514:	0006c283          	lbu	t0,0(a3)
   19518:	011508b3          	add	a7,a0,a7
   1951c:	00588023          	sb	t0,0(a7)
   19520:	00880893          	addi	a7,a6,8
   19524:	00289293          	slli	t0,a7,0x2
   19528:	005902b3          	add	t0,s2,t0
   1952c:	00f2a023          	sw	a5,0(t0)
   19530:	0006c283          	lbu	t0,0(a3)
   19534:	011508b3          	add	a7,a0,a7
   19538:	00588023          	sb	t0,0(a7)
   1953c:	00980893          	addi	a7,a6,9
   19540:	00289293          	slli	t0,a7,0x2
   19544:	005902b3          	add	t0,s2,t0
   19548:	00f2a023          	sw	a5,0(t0)
   1954c:	0006c283          	lbu	t0,0(a3)
   19550:	011508b3          	add	a7,a0,a7
   19554:	00588023          	sb	t0,0(a7)
   19558:	00a80893          	addi	a7,a6,10
   1955c:	00289293          	slli	t0,a7,0x2
   19560:	005902b3          	add	t0,s2,t0
   19564:	00f2a023          	sw	a5,0(t0)
   19568:	0006c283          	lbu	t0,0(a3)
   1956c:	011508b3          	add	a7,a0,a7
   19570:	00588023          	sb	t0,0(a7)
   19574:	00b80893          	addi	a7,a6,11
   19578:	00289293          	slli	t0,a7,0x2
   1957c:	005902b3          	add	t0,s2,t0
   19580:	00f2a023          	sw	a5,0(t0)
   19584:	0006c283          	lbu	t0,0(a3)
   19588:	011508b3          	add	a7,a0,a7
   1958c:	00588023          	sb	t0,0(a7)
   19590:	00c80893          	addi	a7,a6,12
   19594:	00289293          	slli	t0,a7,0x2
   19598:	005902b3          	add	t0,s2,t0
   1959c:	00f2a023          	sw	a5,0(t0)
   195a0:	0006c283          	lbu	t0,0(a3)
   195a4:	011508b3          	add	a7,a0,a7
   195a8:	00588023          	sb	t0,0(a7)
   195ac:	00d80893          	addi	a7,a6,13
   195b0:	00289293          	slli	t0,a7,0x2
   195b4:	005902b3          	add	t0,s2,t0
   195b8:	00f2a023          	sw	a5,0(t0)
   195bc:	0006c283          	lbu	t0,0(a3)
   195c0:	011508b3          	add	a7,a0,a7
   195c4:	00588023          	sb	t0,0(a7)
   195c8:	00e80893          	addi	a7,a6,14
   195cc:	00289293          	slli	t0,a7,0x2
   195d0:	005902b3          	add	t0,s2,t0
   195d4:	00f2a023          	sw	a5,0(t0)
   195d8:	0006c283          	lbu	t0,0(a3)
   195dc:	011508b3          	add	a7,a0,a7
   195e0:	00588023          	sb	t0,0(a7)
   195e4:	00f80813          	addi	a6,a6,15
   195e8:	00281893          	slli	a7,a6,0x2
   195ec:	011908b3          	add	a7,s2,a7
   195f0:	00f8a023          	sw	a5,0(a7)
   195f4:	0006c883          	lbu	a7,0(a3)
   195f8:	01050833          	add	a6,a0,a6
   195fc:	01180023          	sb	a7,0(a6)
   19600:	004ac803          	lbu	a6,4(s5)
   19604:	00158593          	addi	a1,a1,1
   19608:	00168693          	addi	a3,a3,1
   1960c:	0016061b          	addiw	a2,a2,1
   19610:	00470713          	addi	a4,a4,4
   19614:	e30664e3          	bltu	a2,a6,1943c <jpeg_make_d_derived_tbl+0x6d8>
   19618:	005ac603          	lbu	a2,5(s5)
   1961c:	12060063          	beqz	a2,1973c <jpeg_make_d_derived_tbl+0x9d8>
   19620:	00000613          	li	a2,0
   19624:	0005871b          	sext.w	a4,a1
   19628:	015706b3          	add	a3,a4,s5
   1962c:	01168693          	addi	a3,a3,17
   19630:	00271713          	slli	a4,a4,0x2
   19634:	01010793          	addi	a5,sp,16
   19638:	00e78733          	add	a4,a5,a4
   1963c:	00500793          	li	a5,5
   19640:	00072803          	lw	a6,0(a4)
   19644:	0038181b          	slliw	a6,a6,0x3
   19648:	00281893          	slli	a7,a6,0x2
   1964c:	011908b3          	add	a7,s2,a7
   19650:	00f8a023          	sw	a5,0(a7)
   19654:	0006c883          	lbu	a7,0(a3)
   19658:	010502b3          	add	t0,a0,a6
   1965c:	01128023          	sb	a7,0(t0)
   19660:	00180893          	addi	a7,a6,1
   19664:	00289293          	slli	t0,a7,0x2
   19668:	005902b3          	add	t0,s2,t0
   1966c:	00f2a023          	sw	a5,0(t0)
   19670:	0006c283          	lbu	t0,0(a3)
   19674:	011508b3          	add	a7,a0,a7
   19678:	00588023          	sb	t0,0(a7)
   1967c:	00280893          	addi	a7,a6,2
   19680:	00289293          	slli	t0,a7,0x2
   19684:	005902b3          	add	t0,s2,t0
   19688:	00f2a023          	sw	a5,0(t0)
   1968c:	0006c283          	lbu	t0,0(a3)
   19690:	011508b3          	add	a7,a0,a7
   19694:	00588023          	sb	t0,0(a7)
   19698:	00380893          	addi	a7,a6,3
   1969c:	00289293          	slli	t0,a7,0x2
   196a0:	005902b3          	add	t0,s2,t0
   196a4:	00f2a023          	sw	a5,0(t0)
   196a8:	0006c283          	lbu	t0,0(a3)
   196ac:	011508b3          	add	a7,a0,a7
   196b0:	00588023          	sb	t0,0(a7)
   196b4:	00480893          	addi	a7,a6,4
   196b8:	00289293          	slli	t0,a7,0x2
   196bc:	005902b3          	add	t0,s2,t0
   196c0:	00f2a023          	sw	a5,0(t0)
   196c4:	0006c283          	lbu	t0,0(a3)
   196c8:	011508b3          	add	a7,a0,a7
   196cc:	00588023          	sb	t0,0(a7)
   196d0:	00580893          	addi	a7,a6,5
   196d4:	00289293          	slli	t0,a7,0x2
   196d8:	005902b3          	add	t0,s2,t0
   196dc:	00f2a023          	sw	a5,0(t0)
   196e0:	0006c283          	lbu	t0,0(a3)
   196e4:	011508b3          	add	a7,a0,a7
   196e8:	00588023          	sb	t0,0(a7)
   196ec:	00680893          	addi	a7,a6,6
   196f0:	00289293          	slli	t0,a7,0x2
   196f4:	005902b3          	add	t0,s2,t0
   196f8:	00f2a023          	sw	a5,0(t0)
   196fc:	0006c283          	lbu	t0,0(a3)
   19700:	011508b3          	add	a7,a0,a7
   19704:	00588023          	sb	t0,0(a7)
   19708:	00780813          	addi	a6,a6,7
   1970c:	00281893          	slli	a7,a6,0x2
   19710:	011908b3          	add	a7,s2,a7
   19714:	00f8a023          	sw	a5,0(a7)
   19718:	0006c883          	lbu	a7,0(a3)
   1971c:	01050833          	add	a6,a0,a6
   19720:	01180023          	sb	a7,0(a6)
   19724:	005ac803          	lbu	a6,5(s5)
   19728:	00158593          	addi	a1,a1,1
   1972c:	00168693          	addi	a3,a3,1
   19730:	0016061b          	addiw	a2,a2,1
   19734:	00470713          	addi	a4,a4,4
   19738:	f10664e3          	bltu	a2,a6,19640 <jpeg_make_d_derived_tbl+0x8dc>
   1973c:	006ac603          	lbu	a2,6(s5)
   19740:	0a060863          	beqz	a2,197f0 <jpeg_make_d_derived_tbl+0xa8c>
   19744:	00000613          	li	a2,0
   19748:	0005871b          	sext.w	a4,a1
   1974c:	015706b3          	add	a3,a4,s5
   19750:	01168693          	addi	a3,a3,17
   19754:	00271713          	slli	a4,a4,0x2
   19758:	01010793          	addi	a5,sp,16
   1975c:	00e78733          	add	a4,a5,a4
   19760:	00600793          	li	a5,6
   19764:	00072803          	lw	a6,0(a4)
   19768:	0028181b          	slliw	a6,a6,0x2
   1976c:	00281893          	slli	a7,a6,0x2
   19770:	011908b3          	add	a7,s2,a7
   19774:	00f8a023          	sw	a5,0(a7)
   19778:	0006c883          	lbu	a7,0(a3)
   1977c:	010502b3          	add	t0,a0,a6
   19780:	01128023          	sb	a7,0(t0)
   19784:	00180893          	addi	a7,a6,1
   19788:	00289293          	slli	t0,a7,0x2
   1978c:	005902b3          	add	t0,s2,t0
   19790:	00f2a023          	sw	a5,0(t0)
   19794:	0006c283          	lbu	t0,0(a3)
   19798:	011508b3          	add	a7,a0,a7
   1979c:	00588023          	sb	t0,0(a7)
   197a0:	00280893          	addi	a7,a6,2
   197a4:	00289293          	slli	t0,a7,0x2
   197a8:	005902b3          	add	t0,s2,t0
   197ac:	00f2a023          	sw	a5,0(t0)
   197b0:	0006c283          	lbu	t0,0(a3)
   197b4:	011508b3          	add	a7,a0,a7
   197b8:	00588023          	sb	t0,0(a7)
   197bc:	00380813          	addi	a6,a6,3
   197c0:	00281893          	slli	a7,a6,0x2
   197c4:	011908b3          	add	a7,s2,a7
   197c8:	00f8a023          	sw	a5,0(a7)
   197cc:	0006c883          	lbu	a7,0(a3)
   197d0:	01050833          	add	a6,a0,a6
   197d4:	01180023          	sb	a7,0(a6)
   197d8:	006ac803          	lbu	a6,6(s5)
   197dc:	00158593          	addi	a1,a1,1
   197e0:	00168693          	addi	a3,a3,1
   197e4:	0016061b          	addiw	a2,a2,1
   197e8:	00470713          	addi	a4,a4,4
   197ec:	f7066ce3          	bltu	a2,a6,19764 <jpeg_make_d_derived_tbl+0xa00>
   197f0:	007ac603          	lbu	a2,7(s5)
   197f4:	06060c63          	beqz	a2,1986c <jpeg_make_d_derived_tbl+0xb08>
   197f8:	00000613          	li	a2,0
   197fc:	0005871b          	sext.w	a4,a1
   19800:	015706b3          	add	a3,a4,s5
   19804:	01168693          	addi	a3,a3,17
   19808:	00271713          	slli	a4,a4,0x2
   1980c:	01010793          	addi	a5,sp,16
   19810:	00e78733          	add	a4,a5,a4
   19814:	00700793          	li	a5,7
   19818:	00072803          	lw	a6,0(a4)
   1981c:	0018181b          	slliw	a6,a6,0x1
   19820:	00281893          	slli	a7,a6,0x2
   19824:	011908b3          	add	a7,s2,a7
   19828:	00f8a023          	sw	a5,0(a7)
   1982c:	0006c883          	lbu	a7,0(a3)
   19830:	010502b3          	add	t0,a0,a6
   19834:	01128023          	sb	a7,0(t0)
   19838:	00180813          	addi	a6,a6,1
   1983c:	00281893          	slli	a7,a6,0x2
   19840:	011908b3          	add	a7,s2,a7
   19844:	00f8a023          	sw	a5,0(a7)
   19848:	0006c883          	lbu	a7,0(a3)
   1984c:	01050833          	add	a6,a0,a6
   19850:	01180023          	sb	a7,0(a6)
   19854:	007ac803          	lbu	a6,7(s5)
   19858:	00158593          	addi	a1,a1,1
   1985c:	00168693          	addi	a3,a3,1
   19860:	0016061b          	addiw	a2,a2,1
   19864:	00470713          	addi	a4,a4,4
   19868:	fb0668e3          	bltu	a2,a6,19818 <jpeg_make_d_derived_tbl+0xab4>
   1986c:	008ac603          	lbu	a2,8(s5)
   19870:	04060a63          	beqz	a2,198c4 <jpeg_make_d_derived_tbl+0xb60>
   19874:	00000613          	li	a2,0
   19878:	0005869b          	sext.w	a3,a1
   1987c:	015685b3          	add	a1,a3,s5
   19880:	01158593          	addi	a1,a1,17
   19884:	00269693          	slli	a3,a3,0x2
   19888:	01010713          	addi	a4,sp,16
   1988c:	00d706b3          	add	a3,a4,a3
   19890:	00800713          	li	a4,8
   19894:	0006a783          	lw	a5,0(a3)
   19898:	00279813          	slli	a6,a5,0x2
   1989c:	01090833          	add	a6,s2,a6
   198a0:	00e82023          	sw	a4,0(a6)
   198a4:	0005c803          	lbu	a6,0(a1)
   198a8:	00f507b3          	add	a5,a0,a5
   198ac:	01078023          	sb	a6,0(a5)
   198b0:	008ac783          	lbu	a5,8(s5)
   198b4:	00158593          	addi	a1,a1,1
   198b8:	0016061b          	addiw	a2,a2,1
   198bc:	00468693          	addi	a3,a3,4
   198c0:	fcf66ae3          	bltu	a2,a5,19894 <jpeg_make_d_derived_tbl+0xb30>
   198c4:	04048263          	beqz	s1,19908 <jpeg_make_d_derived_tbl+0xba4>
   198c8:	05605063          	blez	s6,19908 <jpeg_make_d_derived_tbl+0xba4>
   198cc:	016a84b3          	add	s1,s5,s6
   198d0:	01148493          	addi	s1,s1,17
   198d4:	01000913          	li	s2,16
   198d8:	00800993          	li	s3,8
   198dc:	00c0006f          	j	198e8 <jpeg_make_d_derived_tbl+0xb84>
   198e0:	001a0a13          	addi	s4,s4,1
   198e4:	029a0263          	beq	s4,s1,19908 <jpeg_make_d_derived_tbl+0xba4>
   198e8:	000a4503          	lbu	a0,0(s4)
   198ec:	ff256ae3          	bltu	a0,s2,198e0 <jpeg_make_d_derived_tbl+0xb7c>
   198f0:	00043503          	ld	a0,0(s0)
   198f4:	00053583          	ld	a1,0(a0)
   198f8:	03352423          	sw	s3,40(a0)
   198fc:	00040513          	mv	a0,s0
   19900:	000580e7          	jalr	a1
   19904:	fddff06f          	j	198e0 <jpeg_make_d_derived_tbl+0xb7c>
   19908:	57813083          	ld	ra,1400(sp)
   1990c:	57013403          	ld	s0,1392(sp)
   19910:	56813483          	ld	s1,1384(sp)
   19914:	56013903          	ld	s2,1376(sp)
   19918:	55813983          	ld	s3,1368(sp)
   1991c:	55013a03          	ld	s4,1360(sp)
   19920:	54813a83          	ld	s5,1352(sp)
   19924:	54013b03          	ld	s6,1344(sp)
   19928:	53813b83          	ld	s7,1336(sp)
   1992c:	53013c03          	ld	s8,1328(sp)
   19930:	52813c83          	ld	s9,1320(sp)
   19934:	52013d03          	ld	s10,1312(sp)
   19938:	51813d83          	ld	s11,1304(sp)
   1993c:	58010113          	addi	sp,sp,1408
   19940:	00008067          	ret
   19944:	00043503          	ld	a0,0(s0)
   19948:	03352623          	sw	s3,44(a0)
   1994c:	00043583          	ld	a1,0(s0)
   19950:	0005b583          	ld	a1,0(a1)
   19954:	03200613          	li	a2,50
   19958:	02c52423          	sw	a2,40(a0)
   1995c:	00040513          	mv	a0,s0
   19960:	000580e7          	jalr	a1
   19964:	00399513          	slli	a0,s3,0x3
   19968:	0e800593          	li	a1,232
   1996c:	c4049a63          	bnez	s1,18dc0 <jpeg_make_d_derived_tbl+0x5c>
   19970:	10800593          	li	a1,264
   19974:	00b405b3          	add	a1,s0,a1
   19978:	00a58533          	add	a0,a1,a0
   1997c:	00053a83          	ld	s5,0(a0)
   19980:	c40a9863          	bnez	s5,18dd0 <jpeg_make_d_derived_tbl+0x6c>
   19984:	00043503          	ld	a0,0(s0)
   19988:	03352623          	sw	s3,44(a0)
   1998c:	00043583          	ld	a1,0(s0)
   19990:	0005b583          	ld	a1,0(a1)
   19994:	03200613          	li	a2,50
   19998:	02c52423          	sw	a2,40(a0)
   1999c:	00040513          	mv	a0,s0
   199a0:	000580e7          	jalr	a1
   199a4:	00913423          	sd	s1,8(sp)
   199a8:	00093983          	ld	s3,0(s2)
   199ac:	c2099863          	bnez	s3,18ddc <jpeg_make_d_derived_tbl+0x78>
   199b0:	00843503          	ld	a0,8(s0)
   199b4:	00053683          	ld	a3,0(a0)
   199b8:	00100593          	li	a1,1
   199bc:	62000613          	li	a2,1568
   199c0:	00040513          	mv	a0,s0
   199c4:	000680e7          	jalr	a3
   199c8:	00050993          	mv	s3,a0
   199cc:	00a93023          	sd	a0,0(s2)
   199d0:	c0cff06f          	j	18ddc <jpeg_make_d_derived_tbl+0x78>

00000000000199d4 <jpeg_fill_bit_buffer>:
   199d4:	fb010113          	addi	sp,sp,-80
   199d8:	04113423          	sd	ra,72(sp)
   199dc:	04813023          	sd	s0,64(sp)
   199e0:	02913c23          	sd	s1,56(sp)
   199e4:	03213823          	sd	s2,48(sp)
   199e8:	03313423          	sd	s3,40(sp)
   199ec:	03413023          	sd	s4,32(sp)
   199f0:	01513c23          	sd	s5,24(sp)
   199f4:	01613823          	sd	s6,16(sp)
   199f8:	01713423          	sd	s7,8(sp)
   199fc:	01813023          	sd	s8,0(sp)
   19a00:	00050413          	mv	s0,a0
   19a04:	02053903          	ld	s2,32(a0)
   19a08:	00053503          	ld	a0,0(a0)
   19a0c:	21c92703          	lw	a4,540(s2)
   19a10:	00843a03          	ld	s4,8(s0)
   19a14:	00068993          	mv	s3,a3
   19a18:	00058493          	mv	s1,a1
   19a1c:	04070a63          	beqz	a4,19a70 <jpeg_fill_bit_buffer+0x9c>
   19a20:	00060a93          	mv	s5,a2
   19a24:	00050b13          	mv	s6,a0
   19a28:	11365863          	bge	a2,s3,19b38 <jpeg_fill_bit_buffer+0x164>
   19a2c:	25093503          	ld	a0,592(s2)
   19a30:	01052503          	lw	a0,16(a0)
   19a34:	02051663          	bnez	a0,19a60 <jpeg_fill_bit_buffer+0x8c>
   19a38:	00093503          	ld	a0,0(s2)
   19a3c:	00853603          	ld	a2,8(a0)
   19a40:	07500593          	li	a1,117
   19a44:	02b52423          	sw	a1,40(a0)
   19a48:	fff00593          	li	a1,-1
   19a4c:	00090513          	mv	a0,s2
   19a50:	000600e7          	jalr	a2
   19a54:	25093503          	ld	a0,592(s2)
   19a58:	00100593          	li	a1,1
   19a5c:	00b52823          	sw	a1,16(a0)
   19a60:	01900613          	li	a2,25
   19a64:	4156053b          	subw	a0,a2,s5
   19a68:	00a494b3          	sll	s1,s1,a0
   19a6c:	0d00006f          	j	19b3c <jpeg_fill_bit_buffer+0x168>
   19a70:	01800593          	li	a1,24
   19a74:	0ac5ca63          	blt	a1,a2,19b28 <jpeg_fill_bit_buffer+0x154>
   19a78:	0ff00b93          	li	s7,255
   19a7c:	01100c13          	li	s8,17
   19a80:	00060a93          	mv	s5,a2
   19a84:	000a0c63          	beqz	s4,19a9c <jpeg_fill_bit_buffer+0xc8>
   19a88:	00054583          	lbu	a1,0(a0)
   19a8c:	fffa0a13          	addi	s4,s4,-1
   19a90:	00150b13          	addi	s6,a0,1
   19a94:	07759e63          	bne	a1,s7,19b10 <jpeg_fill_bit_buffer+0x13c>
   19a98:	0480006f          	j	19ae0 <jpeg_fill_bit_buffer+0x10c>
   19a9c:	02893503          	ld	a0,40(s2)
   19aa0:	01853583          	ld	a1,24(a0)
   19aa4:	00090513          	mv	a0,s2
   19aa8:	000580e7          	jalr	a1
   19aac:	0a050263          	beqz	a0,19b50 <jpeg_fill_bit_buffer+0x17c>
   19ab0:	02893583          	ld	a1,40(s2)
   19ab4:	0005b503          	ld	a0,0(a1)
   19ab8:	0085ba03          	ld	s4,8(a1)
   19abc:	00054583          	lbu	a1,0(a0)
   19ac0:	fffa0a13          	addi	s4,s4,-1
   19ac4:	00150b13          	addi	s6,a0,1
   19ac8:	05759463          	bne	a1,s7,19b10 <jpeg_fill_bit_buffer+0x13c>
   19acc:	0140006f          	j	19ae0 <jpeg_fill_bit_buffer+0x10c>
   19ad0:	000b4503          	lbu	a0,0(s6)
   19ad4:	fffa0a13          	addi	s4,s4,-1
   19ad8:	001b0b13          	addi	s6,s6,1
   19adc:	03751663          	bne	a0,s7,19b08 <jpeg_fill_bit_buffer+0x134>
   19ae0:	fe0a18e3          	bnez	s4,19ad0 <jpeg_fill_bit_buffer+0xfc>
   19ae4:	02893503          	ld	a0,40(s2)
   19ae8:	01853583          	ld	a1,24(a0)
   19aec:	00090513          	mv	a0,s2
   19af0:	000580e7          	jalr	a1
   19af4:	04050e63          	beqz	a0,19b50 <jpeg_fill_bit_buffer+0x17c>
   19af8:	02893503          	ld	a0,40(s2)
   19afc:	00053b03          	ld	s6,0(a0)
   19b00:	00853a03          	ld	s4,8(a0)
   19b04:	fcdff06f          	j	19ad0 <jpeg_fill_bit_buffer+0xfc>
   19b08:	02051463          	bnez	a0,19b30 <jpeg_fill_bit_buffer+0x15c>
   19b0c:	0ff00593          	li	a1,255
   19b10:	00849493          	slli	s1,s1,0x8
   19b14:	0095e4b3          	or	s1,a1,s1
   19b18:	008a861b          	addiw	a2,s5,8
   19b1c:	000b0513          	mv	a0,s6
   19b20:	f78ac0e3          	blt	s5,s8,19a80 <jpeg_fill_bit_buffer+0xac>
   19b24:	0180006f          	j	19b3c <jpeg_fill_bit_buffer+0x168>
   19b28:	00050b13          	mv	s6,a0
   19b2c:	0100006f          	j	19b3c <jpeg_fill_bit_buffer+0x168>
   19b30:	20a92e23          	sw	a0,540(s2)
   19b34:	ef3acce3          	blt	s5,s3,19a2c <jpeg_fill_bit_buffer+0x58>
   19b38:	000a8613          	mv	a2,s5
   19b3c:	01643023          	sd	s6,0(s0)
   19b40:	01443423          	sd	s4,8(s0)
   19b44:	00943823          	sd	s1,16(s0)
   19b48:	00c42c23          	sw	a2,24(s0)
   19b4c:	00100513          	li	a0,1
   19b50:	04813083          	ld	ra,72(sp)
   19b54:	04013403          	ld	s0,64(sp)
   19b58:	03813483          	ld	s1,56(sp)
   19b5c:	03013903          	ld	s2,48(sp)
   19b60:	02813983          	ld	s3,40(sp)
   19b64:	02013a03          	ld	s4,32(sp)
   19b68:	01813a83          	ld	s5,24(sp)
   19b6c:	01013b03          	ld	s6,16(sp)
   19b70:	00813b83          	ld	s7,8(sp)
   19b74:	00013c03          	ld	s8,0(sp)
   19b78:	05010113          	addi	sp,sp,80
   19b7c:	00008067          	ret

0000000000019b80 <jpeg_huff_decode>:
   19b80:	fc010113          	addi	sp,sp,-64
   19b84:	02113c23          	sd	ra,56(sp)
   19b88:	02813823          	sd	s0,48(sp)
   19b8c:	02913423          	sd	s1,40(sp)
   19b90:	03213023          	sd	s2,32(sp)
   19b94:	01313c23          	sd	s3,24(sp)
   19b98:	01413823          	sd	s4,16(sp)
   19b9c:	01513423          	sd	s5,8(sp)
   19ba0:	00070493          	mv	s1,a4
   19ba4:	00068413          	mv	s0,a3
   19ba8:	00050913          	mv	s2,a0
   19bac:	00e65e63          	bge	a2,a4,19bc8 <jpeg_huff_decode+0x48>
   19bb0:	00090513          	mv	a0,s2
   19bb4:	00048693          	mv	a3,s1
   19bb8:	e1dff0ef          	jal	199d4 <jpeg_fill_bit_buffer>
   19bbc:	0e050463          	beqz	a0,19ca4 <jpeg_huff_decode+0x124>
   19bc0:	01093583          	ld	a1,16(s2)
   19bc4:	01892603          	lw	a2,24(s2)
   19bc8:	4096063b          	subw	a2,a2,s1
   19bcc:	40c5d533          	sra	a0,a1,a2
   19bd0:	fff00693          	li	a3,-1
   19bd4:	00349713          	slli	a4,s1,0x3
   19bd8:	00e40733          	add	a4,s0,a4
   19bdc:	00073703          	ld	a4,0(a4)
   19be0:	009696bb          	sllw	a3,a3,s1
   19be4:	fff6c693          	not	a3,a3
   19be8:	00d579b3          	and	s3,a0,a3
   19bec:	07375063          	bge	a4,s3,19c4c <jpeg_huff_decode+0xcc>
   19bf0:	00349513          	slli	a0,s1,0x3
   19bf4:	00850533          	add	a0,a0,s0
   19bf8:	00850a93          	addi	s5,a0,8
   19bfc:	00048a13          	mv	s4,s1
   19c00:	02c0006f          	j	19c2c <jpeg_huff_decode+0xac>
   19c04:	00199993          	slli	s3,s3,0x1
   19c08:	fff6061b          	addiw	a2,a2,-1
   19c0c:	00c5d533          	srl	a0,a1,a2
   19c10:	00157513          	andi	a0,a0,1
   19c14:	000ab683          	ld	a3,0(s5)
   19c18:	013569b3          	or	s3,a0,s3
   19c1c:	001a0a13          	addi	s4,s4,1
   19c20:	0014849b          	addiw	s1,s1,1
   19c24:	008a8a93          	addi	s5,s5,8
   19c28:	0336d463          	bge	a3,s3,19c50 <jpeg_huff_decode+0xd0>
   19c2c:	fcc04ce3          	bgtz	a2,19c04 <jpeg_huff_decode+0x84>
   19c30:	00100693          	li	a3,1
   19c34:	00090513          	mv	a0,s2
   19c38:	d9dff0ef          	jal	199d4 <jpeg_fill_bit_buffer>
   19c3c:	06050463          	beqz	a0,19ca4 <jpeg_huff_decode+0x124>
   19c40:	01093583          	ld	a1,16(s2)
   19c44:	01892603          	lw	a2,24(s2)
   19c48:	fbdff06f          	j	19c04 <jpeg_huff_decode+0x84>
   19c4c:	00048a13          	mv	s4,s1
   19c50:	00b93823          	sd	a1,16(s2)
   19c54:	01100513          	li	a0,17
   19c58:	00c92c23          	sw	a2,24(s2)
   19c5c:	02a4c463          	blt	s1,a0,19c84 <jpeg_huff_decode+0x104>
   19c60:	02093503          	ld	a0,32(s2)
   19c64:	00053583          	ld	a1,0(a0)
   19c68:	0085b603          	ld	a2,8(a1)
   19c6c:	07600693          	li	a3,118
   19c70:	02d5a423          	sw	a3,40(a1)
   19c74:	fff00593          	li	a1,-1
   19c78:	000600e7          	jalr	a2
   19c7c:	00000513          	li	a0,0
   19c80:	0280006f          	j	19ca8 <jpeg_huff_decode+0x128>
   19c84:	003a1a13          	slli	s4,s4,0x3
   19c88:	01440a33          	add	s4,s0,s4
   19c8c:	090a3503          	ld	a0,144(s4)
   19c90:	11843583          	ld	a1,280(s0)
   19c94:	0135053b          	addw	a0,a0,s3
   19c98:	00a58533          	add	a0,a1,a0
   19c9c:	01154503          	lbu	a0,17(a0)
   19ca0:	0080006f          	j	19ca8 <jpeg_huff_decode+0x128>
   19ca4:	fff00513          	li	a0,-1
   19ca8:	03813083          	ld	ra,56(sp)
   19cac:	03013403          	ld	s0,48(sp)
   19cb0:	02813483          	ld	s1,40(sp)
   19cb4:	02013903          	ld	s2,32(sp)
   19cb8:	01813983          	ld	s3,24(sp)
   19cbc:	01013a03          	ld	s4,16(sp)
   19cc0:	00813a83          	ld	s5,8(sp)
   19cc4:	04010113          	addi	sp,sp,64
   19cc8:	00008067          	ret

0000000000019ccc <jinit_huff_decoder>:
   19ccc:	ff010113          	addi	sp,sp,-16
   19cd0:	00113423          	sd	ra,8(sp)
   19cd4:	00813023          	sd	s0,0(sp)
   19cd8:	00050413          	mv	s0,a0
   19cdc:	00853503          	ld	a0,8(a0)
   19ce0:	00053683          	ld	a3,0(a0)
   19ce4:	00100593          	li	a1,1
   19ce8:	17000613          	li	a2,368
   19cec:	00040513          	mv	a0,s0
   19cf0:	000680e7          	jalr	a3
   19cf4:	24a43823          	sd	a0,592(s0)
   19cf8:	0001a5b7          	lui	a1,0x1a
   19cfc:	d4058593          	addi	a1,a1,-704 # 19d40 <start_pass_huff_decoder>
   19d00:	00b53023          	sd	a1,0(a0)
   19d04:	0001a5b7          	lui	a1,0x1a
   19d08:	f0c58593          	addi	a1,a1,-244 # 19f0c <decode_mcu>
   19d0c:	00b53423          	sd	a1,8(a0)
   19d10:	06053c23          	sd	zero,120(a0)
   19d14:	06053823          	sd	zero,112(a0)
   19d18:	06053423          	sd	zero,104(a0)
   19d1c:	06053023          	sd	zero,96(a0)
   19d20:	04053c23          	sd	zero,88(a0)
   19d24:	04053823          	sd	zero,80(a0)
   19d28:	04053423          	sd	zero,72(a0)
   19d2c:	04053023          	sd	zero,64(a0)
   19d30:	00813083          	ld	ra,8(sp)
   19d34:	00013403          	ld	s0,0(sp)
   19d38:	01010113          	addi	sp,sp,16
   19d3c:	00008067          	ret

0000000000019d40 <start_pass_huff_decoder>:
   19d40:	fb010113          	addi	sp,sp,-80
   19d44:	04113423          	sd	ra,72(sp)
   19d48:	04813023          	sd	s0,64(sp)
   19d4c:	02913c23          	sd	s1,56(sp)
   19d50:	03213823          	sd	s2,48(sp)
   19d54:	03313423          	sd	s3,40(sp)
   19d58:	03413023          	sd	s4,32(sp)
   19d5c:	01513c23          	sd	s5,24(sp)
   19d60:	01613823          	sd	s6,16(sp)
   19d64:	01713423          	sd	s7,8(sp)
   19d68:	01813023          	sd	s8,0(sp)
   19d6c:	00050413          	mv	s0,a0
   19d70:	20c52503          	lw	a0,524(a0)
   19d74:	25043903          	ld	s2,592(s0)
   19d78:	02051063          	bnez	a0,19d98 <start_pass_huff_decoder+0x58>
   19d7c:	21042503          	lw	a0,528(s0)
   19d80:	03f00593          	li	a1,63
   19d84:	00b51a63          	bne	a0,a1,19d98 <start_pass_huff_decoder+0x58>
   19d88:	21442503          	lw	a0,532(s0)
   19d8c:	00051663          	bnez	a0,19d98 <start_pass_huff_decoder+0x58>
   19d90:	21842503          	lw	a0,536(s0)
   19d94:	02050063          	beqz	a0,19db4 <start_pass_huff_decoder+0x74>
   19d98:	00043503          	ld	a0,0(s0)
   19d9c:	00853603          	ld	a2,8(a0)
   19da0:	07a00593          	li	a1,122
   19da4:	02b52423          	sw	a1,40(a0)
   19da8:	fff00593          	li	a1,-1
   19dac:	00040513          	mv	a0,s0
   19db0:	000600e7          	jalr	a2
   19db4:	1b042503          	lw	a0,432(s0)
   19db8:	1b840993          	addi	s3,s0,440
   19dbc:	04090a13          	addi	s4,s2,64
   19dc0:	06090a93          	addi	s5,s2,96
   19dc4:	06a05063          	blez	a0,19e24 <start_pass_huff_decoder+0xe4>
   19dc8:	00000b13          	li	s6,0
   19dcc:	02890b93          	addi	s7,s2,40
   19dd0:	00098c13          	mv	s8,s3
   19dd4:	000c3503          	ld	a0,0(s8)
   19dd8:	01452603          	lw	a2,20(a0)
   19ddc:	01852483          	lw	s1,24(a0)
   19de0:	00361693          	slli	a3,a2,0x3
   19de4:	00da06b3          	add	a3,s4,a3
   19de8:	00100593          	li	a1,1
   19dec:	00040513          	mv	a0,s0
   19df0:	f75fe0ef          	jal	18d64 <jpeg_make_d_derived_tbl>
   19df4:	00349693          	slli	a3,s1,0x3
   19df8:	00da86b3          	add	a3,s5,a3
   19dfc:	00040513          	mv	a0,s0
   19e00:	00000593          	li	a1,0
   19e04:	00048613          	mv	a2,s1
   19e08:	f5dfe0ef          	jal	18d64 <jpeg_make_d_derived_tbl>
   19e0c:	000ba023          	sw	zero,0(s7)
   19e10:	1b042503          	lw	a0,432(s0)
   19e14:	001b0b13          	addi	s6,s6,1
   19e18:	004b8b93          	addi	s7,s7,4
   19e1c:	008c0c13          	addi	s8,s8,8
   19e20:	faab4ae3          	blt	s6,a0,19dd4 <start_pass_huff_decoder+0x94>
   19e24:	1e042503          	lw	a0,480(s0)
   19e28:	0aa05063          	blez	a0,19ec8 <start_pass_huff_decoder+0x188>
   19e2c:	00000513          	li	a0,0
   19e30:	1e440593          	addi	a1,s0,484
   19e34:	08090613          	addi	a2,s2,128
   19e38:	00100693          	li	a3,1
   19e3c:	00090713          	mv	a4,s2
   19e40:	0300006f          	j	19e70 <start_pass_huff_decoder+0x130>
   19e44:	00000793          	li	a5,0
   19e48:	14072423          	sw	zero,328(a4)
   19e4c:	12000813          	li	a6,288
   19e50:	01070833          	add	a6,a4,a6
   19e54:	00f82023          	sw	a5,0(a6)
   19e58:	1e042783          	lw	a5,480(s0)
   19e5c:	00150513          	addi	a0,a0,1
   19e60:	00470713          	addi	a4,a4,4
   19e64:	00458593          	addi	a1,a1,4
   19e68:	00860613          	addi	a2,a2,8
   19e6c:	04f55e63          	bge	a0,a5,19ec8 <start_pass_huff_decoder+0x188>
   19e70:	0005a783          	lw	a5,0(a1)
   19e74:	00379793          	slli	a5,a5,0x3
   19e78:	00f987b3          	add	a5,s3,a5
   19e7c:	0007b783          	ld	a5,0(a5)
   19e80:	0147a803          	lw	a6,20(a5)
   19e84:	00381813          	slli	a6,a6,0x3
   19e88:	010a0833          	add	a6,s4,a6
   19e8c:	00083803          	ld	a6,0(a6)
   19e90:	0187a883          	lw	a7,24(a5)
   19e94:	01063023          	sd	a6,0(a2)
   19e98:	00389893          	slli	a7,a7,0x3
   19e9c:	011a88b3          	add	a7,s5,a7
   19ea0:	0008b803          	ld	a6,0(a7)
   19ea4:	0307a883          	lw	a7,48(a5)
   19ea8:	05063823          	sd	a6,80(a2)
   19eac:	f8088ce3          	beqz	a7,19e44 <start_pass_huff_decoder+0x104>
   19eb0:	12d72023          	sw	a3,288(a4)
   19eb4:	0247a783          	lw	a5,36(a5)
   19eb8:	0027a793          	slti	a5,a5,2
   19ebc:	0017c793          	xori	a5,a5,1
   19ec0:	14800813          	li	a6,328
   19ec4:	f8dff06f          	j	19e50 <start_pass_huff_decoder+0x110>
   19ec8:	17042503          	lw	a0,368(s0)
   19ecc:	02092023          	sw	zero,32(s2)
   19ed0:	00093c23          	sd	zero,24(s2)
   19ed4:	00092823          	sw	zero,16(s2)
   19ed8:	02a92c23          	sw	a0,56(s2)
   19edc:	04813083          	ld	ra,72(sp)
   19ee0:	04013403          	ld	s0,64(sp)
   19ee4:	03813483          	ld	s1,56(sp)
   19ee8:	03013903          	ld	s2,48(sp)
   19eec:	02813983          	ld	s3,40(sp)
   19ef0:	02013a03          	ld	s4,32(sp)
   19ef4:	01813a83          	ld	s5,24(sp)
   19ef8:	01013b03          	ld	s6,16(sp)
   19efc:	00813b83          	ld	s7,8(sp)
   19f00:	00013c03          	ld	s8,0(sp)
   19f04:	05010113          	addi	sp,sp,80
   19f08:	00008067          	ret

0000000000019f0c <decode_mcu>:
   19f0c:	f3010113          	addi	sp,sp,-208
   19f10:	0c113423          	sd	ra,200(sp)
   19f14:	0c813023          	sd	s0,192(sp)
   19f18:	0a913c23          	sd	s1,184(sp)
   19f1c:	0b213823          	sd	s2,176(sp)
   19f20:	0b313423          	sd	s3,168(sp)
   19f24:	0b413023          	sd	s4,160(sp)
   19f28:	09513c23          	sd	s5,152(sp)
   19f2c:	09613823          	sd	s6,144(sp)
   19f30:	09713423          	sd	s7,136(sp)
   19f34:	09813023          	sd	s8,128(sp)
   19f38:	07913c23          	sd	s9,120(sp)
   19f3c:	07a13823          	sd	s10,112(sp)
   19f40:	07b13423          	sd	s11,104(sp)
   19f44:	00050413          	mv	s0,a0
   19f48:	17052503          	lw	a0,368(a0)
   19f4c:	25043a03          	ld	s4,592(s0)
   19f50:	00058493          	mv	s1,a1
   19f54:	00050663          	beqz	a0,19f60 <decode_mcu+0x54>
   19f58:	038a2503          	lw	a0,56(s4)
   19f5c:	48050c63          	beqz	a0,1a3f4 <decode_mcu+0x4e8>
   19f60:	010a2503          	lw	a0,16(s4)
   19f64:	04050863          	beqz	a0,19fb4 <decode_mcu+0xa8>
   19f68:	038a2503          	lw	a0,56(s4)
   19f6c:	fff50513          	addi	a0,a0,-1
   19f70:	02aa2c23          	sw	a0,56(s4)
   19f74:	00100513          	li	a0,1
   19f78:	0c813083          	ld	ra,200(sp)
   19f7c:	0c013403          	ld	s0,192(sp)
   19f80:	0b813483          	ld	s1,184(sp)
   19f84:	0b013903          	ld	s2,176(sp)
   19f88:	0a813983          	ld	s3,168(sp)
   19f8c:	0a013a03          	ld	s4,160(sp)
   19f90:	09813a83          	ld	s5,152(sp)
   19f94:	09013b03          	ld	s6,144(sp)
   19f98:	08813b83          	ld	s7,136(sp)
   19f9c:	08013c03          	ld	s8,128(sp)
   19fa0:	07813c83          	ld	s9,120(sp)
   19fa4:	07013d03          	ld	s10,112(sp)
   19fa8:	06813d83          	ld	s11,104(sp)
   19fac:	0d010113          	addi	sp,sp,208
   19fb0:	00008067          	ret
   19fb4:	02843503          	ld	a0,40(s0)
   19fb8:	00053683          	ld	a3,0(a0)
   19fbc:	00853703          	ld	a4,8(a0)
   19fc0:	06813023          	sd	s0,96(sp)
   19fc4:	04d13023          	sd	a3,64(sp)
   19fc8:	04e13423          	sd	a4,72(sp)
   19fcc:	02ca6783          	lwu	a5,44(s4)
   19fd0:	028a6803          	lwu	a6,40(s4)
   19fd4:	018a3583          	ld	a1,24(s4)
   19fd8:	020a2603          	lw	a2,32(s4)
   19fdc:	02079793          	slli	a5,a5,0x20
   19fe0:	0107e7b3          	or	a5,a5,a6
   19fe4:	034a6803          	lwu	a6,52(s4)
   19fe8:	030a6883          	lwu	a7,48(s4)
   19fec:	1e042283          	lw	t0,480(s0)
   19ff0:	02f13823          	sd	a5,48(sp)
   19ff4:	02081813          	slli	a6,a6,0x20
   19ff8:	011867b3          	or	a5,a6,a7
   19ffc:	02f13c23          	sd	a5,56(sp)
   1a000:	3c505063          	blez	t0,1a3c0 <decode_mcu+0x4b4>
   1a004:	00000a93          	li	s5,0
   1a008:	080a0b13          	addi	s6,s4,128
   1a00c:	0d0a0b93          	addi	s7,s4,208
   1a010:	120a0c13          	addi	s8,s4,288
   1a014:	1e440513          	addi	a0,s0,484
   1a018:	02a13023          	sd	a0,32(sp)
   1a01c:	148a0513          	addi	a0,s4,328
   1a020:	02a13423          	sd	a0,40(sp)
   1a024:	00700d93          	li	s11,7
   1a028:	03f00d13          	li	s10,63
   1a02c:	00913c23          	sd	s1,24(sp)
   1a030:	01613823          	sd	s6,16(sp)
   1a034:	01713423          	sd	s7,8(sp)
   1a038:	01813023          	sd	s8,0(sp)
   1a03c:	003a9513          	slli	a0,s5,0x3
   1a040:	00a486b3          	add	a3,s1,a0
   1a044:	0006bc83          	ld	s9,0(a3)
   1a048:	00ab06b3          	add	a3,s6,a0
   1a04c:	0006b983          	ld	s3,0(a3)
   1a050:	00ab8533          	add	a0,s7,a0
   1a054:	00053903          	ld	s2,0(a0)
   1a058:	02cdc663          	blt	s11,a2,1a084 <decode_mcu+0x178>
   1a05c:	04010513          	addi	a0,sp,64
   1a060:	00000693          	li	a3,0
   1a064:	971ff0ef          	jal	199d4 <jpeg_fill_bit_buffer>
   1a068:	f00508e3          	beqz	a0,19f78 <decode_mcu+0x6c>
   1a06c:	05812603          	lw	a2,88(sp)
   1a070:	05013583          	ld	a1,80(sp)
   1a074:	00cdc863          	blt	s11,a2,1a084 <decode_mcu+0x178>
   1a078:	04010513          	addi	a0,sp,64
   1a07c:	00100713          	li	a4,1
   1a080:	0400006f          	j	1a0c0 <decode_mcu+0x1b4>
   1a084:	ff860513          	addi	a0,a2,-8
   1a088:	40a5d533          	sra	a0,a1,a0
   1a08c:	0ff57513          	zext.b	a0,a0
   1a090:	00251693          	slli	a3,a0,0x2
   1a094:	00d986b3          	add	a3,s3,a3
   1a098:	1206a683          	lw	a3,288(a3)
   1a09c:	00068e63          	beqz	a3,1a0b8 <decode_mcu+0x1ac>
   1a0a0:	00a98533          	add	a0,s3,a0
   1a0a4:	52054983          	lbu	s3,1312(a0)
   1a0a8:	40d6063b          	subw	a2,a2,a3
   1a0ac:	02099863          	bnez	s3,1a0dc <decode_mcu+0x1d0>
   1a0b0:	00000513          	li	a0,0
   1a0b4:	0880006f          	j	1a13c <decode_mcu+0x230>
   1a0b8:	04010513          	addi	a0,sp,64
   1a0bc:	00900713          	li	a4,9
   1a0c0:	00098693          	mv	a3,s3
   1a0c4:	abdff0ef          	jal	19b80 <jpeg_huff_decode>
   1a0c8:	00050993          	mv	s3,a0
   1a0cc:	38054e63          	bltz	a0,1a468 <decode_mcu+0x55c>
   1a0d0:	05013583          	ld	a1,80(sp)
   1a0d4:	05812603          	lw	a2,88(sp)
   1a0d8:	fc098ce3          	beqz	s3,1a0b0 <decode_mcu+0x1a4>
   1a0dc:	01365e63          	bge	a2,s3,1a0f8 <decode_mcu+0x1ec>
   1a0e0:	04010513          	addi	a0,sp,64
   1a0e4:	00098693          	mv	a3,s3
   1a0e8:	8edff0ef          	jal	199d4 <jpeg_fill_bit_buffer>
   1a0ec:	e80506e3          	beqz	a0,19f78 <decode_mcu+0x6c>
   1a0f0:	05013583          	ld	a1,80(sp)
   1a0f4:	05812603          	lw	a2,88(sp)
   1a0f8:	4136063b          	subw	a2,a2,s3
   1a0fc:	40c5d533          	sra	a0,a1,a2
   1a100:	00299693          	slli	a3,s3,0x2
   1a104:	00028737          	lui	a4,0x28
   1a108:	03470713          	addi	a4,a4,52 # 28034 <extend_test>
   1a10c:	00d70733          	add	a4,a4,a3
   1a110:	00072703          	lw	a4,0(a4)
   1a114:	fff00793          	li	a5,-1
   1a118:	013797bb          	sllw	a5,a5,s3
   1a11c:	fff7c793          	not	a5,a5
   1a120:	00f57533          	and	a0,a0,a5
   1a124:	00e55c63          	bge	a0,a4,1a13c <decode_mcu+0x230>
   1a128:	00028737          	lui	a4,0x28
   1a12c:	07470713          	addi	a4,a4,116 # 28074 <extend_offset>
   1a130:	00d706b3          	add	a3,a4,a3
   1a134:	0006a683          	lw	a3,0(a3)
   1a138:	00a68533          	add	a0,a3,a0
   1a13c:	002a9693          	slli	a3,s5,0x2
   1a140:	00dc0733          	add	a4,s8,a3
   1a144:	00072703          	lw	a4,0(a4)
   1a148:	02070663          	beqz	a4,1a174 <decode_mcu+0x268>
   1a14c:	02013703          	ld	a4,32(sp)
   1a150:	00d70733          	add	a4,a4,a3
   1a154:	00072703          	lw	a4,0(a4)
   1a158:	00271713          	slli	a4,a4,0x2
   1a15c:	03010793          	addi	a5,sp,48
   1a160:	00e78733          	add	a4,a5,a4
   1a164:	00072783          	lw	a5,0(a4)
   1a168:	00a78533          	add	a0,a5,a0
   1a16c:	00a72023          	sw	a0,0(a4)
   1a170:	00ac9023          	sh	a0,0(s9)
   1a174:	02813503          	ld	a0,40(sp)
   1a178:	00d506b3          	add	a3,a0,a3
   1a17c:	0006a503          	lw	a0,0(a3)
   1a180:	12090c13          	addi	s8,s2,288
   1a184:	52090b13          	addi	s6,s2,1312
   1a188:	00100b93          	li	s7,1
   1a18c:	02051a63          	bnez	a0,1a1c0 <decode_mcu+0x2b4>
   1a190:	1540006f          	j	1a2e4 <decode_mcu+0x3d8>
   1a194:	0174853b          	addw	a0,s1,s7
   1a198:	00251713          	slli	a4,a0,0x2
   1a19c:	000287b7          	lui	a5,0x28
   1a1a0:	2dc78793          	addi	a5,a5,732 # 282dc <jpeg_natural_order>
   1a1a4:	00e78733          	add	a4,a5,a4
   1a1a8:	00072703          	lw	a4,0(a4)
   1a1ac:	00171713          	slli	a4,a4,0x1
   1a1b0:	00ec8733          	add	a4,s9,a4
   1a1b4:	00d71023          	sh	a3,0(a4)
   1a1b8:	00150b93          	addi	s7,a0,1
   1a1bc:	1da55e63          	bge	a0,s10,1a398 <decode_mcu+0x48c>
   1a1c0:	02cdcc63          	blt	s11,a2,1a1f8 <decode_mcu+0x2ec>
   1a1c4:	04010513          	addi	a0,sp,64
   1a1c8:	00000693          	li	a3,0
   1a1cc:	809ff0ef          	jal	199d4 <jpeg_fill_bit_buffer>
   1a1d0:	da0504e3          	beqz	a0,19f78 <decode_mcu+0x6c>
   1a1d4:	05812603          	lw	a2,88(sp)
   1a1d8:	05013583          	ld	a1,80(sp)
   1a1dc:	00cdce63          	blt	s11,a2,1a1f8 <decode_mcu+0x2ec>
   1a1e0:	04010513          	addi	a0,sp,64
   1a1e4:	00100713          	li	a4,1
   1a1e8:	00090693          	mv	a3,s2
   1a1ec:	995ff0ef          	jal	19b80 <jpeg_huff_decode>
   1a1f0:	06055463          	bgez	a0,1a258 <decode_mcu+0x34c>
   1a1f4:	2740006f          	j	1a468 <decode_mcu+0x55c>
   1a1f8:	ff860513          	addi	a0,a2,-8
   1a1fc:	40a5d533          	sra	a0,a1,a0
   1a200:	0ff57513          	zext.b	a0,a0
   1a204:	00251693          	slli	a3,a0,0x2
   1a208:	00dc06b3          	add	a3,s8,a3
   1a20c:	0006a683          	lw	a3,0(a3)
   1a210:	02068a63          	beqz	a3,1a244 <decode_mcu+0x338>
   1a214:	00ab0533          	add	a0,s6,a0
   1a218:	00054503          	lbu	a0,0(a0)
   1a21c:	40d6063b          	subw	a2,a2,a3
   1a220:	00f57993          	andi	s3,a0,15
   1a224:	0045549b          	srliw	s1,a0,0x4
   1a228:	04099263          	bnez	s3,1a26c <decode_mcu+0x360>
   1a22c:	00f00513          	li	a0,15
   1a230:	16a49463          	bne	s1,a0,1a398 <decode_mcu+0x48c>
   1a234:	00fb851b          	addiw	a0,s7,15
   1a238:	00150b93          	addi	s7,a0,1
   1a23c:	f9a542e3          	blt	a0,s10,1a1c0 <decode_mcu+0x2b4>
   1a240:	1580006f          	j	1a398 <decode_mcu+0x48c>
   1a244:	04010513          	addi	a0,sp,64
   1a248:	00900713          	li	a4,9
   1a24c:	00090693          	mv	a3,s2
   1a250:	931ff0ef          	jal	19b80 <jpeg_huff_decode>
   1a254:	20054a63          	bltz	a0,1a468 <decode_mcu+0x55c>
   1a258:	05013583          	ld	a1,80(sp)
   1a25c:	05812603          	lw	a2,88(sp)
   1a260:	00f57993          	andi	s3,a0,15
   1a264:	0045549b          	srliw	s1,a0,0x4
   1a268:	fc0982e3          	beqz	s3,1a22c <decode_mcu+0x320>
   1a26c:	01365e63          	bge	a2,s3,1a288 <decode_mcu+0x37c>
   1a270:	04010513          	addi	a0,sp,64
   1a274:	00098693          	mv	a3,s3
   1a278:	f5cff0ef          	jal	199d4 <jpeg_fill_bit_buffer>
   1a27c:	ce050ee3          	beqz	a0,19f78 <decode_mcu+0x6c>
   1a280:	05013583          	ld	a1,80(sp)
   1a284:	05812603          	lw	a2,88(sp)
   1a288:	4136063b          	subw	a2,a2,s3
   1a28c:	40c5d6b3          	sra	a3,a1,a2
   1a290:	00299513          	slli	a0,s3,0x2
   1a294:	00028737          	lui	a4,0x28
   1a298:	03470713          	addi	a4,a4,52 # 28034 <extend_test>
   1a29c:	00a70733          	add	a4,a4,a0
   1a2a0:	00072703          	lw	a4,0(a4)
   1a2a4:	fff00793          	li	a5,-1
   1a2a8:	013797bb          	sllw	a5,a5,s3
   1a2ac:	fff7c793          	not	a5,a5
   1a2b0:	00f6f6b3          	and	a3,a3,a5
   1a2b4:	eee6d0e3          	bge	a3,a4,1a194 <decode_mcu+0x288>
   1a2b8:	00028737          	lui	a4,0x28
   1a2bc:	07470713          	addi	a4,a4,116 # 28074 <extend_offset>
   1a2c0:	00a70533          	add	a0,a4,a0
   1a2c4:	00052503          	lw	a0,0(a0)
   1a2c8:	00d506b3          	add	a3,a0,a3
   1a2cc:	ec9ff06f          	j	1a194 <decode_mcu+0x288>
   1a2d0:	4136063b          	subw	a2,a2,s3
   1a2d4:	009b84b3          	add	s1,s7,s1
   1a2d8:	00148b9b          	addiw	s7,s1,1
   1a2dc:	04000513          	li	a0,64
   1a2e0:	0aabdc63          	bge	s7,a0,1a398 <decode_mcu+0x48c>
   1a2e4:	02cdc663          	blt	s11,a2,1a310 <decode_mcu+0x404>
   1a2e8:	04010513          	addi	a0,sp,64
   1a2ec:	00000693          	li	a3,0
   1a2f0:	ee4ff0ef          	jal	199d4 <jpeg_fill_bit_buffer>
   1a2f4:	c80502e3          	beqz	a0,19f78 <decode_mcu+0x6c>
   1a2f8:	05812603          	lw	a2,88(sp)
   1a2fc:	05013583          	ld	a1,80(sp)
   1a300:	00cdc863          	blt	s11,a2,1a310 <decode_mcu+0x404>
   1a304:	04010513          	addi	a0,sp,64
   1a308:	00100713          	li	a4,1
   1a30c:	04c0006f          	j	1a358 <decode_mcu+0x44c>
   1a310:	ff860513          	addi	a0,a2,-8
   1a314:	40a5d533          	sra	a0,a1,a0
   1a318:	0ff57513          	zext.b	a0,a0
   1a31c:	00251693          	slli	a3,a0,0x2
   1a320:	00dc06b3          	add	a3,s8,a3
   1a324:	0006a683          	lw	a3,0(a3)
   1a328:	02068463          	beqz	a3,1a350 <decode_mcu+0x444>
   1a32c:	00ab0533          	add	a0,s6,a0
   1a330:	00054503          	lbu	a0,0(a0)
   1a334:	40d6063b          	subw	a2,a2,a3
   1a338:	00f57993          	andi	s3,a0,15
   1a33c:	0045549b          	srliw	s1,a0,0x4
   1a340:	02099c63          	bnez	s3,1a378 <decode_mcu+0x46c>
   1a344:	00f00513          	li	a0,15
   1a348:	f8a486e3          	beq	s1,a0,1a2d4 <decode_mcu+0x3c8>
   1a34c:	04c0006f          	j	1a398 <decode_mcu+0x48c>
   1a350:	04010513          	addi	a0,sp,64
   1a354:	00900713          	li	a4,9
   1a358:	00090693          	mv	a3,s2
   1a35c:	825ff0ef          	jal	19b80 <jpeg_huff_decode>
   1a360:	10054463          	bltz	a0,1a468 <decode_mcu+0x55c>
   1a364:	05013583          	ld	a1,80(sp)
   1a368:	05812603          	lw	a2,88(sp)
   1a36c:	00f57993          	andi	s3,a0,15
   1a370:	0045549b          	srliw	s1,a0,0x4
   1a374:	fc0988e3          	beqz	s3,1a344 <decode_mcu+0x438>
   1a378:	f5365ce3          	bge	a2,s3,1a2d0 <decode_mcu+0x3c4>
   1a37c:	04010513          	addi	a0,sp,64
   1a380:	00098693          	mv	a3,s3
   1a384:	e50ff0ef          	jal	199d4 <jpeg_fill_bit_buffer>
   1a388:	be0508e3          	beqz	a0,19f78 <decode_mcu+0x6c>
   1a38c:	05013583          	ld	a1,80(sp)
   1a390:	05812603          	lw	a2,88(sp)
   1a394:	f3dff06f          	j	1a2d0 <decode_mcu+0x3c4>
   1a398:	1e042503          	lw	a0,480(s0)
   1a39c:	001a8a93          	addi	s5,s5,1
   1a3a0:	01813483          	ld	s1,24(sp)
   1a3a4:	01013b03          	ld	s6,16(sp)
   1a3a8:	00813b83          	ld	s7,8(sp)
   1a3ac:	00013c03          	ld	s8,0(sp)
   1a3b0:	c8aac6e3          	blt	s5,a0,1a03c <decode_mcu+0x130>
   1a3b4:	04013683          	ld	a3,64(sp)
   1a3b8:	02843503          	ld	a0,40(s0)
   1a3bc:	04813703          	ld	a4,72(sp)
   1a3c0:	00d53023          	sd	a3,0(a0)
   1a3c4:	00e53423          	sd	a4,8(a0)
   1a3c8:	00ba3c23          	sd	a1,24(s4)
   1a3cc:	02ca2023          	sw	a2,32(s4)
   1a3d0:	03012503          	lw	a0,48(sp)
   1a3d4:	03412583          	lw	a1,52(sp)
   1a3d8:	03812603          	lw	a2,56(sp)
   1a3dc:	03c12683          	lw	a3,60(sp)
   1a3e0:	02aa2423          	sw	a0,40(s4)
   1a3e4:	02ba2623          	sw	a1,44(s4)
   1a3e8:	02ca2823          	sw	a2,48(s4)
   1a3ec:	02da2a23          	sw	a3,52(s4)
   1a3f0:	b79ff06f          	j	19f68 <decode_mcu+0x5c>
   1a3f4:	020a2503          	lw	a0,32(s4)
   1a3f8:	24843583          	ld	a1,584(s0)
   1a3fc:	00151613          	slli	a2,a0,0x1
   1a400:	03d65613          	srli	a2,a2,0x3d
   1a404:	0245a683          	lw	a3,36(a1)
   1a408:	00c50533          	add	a0,a0,a2
   1a40c:	4035551b          	sraiw	a0,a0,0x3
   1a410:	0105b603          	ld	a2,16(a1)
   1a414:	00a68533          	add	a0,a3,a0
   1a418:	02a5a223          	sw	a0,36(a1)
   1a41c:	020a2023          	sw	zero,32(s4)
   1a420:	00040513          	mv	a0,s0
   1a424:	000600e7          	jalr	a2
   1a428:	b40508e3          	beqz	a0,19f78 <decode_mcu+0x6c>
   1a42c:	1b042503          	lw	a0,432(s0)
   1a430:	02a05063          	blez	a0,1a450 <decode_mcu+0x544>
   1a434:	00000513          	li	a0,0
   1a438:	028a0593          	addi	a1,s4,40
   1a43c:	0005a023          	sw	zero,0(a1)
   1a440:	1b042603          	lw	a2,432(s0)
   1a444:	00150513          	addi	a0,a0,1
   1a448:	00458593          	addi	a1,a1,4
   1a44c:	fec548e3          	blt	a0,a2,1a43c <decode_mcu+0x530>
   1a450:	17042503          	lw	a0,368(s0)
   1a454:	21c42583          	lw	a1,540(s0)
   1a458:	02aa2c23          	sw	a0,56(s4)
   1a45c:	b00592e3          	bnez	a1,19f60 <decode_mcu+0x54>
   1a460:	000a2823          	sw	zero,16(s4)
   1a464:	afdff06f          	j	19f60 <decode_mcu+0x54>
   1a468:	00000513          	li	a0,0
   1a46c:	b0dff06f          	j	19f78 <decode_mcu+0x6c>

000000000001a470 <jinit_phuff_decoder>:
   1a470:	fe010113          	addi	sp,sp,-32
   1a474:	00113c23          	sd	ra,24(sp)
   1a478:	00813823          	sd	s0,16(sp)
   1a47c:	00913423          	sd	s1,8(sp)
   1a480:	01213023          	sd	s2,0(sp)
   1a484:	00050413          	mv	s0,a0
   1a488:	00853503          	ld	a0,8(a0)
   1a48c:	00053683          	ld	a3,0(a0)
   1a490:	00100593          	li	a1,1
   1a494:	06800613          	li	a2,104
   1a498:	00040513          	mv	a0,s0
   1a49c:	000680e7          	jalr	a3
   1a4a0:	24a43823          	sd	a0,592(s0)
   1a4a4:	04053c23          	sd	zero,88(a0)
   1a4a8:	04053823          	sd	zero,80(a0)
   1a4ac:	04053423          	sd	zero,72(a0)
   1a4b0:	04053023          	sd	zero,64(a0)
   1a4b4:	00843583          	ld	a1,8(s0)
   1a4b8:	03842603          	lw	a2,56(s0)
   1a4bc:	0001a6b7          	lui	a3,0x1a
   1a4c0:	52c68693          	addi	a3,a3,1324 # 1a52c <start_pass_phuff_decoder>
   1a4c4:	0005b703          	ld	a4,0(a1)
   1a4c8:	00d53023          	sd	a3,0(a0)
   1a4cc:	0066161b          	slliw	a2,a2,0x6
   1a4d0:	00261613          	slli	a2,a2,0x2
   1a4d4:	00100593          	li	a1,1
   1a4d8:	00040513          	mv	a0,s0
   1a4dc:	000700e7          	jalr	a4
   1a4e0:	03842583          	lw	a1,56(s0)
   1a4e4:	0ca43023          	sd	a0,192(s0)
   1a4e8:	02b05663          	blez	a1,1a514 <jinit_phuff_decoder+0xa4>
   1a4ec:	00050493          	mv	s1,a0
   1a4f0:	00000913          	li	s2,0
   1a4f4:	0ff00593          	li	a1,255
   1a4f8:	10000613          	li	a2,256
   1a4fc:	00048513          	mv	a0,s1
   1a500:	f50f60ef          	jal	10c50 <memset@plt>
   1a504:	03842503          	lw	a0,56(s0)
   1a508:	0019091b          	addiw	s2,s2,1
   1a50c:	10048493          	addi	s1,s1,256
   1a510:	fea942e3          	blt	s2,a0,1a4f4 <jinit_phuff_decoder+0x84>
   1a514:	01813083          	ld	ra,24(sp)
   1a518:	01013403          	ld	s0,16(sp)
   1a51c:	00813483          	ld	s1,8(sp)
   1a520:	00013903          	ld	s2,0(sp)
   1a524:	02010113          	addi	sp,sp,32
   1a528:	00008067          	ret

000000000001a52c <start_pass_phuff_decoder>:
   1a52c:	fa010113          	addi	sp,sp,-96
   1a530:	04113c23          	sd	ra,88(sp)
   1a534:	04813823          	sd	s0,80(sp)
   1a538:	04913423          	sd	s1,72(sp)
   1a53c:	05213023          	sd	s2,64(sp)
   1a540:	03313c23          	sd	s3,56(sp)
   1a544:	03413823          	sd	s4,48(sp)
   1a548:	03513423          	sd	s5,40(sp)
   1a54c:	03613023          	sd	s6,32(sp)
   1a550:	01713c23          	sd	s7,24(sp)
   1a554:	01813823          	sd	s8,16(sp)
   1a558:	01913423          	sd	s9,8(sp)
   1a55c:	01a13023          	sd	s10,0(sp)
   1a560:	00050413          	mv	s0,a0
   1a564:	20c52483          	lw	s1,524(a0)
   1a568:	21052503          	lw	a0,528(a0)
   1a56c:	02048c63          	beqz	s1,1a5a4 <start_pass_phuff_decoder+0x78>
   1a570:	009525b3          	slt	a1,a0,s1
   1a574:	1b042603          	lw	a2,432(s0)
   1a578:	04052513          	slti	a0,a0,64
   1a57c:	00154513          	xori	a0,a0,1
   1a580:	00a5e533          	or	a0,a1,a0
   1a584:	fff60613          	addi	a2,a2,-1
   1a588:	00c035b3          	snez	a1,a2
   1a58c:	00a5e533          	or	a0,a1,a0
   1a590:	21842583          	lw	a1,536(s0)
   1a594:	25043903          	ld	s2,592(s0)
   1a598:	00d00613          	li	a2,13
   1a59c:	00b65e63          	bge	a2,a1,1a5b8 <start_pass_phuff_decoder+0x8c>
   1a5a0:	0440006f          	j	1a5e4 <start_pass_phuff_decoder+0xb8>
   1a5a4:	00a03533          	snez	a0,a0
   1a5a8:	21842583          	lw	a1,536(s0)
   1a5ac:	25043903          	ld	s2,592(s0)
   1a5b0:	00d00613          	li	a2,13
   1a5b4:	02b64863          	blt	a2,a1,1a5e4 <start_pass_phuff_decoder+0xb8>
   1a5b8:	21442603          	lw	a2,532(s0)
   1a5bc:	00c036b3          	snez	a3,a2
   1a5c0:	fff6061b          	addiw	a2,a2,-1
   1a5c4:	00c5c5b3          	xor	a1,a1,a2
   1a5c8:	00b035b3          	snez	a1,a1
   1a5cc:	00b6f5b3          	and	a1,a3,a1
   1a5d0:	00059a63          	bnez	a1,1a5e4 <start_pass_phuff_decoder+0xb8>
   1a5d4:	00051863          	bnez	a0,1a5e4 <start_pass_phuff_decoder+0xb8>
   1a5d8:	1b042503          	lw	a0,432(s0)
   1a5dc:	04a04a63          	bgtz	a0,1a630 <start_pass_phuff_decoder+0x104>
   1a5e0:	2100006f          	j	1a7f0 <start_pass_phuff_decoder+0x2c4>
   1a5e4:	00043503          	ld	a0,0(s0)
   1a5e8:	02952623          	sw	s1,44(a0)
   1a5ec:	21042583          	lw	a1,528(s0)
   1a5f0:	00043603          	ld	a2,0(s0)
   1a5f4:	01000693          	li	a3,16
   1a5f8:	02d52423          	sw	a3,40(a0)
   1a5fc:	02b62823          	sw	a1,48(a2)
   1a600:	21442503          	lw	a0,532(s0)
   1a604:	00043583          	ld	a1,0(s0)
   1a608:	02a5aa23          	sw	a0,52(a1)
   1a60c:	21842503          	lw	a0,536(s0)
   1a610:	00043583          	ld	a1,0(s0)
   1a614:	02a5ac23          	sw	a0,56(a1)
   1a618:	00043503          	ld	a0,0(s0)
   1a61c:	00053583          	ld	a1,0(a0)
   1a620:	00040513          	mv	a0,s0
   1a624:	000580e7          	jalr	a1
   1a628:	1b042503          	lw	a0,432(s0)
   1a62c:	1ca05263          	blez	a0,1a7f0 <start_pass_phuff_decoder+0x2c4>
   1a630:	1b840993          	addi	s3,s0,440
   1a634:	0e048c63          	beqz	s1,1a72c <start_pass_phuff_decoder+0x200>
   1a638:	00000a13          	li	s4,0
   1a63c:	07300a93          	li	s5,115
   1a640:	0100006f          	j	1a650 <start_pass_phuff_decoder+0x124>
   1a644:	1b042503          	lw	a0,432(s0)
   1a648:	001a0a13          	addi	s4,s4,1
   1a64c:	1aaa5263          	bge	s4,a0,1a7f0 <start_pass_phuff_decoder+0x2c4>
   1a650:	003a1513          	slli	a0,s4,0x3
   1a654:	00a98533          	add	a0,s3,a0
   1a658:	00053503          	ld	a0,0(a0)
   1a65c:	00452b03          	lw	s6,4(a0)
   1a660:	0c043c83          	ld	s9,192(s0)
   1a664:	008b1d13          	slli	s10,s6,0x8
   1a668:	01ac8533          	add	a0,s9,s10
   1a66c:	00052503          	lw	a0,0(a0)
   1a670:	00054a63          	bltz	a0,1a684 <start_pass_phuff_decoder+0x158>
   1a674:	20c42b83          	lw	s7,524(s0)
   1a678:	21042503          	lw	a0,528(s0)
   1a67c:	fd7544e3          	blt	a0,s7,1a644 <start_pass_phuff_decoder+0x118>
   1a680:	0380006f          	j	1a6b8 <start_pass_phuff_decoder+0x18c>
   1a684:	00043503          	ld	a0,0(s0)
   1a688:	03652623          	sw	s6,44(a0)
   1a68c:	00043583          	ld	a1,0(s0)
   1a690:	03552423          	sw	s5,40(a0)
   1a694:	0205a823          	sw	zero,48(a1)
   1a698:	00043503          	ld	a0,0(s0)
   1a69c:	00853603          	ld	a2,8(a0)
   1a6a0:	fff00593          	li	a1,-1
   1a6a4:	00040513          	mv	a0,s0
   1a6a8:	000600e7          	jalr	a2
   1a6ac:	20c42b83          	lw	s7,524(s0)
   1a6b0:	21042503          	lw	a0,528(s0)
   1a6b4:	f97548e3          	blt	a0,s7,1a644 <start_pass_phuff_decoder+0x118>
   1a6b8:	fffb8c13          	addi	s8,s7,-1
   1a6bc:	002b9513          	slli	a0,s7,0x2
   1a6c0:	00ac8533          	add	a0,s9,a0
   1a6c4:	01a50cb3          	add	s9,a0,s10
   1a6c8:	0200006f          	j	1a6e8 <start_pass_phuff_decoder+0x1bc>
   1a6cc:	21842503          	lw	a0,536(s0)
   1a6d0:	00aca023          	sw	a0,0(s9)
   1a6d4:	21042503          	lw	a0,528(s0)
   1a6d8:	001c0c13          	addi	s8,s8,1
   1a6dc:	001b8b93          	addi	s7,s7,1
   1a6e0:	004c8c93          	addi	s9,s9,4
   1a6e4:	f6ac50e3          	bge	s8,a0,1a644 <start_pass_phuff_decoder+0x118>
   1a6e8:	000ca503          	lw	a0,0(s9)
   1a6ec:	21442583          	lw	a1,532(s0)
   1a6f0:	00a02633          	sgtz	a2,a0
   1a6f4:	40c00633          	neg	a2,a2
   1a6f8:	00a67533          	and	a0,a2,a0
   1a6fc:	fca588e3          	beq	a1,a0,1a6cc <start_pass_phuff_decoder+0x1a0>
   1a700:	00043503          	ld	a0,0(s0)
   1a704:	03652623          	sw	s6,44(a0)
   1a708:	00043583          	ld	a1,0(s0)
   1a70c:	03552423          	sw	s5,40(a0)
   1a710:	0375a823          	sw	s7,48(a1)
   1a714:	00043503          	ld	a0,0(s0)
   1a718:	00853603          	ld	a2,8(a0)
   1a71c:	fff00593          	li	a1,-1
   1a720:	00040513          	mv	a0,s0
   1a724:	000600e7          	jalr	a2
   1a728:	fa5ff06f          	j	1a6cc <start_pass_phuff_decoder+0x1a0>
   1a72c:	20c42603          	lw	a2,524(s0)
   1a730:	21042583          	lw	a1,528(s0)
   1a734:	00c5d863          	bge	a1,a2,1a744 <start_pass_phuff_decoder+0x218>
   1a738:	21442583          	lw	a1,532(s0)
   1a73c:	10058063          	beqz	a1,1a83c <start_pass_phuff_decoder+0x310>
   1a740:	0d00006f          	j	1a810 <start_pass_phuff_decoder+0x2e4>
   1a744:	00000a13          	li	s4,0
   1a748:	07300a93          	li	s5,115
   1a74c:	0100006f          	j	1a75c <start_pass_phuff_decoder+0x230>
   1a750:	1b042503          	lw	a0,432(s0)
   1a754:	001a0a13          	addi	s4,s4,1
   1a758:	08aa5c63          	bge	s4,a0,1a7f0 <start_pass_phuff_decoder+0x2c4>
   1a75c:	20c42b03          	lw	s6,524(s0)
   1a760:	ff65cae3          	blt	a1,s6,1a754 <start_pass_phuff_decoder+0x228>
   1a764:	003a1513          	slli	a0,s4,0x3
   1a768:	00a98533          	add	a0,s3,a0
   1a76c:	00053503          	ld	a0,0(a0)
   1a770:	00452b83          	lw	s7,4(a0)
   1a774:	0c043503          	ld	a0,192(s0)
   1a778:	fffb0c13          	addi	s8,s6,-1
   1a77c:	008b9c93          	slli	s9,s7,0x8
   1a780:	002b1593          	slli	a1,s6,0x2
   1a784:	00b50533          	add	a0,a0,a1
   1a788:	01950cb3          	add	s9,a0,s9
   1a78c:	0200006f          	j	1a7ac <start_pass_phuff_decoder+0x280>
   1a790:	21842503          	lw	a0,536(s0)
   1a794:	00aca023          	sw	a0,0(s9)
   1a798:	21042583          	lw	a1,528(s0)
   1a79c:	001c0c13          	addi	s8,s8,1
   1a7a0:	001b0b13          	addi	s6,s6,1
   1a7a4:	004c8c93          	addi	s9,s9,4
   1a7a8:	fabc54e3          	bge	s8,a1,1a750 <start_pass_phuff_decoder+0x224>
   1a7ac:	000ca503          	lw	a0,0(s9)
   1a7b0:	21442583          	lw	a1,532(s0)
   1a7b4:	00a02633          	sgtz	a2,a0
   1a7b8:	40c00633          	neg	a2,a2
   1a7bc:	00a67533          	and	a0,a2,a0
   1a7c0:	fca588e3          	beq	a1,a0,1a790 <start_pass_phuff_decoder+0x264>
   1a7c4:	00043503          	ld	a0,0(s0)
   1a7c8:	03752623          	sw	s7,44(a0)
   1a7cc:	00043583          	ld	a1,0(s0)
   1a7d0:	03552423          	sw	s5,40(a0)
   1a7d4:	0365a823          	sw	s6,48(a1)
   1a7d8:	00043503          	ld	a0,0(s0)
   1a7dc:	00853603          	ld	a2,8(a0)
   1a7e0:	fff00593          	li	a1,-1
   1a7e4:	00040513          	mv	a0,s0
   1a7e8:	000600e7          	jalr	a2
   1a7ec:	fa5ff06f          	j	1a790 <start_pass_phuff_decoder+0x264>
   1a7f0:	21442583          	lw	a1,532(s0)
   1a7f4:	02058863          	beqz	a1,1a824 <start_pass_phuff_decoder+0x2f8>
   1a7f8:	00048c63          	beqz	s1,1a810 <start_pass_phuff_decoder+0x2e4>
   1a7fc:	0001b5b7          	lui	a1,0x1b
   1a800:	11458593          	addi	a1,a1,276 # 1b114 <decode_mcu_AC_refine>
   1a804:	00b93423          	sd	a1,8(s2)
   1a808:	04a04263          	bgtz	a0,1a84c <start_pass_phuff_decoder+0x320>
   1a80c:	0940006f          	j	1a8a0 <start_pass_phuff_decoder+0x374>
   1a810:	0001b5b7          	lui	a1,0x1b
   1a814:	f7058593          	addi	a1,a1,-144 # 1af70 <decode_mcu_DC_refine>
   1a818:	00b93423          	sd	a1,8(s2)
   1a81c:	02a04863          	bgtz	a0,1a84c <start_pass_phuff_decoder+0x320>
   1a820:	0800006f          	j	1a8a0 <start_pass_phuff_decoder+0x374>
   1a824:	00048c63          	beqz	s1,1a83c <start_pass_phuff_decoder+0x310>
   1a828:	0001b5b7          	lui	a1,0x1b
   1a82c:	c4c58593          	addi	a1,a1,-948 # 1ac4c <decode_mcu_AC_first>
   1a830:	00b93423          	sd	a1,8(s2)
   1a834:	00a04c63          	bgtz	a0,1a84c <start_pass_phuff_decoder+0x320>
   1a838:	0680006f          	j	1a8a0 <start_pass_phuff_decoder+0x374>
   1a83c:	0001b5b7          	lui	a1,0x1b
   1a840:	93058593          	addi	a1,a1,-1744 # 1a930 <decode_mcu_DC_first>
   1a844:	00b93423          	sd	a1,8(s2)
   1a848:	04a05c63          	blez	a0,1a8a0 <start_pass_phuff_decoder+0x374>
   1a84c:	1b840993          	addi	s3,s0,440
   1a850:	04090a13          	addi	s4,s2,64
   1a854:	02c90a93          	addi	s5,s2,44
   1a858:	0a048863          	beqz	s1,1a908 <start_pass_phuff_decoder+0x3dc>
   1a85c:	00000b13          	li	s6,0
   1a860:	0009b503          	ld	a0,0(s3)
   1a864:	01852603          	lw	a2,24(a0)
   1a868:	00361493          	slli	s1,a2,0x3
   1a86c:	009a04b3          	add	s1,s4,s1
   1a870:	00040513          	mv	a0,s0
   1a874:	00000593          	li	a1,0
   1a878:	00048693          	mv	a3,s1
   1a87c:	ce8fe0ef          	jal	18d64 <jpeg_make_d_derived_tbl>
   1a880:	0004b503          	ld	a0,0(s1)
   1a884:	000aa023          	sw	zero,0(s5)
   1a888:	1b042583          	lw	a1,432(s0)
   1a88c:	06a93023          	sd	a0,96(s2)
   1a890:	001b0b13          	addi	s6,s6,1
   1a894:	004a8a93          	addi	s5,s5,4
   1a898:	00898993          	addi	s3,s3,8
   1a89c:	fcbb42e3          	blt	s6,a1,1a860 <start_pass_phuff_decoder+0x334>
   1a8a0:	02092023          	sw	zero,32(s2)
   1a8a4:	17042503          	lw	a0,368(s0)
   1a8a8:	00093c23          	sd	zero,24(s2)
   1a8ac:	00092823          	sw	zero,16(s2)
   1a8b0:	02092423          	sw	zero,40(s2)
   1a8b4:	02a92e23          	sw	a0,60(s2)
   1a8b8:	05813083          	ld	ra,88(sp)
   1a8bc:	05013403          	ld	s0,80(sp)
   1a8c0:	04813483          	ld	s1,72(sp)
   1a8c4:	04013903          	ld	s2,64(sp)
   1a8c8:	03813983          	ld	s3,56(sp)
   1a8cc:	03013a03          	ld	s4,48(sp)
   1a8d0:	02813a83          	ld	s5,40(sp)
   1a8d4:	02013b03          	ld	s6,32(sp)
   1a8d8:	01813b83          	ld	s7,24(sp)
   1a8dc:	01013c03          	ld	s8,16(sp)
   1a8e0:	00813c83          	ld	s9,8(sp)
   1a8e4:	00013d03          	ld	s10,0(sp)
   1a8e8:	06010113          	addi	sp,sp,96
   1a8ec:	00008067          	ret
   1a8f0:	000aa023          	sw	zero,0(s5)
   1a8f4:	1b042503          	lw	a0,432(s0)
   1a8f8:	00148493          	addi	s1,s1,1
   1a8fc:	004a8a93          	addi	s5,s5,4
   1a900:	00898993          	addi	s3,s3,8
   1a904:	f8a4dee3          	bge	s1,a0,1a8a0 <start_pass_phuff_decoder+0x374>
   1a908:	21442503          	lw	a0,532(s0)
   1a90c:	fe0512e3          	bnez	a0,1a8f0 <start_pass_phuff_decoder+0x3c4>
   1a910:	0009b503          	ld	a0,0(s3)
   1a914:	01452603          	lw	a2,20(a0)
   1a918:	00361693          	slli	a3,a2,0x3
   1a91c:	00da06b3          	add	a3,s4,a3
   1a920:	00100593          	li	a1,1
   1a924:	00040513          	mv	a0,s0
   1a928:	c3cfe0ef          	jal	18d64 <jpeg_make_d_derived_tbl>
   1a92c:	fc5ff06f          	j	1a8f0 <start_pass_phuff_decoder+0x3c4>

000000000001a930 <decode_mcu_DC_first>:
   1a930:	f5010113          	addi	sp,sp,-176
   1a934:	0a113423          	sd	ra,168(sp)
   1a938:	0a813023          	sd	s0,160(sp)
   1a93c:	08913c23          	sd	s1,152(sp)
   1a940:	09213823          	sd	s2,144(sp)
   1a944:	09313423          	sd	s3,136(sp)
   1a948:	09413023          	sd	s4,128(sp)
   1a94c:	07513c23          	sd	s5,120(sp)
   1a950:	07613823          	sd	s6,112(sp)
   1a954:	07713423          	sd	s7,104(sp)
   1a958:	07813023          	sd	s8,96(sp)
   1a95c:	05913c23          	sd	s9,88(sp)
   1a960:	05a13823          	sd	s10,80(sp)
   1a964:	05b13423          	sd	s11,72(sp)
   1a968:	00050413          	mv	s0,a0
   1a96c:	25053983          	ld	s3,592(a0)
   1a970:	17052503          	lw	a0,368(a0)
   1a974:	21842a03          	lw	s4,536(s0)
   1a978:	00058493          	mv	s1,a1
   1a97c:	00050663          	beqz	a0,1a988 <decode_mcu_DC_first+0x58>
   1a980:	03c9a503          	lw	a0,60(s3)
   1a984:	1a050c63          	beqz	a0,1ab3c <decode_mcu_DC_first+0x20c>
   1a988:	0109a503          	lw	a0,16(s3)
   1a98c:	26051663          	bnez	a0,1abf8 <decode_mcu_DC_first+0x2c8>
   1a990:	02843503          	ld	a0,40(s0)
   1a994:	00053703          	ld	a4,0(a0)
   1a998:	00853683          	ld	a3,8(a0)
   1a99c:	04813023          	sd	s0,64(sp)
   1a9a0:	02e13023          	sd	a4,32(sp)
   1a9a4:	02d13423          	sd	a3,40(sp)
   1a9a8:	0189b583          	ld	a1,24(s3)
   1a9ac:	0389a783          	lw	a5,56(s3)
   1a9b0:	02c9e803          	lwu	a6,44(s3)
   1a9b4:	0289e883          	lwu	a7,40(s3)
   1a9b8:	0209a603          	lw	a2,32(s3)
   1a9bc:	00f12c23          	sw	a5,24(sp)
   1a9c0:	02081813          	slli	a6,a6,0x20
   1a9c4:	011867b3          	or	a5,a6,a7
   1a9c8:	0349e803          	lwu	a6,52(s3)
   1a9cc:	0309e883          	lwu	a7,48(s3)
   1a9d0:	1e042283          	lw	t0,480(s0)
   1a9d4:	00f13423          	sd	a5,8(sp)
   1a9d8:	02081813          	slli	a6,a6,0x20
   1a9dc:	011867b3          	or	a5,a6,a7
   1a9e0:	00f13823          	sd	a5,16(sp)
   1a9e4:	1c505e63          	blez	t0,1abc0 <decode_mcu_DC_first+0x290>
   1a9e8:	00000a93          	li	s5,0
   1a9ec:	1e440b13          	addi	s6,s0,484
   1a9f0:	1b840b93          	addi	s7,s0,440
   1a9f4:	04098c13          	addi	s8,s3,64
   1a9f8:	00700d13          	li	s10,7
   1a9fc:	03c0006f          	j	1aa38 <decode_mcu_DC_first+0x108>
   1aa00:	00000513          	li	a0,0
   1aa04:	002c9c93          	slli	s9,s9,0x2
   1aa08:	00c10693          	addi	a3,sp,12
   1aa0c:	01968cb3          	add	s9,a3,s9
   1aa10:	000ca683          	lw	a3,0(s9)
   1aa14:	00a68533          	add	a0,a3,a0
   1aa18:	00aca023          	sw	a0,0(s9)
   1aa1c:	0145153b          	sllw	a0,a0,s4
   1aa20:	1e042683          	lw	a3,480(s0)
   1aa24:	00ad9023          	sh	a0,0(s11)
   1aa28:	001a8a93          	addi	s5,s5,1
   1aa2c:	004b0b13          	addi	s6,s6,4
   1aa30:	00848493          	addi	s1,s1,8
   1aa34:	18dad063          	bge	s5,a3,1abb4 <decode_mcu_DC_first+0x284>
   1aa38:	000b2c83          	lw	s9,0(s6)
   1aa3c:	003c9513          	slli	a0,s9,0x3
   1aa40:	00ab8533          	add	a0,s7,a0
   1aa44:	00053503          	ld	a0,0(a0)
   1aa48:	01452503          	lw	a0,20(a0)
   1aa4c:	0004bd83          	ld	s11,0(s1)
   1aa50:	00351513          	slli	a0,a0,0x3
   1aa54:	00ac0533          	add	a0,s8,a0
   1aa58:	00053903          	ld	s2,0(a0)
   1aa5c:	02cd4463          	blt	s10,a2,1aa84 <decode_mcu_DC_first+0x154>
   1aa60:	02010513          	addi	a0,sp,32
   1aa64:	00000693          	li	a3,0
   1aa68:	f6dfe0ef          	jal	199d4 <jpeg_fill_bit_buffer>
   1aa6c:	18050e63          	beqz	a0,1ac08 <decode_mcu_DC_first+0x2d8>
   1aa70:	03812603          	lw	a2,56(sp)
   1aa74:	03013583          	ld	a1,48(sp)
   1aa78:	00100713          	li	a4,1
   1aa7c:	00800513          	li	a0,8
   1aa80:	02a64c63          	blt	a2,a0,1aab8 <decode_mcu_DC_first+0x188>
   1aa84:	ff860513          	addi	a0,a2,-8
   1aa88:	40a5d533          	sra	a0,a1,a0
   1aa8c:	0ff57513          	zext.b	a0,a0
   1aa90:	00251693          	slli	a3,a0,0x2
   1aa94:	00d906b3          	add	a3,s2,a3
   1aa98:	1206a683          	lw	a3,288(a3)
   1aa9c:	00068c63          	beqz	a3,1aab4 <decode_mcu_DC_first+0x184>
   1aaa0:	00a90533          	add	a0,s2,a0
   1aaa4:	52054903          	lbu	s2,1312(a0)
   1aaa8:	40d6063b          	subw	a2,a2,a3
   1aaac:	02091663          	bnez	s2,1aad8 <decode_mcu_DC_first+0x1a8>
   1aab0:	f51ff06f          	j	1aa00 <decode_mcu_DC_first+0xd0>
   1aab4:	00900713          	li	a4,9
   1aab8:	02010513          	addi	a0,sp,32
   1aabc:	00090693          	mv	a3,s2
   1aac0:	8c0ff0ef          	jal	19b80 <jpeg_huff_decode>
   1aac4:	18054063          	bltz	a0,1ac44 <decode_mcu_DC_first+0x314>
   1aac8:	00050913          	mv	s2,a0
   1aacc:	03013583          	ld	a1,48(sp)
   1aad0:	03812603          	lw	a2,56(sp)
   1aad4:	f20506e3          	beqz	a0,1aa00 <decode_mcu_DC_first+0xd0>
   1aad8:	01265e63          	bge	a2,s2,1aaf4 <decode_mcu_DC_first+0x1c4>
   1aadc:	02010513          	addi	a0,sp,32
   1aae0:	00090693          	mv	a3,s2
   1aae4:	ef1fe0ef          	jal	199d4 <jpeg_fill_bit_buffer>
   1aae8:	12050063          	beqz	a0,1ac08 <decode_mcu_DC_first+0x2d8>
   1aaec:	03013583          	ld	a1,48(sp)
   1aaf0:	03812603          	lw	a2,56(sp)
   1aaf4:	4126063b          	subw	a2,a2,s2
   1aaf8:	40c5d533          	sra	a0,a1,a2
   1aafc:	00291693          	slli	a3,s2,0x2
   1ab00:	00028737          	lui	a4,0x28
   1ab04:	0b470713          	addi	a4,a4,180 # 280b4 <extend_test>
   1ab08:	00d70733          	add	a4,a4,a3
   1ab0c:	00072703          	lw	a4,0(a4)
   1ab10:	fff00793          	li	a5,-1
   1ab14:	012797bb          	sllw	a5,a5,s2
   1ab18:	fff7c793          	not	a5,a5
   1ab1c:	00f57533          	and	a0,a0,a5
   1ab20:	eee552e3          	bge	a0,a4,1aa04 <decode_mcu_DC_first+0xd4>
   1ab24:	00028737          	lui	a4,0x28
   1ab28:	0f470713          	addi	a4,a4,244 # 280f4 <extend_offset>
   1ab2c:	00d706b3          	add	a3,a4,a3
   1ab30:	0006a683          	lw	a3,0(a3)
   1ab34:	00a68533          	add	a0,a3,a0
   1ab38:	ecdff06f          	j	1aa04 <decode_mcu_DC_first+0xd4>
   1ab3c:	0209a503          	lw	a0,32(s3)
   1ab40:	24843583          	ld	a1,584(s0)
   1ab44:	00151613          	slli	a2,a0,0x1
   1ab48:	03d65613          	srli	a2,a2,0x3d
   1ab4c:	0245a683          	lw	a3,36(a1)
   1ab50:	00c50533          	add	a0,a0,a2
   1ab54:	4035551b          	sraiw	a0,a0,0x3
   1ab58:	0105b603          	ld	a2,16(a1)
   1ab5c:	00a68533          	add	a0,a3,a0
   1ab60:	02a5a223          	sw	a0,36(a1)
   1ab64:	0209a023          	sw	zero,32(s3)
   1ab68:	00040513          	mv	a0,s0
   1ab6c:	000600e7          	jalr	a2
   1ab70:	08050c63          	beqz	a0,1ac08 <decode_mcu_DC_first+0x2d8>
   1ab74:	1b042503          	lw	a0,432(s0)
   1ab78:	02a05063          	blez	a0,1ab98 <decode_mcu_DC_first+0x268>
   1ab7c:	00000513          	li	a0,0
   1ab80:	02c98593          	addi	a1,s3,44
   1ab84:	0005a023          	sw	zero,0(a1)
   1ab88:	1b042603          	lw	a2,432(s0)
   1ab8c:	00150513          	addi	a0,a0,1
   1ab90:	00458593          	addi	a1,a1,4
   1ab94:	fec548e3          	blt	a0,a2,1ab84 <decode_mcu_DC_first+0x254>
   1ab98:	17042503          	lw	a0,368(s0)
   1ab9c:	21c42583          	lw	a1,540(s0)
   1aba0:	0209a423          	sw	zero,40(s3)
   1aba4:	02a9ae23          	sw	a0,60(s3)
   1aba8:	de0590e3          	bnez	a1,1a988 <decode_mcu_DC_first+0x58>
   1abac:	0009a823          	sw	zero,16(s3)
   1abb0:	dd9ff06f          	j	1a988 <decode_mcu_DC_first+0x58>
   1abb4:	02013703          	ld	a4,32(sp)
   1abb8:	02843503          	ld	a0,40(s0)
   1abbc:	02813683          	ld	a3,40(sp)
   1abc0:	00e53023          	sd	a4,0(a0)
   1abc4:	00812703          	lw	a4,8(sp)
   1abc8:	00d53423          	sd	a3,8(a0)
   1abcc:	00b9bc23          	sd	a1,24(s3)
   1abd0:	02c9a023          	sw	a2,32(s3)
   1abd4:	02e9a423          	sw	a4,40(s3)
   1abd8:	00c12503          	lw	a0,12(sp)
   1abdc:	01012583          	lw	a1,16(sp)
   1abe0:	01412603          	lw	a2,20(sp)
   1abe4:	01812683          	lw	a3,24(sp)
   1abe8:	02a9a623          	sw	a0,44(s3)
   1abec:	02b9a823          	sw	a1,48(s3)
   1abf0:	02c9aa23          	sw	a2,52(s3)
   1abf4:	02d9ac23          	sw	a3,56(s3)
   1abf8:	03c9a503          	lw	a0,60(s3)
   1abfc:	fff50513          	addi	a0,a0,-1
   1ac00:	02a9ae23          	sw	a0,60(s3)
   1ac04:	00100513          	li	a0,1
   1ac08:	0a813083          	ld	ra,168(sp)
   1ac0c:	0a013403          	ld	s0,160(sp)
   1ac10:	09813483          	ld	s1,152(sp)
   1ac14:	09013903          	ld	s2,144(sp)
   1ac18:	08813983          	ld	s3,136(sp)
   1ac1c:	08013a03          	ld	s4,128(sp)
   1ac20:	07813a83          	ld	s5,120(sp)
   1ac24:	07013b03          	ld	s6,112(sp)
   1ac28:	06813b83          	ld	s7,104(sp)
   1ac2c:	06013c03          	ld	s8,96(sp)
   1ac30:	05813c83          	ld	s9,88(sp)
   1ac34:	05013d03          	ld	s10,80(sp)
   1ac38:	04813d83          	ld	s11,72(sp)
   1ac3c:	0b010113          	addi	sp,sp,176
   1ac40:	00008067          	ret
   1ac44:	00000513          	li	a0,0
   1ac48:	fc1ff06f          	j	1ac08 <decode_mcu_DC_first+0x2d8>

000000000001ac4c <decode_mcu_AC_first>:
   1ac4c:	f7010113          	addi	sp,sp,-144
   1ac50:	08113423          	sd	ra,136(sp)
   1ac54:	08813023          	sd	s0,128(sp)
   1ac58:	06913c23          	sd	s1,120(sp)
   1ac5c:	07213823          	sd	s2,112(sp)
   1ac60:	07313423          	sd	s3,104(sp)
   1ac64:	07413023          	sd	s4,96(sp)
   1ac68:	05513c23          	sd	s5,88(sp)
   1ac6c:	05613823          	sd	s6,80(sp)
   1ac70:	05713423          	sd	s7,72(sp)
   1ac74:	05813023          	sd	s8,64(sp)
   1ac78:	03913c23          	sd	s9,56(sp)
   1ac7c:	03a13823          	sd	s10,48(sp)
   1ac80:	03b13423          	sd	s11,40(sp)
   1ac84:	00050413          	mv	s0,a0
   1ac88:	25053a03          	ld	s4,592(a0)
   1ac8c:	21052a83          	lw	s5,528(a0)
   1ac90:	17052503          	lw	a0,368(a0)
   1ac94:	21842b03          	lw	s6,536(s0)
   1ac98:	00050663          	beqz	a0,1aca4 <decode_mcu_AC_first+0x58>
   1ac9c:	03ca2503          	lw	a0,60(s4)
   1aca0:	00050e63          	beqz	a0,1acbc <decode_mcu_AC_first+0x70>
   1aca4:	010a2503          	lw	a0,16(s4)
   1aca8:	0e051263          	bnez	a0,1ad8c <decode_mcu_AC_first+0x140>
   1acac:	028a2483          	lw	s1,40(s4)
   1acb0:	08048663          	beqz	s1,1ad3c <decode_mcu_AC_first+0xf0>
   1acb4:	fff48493          	addi	s1,s1,-1
   1acb8:	0d00006f          	j	1ad88 <decode_mcu_AC_first+0x13c>
   1acbc:	00058493          	mv	s1,a1
   1acc0:	020a2503          	lw	a0,32(s4)
   1acc4:	24843583          	ld	a1,584(s0)
   1acc8:	00151613          	slli	a2,a0,0x1
   1accc:	03d65613          	srli	a2,a2,0x3d
   1acd0:	0245a683          	lw	a3,36(a1)
   1acd4:	00c50533          	add	a0,a0,a2
   1acd8:	4035551b          	sraiw	a0,a0,0x3
   1acdc:	0105b603          	ld	a2,16(a1)
   1ace0:	00a68533          	add	a0,a3,a0
   1ace4:	02a5a223          	sw	a0,36(a1)
   1ace8:	020a2023          	sw	zero,32(s4)
   1acec:	00040513          	mv	a0,s0
   1acf0:	000600e7          	jalr	a2
   1acf4:	0a050463          	beqz	a0,1ad9c <decode_mcu_AC_first+0x150>
   1acf8:	1b042503          	lw	a0,432(s0)
   1acfc:	02a05063          	blez	a0,1ad1c <decode_mcu_AC_first+0xd0>
   1ad00:	00000513          	li	a0,0
   1ad04:	02ca0593          	addi	a1,s4,44
   1ad08:	0005a023          	sw	zero,0(a1)
   1ad0c:	1b042603          	lw	a2,432(s0)
   1ad10:	00150513          	addi	a0,a0,1
   1ad14:	00458593          	addi	a1,a1,4
   1ad18:	fec548e3          	blt	a0,a2,1ad08 <decode_mcu_AC_first+0xbc>
   1ad1c:	17042503          	lw	a0,368(s0)
   1ad20:	21c42603          	lw	a2,540(s0)
   1ad24:	020a2423          	sw	zero,40(s4)
   1ad28:	02aa2e23          	sw	a0,60(s4)
   1ad2c:	00048593          	mv	a1,s1
   1ad30:	f6061ae3          	bnez	a2,1aca4 <decode_mcu_AC_first+0x58>
   1ad34:	000a2823          	sw	zero,16(s4)
   1ad38:	f6dff06f          	j	1aca4 <decode_mcu_AC_first+0x58>
   1ad3c:	00058513          	mv	a0,a1
   1ad40:	02843583          	ld	a1,40(s0)
   1ad44:	0005b683          	ld	a3,0(a1)
   1ad48:	0085b703          	ld	a4,8(a1)
   1ad4c:	018a3583          	ld	a1,24(s4)
   1ad50:	20c42d83          	lw	s11,524(s0)
   1ad54:	020a2603          	lw	a2,32(s4)
   1ad58:	02813023          	sd	s0,32(sp)
   1ad5c:	00d13023          	sd	a3,0(sp)
   1ad60:	00e13423          	sd	a4,8(sp)
   1ad64:	07bada63          	bge	s5,s11,1add8 <decode_mcu_AC_first+0x18c>
   1ad68:	00000493          	li	s1,0
   1ad6c:	00013503          	ld	a0,0(sp)
   1ad70:	02843683          	ld	a3,40(s0)
   1ad74:	00813703          	ld	a4,8(sp)
   1ad78:	00a6b023          	sd	a0,0(a3)
   1ad7c:	00e6b423          	sd	a4,8(a3)
   1ad80:	00ba3c23          	sd	a1,24(s4)
   1ad84:	02ca2023          	sw	a2,32(s4)
   1ad88:	029a2423          	sw	s1,40(s4)
   1ad8c:	03ca2503          	lw	a0,60(s4)
   1ad90:	fff50513          	addi	a0,a0,-1
   1ad94:	02aa2e23          	sw	a0,60(s4)
   1ad98:	00100513          	li	a0,1
   1ad9c:	08813083          	ld	ra,136(sp)
   1ada0:	08013403          	ld	s0,128(sp)
   1ada4:	07813483          	ld	s1,120(sp)
   1ada8:	07013903          	ld	s2,112(sp)
   1adac:	06813983          	ld	s3,104(sp)
   1adb0:	06013a03          	ld	s4,96(sp)
   1adb4:	05813a83          	ld	s5,88(sp)
   1adb8:	05013b03          	ld	s6,80(sp)
   1adbc:	04813b83          	ld	s7,72(sp)
   1adc0:	04013c03          	ld	s8,64(sp)
   1adc4:	03813c83          	ld	s9,56(sp)
   1adc8:	03013d03          	ld	s10,48(sp)
   1adcc:	02813d83          	ld	s11,40(sp)
   1add0:	09010113          	addi	sp,sp,144
   1add4:	00008067          	ret
   1add8:	060a3483          	ld	s1,96(s4)
   1addc:	00053b83          	ld	s7,0(a0)
   1ade0:	12048c13          	addi	s8,s1,288
   1ade4:	52048c93          	addi	s9,s1,1312
   1ade8:	00700d13          	li	s10,7
   1adec:	0340006f          	j	1ae20 <decode_mcu_AC_first+0x1d4>
   1adf0:	01b9053b          	addw	a0,s2,s11
   1adf4:	00251713          	slli	a4,a0,0x2
   1adf8:	000287b7          	lui	a5,0x28
   1adfc:	2dc78793          	addi	a5,a5,732 # 282dc <jpeg_natural_order>
   1ae00:	00e78733          	add	a4,a5,a4
   1ae04:	00072703          	lw	a4,0(a4)
   1ae08:	016696bb          	sllw	a3,a3,s6
   1ae0c:	00171713          	slli	a4,a4,0x1
   1ae10:	00eb8733          	add	a4,s7,a4
   1ae14:	00d71023          	sh	a3,0(a4)
   1ae18:	00150d93          	addi	s11,a0,1
   1ae1c:	f55556e3          	bge	a0,s5,1ad68 <decode_mcu_AC_first+0x11c>
   1ae20:	02cd4463          	blt	s10,a2,1ae48 <decode_mcu_AC_first+0x1fc>
   1ae24:	00010513          	mv	a0,sp
   1ae28:	00000693          	li	a3,0
   1ae2c:	ba9fe0ef          	jal	199d4 <jpeg_fill_bit_buffer>
   1ae30:	f60506e3          	beqz	a0,1ad9c <decode_mcu_AC_first+0x150>
   1ae34:	01812603          	lw	a2,24(sp)
   1ae38:	01013583          	ld	a1,16(sp)
   1ae3c:	00100713          	li	a4,1
   1ae40:	00800513          	li	a0,8
   1ae44:	04a64a63          	blt	a2,a0,1ae98 <decode_mcu_AC_first+0x24c>
   1ae48:	ff860513          	addi	a0,a2,-8
   1ae4c:	40a5d533          	sra	a0,a1,a0
   1ae50:	0ff57513          	zext.b	a0,a0
   1ae54:	00251693          	slli	a3,a0,0x2
   1ae58:	00dc06b3          	add	a3,s8,a3
   1ae5c:	0006a683          	lw	a3,0(a3)
   1ae60:	02068a63          	beqz	a3,1ae94 <decode_mcu_AC_first+0x248>
   1ae64:	00ac8533          	add	a0,s9,a0
   1ae68:	00054503          	lbu	a0,0(a0)
   1ae6c:	40d6063b          	subw	a2,a2,a3
   1ae70:	00f57993          	andi	s3,a0,15
   1ae74:	0045591b          	srliw	s2,a0,0x4
   1ae78:	04099263          	bnez	s3,1aebc <decode_mcu_AC_first+0x270>
   1ae7c:	00f00693          	li	a3,15
   1ae80:	0ad91463          	bne	s2,a3,1af28 <decode_mcu_AC_first+0x2dc>
   1ae84:	00fd851b          	addiw	a0,s11,15
   1ae88:	00150d93          	addi	s11,a0,1
   1ae8c:	f9554ae3          	blt	a0,s5,1ae20 <decode_mcu_AC_first+0x1d4>
   1ae90:	ed9ff06f          	j	1ad68 <decode_mcu_AC_first+0x11c>
   1ae94:	00900713          	li	a4,9
   1ae98:	00010513          	mv	a0,sp
   1ae9c:	00048693          	mv	a3,s1
   1aea0:	ce1fe0ef          	jal	19b80 <jpeg_huff_decode>
   1aea4:	06054e63          	bltz	a0,1af20 <decode_mcu_AC_first+0x2d4>
   1aea8:	01013583          	ld	a1,16(sp)
   1aeac:	01812603          	lw	a2,24(sp)
   1aeb0:	00f57993          	andi	s3,a0,15
   1aeb4:	0045591b          	srliw	s2,a0,0x4
   1aeb8:	fc0982e3          	beqz	s3,1ae7c <decode_mcu_AC_first+0x230>
   1aebc:	01365e63          	bge	a2,s3,1aed8 <decode_mcu_AC_first+0x28c>
   1aec0:	00010513          	mv	a0,sp
   1aec4:	00098693          	mv	a3,s3
   1aec8:	b0dfe0ef          	jal	199d4 <jpeg_fill_bit_buffer>
   1aecc:	ec0508e3          	beqz	a0,1ad9c <decode_mcu_AC_first+0x150>
   1aed0:	01013583          	ld	a1,16(sp)
   1aed4:	01812603          	lw	a2,24(sp)
   1aed8:	4136063b          	subw	a2,a2,s3
   1aedc:	40c5d6b3          	sra	a3,a1,a2
   1aee0:	00299513          	slli	a0,s3,0x2
   1aee4:	00028737          	lui	a4,0x28
   1aee8:	0b470713          	addi	a4,a4,180 # 280b4 <extend_test>
   1aeec:	00a70733          	add	a4,a4,a0
   1aef0:	00072703          	lw	a4,0(a4)
   1aef4:	fff00793          	li	a5,-1
   1aef8:	013797bb          	sllw	a5,a5,s3
   1aefc:	fff7c793          	not	a5,a5
   1af00:	00f6f6b3          	and	a3,a3,a5
   1af04:	eee6d6e3          	bge	a3,a4,1adf0 <decode_mcu_AC_first+0x1a4>
   1af08:	00028737          	lui	a4,0x28
   1af0c:	0f470713          	addi	a4,a4,244 # 280f4 <extend_offset>
   1af10:	00a70533          	add	a0,a4,a0
   1af14:	00052503          	lw	a0,0(a0)
   1af18:	00d506b3          	add	a3,a0,a3
   1af1c:	ed5ff06f          	j	1adf0 <decode_mcu_AC_first+0x1a4>
   1af20:	00000513          	li	a0,0
   1af24:	e79ff06f          	j	1ad9c <decode_mcu_AC_first+0x150>
   1af28:	00100693          	li	a3,1
   1af2c:	01000713          	li	a4,16
   1af30:	012694bb          	sllw	s1,a3,s2
   1af34:	02e56a63          	bltu	a0,a4,1af68 <decode_mcu_AC_first+0x31c>
   1af38:	01265e63          	bge	a2,s2,1af54 <decode_mcu_AC_first+0x308>
   1af3c:	00010513          	mv	a0,sp
   1af40:	00090693          	mv	a3,s2
   1af44:	a91fe0ef          	jal	199d4 <jpeg_fill_bit_buffer>
   1af48:	e4050ae3          	beqz	a0,1ad9c <decode_mcu_AC_first+0x150>
   1af4c:	01013583          	ld	a1,16(sp)
   1af50:	01812603          	lw	a2,24(sp)
   1af54:	4126063b          	subw	a2,a2,s2
   1af58:	40c5d533          	sra	a0,a1,a2
   1af5c:	fff48693          	addi	a3,s1,-1
   1af60:	00a6f533          	and	a0,a3,a0
   1af64:	009504b3          	add	s1,a0,s1
   1af68:	fff48493          	addi	s1,s1,-1
   1af6c:	e01ff06f          	j	1ad6c <decode_mcu_AC_first+0x120>

000000000001af70 <decode_mcu_DC_refine>:
   1af70:	fa010113          	addi	sp,sp,-96
   1af74:	04113c23          	sd	ra,88(sp)
   1af78:	04813823          	sd	s0,80(sp)
   1af7c:	04913423          	sd	s1,72(sp)
   1af80:	05213023          	sd	s2,64(sp)
   1af84:	03313c23          	sd	s3,56(sp)
   1af88:	03413823          	sd	s4,48(sp)
   1af8c:	03513423          	sd	s5,40(sp)
   1af90:	00050413          	mv	s0,a0
   1af94:	25053903          	ld	s2,592(a0)
   1af98:	17052503          	lw	a0,368(a0)
   1af9c:	21846983          	lwu	s3,536(s0)
   1afa0:	00058493          	mv	s1,a1
   1afa4:	00050663          	beqz	a0,1afb0 <decode_mcu_DC_refine+0x40>
   1afa8:	03c92503          	lw	a0,60(s2)
   1afac:	0e050863          	beqz	a0,1b09c <decode_mcu_DC_refine+0x12c>
   1afb0:	02843503          	ld	a0,40(s0)
   1afb4:	00053703          	ld	a4,0(a0)
   1afb8:	00853683          	ld	a3,8(a0)
   1afbc:	01893583          	ld	a1,24(s2)
   1afc0:	1e042783          	lw	a5,480(s0)
   1afc4:	02092603          	lw	a2,32(s2)
   1afc8:	02813023          	sd	s0,32(sp)
   1afcc:	00e13023          	sd	a4,0(sp)
   1afd0:	00d13423          	sd	a3,8(sp)
   1afd4:	08f05263          	blez	a5,1b058 <decode_mcu_DC_refine+0xe8>
   1afd8:	00000a13          	li	s4,0
   1afdc:	00100513          	li	a0,1
   1afe0:	013519bb          	sllw	s3,a0,s3
   1afe4:	0140006f          	j	1aff8 <decode_mcu_DC_refine+0x88>
   1afe8:	1e042503          	lw	a0,480(s0)
   1afec:	001a0a13          	addi	s4,s4,1
   1aff0:	00848493          	addi	s1,s1,8
   1aff4:	04aa5c63          	bge	s4,a0,1b04c <decode_mcu_DC_refine+0xdc>
   1aff8:	0004ba83          	ld	s5,0(s1)
   1affc:	00c05c63          	blez	a2,1b014 <decode_mcu_DC_refine+0xa4>
   1b000:	fff6061b          	addiw	a2,a2,-1
   1b004:	00c5d533          	srl	a0,a1,a2
   1b008:	00157513          	andi	a0,a0,1
   1b00c:	02051863          	bnez	a0,1b03c <decode_mcu_DC_refine+0xcc>
   1b010:	fd9ff06f          	j	1afe8 <decode_mcu_DC_refine+0x78>
   1b014:	00010513          	mv	a0,sp
   1b018:	00100693          	li	a3,1
   1b01c:	9b9fe0ef          	jal	199d4 <jpeg_fill_bit_buffer>
   1b020:	04050c63          	beqz	a0,1b078 <decode_mcu_DC_refine+0x108>
   1b024:	01013583          	ld	a1,16(sp)
   1b028:	01812603          	lw	a2,24(sp)
   1b02c:	fff6061b          	addiw	a2,a2,-1
   1b030:	00c5d533          	srl	a0,a1,a2
   1b034:	00157513          	andi	a0,a0,1
   1b038:	fa0508e3          	beqz	a0,1afe8 <decode_mcu_DC_refine+0x78>
   1b03c:	000a9503          	lh	a0,0(s5)
   1b040:	01356533          	or	a0,a0,s3
   1b044:	00aa9023          	sh	a0,0(s5)
   1b048:	fa1ff06f          	j	1afe8 <decode_mcu_DC_refine+0x78>
   1b04c:	00013703          	ld	a4,0(sp)
   1b050:	02843503          	ld	a0,40(s0)
   1b054:	00813683          	ld	a3,8(sp)
   1b058:	00e53023          	sd	a4,0(a0)
   1b05c:	03c92703          	lw	a4,60(s2)
   1b060:	00d53423          	sd	a3,8(a0)
   1b064:	00b93c23          	sd	a1,24(s2)
   1b068:	02c92023          	sw	a2,32(s2)
   1b06c:	fff70713          	addi	a4,a4,-1
   1b070:	02e92e23          	sw	a4,60(s2)
   1b074:	00100513          	li	a0,1
   1b078:	05813083          	ld	ra,88(sp)
   1b07c:	05013403          	ld	s0,80(sp)
   1b080:	04813483          	ld	s1,72(sp)
   1b084:	04013903          	ld	s2,64(sp)
   1b088:	03813983          	ld	s3,56(sp)
   1b08c:	03013a03          	ld	s4,48(sp)
   1b090:	02813a83          	ld	s5,40(sp)
   1b094:	06010113          	addi	sp,sp,96
   1b098:	00008067          	ret
   1b09c:	02092503          	lw	a0,32(s2)
   1b0a0:	24843583          	ld	a1,584(s0)
   1b0a4:	00151613          	slli	a2,a0,0x1
   1b0a8:	03d65613          	srli	a2,a2,0x3d
   1b0ac:	0245a683          	lw	a3,36(a1)
   1b0b0:	00c50533          	add	a0,a0,a2
   1b0b4:	4035551b          	sraiw	a0,a0,0x3
   1b0b8:	0105b603          	ld	a2,16(a1)
   1b0bc:	00a68533          	add	a0,a3,a0
   1b0c0:	02a5a223          	sw	a0,36(a1)
   1b0c4:	02092023          	sw	zero,32(s2)
   1b0c8:	00040513          	mv	a0,s0
   1b0cc:	000600e7          	jalr	a2
   1b0d0:	fa0504e3          	beqz	a0,1b078 <decode_mcu_DC_refine+0x108>
   1b0d4:	1b042503          	lw	a0,432(s0)
   1b0d8:	02a05063          	blez	a0,1b0f8 <decode_mcu_DC_refine+0x188>
   1b0dc:	00000513          	li	a0,0
   1b0e0:	02c90593          	addi	a1,s2,44
   1b0e4:	0005a023          	sw	zero,0(a1)
   1b0e8:	1b042603          	lw	a2,432(s0)
   1b0ec:	00150513          	addi	a0,a0,1
   1b0f0:	00458593          	addi	a1,a1,4
   1b0f4:	fec548e3          	blt	a0,a2,1b0e4 <decode_mcu_DC_refine+0x174>
   1b0f8:	17042503          	lw	a0,368(s0)
   1b0fc:	21c42583          	lw	a1,540(s0)
   1b100:	02092423          	sw	zero,40(s2)
   1b104:	02a92e23          	sw	a0,60(s2)
   1b108:	ea0594e3          	bnez	a1,1afb0 <decode_mcu_DC_refine+0x40>
   1b10c:	00092823          	sw	zero,16(s2)
   1b110:	ea1ff06f          	j	1afb0 <decode_mcu_DC_refine+0x40>

000000000001b114 <decode_mcu_AC_refine>:
   1b114:	e4010113          	addi	sp,sp,-448
   1b118:	1a113c23          	sd	ra,440(sp)
   1b11c:	1a813823          	sd	s0,432(sp)
   1b120:	1a913423          	sd	s1,424(sp)
   1b124:	1b213023          	sd	s2,416(sp)
   1b128:	19313c23          	sd	s3,408(sp)
   1b12c:	19413823          	sd	s4,400(sp)
   1b130:	19513423          	sd	s5,392(sp)
   1b134:	19613023          	sd	s6,384(sp)
   1b138:	17713c23          	sd	s7,376(sp)
   1b13c:	17813823          	sd	s8,368(sp)
   1b140:	17913423          	sd	s9,360(sp)
   1b144:	17a13023          	sd	s10,352(sp)
   1b148:	15b13c23          	sd	s11,344(sp)
   1b14c:	00050413          	mv	s0,a0
   1b150:	25053983          	ld	s3,592(a0)
   1b154:	21052d83          	lw	s11,528(a0)
   1b158:	17052503          	lw	a0,368(a0)
   1b15c:	21846903          	lwu	s2,536(s0)
   1b160:	00058493          	mv	s1,a1
   1b164:	00050663          	beqz	a0,1b170 <decode_mcu_AC_refine+0x5c>
   1b168:	03c9a503          	lw	a0,60(s3)
   1b16c:	28050863          	beqz	a0,1b3fc <decode_mcu_AC_refine+0x2e8>
   1b170:	0109a503          	lw	a0,16(s3)
   1b174:	36051a63          	bnez	a0,1b4e8 <decode_mcu_AC_refine+0x3d4>
   1b178:	02013023          	sd	zero,32(sp)
   1b17c:	00100513          	li	a0,1
   1b180:	02843583          	ld	a1,40(s0)
   1b184:	01251bbb          	sllw	s7,a0,s2
   1b188:	fff00513          	li	a0,-1
   1b18c:	0125153b          	sllw	a0,a0,s2
   1b190:	02a13423          	sd	a0,40(sp)
   1b194:	0005b503          	ld	a0,0(a1)
   1b198:	0085b683          	ld	a3,8(a1)
   1b19c:	0189b583          	ld	a1,24(s3)
   1b1a0:	0209a603          	lw	a2,32(s3)
   1b1a4:	0289ad03          	lw	s10,40(s3)
   1b1a8:	0004bb03          	ld	s6,0(s1)
   1b1ac:	20c42c83          	lw	s9,524(s0)
   1b1b0:	14813823          	sd	s0,336(sp)
   1b1b4:	12a13823          	sd	a0,304(sp)
   1b1b8:	12d13c23          	sd	a3,312(sp)
   1b1bc:	300d1063          	bnez	s10,1b4bc <decode_mcu_AC_refine+0x3a8>
   1b1c0:	2f9dce63          	blt	s11,s9,1b4bc <decode_mcu_AC_refine+0x3a8>
   1b1c4:	0609b503          	ld	a0,96(s3)
   1b1c8:	02013023          	sd	zero,32(sp)
   1b1cc:	12050693          	addi	a3,a0,288
   1b1d0:	00d13c23          	sd	a3,24(sp)
   1b1d4:	00a13823          	sd	a0,16(sp)
   1b1d8:	52050513          	addi	a0,a0,1312
   1b1dc:	00a13423          	sd	a0,8(sp)
   1b1e0:	00c0006f          	j	1b1ec <decode_mcu_AC_refine+0xd8>
   1b1e4:	001d0c9b          	addiw	s9,s10,1
   1b1e8:	29bd5663          	bge	s10,s11,1b474 <decode_mcu_AC_refine+0x360>
   1b1ec:	00700513          	li	a0,7
   1b1f0:	02c54463          	blt	a0,a2,1b218 <decode_mcu_AC_refine+0x104>
   1b1f4:	13010513          	addi	a0,sp,304
   1b1f8:	00000693          	li	a3,0
   1b1fc:	fd8fe0ef          	jal	199d4 <jpeg_fill_bit_buffer>
   1b200:	3c050a63          	beqz	a0,1b5d4 <decode_mcu_AC_refine+0x4c0>
   1b204:	14812603          	lw	a2,328(sp)
   1b208:	14013583          	ld	a1,320(sp)
   1b20c:	00100713          	li	a4,1
   1b210:	00800513          	li	a0,8
   1b214:	04a64a63          	blt	a2,a0,1b268 <decode_mcu_AC_refine+0x154>
   1b218:	ff860513          	addi	a0,a2,-8
   1b21c:	40a5d533          	sra	a0,a1,a0
   1b220:	0ff57513          	zext.b	a0,a0
   1b224:	00251693          	slli	a3,a0,0x2
   1b228:	01813703          	ld	a4,24(sp)
   1b22c:	00d706b3          	add	a3,a4,a3
   1b230:	0006a683          	lw	a3,0(a3)
   1b234:	02068863          	beqz	a3,1b264 <decode_mcu_AC_refine+0x150>
   1b238:	00813703          	ld	a4,8(sp)
   1b23c:	00a70533          	add	a0,a4,a0
   1b240:	00054503          	lbu	a0,0(a0)
   1b244:	40d6063b          	subw	a2,a2,a3
   1b248:	00f57693          	andi	a3,a0,15
   1b24c:	0045591b          	srliw	s2,a0,0x4
   1b250:	02069e63          	bnez	a3,1b28c <decode_mcu_AC_refine+0x178>
   1b254:	00f00693          	li	a3,15
   1b258:	22d91263          	bne	s2,a3,1b47c <decode_mcu_AC_refine+0x368>
   1b25c:	00000c13          	li	s8,0
   1b260:	0940006f          	j	1b2f4 <decode_mcu_AC_refine+0x1e0>
   1b264:	00900713          	li	a4,9
   1b268:	13010513          	addi	a0,sp,304
   1b26c:	01013683          	ld	a3,16(sp)
   1b270:	911fe0ef          	jal	19b80 <jpeg_huff_decode>
   1b274:	36054063          	bltz	a0,1b5d4 <decode_mcu_AC_refine+0x4c0>
   1b278:	14013583          	ld	a1,320(sp)
   1b27c:	14812603          	lw	a2,328(sp)
   1b280:	00f57693          	andi	a3,a0,15
   1b284:	0045591b          	srliw	s2,a0,0x4
   1b288:	fc0686e3          	beqz	a3,1b254 <decode_mcu_AC_refine+0x140>
   1b28c:	00100513          	li	a0,1
   1b290:	02a68863          	beq	a3,a0,1b2c0 <decode_mcu_AC_refine+0x1ac>
   1b294:	00043503          	ld	a0,0(s0)
   1b298:	00853683          	ld	a3,8(a0)
   1b29c:	07600713          	li	a4,118
   1b2a0:	02e52423          	sw	a4,40(a0)
   1b2a4:	00058493          	mv	s1,a1
   1b2a8:	fff00593          	li	a1,-1
   1b2ac:	00040513          	mv	a0,s0
   1b2b0:	00060a13          	mv	s4,a2
   1b2b4:	000680e7          	jalr	a3
   1b2b8:	00048593          	mv	a1,s1
   1b2bc:	000a0613          	mv	a2,s4
   1b2c0:	00c04e63          	bgtz	a2,1b2dc <decode_mcu_AC_refine+0x1c8>
   1b2c4:	13010513          	addi	a0,sp,304
   1b2c8:	00100693          	li	a3,1
   1b2cc:	f08fe0ef          	jal	199d4 <jpeg_fill_bit_buffer>
   1b2d0:	30050263          	beqz	a0,1b5d4 <decode_mcu_AC_refine+0x4c0>
   1b2d4:	14013583          	ld	a1,320(sp)
   1b2d8:	14812603          	lw	a2,328(sp)
   1b2dc:	fff6061b          	addiw	a2,a2,-1
   1b2e0:	00c5d533          	srl	a0,a1,a2
   1b2e4:	00157513          	andi	a0,a0,1
   1b2e8:	02813c03          	ld	s8,40(sp)
   1b2ec:	00050463          	beqz	a0,1b2f4 <decode_mcu_AC_refine+0x1e0>
   1b2f0:	000b8c13          	mv	s8,s7
   1b2f4:	000c8513          	mv	a0,s9
   1b2f8:	019dc463          	blt	s11,s9,1b300 <decode_mcu_AC_refine+0x1ec>
   1b2fc:	000d8513          	mv	a0,s11
   1b300:	00150d1b          	addiw	s10,a0,1
   1b304:	419504b3          	sub	s1,a0,s9
   1b308:	00148493          	addi	s1,s1,1
   1b30c:	002c9a93          	slli	s5,s9,0x2
   1b310:	00028537          	lui	a0,0x28
   1b314:	2dc50513          	addi	a0,a0,732 # 282dc <jpeg_natural_order>
   1b318:	01550ab3          	add	s5,a0,s5
   1b31c:	01c0006f          	j	1b338 <decode_mcu_AC_refine+0x224>
   1b320:	00d50533          	add	a0,a0,a3
   1b324:	00aa1023          	sh	a0,0(s4)
   1b328:	001c8c9b          	addiw	s9,s9,1
   1b32c:	fff48493          	addi	s1,s1,-1
   1b330:	004a8a93          	addi	s5,s5,4
   1b334:	08048263          	beqz	s1,1b3b8 <decode_mcu_AC_refine+0x2a4>
   1b338:	000aa503          	lw	a0,0(s5)
   1b33c:	00151513          	slli	a0,a0,0x1
   1b340:	00ab0a33          	add	s4,s6,a0
   1b344:	000a5503          	lhu	a0,0(s4)
   1b348:	00050e63          	beqz	a0,1b364 <decode_mcu_AC_refine+0x250>
   1b34c:	02c05263          	blez	a2,1b370 <decode_mcu_AC_refine+0x25c>
   1b350:	fff6061b          	addiw	a2,a2,-1
   1b354:	00c5d533          	srl	a0,a1,a2
   1b358:	00157513          	andi	a0,a0,1
   1b35c:	02051e63          	bnez	a0,1b398 <decode_mcu_AC_refine+0x284>
   1b360:	fc9ff06f          	j	1b328 <decode_mcu_AC_refine+0x214>
   1b364:	05205863          	blez	s2,1b3b4 <decode_mcu_AC_refine+0x2a0>
   1b368:	fff9091b          	addiw	s2,s2,-1
   1b36c:	fbdff06f          	j	1b328 <decode_mcu_AC_refine+0x214>
   1b370:	13010513          	addi	a0,sp,304
   1b374:	00100693          	li	a3,1
   1b378:	e5cfe0ef          	jal	199d4 <jpeg_fill_bit_buffer>
   1b37c:	24050c63          	beqz	a0,1b5d4 <decode_mcu_AC_refine+0x4c0>
   1b380:	14013583          	ld	a1,320(sp)
   1b384:	14812603          	lw	a2,328(sp)
   1b388:	fff6061b          	addiw	a2,a2,-1
   1b38c:	00c5d533          	srl	a0,a1,a2
   1b390:	00157513          	andi	a0,a0,1
   1b394:	f8050ae3          	beqz	a0,1b328 <decode_mcu_AC_refine+0x214>
   1b398:	000a1503          	lh	a0,0(s4)
   1b39c:	00abf6b3          	and	a3,s7,a0
   1b3a0:	f80694e3          	bnez	a3,1b328 <decode_mcu_AC_refine+0x214>
   1b3a4:	02813683          	ld	a3,40(sp)
   1b3a8:	f6054ce3          	bltz	a0,1b320 <decode_mcu_AC_refine+0x20c>
   1b3ac:	000b8693          	mv	a3,s7
   1b3b0:	f71ff06f          	j	1b320 <decode_mcu_AC_refine+0x20c>
   1b3b4:	000c8d13          	mv	s10,s9
   1b3b8:	e20c06e3          	beqz	s8,1b1e4 <decode_mcu_AC_refine+0xd0>
   1b3bc:	002d1513          	slli	a0,s10,0x2
   1b3c0:	000286b7          	lui	a3,0x28
   1b3c4:	2dc68693          	addi	a3,a3,732 # 282dc <jpeg_natural_order>
   1b3c8:	00a68533          	add	a0,a3,a0
   1b3cc:	00052503          	lw	a0,0(a0)
   1b3d0:	00151693          	slli	a3,a0,0x1
   1b3d4:	00db06b3          	add	a3,s6,a3
   1b3d8:	01869023          	sh	s8,0(a3)
   1b3dc:	02013703          	ld	a4,32(sp)
   1b3e0:	00271693          	slli	a3,a4,0x2
   1b3e4:	0017071b          	addiw	a4,a4,1
   1b3e8:	03010793          	addi	a5,sp,48
   1b3ec:	00d786b3          	add	a3,a5,a3
   1b3f0:	00a6a023          	sw	a0,0(a3)
   1b3f4:	02e13023          	sd	a4,32(sp)
   1b3f8:	dedff06f          	j	1b1e4 <decode_mcu_AC_refine+0xd0>
   1b3fc:	0209a503          	lw	a0,32(s3)
   1b400:	24843583          	ld	a1,584(s0)
   1b404:	00151613          	slli	a2,a0,0x1
   1b408:	03d65613          	srli	a2,a2,0x3d
   1b40c:	0245a683          	lw	a3,36(a1)
   1b410:	00c50533          	add	a0,a0,a2
   1b414:	4035551b          	sraiw	a0,a0,0x3
   1b418:	0105b603          	ld	a2,16(a1)
   1b41c:	00a68533          	add	a0,a3,a0
   1b420:	02a5a223          	sw	a0,36(a1)
   1b424:	0209a023          	sw	zero,32(s3)
   1b428:	00040513          	mv	a0,s0
   1b42c:	000600e7          	jalr	a2
   1b430:	0c050463          	beqz	a0,1b4f8 <decode_mcu_AC_refine+0x3e4>
   1b434:	1b042503          	lw	a0,432(s0)
   1b438:	02a05063          	blez	a0,1b458 <decode_mcu_AC_refine+0x344>
   1b43c:	00000513          	li	a0,0
   1b440:	02c98593          	addi	a1,s3,44
   1b444:	0005a023          	sw	zero,0(a1)
   1b448:	1b042603          	lw	a2,432(s0)
   1b44c:	00150513          	addi	a0,a0,1
   1b450:	00458593          	addi	a1,a1,4
   1b454:	fec548e3          	blt	a0,a2,1b444 <decode_mcu_AC_refine+0x330>
   1b458:	17042503          	lw	a0,368(s0)
   1b45c:	21c42583          	lw	a1,540(s0)
   1b460:	0209a423          	sw	zero,40(s3)
   1b464:	02a9ae23          	sw	a0,60(s3)
   1b468:	d00594e3          	bnez	a1,1b170 <decode_mcu_AC_refine+0x5c>
   1b46c:	0009a823          	sw	zero,16(s3)
   1b470:	d01ff06f          	j	1b170 <decode_mcu_AC_refine+0x5c>
   1b474:	00000d13          	li	s10,0
   1b478:	0500006f          	j	1b4c8 <decode_mcu_AC_refine+0x3b4>
   1b47c:	00100693          	li	a3,1
   1b480:	01000713          	li	a4,16
   1b484:	01269d3b          	sllw	s10,a3,s2
   1b488:	02e56c63          	bltu	a0,a4,1b4c0 <decode_mcu_AC_refine+0x3ac>
   1b48c:	01265e63          	bge	a2,s2,1b4a8 <decode_mcu_AC_refine+0x394>
   1b490:	13010513          	addi	a0,sp,304
   1b494:	00090693          	mv	a3,s2
   1b498:	d3cfe0ef          	jal	199d4 <jpeg_fill_bit_buffer>
   1b49c:	12050c63          	beqz	a0,1b5d4 <decode_mcu_AC_refine+0x4c0>
   1b4a0:	14013583          	ld	a1,320(sp)
   1b4a4:	14812603          	lw	a2,328(sp)
   1b4a8:	4126063b          	subw	a2,a2,s2
   1b4ac:	40c5d533          	sra	a0,a1,a2
   1b4b0:	fffd0693          	addi	a3,s10,-1
   1b4b4:	00a6f533          	and	a0,a3,a0
   1b4b8:	01a50d3b          	addw	s10,a0,s10
   1b4bc:	000d0663          	beqz	s10,1b4c8 <decode_mcu_AC_refine+0x3b4>
   1b4c0:	079dda63          	bge	s11,s9,1b534 <decode_mcu_AC_refine+0x420>
   1b4c4:	fffd0d13          	addi	s10,s10,-1
   1b4c8:	13013503          	ld	a0,304(sp)
   1b4cc:	02843683          	ld	a3,40(s0)
   1b4d0:	13813703          	ld	a4,312(sp)
   1b4d4:	00a6b023          	sd	a0,0(a3)
   1b4d8:	00e6b423          	sd	a4,8(a3)
   1b4dc:	00b9bc23          	sd	a1,24(s3)
   1b4e0:	02c9a023          	sw	a2,32(s3)
   1b4e4:	03a9a423          	sw	s10,40(s3)
   1b4e8:	03c9a503          	lw	a0,60(s3)
   1b4ec:	fff50513          	addi	a0,a0,-1
   1b4f0:	02a9ae23          	sw	a0,60(s3)
   1b4f4:	00100513          	li	a0,1
   1b4f8:	1b813083          	ld	ra,440(sp)
   1b4fc:	1b013403          	ld	s0,432(sp)
   1b500:	1a813483          	ld	s1,424(sp)
   1b504:	1a013903          	ld	s2,416(sp)
   1b508:	19813983          	ld	s3,408(sp)
   1b50c:	19013a03          	ld	s4,400(sp)
   1b510:	18813a83          	ld	s5,392(sp)
   1b514:	18013b03          	ld	s6,384(sp)
   1b518:	17813b83          	ld	s7,376(sp)
   1b51c:	17013c03          	ld	s8,368(sp)
   1b520:	16813c83          	ld	s9,360(sp)
   1b524:	16013d03          	ld	s10,352(sp)
   1b528:	15813d83          	ld	s11,344(sp)
   1b52c:	1c010113          	addi	sp,sp,448
   1b530:	00008067          	ret
   1b534:	419d84bb          	subw	s1,s11,s9
   1b538:	00148493          	addi	s1,s1,1
   1b53c:	002c9913          	slli	s2,s9,0x2
   1b540:	00028537          	lui	a0,0x28
   1b544:	2dc50513          	addi	a0,a0,732 # 282dc <jpeg_natural_order>
   1b548:	01250933          	add	s2,a0,s2
   1b54c:	0180006f          	j	1b564 <decode_mcu_AC_refine+0x450>
   1b550:	00d50533          	add	a0,a0,a3
   1b554:	00aa1023          	sh	a0,0(s4)
   1b558:	fff4849b          	addiw	s1,s1,-1
   1b55c:	00490913          	addi	s2,s2,4
   1b560:	f60482e3          	beqz	s1,1b4c4 <decode_mcu_AC_refine+0x3b0>
   1b564:	00092503          	lw	a0,0(s2)
   1b568:	00151513          	slli	a0,a0,0x1
   1b56c:	00ab0a33          	add	s4,s6,a0
   1b570:	000a5503          	lhu	a0,0(s4)
   1b574:	fe0502e3          	beqz	a0,1b558 <decode_mcu_AC_refine+0x444>
   1b578:	00c05c63          	blez	a2,1b590 <decode_mcu_AC_refine+0x47c>
   1b57c:	fff6061b          	addiw	a2,a2,-1
   1b580:	00c5d533          	srl	a0,a1,a2
   1b584:	00157513          	andi	a0,a0,1
   1b588:	02051863          	bnez	a0,1b5b8 <decode_mcu_AC_refine+0x4a4>
   1b58c:	fcdff06f          	j	1b558 <decode_mcu_AC_refine+0x444>
   1b590:	13010513          	addi	a0,sp,304
   1b594:	00100693          	li	a3,1
   1b598:	c3cfe0ef          	jal	199d4 <jpeg_fill_bit_buffer>
   1b59c:	02050c63          	beqz	a0,1b5d4 <decode_mcu_AC_refine+0x4c0>
   1b5a0:	14013583          	ld	a1,320(sp)
   1b5a4:	14812603          	lw	a2,328(sp)
   1b5a8:	fff6061b          	addiw	a2,a2,-1
   1b5ac:	00c5d533          	srl	a0,a1,a2
   1b5b0:	00157513          	andi	a0,a0,1
   1b5b4:	fa0502e3          	beqz	a0,1b558 <decode_mcu_AC_refine+0x444>
   1b5b8:	000a1503          	lh	a0,0(s4)
   1b5bc:	00abf6b3          	and	a3,s7,a0
   1b5c0:	f8069ce3          	bnez	a3,1b558 <decode_mcu_AC_refine+0x444>
   1b5c4:	02813683          	ld	a3,40(sp)
   1b5c8:	f80544e3          	bltz	a0,1b550 <decode_mcu_AC_refine+0x43c>
   1b5cc:	000b8693          	mv	a3,s7
   1b5d0:	f81ff06f          	j	1b550 <decode_mcu_AC_refine+0x43c>
   1b5d4:	02013583          	ld	a1,32(sp)
   1b5d8:	02b05463          	blez	a1,1b600 <decode_mcu_AC_refine+0x4ec>
   1b5dc:	00259593          	slli	a1,a1,0x2
   1b5e0:	02c10513          	addi	a0,sp,44
   1b5e4:	00b505b3          	add	a1,a0,a1
   1b5e8:	0005a603          	lw	a2,0(a1)
   1b5ec:	00161613          	slli	a2,a2,0x1
   1b5f0:	00cb0633          	add	a2,s6,a2
   1b5f4:	ffc58593          	addi	a1,a1,-4
   1b5f8:	00061023          	sh	zero,0(a2)
   1b5fc:	fea596e3          	bne	a1,a0,1b5e8 <decode_mcu_AC_refine+0x4d4>
   1b600:	00000513          	li	a0,0
   1b604:	ef5ff06f          	j	1b4f8 <decode_mcu_AC_refine+0x3e4>

000000000001b608 <jinit_d_main_controller>:
   1b608:	fb010113          	addi	sp,sp,-80
   1b60c:	04113423          	sd	ra,72(sp)
   1b610:	04813023          	sd	s0,64(sp)
   1b614:	02913c23          	sd	s1,56(sp)
   1b618:	03213823          	sd	s2,48(sp)
   1b61c:	03313423          	sd	s3,40(sp)
   1b620:	03413023          	sd	s4,32(sp)
   1b624:	01513c23          	sd	s5,24(sp)
   1b628:	01613823          	sd	s6,16(sp)
   1b62c:	01713423          	sd	s7,8(sp)
   1b630:	01813023          	sd	s8,0(sp)
   1b634:	00050413          	mv	s0,a0
   1b638:	00853503          	ld	a0,8(a0)
   1b63c:	00053683          	ld	a3,0(a0)
   1b640:	00058913          	mv	s2,a1
   1b644:	00100593          	li	a1,1
   1b648:	08800613          	li	a2,136
   1b64c:	00040513          	mv	a0,s0
   1b650:	000680e7          	jalr	a3
   1b654:	00050493          	mv	s1,a0
   1b658:	22a43423          	sd	a0,552(s0)
   1b65c:	0001c537          	lui	a0,0x1c
   1b660:	81c50513          	addi	a0,a0,-2020 # 1b81c <start_pass_main>
   1b664:	00a4b023          	sd	a0,0(s1)
   1b668:	00090e63          	beqz	s2,1b684 <jinit_d_main_controller+0x7c>
   1b66c:	00043503          	ld	a0,0(s0)
   1b670:	00053583          	ld	a1,0(a0)
   1b674:	00400613          	li	a2,4
   1b678:	02c52423          	sw	a2,40(a0)
   1b67c:	00040513          	mv	a0,s0
   1b680:	000580e7          	jalr	a1
   1b684:	26043503          	ld	a0,608(s0)
   1b688:	01052503          	lw	a0,16(a0)
   1b68c:	1a042903          	lw	s2,416(s0)
   1b690:	0e050c63          	beqz	a0,1b788 <jinit_d_main_controller+0x180>
   1b694:	00100513          	li	a0,1
   1b698:	03254063          	blt	a0,s2,1b6b8 <jinit_d_main_controller+0xb0>
   1b69c:	00043503          	ld	a0,0(s0)
   1b6a0:	00053583          	ld	a1,0(a0)
   1b6a4:	02f00613          	li	a2,47
   1b6a8:	02c52423          	sw	a2,40(a0)
   1b6ac:	00040513          	mv	a0,s0
   1b6b0:	000580e7          	jalr	a1
   1b6b4:	1a042903          	lw	s2,416(s0)
   1b6b8:	00843503          	ld	a0,8(s0)
   1b6bc:	03842583          	lw	a1,56(s0)
   1b6c0:	22843983          	ld	s3,552(s0)
   1b6c4:	00053683          	ld	a3,0(a0)
   1b6c8:	0015961b          	slliw	a2,a1,0x1
   1b6cc:	00361613          	slli	a2,a2,0x3
   1b6d0:	00100593          	li	a1,1
   1b6d4:	00040513          	mv	a0,s0
   1b6d8:	000680e7          	jalr	a3
   1b6dc:	03842583          	lw	a1,56(s0)
   1b6e0:	06a9b423          	sd	a0,104(s3)
   1b6e4:	00359613          	slli	a2,a1,0x3
   1b6e8:	00c50533          	add	a0,a0,a2
   1b6ec:	06a9b823          	sd	a0,112(s3)
   1b6f0:	08b05463          	blez	a1,1b778 <jinit_d_main_controller+0x170>
   1b6f4:	13043503          	ld	a0,304(s0)
   1b6f8:	00000a13          	li	s4,0
   1b6fc:	00000a93          	li	s5,0
   1b700:	00490913          	addi	s2,s2,4
   1b704:	02450b13          	addi	s6,a0,36
   1b708:	fe8b2503          	lw	a0,-24(s6)
   1b70c:	000b2583          	lw	a1,0(s6)
   1b710:	1a042603          	lw	a2,416(s0)
   1b714:	00843683          	ld	a3,8(s0)
   1b718:	02a58533          	mul	a0,a1,a0
   1b71c:	02c54bbb          	divw	s7,a0,a2
   1b720:	0006b683          	ld	a3,0(a3)
   1b724:	032b8c3b          	mulw	s8,s7,s2
   1b728:	001c161b          	slliw	a2,s8,0x1
   1b72c:	00361613          	slli	a2,a2,0x3
   1b730:	00100593          	li	a1,1
   1b734:	00040513          	mv	a0,s0
   1b738:	000680e7          	jalr	a3
   1b73c:	0689b583          	ld	a1,104(s3)
   1b740:	003b9b93          	slli	s7,s7,0x3
   1b744:	01750533          	add	a0,a0,s7
   1b748:	014585b3          	add	a1,a1,s4
   1b74c:	00a5b023          	sd	a0,0(a1)
   1b750:	0709b583          	ld	a1,112(s3)
   1b754:	003c1c13          	slli	s8,s8,0x3
   1b758:	01850533          	add	a0,a0,s8
   1b75c:	01458633          	add	a2,a1,s4
   1b760:	03842583          	lw	a1,56(s0)
   1b764:	00a63023          	sd	a0,0(a2)
   1b768:	001a8a93          	addi	s5,s5,1
   1b76c:	008a0a13          	addi	s4,s4,8
   1b770:	060b0b13          	addi	s6,s6,96
   1b774:	f8bacae3          	blt	s5,a1,1b708 <jinit_d_main_controller+0x100>
   1b778:	1a042903          	lw	s2,416(s0)
   1b77c:	00290913          	addi	s2,s2,2
   1b780:	00b04863          	bgtz	a1,1b790 <jinit_d_main_controller+0x188>
   1b784:	0680006f          	j	1b7ec <jinit_d_main_controller+0x1e4>
   1b788:	03842583          	lw	a1,56(s0)
   1b78c:	06b05063          	blez	a1,1b7ec <jinit_d_main_controller+0x1e4>
   1b790:	13043a03          	ld	s4,304(s0)
   1b794:	00000993          	li	s3,0
   1b798:	01048493          	addi	s1,s1,16
   1b79c:	01ca0a13          	addi	s4,s4,28
   1b7a0:	ff0a2503          	lw	a0,-16(s4)
   1b7a4:	008a2583          	lw	a1,8(s4)
   1b7a8:	00843603          	ld	a2,8(s0)
   1b7ac:	1a042683          	lw	a3,416(s0)
   1b7b0:	000a2703          	lw	a4,0(s4)
   1b7b4:	02a58533          	mul	a0,a1,a0
   1b7b8:	01063783          	ld	a5,16(a2)
   1b7bc:	02d5453b          	divw	a0,a0,a3
   1b7c0:	02b7063b          	mulw	a2,a4,a1
   1b7c4:	032506bb          	mulw	a3,a0,s2
   1b7c8:	00100593          	li	a1,1
   1b7cc:	00040513          	mv	a0,s0
   1b7d0:	000780e7          	jalr	a5
   1b7d4:	03842583          	lw	a1,56(s0)
   1b7d8:	00a4b023          	sd	a0,0(s1)
   1b7dc:	00198993          	addi	s3,s3,1
   1b7e0:	00848493          	addi	s1,s1,8
   1b7e4:	060a0a13          	addi	s4,s4,96
   1b7e8:	fab9cce3          	blt	s3,a1,1b7a0 <jinit_d_main_controller+0x198>
   1b7ec:	04813083          	ld	ra,72(sp)
   1b7f0:	04013403          	ld	s0,64(sp)
   1b7f4:	03813483          	ld	s1,56(sp)
   1b7f8:	03013903          	ld	s2,48(sp)
   1b7fc:	02813983          	ld	s3,40(sp)
   1b800:	02013a03          	ld	s4,32(sp)
   1b804:	01813a83          	ld	s5,24(sp)
   1b808:	01013b03          	ld	s6,16(sp)
   1b80c:	00813b83          	ld	s7,8(sp)
   1b810:	00013c03          	ld	s8,0(sp)
   1b814:	05010113          	addi	sp,sp,80
   1b818:	00008067          	ret

000000000001b81c <start_pass_main>:
   1b81c:	22853603          	ld	a2,552(a0)
   1b820:	00200693          	li	a3,2
   1b824:	14d58a63          	beq	a1,a3,1b978 <start_pass_main+0x15c>
   1b828:	16059063          	bnez	a1,1b988 <start_pass_main+0x16c>
   1b82c:	26053583          	ld	a1,608(a0)
   1b830:	0105a583          	lw	a1,16(a1)
   1b834:	16058c63          	beqz	a1,1b9ac <start_pass_main+0x190>
   1b838:	03852583          	lw	a1,56(a0)
   1b83c:	0001c6b7          	lui	a3,0x1c
   1b840:	9c068693          	addi	a3,a3,-1600 # 1b9c0 <process_data_context_main>
   1b844:	00d63423          	sd	a3,8(a2)
   1b848:	14b05a63          	blez	a1,1b99c <start_pass_main+0x180>
   1b84c:	1a052683          	lw	a3,416(a0)
   1b850:	00000713          	li	a4,0
   1b854:	13053503          	ld	a0,304(a0)
   1b858:	01060793          	addi	a5,a2,16
   1b85c:	00268813          	addi	a6,a3,2
   1b860:	ffe68893          	addi	a7,a3,-2
   1b864:	0100006f          	j	1b874 <start_pass_main+0x58>
   1b868:	00170713          	addi	a4,a4,1
   1b86c:	06050513          	addi	a0,a0,96
   1b870:	12b70663          	beq	a4,a1,1b99c <start_pass_main+0x180>
   1b874:	00c52283          	lw	t0,12(a0)
   1b878:	02452303          	lw	t1,36(a0)
   1b87c:	06863383          	ld	t2,104(a2)
   1b880:	02530333          	mul	t1,t1,t0
   1b884:	07063e03          	ld	t3,112(a2)
   1b888:	00371e93          	slli	t4,a4,0x3
   1b88c:	01d383b3          	add	t2,t2,t4
   1b890:	0003b283          	ld	t0,0(t2)
   1b894:	01de0e33          	add	t3,t3,t4
   1b898:	000e3e03          	ld	t3,0(t3)
   1b89c:	01d78eb3          	add	t4,a5,t4
   1b8a0:	000eb383          	ld	t2,0(t4)
   1b8a4:	02d3433b          	divw	t1,t1,a3
   1b8a8:	03030ebb          	mulw	t4,t1,a6
   1b8ac:	03d05e63          	blez	t4,1b8e8 <start_pass_main+0xcc>
   1b8b0:	003e9e93          	slli	t4,t4,0x3
   1b8b4:	01d28eb3          	add	t4,t0,t4
   1b8b8:	00038f13          	mv	t5,t2
   1b8bc:	000e0f93          	mv	t6,t3
   1b8c0:	00084023          	regsw_c	zero,0(a6)
   1b8c4:	00028093          	mv	ra,t0
   1b8c8:	41784123          	regsw_c	s7,1026(a6)
   1b8cc:	000f3103          	ld	sp,0(t5)
   1b8d0:	002fb023          	sd	sp,0(t6)
   1b8d4:	0020b023          	sd	sp,0(ra)
   1b8d8:	00808093          	addi	ra,ra,8
   1b8dc:	008f8f93          	addi	t6,t6,8
   1b8e0:	008f0f13          	addi	t5,t5,8
   1b8e4:	ffd092e3          	bne	ra,t4,1b8c8 <start_pass_main+0xac>
   1b8e8:	f86050e3          	blez	t1,1b868 <start_pass_main+0x4c>
   1b8ec:	01084023          	regsw_c	a6,0(a6)
   1b8f0:	0013109b          	slliw	ra,t1,0x1
   1b8f4:	00104663          	bgtz	ra,1b900 <start_pass_main+0xe4>
   1b8f8:	00084023          	regsw_c	zero,0(a6)
   1b8fc:	00100093          	li	ra,1
   1b900:	02d30fbb          	mulw	t6,t1,a3
   1b904:	03130ebb          	mulw	t4,t1,a7
   1b908:	01284323          	regsw_c	s2,6(a6)
   1b90c:	003e9113          	slli	sp,t4,0x3
   1b910:	00238eb3          	add	t4,t2,sp
   1b914:	002e0f33          	add	t5,t3,sp
   1b918:	003f9f93          	slli	t6,t6,0x3
   1b91c:	01fe0e33          	add	t3,t3,t6
   1b920:	01f38fb3          	add	t6,t2,t6
   1b924:	00309093          	slli	ra,ra,0x3
   1b928:	010e4023          	regsw_c	a6,0(t3)
   1b92c:	001100b3          	add	ra,sp,ra
   1b930:	001383b3          	add	t2,t2,ra
   1b934:	21884023          	regsw_c	s8,512(a6)
   1b938:	000fb083          	ld	ra,0(t6)
   1b93c:	001f3023          	sd	ra,0(t5)
   1b940:	000eb083          	ld	ra,0(t4)
   1b944:	001e3023          	sd	ra,0(t3)
   1b948:	008e8e93          	addi	t4,t4,8
   1b94c:	008f0f13          	addi	t5,t5,8
   1b950:	008e0e13          	addi	t3,t3,8
   1b954:	008f8f93          	addi	t6,t6,8
   1b958:	fc7e9ee3          	bne	t4,t2,1b934 <start_pass_main+0x118>
   1b95c:	0002b383          	ld	t2,0(t0)
   1b960:	00331313          	slli	t1,t1,0x3
   1b964:	40628333          	sub	t1,t0,t1
   1b968:	00733023          	sd	t2,0(t1)
   1b96c:	00830313          	addi	t1,t1,8
   1b970:	fe531ce3          	bne	t1,t0,1b968 <start_pass_main+0x14c>
   1b974:	ef5ff06f          	j	1b868 <start_pass_main+0x4c>
   1b978:	0001c537          	lui	a0,0x1c
   1b97c:	d8c50513          	addi	a0,a0,-628 # 1bd8c <process_data_crank_post>
   1b980:	00a63423          	sd	a0,8(a2)
   1b984:	00008067          	ret
   1b988:	00053583          	ld	a1,0(a0)
   1b98c:	0005b303          	ld	t1,0(a1)
   1b990:	00400613          	li	a2,4
   1b994:	02c5a423          	sw	a2,40(a1)
   1b998:	00030067          	jr	t1
   1b99c:	06063c23          	sd	zero,120(a2)
   1b9a0:	08062223          	sw	zero,132(a2)
   1b9a4:	06063023          	sd	zero,96(a2)
   1b9a8:	00008067          	ret
   1b9ac:	0001c537          	lui	a0,0x1c
   1b9b0:	cd450513          	addi	a0,a0,-812 # 1bcd4 <process_data_simple_main>
   1b9b4:	00a63423          	sd	a0,8(a2)
   1b9b8:	06063023          	sd	zero,96(a2)
   1b9bc:	00008067          	ret

000000000001b9c0 <process_data_context_main>:
   1b9c0:	fd010113          	addi	sp,sp,-48
   1b9c4:	02113423          	sd	ra,40(sp)
   1b9c8:	02813023          	sd	s0,32(sp)
   1b9cc:	00913c23          	sd	s1,24(sp)
   1b9d0:	01213823          	sd	s2,16(sp)
   1b9d4:	01313423          	sd	s3,8(sp)
   1b9d8:	01413023          	sd	s4,0(sp)
   1b9dc:	00050413          	mv	s0,a0
   1b9e0:	22853a03          	ld	s4,552(a0)
   1b9e4:	060a2503          	lw	a0,96(s4)
   1b9e8:	00068493          	mv	s1,a3
   1b9ec:	00060913          	mv	s2,a2
   1b9f0:	00058993          	mv	s3,a1
   1b9f4:	00050863          	beqz	a0,1ba04 <process_data_context_main+0x44>
   1b9f8:	07ca2503          	lw	a0,124(s4)
   1b9fc:	04051463          	bnez	a0,1ba44 <process_data_context_main+0x84>
   1ba00:	0a00006f          	j	1baa0 <process_data_context_main+0xe0>
   1ba04:	23043503          	ld	a0,560(s0)
   1ba08:	078a2583          	lw	a1,120(s4)
   1ba0c:	01853603          	ld	a2,24(a0)
   1ba10:	00359593          	slli	a1,a1,0x3
   1ba14:	00ba05b3          	add	a1,s4,a1
   1ba18:	0685b583          	ld	a1,104(a1)
   1ba1c:	00040513          	mv	a0,s0
   1ba20:	000600e7          	jalr	a2
   1ba24:	28050863          	beqz	a0,1bcb4 <process_data_context_main+0x2f4>
   1ba28:	084a2503          	lw	a0,132(s4)
   1ba2c:	00100593          	li	a1,1
   1ba30:	06ba2023          	sw	a1,96(s4)
   1ba34:	00150513          	addi	a0,a0,1
   1ba38:	08aa2223          	sw	a0,132(s4)
   1ba3c:	07ca2503          	lw	a0,124(s4)
   1ba40:	06050063          	beqz	a0,1baa0 <process_data_context_main+0xe0>
   1ba44:	00100593          	li	a1,1
   1ba48:	12b50e63          	beq	a0,a1,1bb84 <process_data_context_main+0x1c4>
   1ba4c:	00200593          	li	a1,2
   1ba50:	26b51263          	bne	a0,a1,1bcb4 <process_data_context_main+0x2f4>
   1ba54:	23843503          	ld	a0,568(s0)
   1ba58:	078a2583          	lw	a1,120(s4)
   1ba5c:	00853883          	ld	a7,8(a0)
   1ba60:	00359593          	slli	a1,a1,0x3
   1ba64:	00ba05b3          	add	a1,s4,a1
   1ba68:	0685b583          	ld	a1,104(a1)
   1ba6c:	080a2683          	lw	a3,128(s4)
   1ba70:	064a0613          	addi	a2,s4,100
   1ba74:	00040513          	mv	a0,s0
   1ba78:	00098713          	mv	a4,s3
   1ba7c:	00090793          	mv	a5,s2
   1ba80:	00048813          	mv	a6,s1
   1ba84:	000880e7          	jalr	a7
   1ba88:	064a2503          	lw	a0,100(s4)
   1ba8c:	080a2583          	lw	a1,128(s4)
   1ba90:	22b56263          	bltu	a0,a1,1bcb4 <process_data_context_main+0x2f4>
   1ba94:	060a2e23          	sw	zero,124(s4)
   1ba98:	00092503          	lw	a0,0(s2)
   1ba9c:	20957c63          	bgeu	a0,s1,1bcb4 <process_data_context_main+0x2f4>
   1baa0:	1a042503          	lw	a0,416(s0)
   1baa4:	084a2583          	lw	a1,132(s4)
   1baa8:	1a442603          	lw	a2,420(s0)
   1baac:	060a2223          	sw	zero,100(s4)
   1bab0:	fff50693          	addi	a3,a0,-1
   1bab4:	08da2023          	sw	a3,128(s4)
   1bab8:	0cc59263          	bne	a1,a2,1bb7c <process_data_context_main+0x1bc>
   1babc:	03842583          	lw	a1,56(s0)
   1bac0:	0ab05e63          	blez	a1,1bb7c <process_data_context_main+0x1bc>
   1bac4:	22843603          	ld	a2,552(s0)
   1bac8:	07862783          	lw	a5,120(a2)
   1bacc:	13043683          	ld	a3,304(s0)
   1bad0:	00000713          	li	a4,0
   1bad4:	00379793          	slli	a5,a5,0x3
   1bad8:	00f607b3          	add	a5,a2,a5
   1badc:	0100006f          	j	1baec <process_data_context_main+0x12c>
   1bae0:	00170713          	addi	a4,a4,1
   1bae4:	06068693          	addi	a3,a3,96
   1bae8:	08b70a63          	beq	a4,a1,1bb7c <process_data_context_main+0x1bc>
   1baec:	00c6a803          	lw	a6,12(a3)
   1baf0:	0246a883          	lw	a7,36(a3)
   1baf4:	02c6a283          	lw	t0,44(a3)
   1baf8:	030888bb          	mulw	a7,a7,a6
   1bafc:	0312f2bb          	remuw	t0,t0,a7
   1bb00:	00088813          	mv	a6,a7
   1bb04:	00029a63          	bnez	t0,1bb18 <process_data_context_main+0x158>
   1bb08:	02a8c8bb          	divw	a7,a7,a0
   1bb0c:	00070c63          	beqz	a4,1bb24 <process_data_context_main+0x164>
   1bb10:	03104463          	bgtz	a7,1bb38 <process_data_context_main+0x178>
   1bb14:	fcdff06f          	j	1bae0 <process_data_context_main+0x120>
   1bb18:	00028813          	mv	a6,t0
   1bb1c:	02a8c8bb          	divw	a7,a7,a0
   1bb20:	fe0718e3          	bnez	a4,1bb10 <process_data_context_main+0x150>
   1bb24:	fff80293          	addi	t0,a6,-1
   1bb28:	0312c2bb          	divw	t0,t0,a7
   1bb2c:	00128293          	addi	t0,t0,1
   1bb30:	08562023          	sw	t0,128(a2)
   1bb34:	fb1056e3          	blez	a7,1bae0 <process_data_context_main+0x120>
   1bb38:	0018989b          	slliw	a7,a7,0x1
   1bb3c:	01104463          	bgtz	a7,1bb44 <process_data_context_main+0x184>
   1bb40:	00100893          	li	a7,1
   1bb44:	0687b283          	ld	t0,104(a5)
   1bb48:	00371313          	slli	t1,a4,0x3
   1bb4c:	006282b3          	add	t0,t0,t1
   1bb50:	0002b303          	ld	t1,0(t0)
   1bb54:	00381393          	slli	t2,a6,0x3
   1bb58:	00730833          	add	a6,t1,t2
   1bb5c:	ff883283          	ld	t0,-8(a6)
   1bb60:	00389893          	slli	a7,a7,0x3
   1bb64:	011388b3          	add	a7,t2,a7
   1bb68:	011308b3          	add	a7,t1,a7
   1bb6c:	00583023          	sd	t0,0(a6)
   1bb70:	00880813          	addi	a6,a6,8
   1bb74:	ff181ce3          	bne	a6,a7,1bb6c <process_data_context_main+0x1ac>
   1bb78:	f69ff06f          	j	1bae0 <process_data_context_main+0x120>
   1bb7c:	00100513          	li	a0,1
   1bb80:	06aa2e23          	sw	a0,124(s4)
   1bb84:	23843503          	ld	a0,568(s0)
   1bb88:	078a2583          	lw	a1,120(s4)
   1bb8c:	00853883          	ld	a7,8(a0)
   1bb90:	00359593          	slli	a1,a1,0x3
   1bb94:	00ba05b3          	add	a1,s4,a1
   1bb98:	0685b583          	ld	a1,104(a1)
   1bb9c:	080a2683          	lw	a3,128(s4)
   1bba0:	064a0613          	addi	a2,s4,100
   1bba4:	00040513          	mv	a0,s0
   1bba8:	00098713          	mv	a4,s3
   1bbac:	00090793          	mv	a5,s2
   1bbb0:	00048813          	mv	a6,s1
   1bbb4:	000880e7          	jalr	a7
   1bbb8:	064a2503          	lw	a0,100(s4)
   1bbbc:	080a2583          	lw	a1,128(s4)
   1bbc0:	0eb56a63          	bltu	a0,a1,1bcb4 <process_data_context_main+0x2f4>
   1bbc4:	1a042603          	lw	a2,416(s0)
   1bbc8:	084a2683          	lw	a3,132(s4)
   1bbcc:	00100713          	li	a4,1
   1bbd0:	00160513          	addi	a0,a2,1
   1bbd4:	00260593          	addi	a1,a2,2
   1bbd8:	0ae69e63          	bne	a3,a4,1bc94 <process_data_context_main+0x2d4>
   1bbdc:	03842683          	lw	a3,56(s0)
   1bbe0:	0ad05a63          	blez	a3,1bc94 <process_data_context_main+0x2d4>
   1bbe4:	13043703          	ld	a4,304(s0)
   1bbe8:	22843783          	ld	a5,552(s0)
   1bbec:	00000813          	li	a6,0
   1bbf0:	0100006f          	j	1bc00 <process_data_context_main+0x240>
   1bbf4:	00180813          	addi	a6,a6,1
   1bbf8:	06070713          	addi	a4,a4,96
   1bbfc:	08d80c63          	beq	a6,a3,1bc94 <process_data_context_main+0x2d4>
   1bc00:	00c72883          	lw	a7,12(a4)
   1bc04:	02472283          	lw	t0,36(a4)
   1bc08:	031288b3          	mul	a7,t0,a7
   1bc0c:	02c8c3bb          	divw	t2,a7,a2
   1bc10:	fe7052e3          	blez	t2,1bbf4 <process_data_context_main+0x234>
   1bc14:	0687b883          	ld	a7,104(a5)
   1bc18:	0707b283          	ld	t0,112(a5)
   1bc1c:	00381313          	slli	t1,a6,0x3
   1bc20:	006888b3          	add	a7,a7,t1
   1bc24:	0008b883          	ld	a7,0(a7)
   1bc28:	006282b3          	add	t0,t0,t1
   1bc2c:	0002b283          	ld	t0,0(t0)
   1bc30:	02a38e3b          	mulw	t3,t2,a0
   1bc34:	02b3833b          	mulw	t1,t2,a1
   1bc38:	00331313          	slli	t1,t1,0x3
   1bc3c:	00339e93          	slli	t4,t2,0x3
   1bc40:	41d003b3          	neg	t2,t4
   1bc44:	003e1e13          	slli	t3,t3,0x3
   1bc48:	01d28eb3          	add	t4,t0,t4
   1bc4c:	01c88f33          	add	t5,a7,t3
   1bc50:	000f3f03          	ld	t5,0(t5)
   1bc54:	00788fb3          	add	t6,a7,t2
   1bc58:	01efb023          	sd	t5,0(t6)
   1bc5c:	01c28f33          	add	t5,t0,t3
   1bc60:	000f3f03          	ld	t5,0(t5)
   1bc64:	00728fb3          	add	t6,t0,t2
   1bc68:	01efb023          	sd	t5,0(t6)
   1bc6c:	0008bf03          	ld	t5,0(a7)
   1bc70:	00688fb3          	add	t6,a7,t1
   1bc74:	01efb023          	sd	t5,0(t6)
   1bc78:	0002bf03          	ld	t5,0(t0)
   1bc7c:	00628fb3          	add	t6,t0,t1
   1bc80:	01efb023          	sd	t5,0(t6)
   1bc84:	00828293          	addi	t0,t0,8
   1bc88:	00888893          	addi	a7,a7,8
   1bc8c:	fdd290e3          	bne	t0,t4,1bc4c <process_data_context_main+0x28c>
   1bc90:	f65ff06f          	j	1bbf4 <process_data_context_main+0x234>
   1bc94:	078a2603          	lw	a2,120(s4)
   1bc98:	00164613          	xori	a2,a2,1
   1bc9c:	06ca2c23          	sw	a2,120(s4)
   1bca0:	060a2023          	sw	zero,96(s4)
   1bca4:	06aa2223          	sw	a0,100(s4)
   1bca8:	08ba2023          	sw	a1,128(s4)
   1bcac:	00200513          	li	a0,2
   1bcb0:	06aa2e23          	sw	a0,124(s4)
   1bcb4:	02813083          	ld	ra,40(sp)
   1bcb8:	02013403          	ld	s0,32(sp)
   1bcbc:	01813483          	ld	s1,24(sp)
   1bcc0:	01013903          	ld	s2,16(sp)
   1bcc4:	00813983          	ld	s3,8(sp)
   1bcc8:	00013a03          	ld	s4,0(sp)
   1bccc:	03010113          	addi	sp,sp,48
   1bcd0:	00008067          	ret

000000000001bcd4 <process_data_simple_main>:
   1bcd4:	fc010113          	addi	sp,sp,-64
   1bcd8:	02113c23          	sd	ra,56(sp)
   1bcdc:	02813823          	sd	s0,48(sp)
   1bce0:	02913423          	sd	s1,40(sp)
   1bce4:	03213023          	sd	s2,32(sp)
   1bce8:	01313c23          	sd	s3,24(sp)
   1bcec:	01413823          	sd	s4,16(sp)
   1bcf0:	01513423          	sd	s5,8(sp)
   1bcf4:	22853a03          	ld	s4,552(a0)
   1bcf8:	060a2703          	lw	a4,96(s4)
   1bcfc:	00068413          	mv	s0,a3
   1bd00:	00060493          	mv	s1,a2
   1bd04:	00058913          	mv	s2,a1
   1bd08:	010a0593          	addi	a1,s4,16
   1bd0c:	02071663          	bnez	a4,1bd38 <process_data_simple_main+0x64>
   1bd10:	23053603          	ld	a2,560(a0)
   1bd14:	01863603          	ld	a2,24(a2)
   1bd18:	00050993          	mv	s3,a0
   1bd1c:	00058a93          	mv	s5,a1
   1bd20:	000600e7          	jalr	a2
   1bd24:	04050263          	beqz	a0,1bd68 <process_data_simple_main+0x94>
   1bd28:	00100513          	li	a0,1
   1bd2c:	06aa2023          	sw	a0,96(s4)
   1bd30:	00098513          	mv	a0,s3
   1bd34:	000a8593          	mv	a1,s5
   1bd38:	23853603          	ld	a2,568(a0)
   1bd3c:	1a052983          	lw	s3,416(a0)
   1bd40:	00863883          	ld	a7,8(a2)
   1bd44:	064a0613          	addi	a2,s4,100
   1bd48:	00098693          	mv	a3,s3
   1bd4c:	00090713          	mv	a4,s2
   1bd50:	00048793          	mv	a5,s1
   1bd54:	00040813          	mv	a6,s0
   1bd58:	000880e7          	jalr	a7
   1bd5c:	064a2503          	lw	a0,100(s4)
   1bd60:	01356463          	bltu	a0,s3,1bd68 <process_data_simple_main+0x94>
   1bd64:	060a3023          	sd	zero,96(s4)
   1bd68:	03813083          	ld	ra,56(sp)
   1bd6c:	03013403          	ld	s0,48(sp)
   1bd70:	02813483          	ld	s1,40(sp)
   1bd74:	02013903          	ld	s2,32(sp)
   1bd78:	01813983          	ld	s3,24(sp)
   1bd7c:	01013a03          	ld	s4,16(sp)
   1bd80:	00813a83          	ld	s5,8(sp)
   1bd84:	04010113          	addi	sp,sp,64
   1bd88:	00008067          	ret

000000000001bd8c <process_data_crank_post>:
   1bd8c:	23853703          	ld	a4,568(a0)
   1bd90:	00873303          	ld	t1,8(a4)
   1bd94:	00068813          	mv	a6,a3
   1bd98:	00060793          	mv	a5,a2
   1bd9c:	00058713          	mv	a4,a1
   1bda0:	00000593          	li	a1,0
   1bda4:	00000613          	li	a2,0
   1bda8:	00000693          	li	a3,0
   1bdac:	00030067          	jr	t1

000000000001bdb0 <jinit_d_coef_controller>:
   1bdb0:	fb010113          	addi	sp,sp,-80
   1bdb4:	04113423          	sd	ra,72(sp)
   1bdb8:	04813023          	sd	s0,64(sp)
   1bdbc:	02913c23          	sd	s1,56(sp)
   1bdc0:	03213823          	sd	s2,48(sp)
   1bdc4:	03313423          	sd	s3,40(sp)
   1bdc8:	03413023          	sd	s4,32(sp)
   1bdcc:	01513c23          	sd	s5,24(sp)
   1bdd0:	01613823          	sd	s6,16(sp)
   1bdd4:	01713423          	sd	s7,8(sp)
   1bdd8:	00050493          	mv	s1,a0
   1bddc:	00853503          	ld	a0,8(a0)
   1bde0:	00053683          	ld	a3,0(a0)
   1bde4:	00058913          	mv	s2,a1
   1bde8:	00100593          	li	a1,1
   1bdec:	0e000613          	li	a2,224
   1bdf0:	00048513          	mv	a0,s1
   1bdf4:	000680e7          	jalr	a3
   1bdf8:	00050413          	mv	s0,a0
   1bdfc:	22a4b823          	sd	a0,560(s1)
   1be00:	0001c537          	lui	a0,0x1c
   1be04:	f7c50513          	addi	a0,a0,-132 # 1bf7c <start_input_pass>
   1be08:	00a43023          	sd	a0,0(s0)
   1be0c:	0001c537          	lui	a0,0x1c
   1be10:	fd050513          	addi	a0,a0,-48 # 1bfd0 <start_output_pass>
   1be14:	00a43823          	sd	a0,16(s0)
   1be18:	0c043c23          	sd	zero,216(s0)
   1be1c:	0a090863          	beqz	s2,1becc <jinit_d_coef_controller+0x11c>
   1be20:	0384a503          	lw	a0,56(s1)
   1be24:	08a05663          	blez	a0,1beb0 <jinit_d_coef_controller+0x100>
   1be28:	1304bb03          	ld	s6,304(s1)
   1be2c:	00000a13          	li	s4,0
   1be30:	08840a93          	addi	s5,s0,136
   1be34:	01cb0b13          	addi	s6,s6,28
   1be38:	1384a503          	lw	a0,312(s1)
   1be3c:	ff0b2603          	lw	a2,-16(s6)
   1be40:	0084b583          	ld	a1,8(s1)
   1be44:	00153693          	seqz	a3,a0
   1be48:	00161713          	slli	a4,a2,0x1
   1be4c:	0285bb83          	ld	s7,40(a1)
   1be50:	000b6503          	lwu	a0,0(s6)
   1be54:	fecb2583          	lw	a1,-20(s6)
   1be58:	fff68693          	addi	a3,a3,-1
   1be5c:	00e6f6b3          	and	a3,a3,a4
   1be60:	00d6093b          	addw	s2,a2,a3
   1be64:	58c080ef          	jal	243f0 <jround_up>
   1be68:	004b6603          	lwu	a2,4(s6)
   1be6c:	ff0b2583          	lw	a1,-16(s6)
   1be70:	00050993          	mv	s3,a0
   1be74:	00060513          	mv	a0,a2
   1be78:	578080ef          	jal	243f0 <jround_up>
   1be7c:	0009869b          	sext.w	a3,s3
   1be80:	0005071b          	sext.w	a4,a0
   1be84:	00100593          	li	a1,1
   1be88:	00100613          	li	a2,1
   1be8c:	00048513          	mv	a0,s1
   1be90:	00090793          	mv	a5,s2
   1be94:	000b80e7          	jalr	s7
   1be98:	0384a583          	lw	a1,56(s1)
   1be9c:	00aab023          	sd	a0,0(s5)
   1bea0:	001a0a13          	addi	s4,s4,1
   1bea4:	008a8a93          	addi	s5,s5,8
   1bea8:	060b0b13          	addi	s6,s6,96
   1beac:	f8ba46e3          	blt	s4,a1,1be38 <jinit_d_coef_controller+0x88>
   1beb0:	08840593          	addi	a1,s0,136
   1beb4:	0001c537          	lui	a0,0x1c
   1beb8:	14050513          	addi	a0,a0,320 # 1c140 <consume_data>
   1bebc:	00a43423          	sd	a0,8(s0)
   1bec0:	0001c537          	lui	a0,0x1c
   1bec4:	38c50513          	addi	a0,a0,908 # 1c38c <decompress_data>
   1bec8:	0800006f          	j	1bf48 <jinit_d_coef_controller+0x198>
   1becc:	0084b503          	ld	a0,8(s1)
   1bed0:	00853683          	ld	a3,8(a0)
   1bed4:	00100593          	li	a1,1
   1bed8:	50000613          	li	a2,1280
   1bedc:	00048513          	mv	a0,s1
   1bee0:	000680e7          	jalr	a3
   1bee4:	00000593          	li	a1,0
   1bee8:	02a43c23          	sd	a0,56(s0)
   1beec:	08050613          	addi	a2,a0,128
   1bef0:	04c43023          	sd	a2,64(s0)
   1bef4:	10050613          	addi	a2,a0,256
   1bef8:	04c43423          	sd	a2,72(s0)
   1befc:	18050613          	addi	a2,a0,384
   1bf00:	04c43823          	sd	a2,80(s0)
   1bf04:	20050613          	addi	a2,a0,512
   1bf08:	04c43c23          	sd	a2,88(s0)
   1bf0c:	28050613          	addi	a2,a0,640
   1bf10:	06c43023          	sd	a2,96(s0)
   1bf14:	30050613          	addi	a2,a0,768
   1bf18:	06c43423          	sd	a2,104(s0)
   1bf1c:	38050613          	addi	a2,a0,896
   1bf20:	06c43823          	sd	a2,112(s0)
   1bf24:	40050613          	addi	a2,a0,1024
   1bf28:	06c43c23          	sd	a2,120(s0)
   1bf2c:	48050513          	addi	a0,a0,1152
   1bf30:	08a43023          	sd	a0,128(s0)
   1bf34:	0001c537          	lui	a0,0x1c
   1bf38:	58450513          	addi	a0,a0,1412 # 1c584 <dummy_consume_data>
   1bf3c:	00a43423          	sd	a0,8(s0)
   1bf40:	0001c537          	lui	a0,0x1c
   1bf44:	58c50513          	addi	a0,a0,1420 # 1c58c <decompress_onepass>
   1bf48:	00a43c23          	sd	a0,24(s0)
   1bf4c:	02b43023          	sd	a1,32(s0)
   1bf50:	04813083          	ld	ra,72(sp)
   1bf54:	04013403          	ld	s0,64(sp)
   1bf58:	03813483          	ld	s1,56(sp)
   1bf5c:	03013903          	ld	s2,48(sp)
   1bf60:	02813983          	ld	s3,40(sp)
   1bf64:	02013a03          	ld	s4,32(sp)
   1bf68:	01813a83          	ld	s5,24(sp)
   1bf6c:	01013b03          	ld	s6,16(sp)
   1bf70:	00813b83          	ld	s7,8(sp)
   1bf74:	05010113          	addi	sp,sp,80
   1bf78:	00008067          	ret

000000000001bf7c <start_input_pass>:
   1bf7c:	1b052603          	lw	a2,432(a0)
   1bf80:	23053583          	ld	a1,560(a0)
   1bf84:	00200693          	li	a3,2
   1bf88:	0a052823          	sw	zero,176(a0)
   1bf8c:	00d64a63          	blt	a2,a3,1bfa0 <start_input_pass+0x24>
   1bf90:	00100513          	li	a0,1
   1bf94:	02a5a823          	sw	a0,48(a1)
   1bf98:	0205b423          	sd	zero,40(a1)
   1bf9c:	00008067          	ret
   1bfa0:	1a452603          	lw	a2,420(a0)
   1bfa4:	1b853503          	ld	a0,440(a0)
   1bfa8:	00100693          	li	a3,1
   1bfac:	00d61a63          	bne	a2,a3,1bfc0 <start_input_pass+0x44>
   1bfb0:	04852503          	lw	a0,72(a0)
   1bfb4:	02a5a823          	sw	a0,48(a1)
   1bfb8:	0205b423          	sd	zero,40(a1)
   1bfbc:	00008067          	ret
   1bfc0:	00c52503          	lw	a0,12(a0)
   1bfc4:	02a5a823          	sw	a0,48(a1)
   1bfc8:	0205b423          	sd	zero,40(a1)
   1bfcc:	00008067          	ret

000000000001bfd0 <start_output_pass>:
   1bfd0:	fe010113          	addi	sp,sp,-32
   1bfd4:	00113c23          	sd	ra,24(sp)
   1bfd8:	00813823          	sd	s0,16(sp)
   1bfdc:	00913423          	sd	s1,8(sp)
   1bfe0:	23053483          	ld	s1,560(a0)
   1bfe4:	0204b583          	ld	a1,32(s1)
   1bfe8:	14058063          	beqz	a1,1c128 <start_output_pass+0x158>
   1bfec:	06852583          	lw	a1,104(a0)
   1bff0:	12058663          	beqz	a1,1c11c <start_output_pass+0x14c>
   1bff4:	13852583          	lw	a1,312(a0)
   1bff8:	12058263          	beqz	a1,1c11c <start_output_pass+0x14c>
   1bffc:	0c053583          	ld	a1,192(a0)
   1c000:	10058e63          	beqz	a1,1c11c <start_output_pass+0x14c>
   1c004:	0d84b583          	ld	a1,216(s1)
   1c008:	00058863          	beqz	a1,1c018 <start_output_pass+0x48>
   1c00c:	03852603          	lw	a2,56(a0)
   1c010:	02c04e63          	bgtz	a2,1c04c <start_output_pass+0x7c>
   1c014:	1080006f          	j	1c11c <start_output_pass+0x14c>
   1c018:	00853583          	ld	a1,8(a0)
   1c01c:	03852603          	lw	a2,56(a0)
   1c020:	0005b683          	ld	a3,0(a1)
   1c024:	01800593          	li	a1,24
   1c028:	02b60633          	mul	a2,a2,a1
   1c02c:	00100593          	li	a1,1
   1c030:	00050413          	mv	s0,a0
   1c034:	000680e7          	jalr	a3
   1c038:	00050593          	mv	a1,a0
   1c03c:	00040513          	mv	a0,s0
   1c040:	0cb4bc23          	sd	a1,216(s1)
   1c044:	03842603          	lw	a2,56(s0)
   1c048:	0cc05a63          	blez	a2,1c11c <start_output_pass+0x14c>
   1c04c:	13053783          	ld	a5,304(a0)
   1c050:	00000613          	li	a2,0
   1c054:	00000693          	li	a3,0
   1c058:	00000713          	li	a4,0
   1c05c:	05078793          	addi	a5,a5,80
   1c060:	00c58593          	addi	a1,a1,12
   1c064:	01c0006f          	j	1c080 <start_output_pass+0xb0>
   1c068:	03852803          	lw	a6,56(a0)
   1c06c:	00168693          	addi	a3,a3,1
   1c070:	10060613          	addi	a2,a2,256
   1c074:	06078793          	addi	a5,a5,96
   1c078:	01858593          	addi	a1,a1,24
   1c07c:	0906d863          	bge	a3,a6,1c10c <start_output_pass+0x13c>
   1c080:	0007b803          	ld	a6,0(a5)
   1c084:	08080c63          	beqz	a6,1c11c <start_output_pass+0x14c>
   1c088:	00085883          	lhu	a7,0(a6)
   1c08c:	08088863          	beqz	a7,1c11c <start_output_pass+0x14c>
   1c090:	00285883          	lhu	a7,2(a6)
   1c094:	08088463          	beqz	a7,1c11c <start_output_pass+0x14c>
   1c098:	01085883          	lhu	a7,16(a6)
   1c09c:	08088063          	beqz	a7,1c11c <start_output_pass+0x14c>
   1c0a0:	02085883          	lhu	a7,32(a6)
   1c0a4:	06088c63          	beqz	a7,1c11c <start_output_pass+0x14c>
   1c0a8:	01285883          	lhu	a7,18(a6)
   1c0ac:	06088863          	beqz	a7,1c11c <start_output_pass+0x14c>
   1c0b0:	00485803          	lhu	a6,4(a6)
   1c0b4:	06080463          	beqz	a6,1c11c <start_output_pass+0x14c>
   1c0b8:	0c053803          	ld	a6,192(a0)
   1c0bc:	00c80833          	add	a6,a6,a2
   1c0c0:	00082883          	lw	a7,0(a6)
   1c0c4:	0408cc63          	bltz	a7,1c11c <start_output_pass+0x14c>
   1c0c8:	00482883          	lw	a7,4(a6)
   1c0cc:	ff15ac23          	sw	a7,-8(a1)
   1c0d0:	00882283          	lw	t0,8(a6)
   1c0d4:	fe55ae23          	sw	t0,-4(a1)
   1c0d8:	00c82303          	lw	t1,12(a6)
   1c0dc:	0065a023          	sw	t1,0(a1)
   1c0e0:	01082383          	lw	t2,16(a6)
   1c0e4:	0075a223          	sw	t2,4(a1)
   1c0e8:	01482803          	lw	a6,20(a6)
   1c0ec:	007863b3          	or	t2,a6,t2
   1c0f0:	005362b3          	or	t0,t1,t0
   1c0f4:	0053e2b3          	or	t0,t2,t0
   1c0f8:	0112e8b3          	or	a7,t0,a7
   1c0fc:	0105a423          	sw	a6,8(a1)
   1c100:	f60884e3          	beqz	a7,1c068 <start_output_pass+0x98>
   1c104:	00100713          	li	a4,1
   1c108:	f61ff06f          	j	1c068 <start_output_pass+0x98>
   1c10c:	00070863          	beqz	a4,1c11c <start_output_pass+0x14c>
   1c110:	0001d5b7          	lui	a1,0x1d
   1c114:	87c58593          	addi	a1,a1,-1924 # 1c87c <decompress_smooth_data>
   1c118:	00c0006f          	j	1c124 <start_output_pass+0x154>
   1c11c:	0001c5b7          	lui	a1,0x1c
   1c120:	38c58593          	addi	a1,a1,908 # 1c38c <decompress_data>
   1c124:	00b4bc23          	sd	a1,24(s1)
   1c128:	0a052c23          	sw	zero,184(a0)
   1c12c:	01813083          	ld	ra,24(sp)
   1c130:	01013403          	ld	s0,16(sp)
   1c134:	00813483          	ld	s1,8(sp)
   1c138:	02010113          	addi	sp,sp,32
   1c13c:	00008067          	ret

000000000001c140 <consume_data>:
   1c140:	f9010113          	addi	sp,sp,-112
   1c144:	06113423          	sd	ra,104(sp)
   1c148:	06813023          	sd	s0,96(sp)
   1c14c:	04913c23          	sd	s1,88(sp)
   1c150:	05213823          	sd	s2,80(sp)
   1c154:	05313423          	sd	s3,72(sp)
   1c158:	05413023          	sd	s4,64(sp)
   1c15c:	03513c23          	sd	s5,56(sp)
   1c160:	03613823          	sd	s6,48(sp)
   1c164:	03713423          	sd	s7,40(sp)
   1c168:	03813023          	sd	s8,32(sp)
   1c16c:	00050413          	mv	s0,a0
   1c170:	1b052503          	lw	a0,432(a0)
   1c174:	23043903          	ld	s2,560(s0)
   1c178:	1b840993          	addi	s3,s0,440
   1c17c:	06a05063          	blez	a0,1c1dc <consume_data+0x9c>
   1c180:	00000493          	li	s1,0
   1c184:	08890a13          	addi	s4,s2,136
   1c188:	00010a93          	mv	s5,sp
   1c18c:	00098b13          	mv	s6,s3
   1c190:	000b3503          	ld	a0,0(s6)
   1c194:	00843583          	ld	a1,8(s0)
   1c198:	00452603          	lw	a2,4(a0)
   1c19c:	0405b783          	ld	a5,64(a1)
   1c1a0:	00361613          	slli	a2,a2,0x3
   1c1a4:	00ca0633          	add	a2,s4,a2
   1c1a8:	0b042703          	lw	a4,176(s0)
   1c1ac:	00c52683          	lw	a3,12(a0)
   1c1b0:	00063583          	ld	a1,0(a2)
   1c1b4:	02e6863b          	mulw	a2,a3,a4
   1c1b8:	00100713          	li	a4,1
   1c1bc:	00040513          	mv	a0,s0
   1c1c0:	000780e7          	jalr	a5
   1c1c4:	1b042583          	lw	a1,432(s0)
   1c1c8:	00aab023          	sd	a0,0(s5)
   1c1cc:	00148493          	addi	s1,s1,1
   1c1d0:	008a8a93          	addi	s5,s5,8
   1c1d4:	008b0b13          	addi	s6,s6,8
   1c1d8:	fab4cce3          	blt	s1,a1,1c190 <consume_data+0x50>
   1c1dc:	02c92a03          	lw	s4,44(s2)
   1c1e0:	03092503          	lw	a0,48(s2)
   1c1e4:	10aa5263          	bge	s4,a0,1c2e8 <consume_data+0x1a8>
   1c1e8:	02892b83          	lw	s7,40(s2)
   1c1ec:	1d842583          	lw	a1,472(s0)
   1c1f0:	03890493          	addi	s1,s2,56
   1c1f4:	04090a93          	addi	s5,s2,64
   1c1f8:	00010b13          	mv	s6,sp
   1c1fc:	0180006f          	j	1c214 <consume_data+0xd4>
   1c200:	03092503          	lw	a0,48(s2)
   1c204:	00000b93          	li	s7,0
   1c208:	001a0a13          	addi	s4,s4,1
   1c20c:	02092423          	sw	zero,40(s2)
   1c210:	0caa5c63          	bge	s4,a0,1c2e8 <consume_data+0x1a8>
   1c214:	febbf8e3          	bgeu	s7,a1,1c204 <consume_data+0xc4>
   1c218:	003a1c13          	slli	s8,s4,0x3
   1c21c:	1b042503          	lw	a0,432(s0)
   1c220:	0aa05063          	blez	a0,1c2c0 <consume_data+0x180>
   1c224:	00000593          	li	a1,0
   1c228:	00000613          	li	a2,0
   1c22c:	00c0006f          	j	1c238 <consume_data+0xf8>
   1c230:	00158593          	addi	a1,a1,1
   1c234:	08a58663          	beq	a1,a0,1c2c0 <consume_data+0x180>
   1c238:	00359813          	slli	a6,a1,0x3
   1c23c:	010986b3          	add	a3,s3,a6
   1c240:	0006b703          	ld	a4,0(a3)
   1c244:	03872683          	lw	a3,56(a4)
   1c248:	fed054e3          	blez	a3,1c230 <consume_data+0xf0>
   1c24c:	03472703          	lw	a4,52(a4)
   1c250:	fee050e3          	blez	a4,1c230 <consume_data+0xf0>
   1c254:	00000793          	li	a5,0
   1c258:	010b0833          	add	a6,s6,a6
   1c25c:	00083803          	ld	a6,0(a6)
   1c260:	037708b3          	mul	a7,a4,s7
   1c264:	02089893          	slli	a7,a7,0x20
   1c268:	0208d293          	srli	t0,a7,0x20
   1c26c:	01880833          	add	a6,a6,s8
   1c270:	fff70893          	addi	a7,a4,-1
   1c274:	02089893          	slli	a7,a7,0x20
   1c278:	01d8d893          	srli	a7,a7,0x1d
   1c27c:	011a88b3          	add	a7,s5,a7
   1c280:	00729293          	slli	t0,t0,0x7
   1c284:	00379313          	slli	t1,a5,0x3
   1c288:	00680333          	add	t1,a6,t1
   1c28c:	00033e03          	ld	t3,0(t1)
   1c290:	00361393          	slli	t2,a2,0x3
   1c294:	00788333          	add	t1,a7,t2
   1c298:	007483b3          	add	t2,s1,t2
   1c29c:	005e0e33          	add	t3,t3,t0
   1c2a0:	00e6063b          	addw	a2,a2,a4
   1c2a4:	01c3b023          	sd	t3,0(t2)
   1c2a8:	080e0e13          	addi	t3,t3,128
   1c2ac:	00838393          	addi	t2,t2,8
   1c2b0:	fe639ae3          	bne	t2,t1,1c2a4 <consume_data+0x164>
   1c2b4:	00178793          	addi	a5,a5,1
   1c2b8:	fcd796e3          	bne	a5,a3,1c284 <consume_data+0x144>
   1c2bc:	f75ff06f          	j	1c230 <consume_data+0xf0>
   1c2c0:	25043503          	ld	a0,592(s0)
   1c2c4:	00853603          	ld	a2,8(a0)
   1c2c8:	00040513          	mv	a0,s0
   1c2cc:	00048593          	mv	a1,s1
   1c2d0:	000600e7          	jalr	a2
   1c2d4:	04050063          	beqz	a0,1c314 <consume_data+0x1d4>
   1c2d8:	1d842583          	lw	a1,472(s0)
   1c2dc:	001b8b9b          	addiw	s7,s7,1
   1c2e0:	f2bbeee3          	bltu	s7,a1,1c21c <consume_data+0xdc>
   1c2e4:	f1dff06f          	j	1c200 <consume_data+0xc0>
   1c2e8:	0b042583          	lw	a1,176(s0)
   1c2ec:	1a442603          	lw	a2,420(s0)
   1c2f0:	0015859b          	addiw	a1,a1,1
   1c2f4:	0ab42823          	sw	a1,176(s0)
   1c2f8:	02c5f463          	bgeu	a1,a2,1c320 <consume_data+0x1e0>
   1c2fc:	1b042683          	lw	a3,432(s0)
   1c300:	23043503          	ld	a0,560(s0)
   1c304:	00200713          	li	a4,2
   1c308:	02e6c863          	blt	a3,a4,1c338 <consume_data+0x1f8>
   1c30c:	00100593          	li	a1,1
   1c310:	0400006f          	j	1c350 <consume_data+0x210>
   1c314:	03492623          	sw	s4,44(s2)
   1c318:	03792423          	sw	s7,40(s2)
   1c31c:	0400006f          	j	1c35c <consume_data+0x21c>
   1c320:	24043503          	ld	a0,576(s0)
   1c324:	01853583          	ld	a1,24(a0)
   1c328:	00040513          	mv	a0,s0
   1c32c:	000580e7          	jalr	a1
   1c330:	00400513          	li	a0,4
   1c334:	0280006f          	j	1c35c <consume_data+0x21c>
   1c338:	1b843683          	ld	a3,440(s0)
   1c33c:	fff6061b          	addiw	a2,a2,-1
   1c340:	00c5f663          	bgeu	a1,a2,1c34c <consume_data+0x20c>
   1c344:	00c6a583          	lw	a1,12(a3)
   1c348:	0080006f          	j	1c350 <consume_data+0x210>
   1c34c:	0486a583          	lw	a1,72(a3)
   1c350:	02b52823          	sw	a1,48(a0)
   1c354:	02053423          	sd	zero,40(a0)
   1c358:	00300513          	li	a0,3
   1c35c:	06813083          	ld	ra,104(sp)
   1c360:	06013403          	ld	s0,96(sp)
   1c364:	05813483          	ld	s1,88(sp)
   1c368:	05013903          	ld	s2,80(sp)
   1c36c:	04813983          	ld	s3,72(sp)
   1c370:	04013a03          	ld	s4,64(sp)
   1c374:	03813a83          	ld	s5,56(sp)
   1c378:	03013b03          	ld	s6,48(sp)
   1c37c:	02813b83          	ld	s7,40(sp)
   1c380:	02013c03          	ld	s8,32(sp)
   1c384:	07010113          	addi	sp,sp,112
   1c388:	00008067          	ret

000000000001c38c <decompress_data>:
   1c38c:	f8010113          	addi	sp,sp,-128
   1c390:	06113c23          	sd	ra,120(sp)
   1c394:	06813823          	sd	s0,112(sp)
   1c398:	06913423          	sd	s1,104(sp)
   1c39c:	07213023          	sd	s2,96(sp)
   1c3a0:	05313c23          	sd	s3,88(sp)
   1c3a4:	05413823          	sd	s4,80(sp)
   1c3a8:	05513423          	sd	s5,72(sp)
   1c3ac:	05613023          	sd	s6,64(sp)
   1c3b0:	03713c23          	sd	s7,56(sp)
   1c3b4:	03813823          	sd	s8,48(sp)
   1c3b8:	03913423          	sd	s9,40(sp)
   1c3bc:	03a13023          	sd	s10,32(sp)
   1c3c0:	01b13c23          	sd	s11,24(sp)
   1c3c4:	00050413          	mv	s0,a0
   1c3c8:	1a452503          	lw	a0,420(a0)
   1c3cc:	23043483          	ld	s1,560(s0)
   1c3d0:	00b13423          	sd	a1,8(sp)
   1c3d4:	fff5051b          	addiw	a0,a0,-1
   1c3d8:	00a13823          	sd	a0,16(sp)
   1c3dc:	0180006f          	j	1c3f4 <decompress_data+0x68>
   1c3e0:	24043503          	ld	a0,576(s0)
   1c3e4:	00053583          	ld	a1,0(a0)
   1c3e8:	00040513          	mv	a0,s0
   1c3ec:	000580e7          	jalr	a1
   1c3f0:	14050c63          	beqz	a0,1c548 <decompress_data+0x1bc>
   1c3f4:	0ac42503          	lw	a0,172(s0)
   1c3f8:	0b442583          	lw	a1,180(s0)
   1c3fc:	feb542e3          	blt	a0,a1,1c3e0 <decompress_data+0x54>
   1c400:	00b51863          	bne	a0,a1,1c410 <decompress_data+0x84>
   1c404:	0b042503          	lw	a0,176(s0)
   1c408:	0b842583          	lw	a1,184(s0)
   1c40c:	fca5fae3          	bgeu	a1,a0,1c3e0 <decompress_data+0x54>
   1c410:	03842503          	lw	a0,56(s0)
   1c414:	10a05c63          	blez	a0,1c52c <decompress_data+0x1a0>
   1c418:	13043903          	ld	s2,304(s0)
   1c41c:	00000c13          	li	s8,0
   1c420:	08848c93          	addi	s9,s1,136
   1c424:	0140006f          	j	1c438 <decompress_data+0xac>
   1c428:	03842503          	lw	a0,56(s0)
   1c42c:	001c0c13          	addi	s8,s8,1
   1c430:	06090913          	addi	s2,s2,96
   1c434:	0eac5c63          	bge	s8,a0,1c52c <decompress_data+0x1a0>
   1c438:	03092503          	lw	a0,48(s2)
   1c43c:	fe0506e3          	beqz	a0,1c428 <decompress_data+0x9c>
   1c440:	00843503          	ld	a0,8(s0)
   1c444:	04053783          	ld	a5,64(a0)
   1c448:	003c1493          	slli	s1,s8,0x3
   1c44c:	009c8533          	add	a0,s9,s1
   1c450:	0b842603          	lw	a2,184(s0)
   1c454:	00c92683          	lw	a3,12(s2)
   1c458:	00053583          	ld	a1,0(a0)
   1c45c:	02c6863b          	mulw	a2,a3,a2
   1c460:	00040513          	mv	a0,s0
   1c464:	00000713          	li	a4,0
   1c468:	000780e7          	jalr	a5
   1c46c:	0b842583          	lw	a1,184(s0)
   1c470:	00050993          	mv	s3,a0
   1c474:	01013503          	ld	a0,16(sp)
   1c478:	00a5f663          	bgeu	a1,a0,1c484 <decompress_data+0xf8>
   1c47c:	00c96d03          	lwu	s10,12(s2)
   1c480:	0180006f          	j	1c498 <decompress_data+0x10c>
   1c484:	02096503          	lwu	a0,32(s2)
   1c488:	00c96d03          	lwu	s10,12(s2)
   1c48c:	03a57533          	remu	a0,a0,s10
   1c490:	00050463          	beqz	a0,1c498 <decompress_data+0x10c>
   1c494:	00050d13          	mv	s10,a0
   1c498:	000d051b          	sext.w	a0,s10
   1c49c:	f8a056e3          	blez	a0,1c428 <decompress_data+0x9c>
   1c4a0:	01c92503          	lw	a0,28(s2)
   1c4a4:	f80502e3          	beqz	a0,1c428 <decompress_data+0x9c>
   1c4a8:	25843503          	ld	a0,600(s0)
   1c4ac:	00950533          	add	a0,a0,s1
   1c4b0:	00853d83          	ld	s11,8(a0)
   1c4b4:	00813503          	ld	a0,8(sp)
   1c4b8:	009504b3          	add	s1,a0,s1
   1c4bc:	0004ba03          	ld	s4,0(s1)
   1c4c0:	00000493          	li	s1,0
   1c4c4:	00100513          	li	a0,1
   1c4c8:	0180006f          	j	1c4e0 <decompress_data+0x154>
   1c4cc:	02492583          	lw	a1,36(s2)
   1c4d0:	00359593          	slli	a1,a1,0x3
   1c4d4:	00148493          	addi	s1,s1,1
   1c4d8:	00ba0a33          	add	s4,s4,a1
   1c4dc:	f5a486e3          	beq	s1,s10,1c428 <decompress_data+0x9c>
   1c4e0:	fe0506e3          	beqz	a0,1c4cc <decompress_data+0x140>
   1c4e4:	00349513          	slli	a0,s1,0x3
   1c4e8:	00a98533          	add	a0,s3,a0
   1c4ec:	00053a83          	ld	s5,0(a0)
   1c4f0:	00000b13          	li	s6,0
   1c4f4:	00000b93          	li	s7,0
   1c4f8:	00040513          	mv	a0,s0
   1c4fc:	00090593          	mv	a1,s2
   1c500:	000a8613          	mv	a2,s5
   1c504:	000a0693          	mv	a3,s4
   1c508:	000b0713          	mv	a4,s6
   1c50c:	000d80e7          	jalr	s11
   1c510:	02492583          	lw	a1,36(s2)
   1c514:	01c92503          	lw	a0,28(s2)
   1c518:	080a8a93          	addi	s5,s5,128
   1c51c:	001b8b9b          	addiw	s7,s7,1
   1c520:	01658b3b          	addw	s6,a1,s6
   1c524:	fcabeae3          	bltu	s7,a0,1c4f8 <decompress_data+0x16c>
   1c528:	fa9ff06f          	j	1c4d0 <decompress_data+0x144>
   1c52c:	0b842503          	lw	a0,184(s0)
   1c530:	1a442583          	lw	a1,420(s0)
   1c534:	0015051b          	addiw	a0,a0,1
   1c538:	0aa42c23          	sw	a0,184(s0)
   1c53c:	00b53533          	sltu	a0,a0,a1
   1c540:	00400593          	li	a1,4
   1c544:	40a58533          	sub	a0,a1,a0
   1c548:	07813083          	ld	ra,120(sp)
   1c54c:	07013403          	ld	s0,112(sp)
   1c550:	06813483          	ld	s1,104(sp)
   1c554:	06013903          	ld	s2,96(sp)
   1c558:	05813983          	ld	s3,88(sp)
   1c55c:	05013a03          	ld	s4,80(sp)
   1c560:	04813a83          	ld	s5,72(sp)
   1c564:	04013b03          	ld	s6,64(sp)
   1c568:	03813b83          	ld	s7,56(sp)
   1c56c:	03013c03          	ld	s8,48(sp)
   1c570:	02813c83          	ld	s9,40(sp)
   1c574:	02013d03          	ld	s10,32(sp)
   1c578:	01813d83          	ld	s11,24(sp)
   1c57c:	08010113          	addi	sp,sp,128
   1c580:	00008067          	ret

000000000001c584 <dummy_consume_data>:
   1c584:	00000513          	li	a0,0
   1c588:	00008067          	ret

000000000001c58c <decompress_onepass>:
   1c58c:	f5010113          	addi	sp,sp,-176
   1c590:	0a113423          	sd	ra,168(sp)
   1c594:	0a813023          	sd	s0,160(sp)
   1c598:	08913c23          	sd	s1,152(sp)
   1c59c:	09213823          	sd	s2,144(sp)
   1c5a0:	09313423          	sd	s3,136(sp)
   1c5a4:	09413023          	sd	s4,128(sp)
   1c5a8:	07513c23          	sd	s5,120(sp)
   1c5ac:	07613823          	sd	s6,112(sp)
   1c5b0:	07713423          	sd	s7,104(sp)
   1c5b4:	07813023          	sd	s8,96(sp)
   1c5b8:	05913c23          	sd	s9,88(sp)
   1c5bc:	05a13823          	sd	s10,80(sp)
   1c5c0:	05b13423          	sd	s11,72(sp)
   1c5c4:	00050413          	mv	s0,a0
   1c5c8:	23053603          	ld	a2,560(a0)
   1c5cc:	02c62683          	lw	a3,44(a2)
   1c5d0:	03062503          	lw	a0,48(a2)
   1c5d4:	1a442c83          	lw	s9,420(s0)
   1c5d8:	02b13023          	sd	a1,32(sp)
   1c5dc:	02d13823          	sd	a3,48(sp)
   1c5e0:	1ca6de63          	bge	a3,a0,1c7bc <decompress_onepass+0x230>
   1c5e4:	1d842583          	lw	a1,472(s0)
   1c5e8:	fff5891b          	addiw	s2,a1,-1
   1c5ec:	02862a83          	lw	s5,40(a2)
   1c5f0:	fffc8c9b          	addiw	s9,s9,-1
   1c5f4:	05913023          	sd	s9,64(sp)
   1c5f8:	03860593          	addi	a1,a2,56
   1c5fc:	02b13c23          	sd	a1,56(sp)
   1c600:	1b840a13          	addi	s4,s0,440
   1c604:	00060593          	mv	a1,a2
   1c608:	00c13423          	sd	a2,8(sp)
   1c60c:	01213c23          	sd	s2,24(sp)
   1c610:	01413823          	sd	s4,16(sp)
   1c614:	01597863          	bgeu	s2,s5,1c624 <decompress_onepass+0x98>
   1c618:	1880006f          	j	1c7a0 <decompress_onepass+0x214>
   1c61c:	001a8a9b          	addiw	s5,s5,1
   1c620:	17596c63          	bltu	s2,s5,1c798 <decompress_onepass+0x20c>
   1c624:	1e042583          	lw	a1,480(s0)
   1c628:	03813483          	ld	s1,56(sp)
   1c62c:	0004b503          	ld	a0,0(s1)
   1c630:	00759593          	slli	a1,a1,0x7
   1c634:	675070ef          	jal	244a8 <jzero_far>
   1c638:	25043503          	ld	a0,592(s0)
   1c63c:	00853603          	ld	a2,8(a0)
   1c640:	00040513          	mv	a0,s0
   1c644:	00048593          	mv	a1,s1
   1c648:	000600e7          	jalr	a2
   1c64c:	1a050263          	beqz	a0,1c7f0 <decompress_onepass+0x264>
   1c650:	1b042583          	lw	a1,432(s0)
   1c654:	fcb054e3          	blez	a1,1c61c <decompress_onepass+0x90>
   1c658:	00000b13          	li	s6,0
   1c65c:	00000493          	li	s1,0
   1c660:	03513423          	sd	s5,40(sp)
   1c664:	0140006f          	j	1c678 <decompress_onepass+0xec>
   1c668:	03c9a503          	lw	a0,60(s3)
   1c66c:	009504bb          	addw	s1,a0,s1
   1c670:	001b0b13          	addi	s6,s6,1
   1c674:	fabb54e3          	bge	s6,a1,1c61c <decompress_onepass+0x90>
   1c678:	003b1513          	slli	a0,s6,0x3
   1c67c:	00aa0533          	add	a0,s4,a0
   1c680:	00053983          	ld	s3,0(a0)
   1c684:	0309a503          	lw	a0,48(s3)
   1c688:	fe0500e3          	beqz	a0,1c668 <decompress_onepass+0xdc>
   1c68c:	03400613          	li	a2,52
   1c690:	012ae463          	bltu	s5,s2,1c698 <decompress_onepass+0x10c>
   1c694:	04400613          	li	a2,68
   1c698:	0389a503          	lw	a0,56(s3)
   1c69c:	fca05ae3          	blez	a0,1c670 <decompress_onepass+0xe4>
   1c6a0:	00c98633          	add	a2,s3,a2
   1c6a4:	00062603          	lw	a2,0(a2)
   1c6a8:	0ec05063          	blez	a2,1c788 <decompress_onepass+0x1fc>
   1c6ac:	0049a583          	lw	a1,4(s3)
   1c6b0:	25843683          	ld	a3,600(s0)
   1c6b4:	00000c13          	li	s8,0
   1c6b8:	00359713          	slli	a4,a1,0x3
   1c6bc:	00e686b3          	add	a3,a3,a4
   1c6c0:	0086bd03          	ld	s10,8(a3)
   1c6c4:	0409a683          	lw	a3,64(s3)
   1c6c8:	0249a583          	lw	a1,36(s3)
   1c6cc:	02013783          	ld	a5,32(sp)
   1c6d0:	00e78733          	add	a4,a5,a4
   1c6d4:	00073a03          	ld	s4,0(a4)
   1c6d8:	03568dbb          	mulw	s11,a3,s5
   1c6dc:	03013683          	ld	a3,48(sp)
   1c6e0:	02d586bb          	mulw	a3,a1,a3
   1c6e4:	00369693          	slli	a3,a3,0x3
   1c6e8:	00da0a33          	add	s4,s4,a3
   1c6ec:	00361613          	slli	a2,a2,0x3
   1c6f0:	03813c83          	ld	s9,56(sp)
   1c6f4:	00cc8cb3          	add	s9,s9,a2
   1c6f8:	01c0006f          	j	1c714 <decompress_onepass+0x188>
   1c6fc:	0349a603          	lw	a2,52(s3)
   1c700:	009604bb          	addw	s1,a2,s1
   1c704:	00359613          	slli	a2,a1,0x3
   1c708:	001c0c1b          	addiw	s8,s8,1
   1c70c:	00ca0a33          	add	s4,s4,a2
   1c710:	06ac5263          	bge	s8,a0,1c774 <decompress_onepass+0x1e8>
   1c714:	0b042603          	lw	a2,176(s0)
   1c718:	04013683          	ld	a3,64(sp)
   1c71c:	00d66a63          	bltu	a2,a3,1c730 <decompress_onepass+0x1a4>
   1c720:	0489a603          	lw	a2,72(s3)
   1c724:	03013683          	ld	a3,48(sp)
   1c728:	00dc06bb          	addw	a3,s8,a3
   1c72c:	fcc6d8e3          	bge	a3,a2,1c6fc <decompress_onepass+0x170>
   1c730:	00349913          	slli	s2,s1,0x3
   1c734:	03813b83          	ld	s7,56(sp)
   1c738:	012b8bb3          	add	s7,s7,s2
   1c73c:	012c8933          	add	s2,s9,s2
   1c740:	000d8a93          	mv	s5,s11
   1c744:	000bb603          	ld	a2,0(s7)
   1c748:	00040513          	mv	a0,s0
   1c74c:	00098593          	mv	a1,s3
   1c750:	000a0693          	mv	a3,s4
   1c754:	000a8713          	mv	a4,s5
   1c758:	000d00e7          	jalr	s10
   1c75c:	0249a583          	lw	a1,36(s3)
   1c760:	008b8b93          	addi	s7,s7,8
   1c764:	01558abb          	addw	s5,a1,s5
   1c768:	fd2b9ee3          	bne	s7,s2,1c744 <decompress_onepass+0x1b8>
   1c76c:	0389a503          	lw	a0,56(s3)
   1c770:	f8dff06f          	j	1c6fc <decompress_onepass+0x170>
   1c774:	1b042583          	lw	a1,432(s0)
   1c778:	01813903          	ld	s2,24(sp)
   1c77c:	01013a03          	ld	s4,16(sp)
   1c780:	02813a83          	ld	s5,40(sp)
   1c784:	eedff06f          	j	1c670 <decompress_onepass+0xe4>
   1c788:	0349a603          	lw	a2,52(s3)
   1c78c:	02a60533          	mul	a0,a2,a0
   1c790:	00a484bb          	addw	s1,s1,a0
   1c794:	eddff06f          	j	1c670 <decompress_onepass+0xe4>
   1c798:	00813583          	ld	a1,8(sp)
   1c79c:	0305a503          	lw	a0,48(a1)
   1c7a0:	00000a93          	li	s5,0
   1c7a4:	03013603          	ld	a2,48(sp)
   1c7a8:	0016061b          	addiw	a2,a2,1
   1c7ac:	0205a423          	sw	zero,40(a1)
   1c7b0:	02c13823          	sd	a2,48(sp)
   1c7b4:	e6a640e3          	blt	a2,a0,1c614 <decompress_onepass+0x88>
   1c7b8:	1a442c83          	lw	s9,420(s0)
   1c7bc:	0b842503          	lw	a0,184(s0)
   1c7c0:	0b042583          	lw	a1,176(s0)
   1c7c4:	00150513          	addi	a0,a0,1
   1c7c8:	0aa42c23          	sw	a0,184(s0)
   1c7cc:	0015859b          	addiw	a1,a1,1
   1c7d0:	0ab42823          	sw	a1,176(s0)
   1c7d4:	0395f863          	bgeu	a1,s9,1c804 <decompress_onepass+0x278>
   1c7d8:	1b042603          	lw	a2,432(s0)
   1c7dc:	23043503          	ld	a0,560(s0)
   1c7e0:	00200693          	li	a3,2
   1c7e4:	02d64c63          	blt	a2,a3,1c81c <decompress_onepass+0x290>
   1c7e8:	00100593          	li	a1,1
   1c7ec:	0480006f          	j	1c834 <decompress_onepass+0x2a8>
   1c7f0:	00813583          	ld	a1,8(sp)
   1c7f4:	03013603          	ld	a2,48(sp)
   1c7f8:	02c5a623          	sw	a2,44(a1)
   1c7fc:	0355a423          	sw	s5,40(a1)
   1c800:	0400006f          	j	1c840 <decompress_onepass+0x2b4>
   1c804:	24043503          	ld	a0,576(s0)
   1c808:	01853583          	ld	a1,24(a0)
   1c80c:	00040513          	mv	a0,s0
   1c810:	000580e7          	jalr	a1
   1c814:	00400513          	li	a0,4
   1c818:	0280006f          	j	1c840 <decompress_onepass+0x2b4>
   1c81c:	1b843603          	ld	a2,440(s0)
   1c820:	fffc8c9b          	addiw	s9,s9,-1
   1c824:	0195f663          	bgeu	a1,s9,1c830 <decompress_onepass+0x2a4>
   1c828:	00c62583          	lw	a1,12(a2)
   1c82c:	0080006f          	j	1c834 <decompress_onepass+0x2a8>
   1c830:	04862583          	lw	a1,72(a2)
   1c834:	02b52823          	sw	a1,48(a0)
   1c838:	02053423          	sd	zero,40(a0)
   1c83c:	00300513          	li	a0,3
   1c840:	0a813083          	ld	ra,168(sp)
   1c844:	0a013403          	ld	s0,160(sp)
   1c848:	09813483          	ld	s1,152(sp)
   1c84c:	09013903          	ld	s2,144(sp)
   1c850:	08813983          	ld	s3,136(sp)
   1c854:	08013a03          	ld	s4,128(sp)
   1c858:	07813a83          	ld	s5,120(sp)
   1c85c:	07013b03          	ld	s6,112(sp)
   1c860:	06813b83          	ld	s7,104(sp)
   1c864:	06013c03          	ld	s8,96(sp)
   1c868:	05813c83          	ld	s9,88(sp)
   1c86c:	05013d03          	ld	s10,80(sp)
   1c870:	04813d83          	ld	s11,72(sp)
   1c874:	0b010113          	addi	sp,sp,176
   1c878:	00008067          	ret

000000000001c87c <decompress_smooth_data>:
   1c87c:	e2010113          	addi	sp,sp,-480
   1c880:	1c113c23          	sd	ra,472(sp)
   1c884:	1c813823          	sd	s0,464(sp)
   1c888:	1c913423          	sd	s1,456(sp)
   1c88c:	1d213023          	sd	s2,448(sp)
   1c890:	1b313c23          	sd	s3,440(sp)
   1c894:	1b413823          	sd	s4,432(sp)
   1c898:	1b513423          	sd	s5,424(sp)
   1c89c:	1b613023          	sd	s6,416(sp)
   1c8a0:	19713c23          	sd	s7,408(sp)
   1c8a4:	19813823          	sd	s8,400(sp)
   1c8a8:	19913423          	sd	s9,392(sp)
   1c8ac:	19a13023          	sd	s10,384(sp)
   1c8b0:	17b13c23          	sd	s11,376(sp)
   1c8b4:	00050a13          	mv	s4,a0
   1c8b8:	1a452503          	lw	a0,420(a0)
   1c8bc:	230a3603          	ld	a2,560(s4)
   1c8c0:	00c13423          	sd	a2,8(sp)
   1c8c4:	00b13023          	sd	a1,0(sp)
   1c8c8:	fff5051b          	addiw	a0,a0,-1
   1c8cc:	02a13c23          	sd	a0,56(sp)
   1c8d0:	0140006f          	j	1c8e4 <decompress_smooth_data+0x68>
   1c8d4:	00053583          	ld	a1,0(a0)
   1c8d8:	000a0513          	mv	a0,s4
   1c8dc:	000580e7          	jalr	a1
   1c8e0:	62050063          	beqz	a0,1cf00 <decompress_smooth_data+0x684>
   1c8e4:	0aca2583          	lw	a1,172(s4)
   1c8e8:	0b4a2603          	lw	a2,180(s4)
   1c8ec:	02b64663          	blt	a2,a1,1c918 <decompress_smooth_data+0x9c>
   1c8f0:	240a3503          	ld	a0,576(s4)
   1c8f4:	02452683          	lw	a3,36(a0)
   1c8f8:	02069063          	bnez	a3,1c918 <decompress_smooth_data+0x9c>
   1c8fc:	fcc59ce3          	bne	a1,a2,1c8d4 <decompress_smooth_data+0x58>
   1c900:	20ca2583          	lw	a1,524(s4)
   1c904:	0b8a2603          	lw	a2,184(s4)
   1c908:	0b0a2683          	lw	a3,176(s4)
   1c90c:	0015b593          	seqz	a1,a1
   1c910:	00b605bb          	addw	a1,a2,a1
   1c914:	fcd5f0e3          	bgeu	a1,a3,1c8d4 <decompress_smooth_data+0x58>
   1c918:	038a2503          	lw	a0,56(s4)
   1c91c:	5ca05463          	blez	a0,1cee4 <decompress_smooth_data+0x668>
   1c920:	00013c23          	sd	zero,24(sp)
   1c924:	130a3c83          	ld	s9,304(s4)
   1c928:	00813503          	ld	a0,8(sp)
   1c92c:	08850513          	addi	a0,a0,136
   1c930:	00a13823          	sd	a0,16(sp)
   1c934:	0b413423          	sd	s4,168(sp)
   1c938:	01c0006f          	j	1c954 <decompress_smooth_data+0xd8>
   1c93c:	038a2503          	lw	a0,56(s4)
   1c940:	01813583          	ld	a1,24(sp)
   1c944:	00158593          	addi	a1,a1,1
   1c948:	060c8c93          	addi	s9,s9,96
   1c94c:	00b13c23          	sd	a1,24(sp)
   1c950:	58a5da63          	bge	a1,a0,1cee4 <decompress_smooth_data+0x668>
   1c954:	030ca503          	lw	a0,48(s9)
   1c958:	fe0502e3          	beqz	a0,1c93c <decompress_smooth_data+0xc0>
   1c95c:	0b8a2483          	lw	s1,184(s4)
   1c960:	03813503          	ld	a0,56(sp)
   1c964:	06a4ea63          	bltu	s1,a0,1c9d8 <decompress_smooth_data+0x15c>
   1c968:	020ca583          	lw	a1,32(s9)
   1c96c:	00cca503          	lw	a0,12(s9)
   1c970:	02a5f5bb          	remuw	a1,a1,a0
   1c974:	00050693          	mv	a3,a0
   1c978:	00058463          	beqz	a1,1c980 <decompress_smooth_data+0x104>
   1c97c:	00058693          	mv	a3,a1
   1c980:	04d13023          	sd	a3,64(sp)
   1c984:	01813403          	ld	s0,24(sp)
   1c988:	00341413          	slli	s0,s0,0x3
   1c98c:	06048263          	beqz	s1,1c9f0 <decompress_smooth_data+0x174>
   1c990:	008a3583          	ld	a1,8(s4)
   1c994:	0405b783          	ld	a5,64(a1)
   1c998:	01013583          	ld	a1,16(sp)
   1c99c:	008585b3          	add	a1,a1,s0
   1c9a0:	0005b583          	ld	a1,0(a1)
   1c9a4:	00d506bb          	addw	a3,a0,a3
   1c9a8:	fff48613          	addi	a2,s1,-1
   1c9ac:	02c5063b          	mulw	a2,a0,a2
   1c9b0:	000a0513          	mv	a0,s4
   1c9b4:	00000713          	li	a4,0
   1c9b8:	000780e7          	jalr	a5
   1c9bc:	00cca583          	lw	a1,12(s9)
   1c9c0:	00359593          	slli	a1,a1,0x3
   1c9c4:	00b50533          	add	a0,a0,a1
   1c9c8:	02a13823          	sd	a0,48(sp)
   1c9cc:	04013503          	ld	a0,64(sp)
   1c9d0:	04a04863          	bgtz	a0,1ca20 <decompress_smooth_data+0x1a4>
   1c9d4:	f69ff06f          	j	1c93c <decompress_smooth_data+0xc0>
   1c9d8:	00cca503          	lw	a0,12(s9)
   1c9dc:	0015169b          	slliw	a3,a0,0x1
   1c9e0:	04a13023          	sd	a0,64(sp)
   1c9e4:	01813403          	ld	s0,24(sp)
   1c9e8:	00341413          	slli	s0,s0,0x3
   1c9ec:	fa0492e3          	bnez	s1,1c990 <decompress_smooth_data+0x114>
   1c9f0:	008a3503          	ld	a0,8(s4)
   1c9f4:	04053783          	ld	a5,64(a0)
   1c9f8:	01013503          	ld	a0,16(sp)
   1c9fc:	00850533          	add	a0,a0,s0
   1ca00:	00053583          	ld	a1,0(a0)
   1ca04:	000a0513          	mv	a0,s4
   1ca08:	00000613          	li	a2,0
   1ca0c:	00000713          	li	a4,0
   1ca10:	000780e7          	jalr	a5
   1ca14:	02a13823          	sd	a0,48(sp)
   1ca18:	04013503          	ld	a0,64(sp)
   1ca1c:	f2a050e3          	blez	a0,1c93c <decompress_smooth_data+0xc0>
   1ca20:	258a3503          	ld	a0,600(s4)
   1ca24:	00000293          	li	t0,0
   1ca28:	00850533          	add	a0,a0,s0
   1ca2c:	050cb583          	ld	a1,80(s9)
   1ca30:	00853503          	ld	a0,8(a0)
   1ca34:	0ca13423          	sd	a0,200(sp)
   1ca38:	00013503          	ld	a0,0(sp)
   1ca3c:	00850433          	add	s0,a0,s0
   1ca40:	00043503          	ld	a0,0(s0)
   1ca44:	0ca13823          	sd	a0,208(sp)
   1ca48:	0045d503          	lhu	a0,4(a1)
   1ca4c:	0125d603          	lhu	a2,18(a1)
   1ca50:	0205d683          	lhu	a3,32(a1)
   1ca54:	0105d703          	lhu	a4,16(a1)
   1ca58:	00813783          	ld	a5,8(sp)
   1ca5c:	0d87bc03          	ld	s8,216(a5)
   1ca60:	0025d783          	lhu	a5,2(a1)
   1ca64:	0005d583          	lhu	a1,0(a1)
   1ca68:	01813803          	ld	a6,24(sp)
   1ca6c:	01800893          	li	a7,24
   1ca70:	03180833          	mul	a6,a6,a7
   1ca74:	010c0c33          	add	s8,s8,a6
   1ca78:	04013803          	ld	a6,64(sp)
   1ca7c:	fff8081b          	addiw	a6,a6,-1
   1ca80:	03013023          	sd	a6,32(sp)
   1ca84:	02400813          	li	a6,36
   1ca88:	03058833          	mul	a6,a1,a6
   1ca8c:	0d013023          	sd	a6,192(sp)
   1ca90:	00779813          	slli	a6,a5,0x7
   1ca94:	0b013023          	sd	a6,160(sp)
   1ca98:	00879793          	slli	a5,a5,0x8
   1ca9c:	08f13c23          	sd	a5,152(sp)
   1caa0:	00771793          	slli	a5,a4,0x7
   1caa4:	08f13823          	sd	a5,144(sp)
   1caa8:	00871713          	slli	a4,a4,0x8
   1caac:	08e13423          	sd	a4,136(sp)
   1cab0:	00359713          	slli	a4,a1,0x3
   1cab4:	00b70733          	add	a4,a4,a1
   1cab8:	0ae13c23          	sd	a4,184(sp)
   1cabc:	00769713          	slli	a4,a3,0x7
   1cac0:	08e13023          	sd	a4,128(sp)
   1cac4:	00869693          	slli	a3,a3,0x8
   1cac8:	06d13c23          	sd	a3,120(sp)
   1cacc:	00259693          	slli	a3,a1,0x2
   1cad0:	00b685b3          	add	a1,a3,a1
   1cad4:	06b13823          	sd	a1,112(sp)
   1cad8:	00761593          	slli	a1,a2,0x7
   1cadc:	06b13423          	sd	a1,104(sp)
   1cae0:	00861613          	slli	a2,a2,0x8
   1cae4:	06c13023          	sd	a2,96(sp)
   1cae8:	00751593          	slli	a1,a0,0x7
   1caec:	04b13c23          	sd	a1,88(sp)
   1caf0:	00851513          	slli	a0,a0,0x8
   1caf4:	04a13823          	sd	a0,80(sp)
   1caf8:	02913423          	sd	s1,40(sp)
   1cafc:	0b913823          	sd	s9,176(sp)
   1cb00:	0280006f          	j	1cb28 <decompress_smooth_data+0x2ac>
   1cb04:	00351513          	slli	a0,a0,0x3
   1cb08:	04813283          	ld	t0,72(sp)
   1cb0c:	00128293          	addi	t0,t0,1
   1cb10:	0d013583          	ld	a1,208(sp)
   1cb14:	00a585b3          	add	a1,a1,a0
   1cb18:	0cb13823          	sd	a1,208(sp)
   1cb1c:	02813483          	ld	s1,40(sp)
   1cb20:	04013503          	ld	a0,64(sp)
   1cb24:	e0a28ce3          	beq	t0,a0,1c93c <decompress_smooth_data+0xc0>
   1cb28:	00329613          	slli	a2,t0,0x3
   1cb2c:	03013503          	ld	a0,48(sp)
   1cb30:	00c50633          	add	a2,a0,a2
   1cb34:	00063a83          	ld	s5,0(a2)
   1cb38:	0054e533          	or	a0,s1,t0
   1cb3c:	0005059b          	sext.w	a1,a0
   1cb40:	000a8513          	mv	a0,s5
   1cb44:	00058463          	beqz	a1,1cb4c <decompress_smooth_data+0x2d0>
   1cb48:	ff863503          	ld	a0,-8(a2)
   1cb4c:	03813583          	ld	a1,56(sp)
   1cb50:	00b4e863          	bltu	s1,a1,1cb60 <decompress_smooth_data+0x2e4>
   1cb54:	000a8593          	mv	a1,s5
   1cb58:	02013683          	ld	a3,32(sp)
   1cb5c:	00d28463          	beq	t0,a3,1cb64 <decompress_smooth_data+0x2e8>
   1cb60:	00863583          	ld	a1,8(a2)
   1cb64:	04513423          	sd	t0,72(sp)
   1cb68:	00051983          	lh	s3,0(a0)
   1cb6c:	01cca603          	lw	a2,28(s9)
   1cb70:	000a9d03          	lh	s10,0(s5)
   1cb74:	00059403          	lh	s0,0(a1)
   1cb78:	00000d93          	li	s11,0
   1cb7c:	00000b13          	li	s6,0
   1cb80:	fff6091b          	addiw	s2,a2,-1
   1cb84:	08050b93          	addi	s7,a0,128
   1cb88:	08058493          	addi	s1,a1,128
   1cb8c:	0e813023          	sd	s0,224(sp)
   1cb90:	0fa13823          	sd	s10,240(sp)
   1cb94:	0f313423          	sd	s3,232(sp)
   1cb98:	0480006f          	j	1cbe0 <decompress_smooth_data+0x364>
   1cb9c:	40c005bb          	negw	a1,a2
   1cba0:	0eb11e23          	sh	a1,252(sp)
   1cba4:	0f810613          	addi	a2,sp,248
   1cba8:	0a813a03          	ld	s4,168(sp)
   1cbac:	000a0513          	mv	a0,s4
   1cbb0:	000c8593          	mv	a1,s9
   1cbb4:	0d013683          	ld	a3,208(sp)
   1cbb8:	000b0713          	mv	a4,s6
   1cbbc:	0c813783          	ld	a5,200(sp)
   1cbc0:	000780e7          	jalr	a5
   1cbc4:	024ca503          	lw	a0,36(s9)
   1cbc8:	080a8a93          	addi	s5,s5,128
   1cbcc:	01650b3b          	addw	s6,a0,s6
   1cbd0:	001d8d9b          	addiw	s11,s11,1
   1cbd4:	080b8b93          	addi	s7,s7,128
   1cbd8:	08048493          	addi	s1,s1,128
   1cbdc:	f3b964e3          	bltu	s2,s11,1cb04 <decompress_smooth_data+0x288>
   1cbe0:	0d313c23          	sd	s3,216(sp)
   1cbe4:	0e813983          	ld	s3,232(sp)
   1cbe8:	000d0a13          	mv	s4,s10
   1cbec:	0f013d03          	ld	s10,240(sp)
   1cbf0:	00040c93          	mv	s9,s0
   1cbf4:	0e013403          	ld	s0,224(sp)
   1cbf8:	0f810593          	addi	a1,sp,248
   1cbfc:	00100613          	li	a2,1
   1cc00:	000a8513          	mv	a0,s5
   1cc04:	08d070ef          	jal	24490 <jcopy_block_row>
   1cc08:	012dfe63          	bgeu	s11,s2,1cc24 <decompress_smooth_data+0x3a8>
   1cc0c:	000b9503          	lh	a0,0(s7)
   1cc10:	0ea13423          	sd	a0,232(sp)
   1cc14:	080a9503          	lh	a0,128(s5)
   1cc18:	0ea13823          	sd	a0,240(sp)
   1cc1c:	00049503          	lh	a0,0(s1)
   1cc20:	0ea13023          	sd	a0,224(sp)
   1cc24:	004c2503          	lw	a0,4(s8)
   1cc28:	08050263          	beqz	a0,1ccac <decompress_smooth_data+0x430>
   1cc2c:	0fa15583          	lhu	a1,250(sp)
   1cc30:	06059e63          	bnez	a1,1ccac <decompress_smooth_data+0x430>
   1cc34:	0f013583          	ld	a1,240(sp)
   1cc38:	40ba05bb          	subw	a1,s4,a1
   1cc3c:	0c013603          	ld	a2,192(sp)
   1cc40:	02b605b3          	mul	a1,a2,a1
   1cc44:	0205c863          	bltz	a1,1cc74 <decompress_smooth_data+0x3f8>
   1cc48:	0a013603          	ld	a2,160(sp)
   1cc4c:	00c585b3          	add	a1,a1,a2
   1cc50:	09813603          	ld	a2,152(sp)
   1cc54:	02c5d5b3          	divu	a1,a1,a2
   1cc58:	04a05863          	blez	a0,1cca8 <decompress_smooth_data+0x42c>
   1cc5c:	0005861b          	sext.w	a2,a1
   1cc60:	00100693          	li	a3,1
   1cc64:	00a6953b          	sllw	a0,a3,a0
   1cc68:	04a64063          	blt	a2,a0,1cca8 <decompress_smooth_data+0x42c>
   1cc6c:	fff50593          	addi	a1,a0,-1
   1cc70:	0380006f          	j	1cca8 <decompress_smooth_data+0x42c>
   1cc74:	0a013603          	ld	a2,160(sp)
   1cc78:	40b605b3          	sub	a1,a2,a1
   1cc7c:	09813603          	ld	a2,152(sp)
   1cc80:	02c5d5b3          	divu	a1,a1,a2
   1cc84:	0005871b          	sext.w	a4,a1
   1cc88:	00100613          	li	a2,1
   1cc8c:	00a616bb          	sllw	a3,a2,a0
   1cc90:	00058613          	mv	a2,a1
   1cc94:	00d74463          	blt	a4,a3,1cc9c <decompress_smooth_data+0x420>
   1cc98:	fff68613          	addi	a2,a3,-1
   1cc9c:	00a04463          	bgtz	a0,1cca4 <decompress_smooth_data+0x428>
   1cca0:	00058613          	mv	a2,a1
   1cca4:	40c005bb          	negw	a1,a2
   1cca8:	0eb11d23          	sh	a1,250(sp)
   1ccac:	008c2503          	lw	a0,8(s8)
   1ccb0:	08050063          	beqz	a0,1cd30 <decompress_smooth_data+0x4b4>
   1ccb4:	10815583          	lhu	a1,264(sp)
   1ccb8:	06059c63          	bnez	a1,1cd30 <decompress_smooth_data+0x4b4>
   1ccbc:	408985bb          	subw	a1,s3,s0
   1ccc0:	0c013603          	ld	a2,192(sp)
   1ccc4:	02b605b3          	mul	a1,a2,a1
   1ccc8:	0205c863          	bltz	a1,1ccf8 <decompress_smooth_data+0x47c>
   1cccc:	09013603          	ld	a2,144(sp)
   1ccd0:	00c585b3          	add	a1,a1,a2
   1ccd4:	08813603          	ld	a2,136(sp)
   1ccd8:	02c5d5b3          	divu	a1,a1,a2
   1ccdc:	04a05863          	blez	a0,1cd2c <decompress_smooth_data+0x4b0>
   1cce0:	0005861b          	sext.w	a2,a1
   1cce4:	00100693          	li	a3,1
   1cce8:	00a6953b          	sllw	a0,a3,a0
   1ccec:	04a64063          	blt	a2,a0,1cd2c <decompress_smooth_data+0x4b0>
   1ccf0:	fff50593          	addi	a1,a0,-1
   1ccf4:	0380006f          	j	1cd2c <decompress_smooth_data+0x4b0>
   1ccf8:	09013603          	ld	a2,144(sp)
   1ccfc:	40b605b3          	sub	a1,a2,a1
   1cd00:	08813603          	ld	a2,136(sp)
   1cd04:	02c5d5b3          	divu	a1,a1,a2
   1cd08:	0005871b          	sext.w	a4,a1
   1cd0c:	00100613          	li	a2,1
   1cd10:	00a616bb          	sllw	a3,a2,a0
   1cd14:	00058613          	mv	a2,a1
   1cd18:	00d74463          	blt	a4,a3,1cd20 <decompress_smooth_data+0x4a4>
   1cd1c:	fff68613          	addi	a2,a3,-1
   1cd20:	00a04463          	bgtz	a0,1cd28 <decompress_smooth_data+0x4ac>
   1cd24:	00058613          	mv	a2,a1
   1cd28:	40c005bb          	negw	a1,a2
   1cd2c:	10b11423          	sh	a1,264(sp)
   1cd30:	00cc2503          	lw	a0,12(s8)
   1cd34:	08050463          	beqz	a0,1cdbc <decompress_smooth_data+0x540>
   1cd38:	11815583          	lhu	a1,280(sp)
   1cd3c:	08059063          	bnez	a1,1cdbc <decompress_smooth_data+0x540>
   1cd40:	001d1593          	slli	a1,s10,0x1
   1cd44:	00898633          	add	a2,s3,s0
   1cd48:	40b6063b          	subw	a2,a2,a1
   1cd4c:	0b813583          	ld	a1,184(sp)
   1cd50:	02c585b3          	mul	a1,a1,a2
   1cd54:	0205c863          	bltz	a1,1cd84 <decompress_smooth_data+0x508>
   1cd58:	08013603          	ld	a2,128(sp)
   1cd5c:	00c585b3          	add	a1,a1,a2
   1cd60:	07813603          	ld	a2,120(sp)
   1cd64:	02c5d5b3          	divu	a1,a1,a2
   1cd68:	04a05863          	blez	a0,1cdb8 <decompress_smooth_data+0x53c>
   1cd6c:	0005861b          	sext.w	a2,a1
   1cd70:	00100693          	li	a3,1
   1cd74:	00a6953b          	sllw	a0,a3,a0
   1cd78:	04a64063          	blt	a2,a0,1cdb8 <decompress_smooth_data+0x53c>
   1cd7c:	fff50593          	addi	a1,a0,-1
   1cd80:	0380006f          	j	1cdb8 <decompress_smooth_data+0x53c>
   1cd84:	08013603          	ld	a2,128(sp)
   1cd88:	40b605b3          	sub	a1,a2,a1
   1cd8c:	07813603          	ld	a2,120(sp)
   1cd90:	02c5d5b3          	divu	a1,a1,a2
   1cd94:	0005871b          	sext.w	a4,a1
   1cd98:	00100613          	li	a2,1
   1cd9c:	00a616bb          	sllw	a3,a2,a0
   1cda0:	00058613          	mv	a2,a1
   1cda4:	00d74463          	blt	a4,a3,1cdac <decompress_smooth_data+0x530>
   1cda8:	fff68613          	addi	a2,a3,-1
   1cdac:	00a04463          	bgtz	a0,1cdb4 <decompress_smooth_data+0x538>
   1cdb0:	00058613          	mv	a2,a1
   1cdb4:	40c005bb          	negw	a1,a2
   1cdb8:	10b11c23          	sh	a1,280(sp)
   1cdbc:	010c2503          	lw	a0,16(s8)
   1cdc0:	08050a63          	beqz	a0,1ce54 <decompress_smooth_data+0x5d8>
   1cdc4:	10a15583          	lhu	a1,266(sp)
   1cdc8:	08059663          	bnez	a1,1ce54 <decompress_smooth_data+0x5d8>
   1cdcc:	0e813583          	ld	a1,232(sp)
   1cdd0:	00bc8cb3          	add	s9,s9,a1
   1cdd4:	0e013583          	ld	a1,224(sp)
   1cdd8:	0d813603          	ld	a2,216(sp)
   1cddc:	00b605b3          	add	a1,a2,a1
   1cde0:	419585bb          	subw	a1,a1,s9
   1cde4:	07013603          	ld	a2,112(sp)
   1cde8:	02b605b3          	mul	a1,a2,a1
   1cdec:	0205c863          	bltz	a1,1ce1c <decompress_smooth_data+0x5a0>
   1cdf0:	06813603          	ld	a2,104(sp)
   1cdf4:	00c585b3          	add	a1,a1,a2
   1cdf8:	06013603          	ld	a2,96(sp)
   1cdfc:	02c5d5b3          	divu	a1,a1,a2
   1ce00:	04a05863          	blez	a0,1ce50 <decompress_smooth_data+0x5d4>
   1ce04:	0005861b          	sext.w	a2,a1
   1ce08:	00100693          	li	a3,1
   1ce0c:	00a6953b          	sllw	a0,a3,a0
   1ce10:	04a64063          	blt	a2,a0,1ce50 <decompress_smooth_data+0x5d4>
   1ce14:	fff50593          	addi	a1,a0,-1
   1ce18:	0380006f          	j	1ce50 <decompress_smooth_data+0x5d4>
   1ce1c:	06813603          	ld	a2,104(sp)
   1ce20:	40b605b3          	sub	a1,a2,a1
   1ce24:	06013603          	ld	a2,96(sp)
   1ce28:	02c5d5b3          	divu	a1,a1,a2
   1ce2c:	0005871b          	sext.w	a4,a1
   1ce30:	00100613          	li	a2,1
   1ce34:	00a616bb          	sllw	a3,a2,a0
   1ce38:	00058613          	mv	a2,a1
   1ce3c:	00d74463          	blt	a4,a3,1ce44 <decompress_smooth_data+0x5c8>
   1ce40:	fff68613          	addi	a2,a3,-1
   1ce44:	00a04463          	bgtz	a0,1ce4c <decompress_smooth_data+0x5d0>
   1ce48:	00058613          	mv	a2,a1
   1ce4c:	40c005bb          	negw	a1,a2
   1ce50:	10b11523          	sh	a1,266(sp)
   1ce54:	014c2503          	lw	a0,20(s8)
   1ce58:	0b013c83          	ld	s9,176(sp)
   1ce5c:	d40504e3          	beqz	a0,1cba4 <decompress_smooth_data+0x328>
   1ce60:	0fc15583          	lhu	a1,252(sp)
   1ce64:	d40590e3          	bnez	a1,1cba4 <decompress_smooth_data+0x328>
   1ce68:	001d1593          	slli	a1,s10,0x1
   1ce6c:	0f013603          	ld	a2,240(sp)
   1ce70:	00ca0a33          	add	s4,s4,a2
   1ce74:	40ba05bb          	subw	a1,s4,a1
   1ce78:	0b813603          	ld	a2,184(sp)
   1ce7c:	02b605b3          	mul	a1,a2,a1
   1ce80:	0205c863          	bltz	a1,1ceb0 <decompress_smooth_data+0x634>
   1ce84:	05813603          	ld	a2,88(sp)
   1ce88:	00c585b3          	add	a1,a1,a2
   1ce8c:	05013603          	ld	a2,80(sp)
   1ce90:	02c5d5b3          	divu	a1,a1,a2
   1ce94:	d0a056e3          	blez	a0,1cba0 <decompress_smooth_data+0x324>
   1ce98:	0005861b          	sext.w	a2,a1
   1ce9c:	00100693          	li	a3,1
   1cea0:	00a6953b          	sllw	a0,a3,a0
   1cea4:	cea64ee3          	blt	a2,a0,1cba0 <decompress_smooth_data+0x324>
   1cea8:	fff50593          	addi	a1,a0,-1
   1ceac:	cf5ff06f          	j	1cba0 <decompress_smooth_data+0x324>
   1ceb0:	05813603          	ld	a2,88(sp)
   1ceb4:	40b605b3          	sub	a1,a2,a1
   1ceb8:	05013603          	ld	a2,80(sp)
   1cebc:	02c5d5b3          	divu	a1,a1,a2
   1cec0:	0005871b          	sext.w	a4,a1
   1cec4:	00100613          	li	a2,1
   1cec8:	00a616bb          	sllw	a3,a2,a0
   1cecc:	00058613          	mv	a2,a1
   1ced0:	00d74463          	blt	a4,a3,1ced8 <decompress_smooth_data+0x65c>
   1ced4:	fff68613          	addi	a2,a3,-1
   1ced8:	cca042e3          	bgtz	a0,1cb9c <decompress_smooth_data+0x320>
   1cedc:	00058613          	mv	a2,a1
   1cee0:	cbdff06f          	j	1cb9c <decompress_smooth_data+0x320>
   1cee4:	0b8a2503          	lw	a0,184(s4)
   1cee8:	1a4a2583          	lw	a1,420(s4)
   1ceec:	0015051b          	addiw	a0,a0,1
   1cef0:	0aaa2c23          	sw	a0,184(s4)
   1cef4:	00b53533          	sltu	a0,a0,a1
   1cef8:	00400593          	li	a1,4
   1cefc:	40a58533          	sub	a0,a1,a0
   1cf00:	1d813083          	ld	ra,472(sp)
   1cf04:	1d013403          	ld	s0,464(sp)
   1cf08:	1c813483          	ld	s1,456(sp)
   1cf0c:	1c013903          	ld	s2,448(sp)
   1cf10:	1b813983          	ld	s3,440(sp)
   1cf14:	1b013a03          	ld	s4,432(sp)
   1cf18:	1a813a83          	ld	s5,424(sp)
   1cf1c:	1a013b03          	ld	s6,416(sp)
   1cf20:	19813b83          	ld	s7,408(sp)
   1cf24:	19013c03          	ld	s8,400(sp)
   1cf28:	18813c83          	ld	s9,392(sp)
   1cf2c:	18013d03          	ld	s10,384(sp)
   1cf30:	17813d83          	ld	s11,376(sp)
   1cf34:	1e010113          	addi	sp,sp,480
   1cf38:	00008067          	ret

000000000001cf3c <jinit_d_post_controller>:
   1cf3c:	fd010113          	addi	sp,sp,-48
   1cf40:	02113423          	sd	ra,40(sp)
   1cf44:	02813023          	sd	s0,32(sp)
   1cf48:	00913c23          	sd	s1,24(sp)
   1cf4c:	01213823          	sd	s2,16(sp)
   1cf50:	01313423          	sd	s3,8(sp)
   1cf54:	00050493          	mv	s1,a0
   1cf58:	00853503          	ld	a0,8(a0)
   1cf5c:	00053683          	ld	a3,0(a0)
   1cf60:	00058913          	mv	s2,a1
   1cf64:	00100593          	li	a1,1
   1cf68:	03000613          	li	a2,48
   1cf6c:	00048513          	mv	a0,s1
   1cf70:	000680e7          	jalr	a3
   1cf74:	00050413          	mv	s0,a0
   1cf78:	22a4bc23          	sd	a0,568(s1)
   1cf7c:	00053823          	sd	zero,16(a0)
   1cf80:	00053c23          	sd	zero,24(a0)
   1cf84:	06c4a503          	lw	a0,108(s1)
   1cf88:	0001d5b7          	lui	a1,0x1d
   1cf8c:	01c58593          	addi	a1,a1,28 # 1d01c <start_pass_dpost>
   1cf90:	00b43023          	sd	a1,0(s0)
   1cf94:	06050663          	beqz	a0,1d000 <jinit_d_post_controller+0xc4>
   1cf98:	19c4e583          	lwu	a1,412(s1)
   1cf9c:	0884a603          	lw	a2,136(s1)
   1cfa0:	0904a683          	lw	a3,144(s1)
   1cfa4:	0084b503          	ld	a0,8(s1)
   1cfa8:	02b42023          	sw	a1,32(s0)
   1cfac:	02c689bb          	mulw	s3,a3,a2
   1cfb0:	02090a63          	beqz	s2,1cfe4 <jinit_d_post_controller+0xa8>
   1cfb4:	02053903          	ld	s2,32(a0)
   1cfb8:	08c4e503          	lwu	a0,140(s1)
   1cfbc:	434070ef          	jal	243f0 <jround_up>
   1cfc0:	02042783          	lw	a5,32(s0)
   1cfc4:	0005071b          	sext.w	a4,a0
   1cfc8:	00100593          	li	a1,1
   1cfcc:	00048513          	mv	a0,s1
   1cfd0:	00000613          	li	a2,0
   1cfd4:	00098693          	mv	a3,s3
   1cfd8:	000900e7          	jalr	s2
   1cfdc:	00a43823          	sd	a0,16(s0)
   1cfe0:	0200006f          	j	1d000 <jinit_d_post_controller+0xc4>
   1cfe4:	01053703          	ld	a4,16(a0)
   1cfe8:	0005869b          	sext.w	a3,a1
   1cfec:	00100593          	li	a1,1
   1cff0:	00048513          	mv	a0,s1
   1cff4:	00098613          	mv	a2,s3
   1cff8:	000700e7          	jalr	a4
   1cffc:	00a43c23          	sd	a0,24(s0)
   1d000:	02813083          	ld	ra,40(sp)
   1d004:	02013403          	ld	s0,32(sp)
   1d008:	01813483          	ld	s1,24(sp)
   1d00c:	01013903          	ld	s2,16(sp)
   1d010:	00813983          	ld	s3,8(sp)
   1d014:	03010113          	addi	sp,sp,48
   1d018:	00008067          	ret

000000000001d01c <start_pass_dpost>:
   1d01c:	ff010113          	addi	sp,sp,-16
   1d020:	00113423          	sd	ra,8(sp)
   1d024:	00813023          	sd	s0,0(sp)
   1d028:	23853403          	ld	s0,568(a0)
   1d02c:	00300613          	li	a2,3
   1d030:	06c58c63          	beq	a1,a2,1d0a8 <start_pass_dpost+0x8c>
   1d034:	00200613          	li	a2,2
   1d038:	04c58463          	beq	a1,a2,1d080 <start_pass_dpost+0x64>
   1d03c:	08059a63          	bnez	a1,1d0d0 <start_pass_dpost+0xb4>
   1d040:	06c52583          	lw	a1,108(a0)
   1d044:	0a058263          	beqz	a1,1d0e8 <start_pass_dpost+0xcc>
   1d048:	01843583          	ld	a1,24(s0)
   1d04c:	0001d637          	lui	a2,0x1d
   1d050:	10c60613          	addi	a2,a2,268 # 1d10c <post_process_1pass>
   1d054:	00c43423          	sd	a2,8(s0)
   1d058:	08059e63          	bnez	a1,1d0f4 <start_pass_dpost+0xd8>
   1d05c:	00853583          	ld	a1,8(a0)
   1d060:	0385b783          	ld	a5,56(a1)
   1d064:	01043583          	ld	a1,16(s0)
   1d068:	02042683          	lw	a3,32(s0)
   1d06c:	00100713          	li	a4,1
   1d070:	00000613          	li	a2,0
   1d074:	000780e7          	jalr	a5
   1d078:	00a43c23          	sd	a0,24(s0)
   1d07c:	0780006f          	j	1d0f4 <start_pass_dpost+0xd8>
   1d080:	01043583          	ld	a1,16(s0)
   1d084:	00059c63          	bnez	a1,1d09c <start_pass_dpost+0x80>
   1d088:	00053583          	ld	a1,0(a0)
   1d08c:	0005b603          	ld	a2,0(a1)
   1d090:	00400693          	li	a3,4
   1d094:	02d5a423          	sw	a3,40(a1)
   1d098:	000600e7          	jalr	a2
   1d09c:	0001d537          	lui	a0,0x1d
   1d0a0:	2e450513          	addi	a0,a0,740 # 1d2e4 <post_process_2pass>
   1d0a4:	04c0006f          	j	1d0f0 <start_pass_dpost+0xd4>
   1d0a8:	01043583          	ld	a1,16(s0)
   1d0ac:	00059c63          	bnez	a1,1d0c4 <start_pass_dpost+0xa8>
   1d0b0:	00053583          	ld	a1,0(a0)
   1d0b4:	0005b603          	ld	a2,0(a1)
   1d0b8:	00400693          	li	a3,4
   1d0bc:	02d5a423          	sw	a3,40(a1)
   1d0c0:	000600e7          	jalr	a2
   1d0c4:	0001d537          	lui	a0,0x1d
   1d0c8:	1b450513          	addi	a0,a0,436 # 1d1b4 <post_process_prepass>
   1d0cc:	0240006f          	j	1d0f0 <start_pass_dpost+0xd4>
   1d0d0:	00053583          	ld	a1,0(a0)
   1d0d4:	0005b603          	ld	a2,0(a1)
   1d0d8:	00400693          	li	a3,4
   1d0dc:	02d5a423          	sw	a3,40(a1)
   1d0e0:	000600e7          	jalr	a2
   1d0e4:	0100006f          	j	1d0f4 <start_pass_dpost+0xd8>
   1d0e8:	26053503          	ld	a0,608(a0)
   1d0ec:	00853503          	ld	a0,8(a0)
   1d0f0:	00a43423          	sd	a0,8(s0)
   1d0f4:	02042423          	sw	zero,40(s0)
   1d0f8:	02042223          	sw	zero,36(s0)
   1d0fc:	00813083          	ld	ra,8(sp)
   1d100:	00013403          	ld	s0,0(sp)
   1d104:	01010113          	addi	sp,sp,16
   1d108:	00008067          	ret

000000000001d10c <post_process_1pass>:
   1d10c:	fd010113          	addi	sp,sp,-48
   1d110:	02113423          	sd	ra,40(sp)
   1d114:	02813023          	sd	s0,32(sp)
   1d118:	00913c23          	sd	s1,24(sp)
   1d11c:	01213823          	sd	s2,16(sp)
   1d120:	01313423          	sd	s3,8(sp)
   1d124:	00050913          	mv	s2,a0
   1d128:	23853983          	ld	s3,568(a0)
   1d12c:	00078413          	mv	s0,a5
   1d130:	0007a883          	lw	a7,0(a5)
   1d134:	0209a783          	lw	a5,32(s3)
   1d138:	4118083b          	subw	a6,a6,a7
   1d13c:	00070493          	mv	s1,a4
   1d140:	00f86463          	bltu	a6,a5,1d148 <post_process_1pass+0x3c>
   1d144:	00078813          	mv	a6,a5
   1d148:	26093703          	ld	a4,608(s2)
   1d14c:	00873883          	ld	a7,8(a4)
   1d150:	0189b703          	ld	a4,24(s3)
   1d154:	00012223          	sw	zero,4(sp)
   1d158:	00410793          	addi	a5,sp,4
   1d15c:	00090513          	mv	a0,s2
   1d160:	000880e7          	jalr	a7
   1d164:	27093503          	ld	a0,624(s2)
   1d168:	00853703          	ld	a4,8(a0)
   1d16c:	00046503          	lwu	a0,0(s0)
   1d170:	0189b583          	ld	a1,24(s3)
   1d174:	00412683          	lw	a3,4(sp)
   1d178:	00351513          	slli	a0,a0,0x3
   1d17c:	00a48633          	add	a2,s1,a0
   1d180:	00090513          	mv	a0,s2
   1d184:	000700e7          	jalr	a4
   1d188:	00412503          	lw	a0,4(sp)
   1d18c:	00042583          	lw	a1,0(s0)
   1d190:	00a58533          	add	a0,a1,a0
   1d194:	00a42023          	sw	a0,0(s0)
   1d198:	02813083          	ld	ra,40(sp)
   1d19c:	02013403          	ld	s0,32(sp)
   1d1a0:	01813483          	ld	s1,24(sp)
   1d1a4:	01013903          	ld	s2,16(sp)
   1d1a8:	00813983          	ld	s3,8(sp)
   1d1ac:	03010113          	addi	sp,sp,48
   1d1b0:	00008067          	ret

000000000001d1b4 <post_process_prepass>:
   1d1b4:	fc010113          	addi	sp,sp,-64
   1d1b8:	02113c23          	sd	ra,56(sp)
   1d1bc:	02813823          	sd	s0,48(sp)
   1d1c0:	02913423          	sd	s1,40(sp)
   1d1c4:	03213023          	sd	s2,32(sp)
   1d1c8:	01313c23          	sd	s3,24(sp)
   1d1cc:	01413823          	sd	s4,16(sp)
   1d1d0:	01513423          	sd	s5,8(sp)
   1d1d4:	01613023          	sd	s6,0(sp)
   1d1d8:	00050493          	mv	s1,a0
   1d1dc:	23853983          	ld	s3,568(a0)
   1d1e0:	0289aa03          	lw	s4,40(s3)
   1d1e4:	00078413          	mv	s0,a5
   1d1e8:	02898913          	addi	s2,s3,40
   1d1ec:	000a0663          	beqz	s4,1d1f8 <post_process_prepass+0x44>
   1d1f0:	0189b703          	ld	a4,24(s3)
   1d1f4:	0540006f          	j	1d248 <post_process_prepass+0x94>
   1d1f8:	0084b503          	ld	a0,8(s1)
   1d1fc:	03853303          	ld	t1,56(a0)
   1d200:	0109b783          	ld	a5,16(s3)
   1d204:	0249a803          	lw	a6,36(s3)
   1d208:	0209a883          	lw	a7,32(s3)
   1d20c:	00100713          	li	a4,1
   1d210:	00048513          	mv	a0,s1
   1d214:	00058a13          	mv	s4,a1
   1d218:	00078593          	mv	a1,a5
   1d21c:	00060a93          	mv	s5,a2
   1d220:	00080613          	mv	a2,a6
   1d224:	00068b13          	mv	s6,a3
   1d228:	00088693          	mv	a3,a7
   1d22c:	000300e7          	jalr	t1
   1d230:	000a0593          	mv	a1,s4
   1d234:	000a8613          	mv	a2,s5
   1d238:	000b0693          	mv	a3,s6
   1d23c:	0289aa03          	lw	s4,40(s3)
   1d240:	00050713          	mv	a4,a0
   1d244:	00a9bc23          	sd	a0,24(s3)
   1d248:	2604b503          	ld	a0,608(s1)
   1d24c:	00853883          	ld	a7,8(a0)
   1d250:	0209a803          	lw	a6,32(s3)
   1d254:	00048513          	mv	a0,s1
   1d258:	00090793          	mv	a5,s2
   1d25c:	000880e7          	jalr	a7
   1d260:	0289a503          	lw	a0,40(s3)
   1d264:	04aa7063          	bgeu	s4,a0,1d2a4 <post_process_prepass+0xf0>
   1d268:	2704b583          	ld	a1,624(s1)
   1d26c:	4145093b          	subw	s2,a0,s4
   1d270:	0189b503          	ld	a0,24(s3)
   1d274:	0085b703          	ld	a4,8(a1)
   1d278:	020a1a13          	slli	s4,s4,0x20
   1d27c:	01da5593          	srli	a1,s4,0x1d
   1d280:	00b505b3          	add	a1,a0,a1
   1d284:	00048513          	mv	a0,s1
   1d288:	00000613          	li	a2,0
   1d28c:	00090693          	mv	a3,s2
   1d290:	000700e7          	jalr	a4
   1d294:	00042503          	lw	a0,0(s0)
   1d298:	01250533          	add	a0,a0,s2
   1d29c:	00a42023          	sw	a0,0(s0)
   1d2a0:	0289a503          	lw	a0,40(s3)
   1d2a4:	0209a583          	lw	a1,32(s3)
   1d2a8:	00b56a63          	bltu	a0,a1,1d2bc <post_process_prepass+0x108>
   1d2ac:	0249a503          	lw	a0,36(s3)
   1d2b0:	00b50533          	add	a0,a0,a1
   1d2b4:	02a9a223          	sw	a0,36(s3)
   1d2b8:	0209a423          	sw	zero,40(s3)
   1d2bc:	03813083          	ld	ra,56(sp)
   1d2c0:	03013403          	ld	s0,48(sp)
   1d2c4:	02813483          	ld	s1,40(sp)
   1d2c8:	02013903          	ld	s2,32(sp)
   1d2cc:	01813983          	ld	s3,24(sp)
   1d2d0:	01013a03          	ld	s4,16(sp)
   1d2d4:	00813a83          	ld	s5,8(sp)
   1d2d8:	00013b03          	ld	s6,0(sp)
   1d2dc:	04010113          	addi	sp,sp,64
   1d2e0:	00008067          	ret

000000000001d2e4 <post_process_2pass>:
   1d2e4:	fd010113          	addi	sp,sp,-48
   1d2e8:	02113423          	sd	ra,40(sp)
   1d2ec:	02813023          	sd	s0,32(sp)
   1d2f0:	00913c23          	sd	s1,24(sp)
   1d2f4:	01213823          	sd	s2,16(sp)
   1d2f8:	01313423          	sd	s3,8(sp)
   1d2fc:	01413023          	sd	s4,0(sp)
   1d300:	23853a03          	ld	s4,568(a0)
   1d304:	028a2603          	lw	a2,40(s4)
   1d308:	00080913          	mv	s2,a6
   1d30c:	00078413          	mv	s0,a5
   1d310:	00070493          	mv	s1,a4
   1d314:	00060663          	beqz	a2,1d320 <post_process_2pass+0x3c>
   1d318:	018a3583          	ld	a1,24(s4)
   1d31c:	0340006f          	j	1d350 <post_process_2pass+0x6c>
   1d320:	00853583          	ld	a1,8(a0)
   1d324:	0385b783          	ld	a5,56(a1)
   1d328:	010a3583          	ld	a1,16(s4)
   1d32c:	024a2603          	lw	a2,36(s4)
   1d330:	020a2683          	lw	a3,32(s4)
   1d334:	00050993          	mv	s3,a0
   1d338:	00000713          	li	a4,0
   1d33c:	000780e7          	jalr	a5
   1d340:	028a2603          	lw	a2,40(s4)
   1d344:	00050593          	mv	a1,a0
   1d348:	00098513          	mv	a0,s3
   1d34c:	00ba3c23          	sd	a1,24(s4)
   1d350:	020a2703          	lw	a4,32(s4)
   1d354:	00046683          	lwu	a3,0(s0)
   1d358:	40c709bb          	subw	s3,a4,a2
   1d35c:	40d9073b          	subw	a4,s2,a3
   1d360:	00e9e463          	bltu	s3,a4,1d368 <post_process_2pass+0x84>
   1d364:	00070993          	mv	s3,a4
   1d368:	08c52703          	lw	a4,140(a0)
   1d36c:	024a2783          	lw	a5,36(s4)
   1d370:	40f7073b          	subw	a4,a4,a5
   1d374:	00e9e463          	bltu	s3,a4,1d37c <post_process_2pass+0x98>
   1d378:	00070993          	mv	s3,a4
   1d37c:	27053703          	ld	a4,624(a0)
   1d380:	00873703          	ld	a4,8(a4)
   1d384:	02061613          	slli	a2,a2,0x20
   1d388:	01d65613          	srli	a2,a2,0x1d
   1d38c:	00c585b3          	add	a1,a1,a2
   1d390:	00369613          	slli	a2,a3,0x3
   1d394:	00c48633          	add	a2,s1,a2
   1d398:	00098693          	mv	a3,s3
   1d39c:	000700e7          	jalr	a4
   1d3a0:	00042503          	lw	a0,0(s0)
   1d3a4:	01350533          	add	a0,a0,s3
   1d3a8:	00a42023          	sw	a0,0(s0)
   1d3ac:	028a2583          	lw	a1,40(s4)
   1d3b0:	020a2503          	lw	a0,32(s4)
   1d3b4:	013585bb          	addw	a1,a1,s3
   1d3b8:	02ba2423          	sw	a1,40(s4)
   1d3bc:	00a5ea63          	bltu	a1,a0,1d3d0 <post_process_2pass+0xec>
   1d3c0:	024a2583          	lw	a1,36(s4)
   1d3c4:	00a58533          	add	a0,a1,a0
   1d3c8:	02aa2223          	sw	a0,36(s4)
   1d3cc:	020a2423          	sw	zero,40(s4)
   1d3d0:	02813083          	ld	ra,40(sp)
   1d3d4:	02013403          	ld	s0,32(sp)
   1d3d8:	01813483          	ld	s1,24(sp)
   1d3dc:	01013903          	ld	s2,16(sp)
   1d3e0:	00813983          	ld	s3,8(sp)
   1d3e4:	00013a03          	ld	s4,0(sp)
   1d3e8:	03010113          	addi	sp,sp,48
   1d3ec:	00008067          	ret

000000000001d3f0 <jinit_inverse_dct>:
   1d3f0:	fd010113          	addi	sp,sp,-48
   1d3f4:	02113423          	sd	ra,40(sp)
   1d3f8:	02813023          	sd	s0,32(sp)
   1d3fc:	00913c23          	sd	s1,24(sp)
   1d400:	01213823          	sd	s2,16(sp)
   1d404:	01313423          	sd	s3,8(sp)
   1d408:	01413023          	sd	s4,0(sp)
   1d40c:	00050413          	mv	s0,a0
   1d410:	00853503          	ld	a0,8(a0)
   1d414:	00053683          	ld	a3,0(a0)
   1d418:	00100593          	li	a1,1
   1d41c:	08000613          	li	a2,128
   1d420:	00040513          	mv	a0,s0
   1d424:	000680e7          	jalr	a3
   1d428:	03842583          	lw	a1,56(s0)
   1d42c:	24a43c23          	sd	a0,600(s0)
   1d430:	0001d637          	lui	a2,0x1d
   1d434:	4b460613          	addi	a2,a2,1204 # 1d4b4 <start_pass>
   1d438:	00c53023          	sd	a2,0(a0)
   1d43c:	04b05c63          	blez	a1,1d494 <jinit_inverse_dct+0xa4>
   1d440:	13043583          	ld	a1,304(s0)
   1d444:	00000493          	li	s1,0
   1d448:	05850913          	addi	s2,a0,88
   1d44c:	05858993          	addi	s3,a1,88
   1d450:	fff00a13          	li	s4,-1
   1d454:	00843503          	ld	a0,8(s0)
   1d458:	00053683          	ld	a3,0(a0)
   1d45c:	00100593          	li	a1,1
   1d460:	10000613          	li	a2,256
   1d464:	00040513          	mv	a0,s0
   1d468:	000680e7          	jalr	a3
   1d46c:	00a9b023          	sd	a0,0(s3)
   1d470:	10000613          	li	a2,256
   1d474:	00000593          	li	a1,0
   1d478:	fd8f30ef          	jal	10c50 <memset@plt>
   1d47c:	01492023          	sw	s4,0(s2)
   1d480:	03842503          	lw	a0,56(s0)
   1d484:	00148493          	addi	s1,s1,1
   1d488:	00490913          	addi	s2,s2,4
   1d48c:	06098993          	addi	s3,s3,96
   1d490:	fca4c2e3          	blt	s1,a0,1d454 <jinit_inverse_dct+0x64>
   1d494:	02813083          	ld	ra,40(sp)
   1d498:	02013403          	ld	s0,32(sp)
   1d49c:	01813483          	ld	s1,24(sp)
   1d4a0:	01013903          	ld	s2,16(sp)
   1d4a4:	00813983          	ld	s3,8(sp)
   1d4a8:	00013a03          	ld	s4,0(sp)
   1d4ac:	03010113          	addi	sp,sp,48
   1d4b0:	00008067          	ret

000000000001d4b4 <start_pass>:
   1d4b4:	f6010113          	addi	sp,sp,-160
   1d4b8:	08113c23          	sd	ra,152(sp)
   1d4bc:	08813823          	sd	s0,144(sp)
   1d4c0:	08913423          	sd	s1,136(sp)
   1d4c4:	09213023          	sd	s2,128(sp)
   1d4c8:	07313c23          	sd	s3,120(sp)
   1d4cc:	07413823          	sd	s4,112(sp)
   1d4d0:	07513423          	sd	s5,104(sp)
   1d4d4:	07613023          	sd	s6,96(sp)
   1d4d8:	05713c23          	sd	s7,88(sp)
   1d4dc:	05813823          	sd	s8,80(sp)
   1d4e0:	05913423          	sd	s9,72(sp)
   1d4e4:	05a13023          	sd	s10,64(sp)
   1d4e8:	03b13c23          	sd	s11,56(sp)
   1d4ec:	02813827          	fsd	fs0,48(sp)
   1d4f0:	02913427          	fsd	fs1,40(sp)
   1d4f4:	03213027          	fsd	fs2,32(sp)
   1d4f8:	01313c27          	fsd	fs3,24(sp)
   1d4fc:	01413827          	fsd	fs4,16(sp)
   1d500:	01513427          	fsd	fs5,8(sp)
   1d504:	00050413          	mv	s0,a0
   1d508:	03852503          	lw	a0,56(a0)
   1d50c:	70a05863          	blez	a0,1dc1c <start_pass+0x768>
   1d510:	25843503          	ld	a0,600(s0)
   1d514:	00000493          	li	s1,0
   1d518:	00000d13          	li	s10,0
   1d51c:	00000d93          	li	s11,0
   1d520:	13043903          	ld	s2,304(s0)
   1d524:	00850993          	addi	s3,a0,8
   1d528:	05850a13          	addi	s4,a0,88
   1d52c:	00300b13          	li	s6,3
   1d530:	00100b93          	li	s7,1
   1d534:	00200c13          	li	s8,2
   1d538:	0002a537          	lui	a0,0x2a
   1d53c:	0b853407          	fld	fs0,184(a0) # 2a0b8 <__TMC_END__>
   1d540:	8081b487          	fld	fs1,-2040(gp) # 2a0c0 <__TMC_END__+0x8>
   1d544:	8101b907          	fld	fs2,-2032(gp) # 2a0c8 <__TMC_END__+0x10>
   1d548:	8181b987          	fld	fs3,-2024(gp) # 2a0d0 <__TMC_END__+0x18>
   1d54c:	8201ba07          	fld	fs4,-2016(gp) # 2a0d8 <__TMC_END__+0x20>
   1d550:	8281ba87          	fld	fs5,-2008(gp) # 2a0e0 <__TMC_END__+0x28>
   1d554:	00400c93          	li	s9,4
   1d558:	00800a93          	li	s5,8
   1d55c:	5840006f          	j	1dae0 <start_pass+0x62c>
   1d560:	0005d603          	lhu	a2,0(a1)
   1d564:	0025d683          	lhu	a3,2(a1)
   1d568:	d01677d3          	fcvt.s.wu	fa5,a2
   1d56c:	00f52027          	fsw	fa5,0(a0)
   1d570:	d21687d3          	fcvt.d.wu	fa5,a3
   1d574:	0045d603          	lhu	a2,4(a1)
   1d578:	1287f7d3          	fmul.d	fa5,fa5,fs0
   1d57c:	4017f7d3          	fcvt.s.d	fa5,fa5
   1d580:	00f52227          	fsw	fa5,4(a0)
   1d584:	d21607d3          	fcvt.d.wu	fa5,a2
   1d588:	0065d603          	lhu	a2,6(a1)
   1d58c:	1297f7d3          	fmul.d	fa5,fa5,fs1
   1d590:	4017f7d3          	fcvt.s.d	fa5,fa5
   1d594:	00f52427          	fsw	fa5,8(a0)
   1d598:	d21607d3          	fcvt.d.wu	fa5,a2
   1d59c:	1327f7d3          	fmul.d	fa5,fa5,fs2
   1d5a0:	0085d603          	lhu	a2,8(a1)
   1d5a4:	4017f7d3          	fcvt.s.d	fa5,fa5
   1d5a8:	00a5d683          	lhu	a3,10(a1)
   1d5ac:	00f52627          	fsw	fa5,12(a0)
   1d5b0:	d01677d3          	fcvt.s.wu	fa5,a2
   1d5b4:	00f52827          	fsw	fa5,16(a0)
   1d5b8:	d21687d3          	fcvt.d.wu	fa5,a3
   1d5bc:	00c5d603          	lhu	a2,12(a1)
   1d5c0:	1337f7d3          	fmul.d	fa5,fa5,fs3
   1d5c4:	4017f7d3          	fcvt.s.d	fa5,fa5
   1d5c8:	00f52a27          	fsw	fa5,20(a0)
   1d5cc:	d21607d3          	fcvt.d.wu	fa5,a2
   1d5d0:	00e5d603          	lhu	a2,14(a1)
   1d5d4:	1347f7d3          	fmul.d	fa5,fa5,fs4
   1d5d8:	4017f7d3          	fcvt.s.d	fa5,fa5
   1d5dc:	00f52c27          	fsw	fa5,24(a0)
   1d5e0:	d21607d3          	fcvt.d.wu	fa5,a2
   1d5e4:	0105d603          	lhu	a2,16(a1)
   1d5e8:	1357f7d3          	fmul.d	fa5,fa5,fs5
   1d5ec:	4017f7d3          	fcvt.s.d	fa5,fa5
   1d5f0:	00f52e27          	fsw	fa5,28(a0)
   1d5f4:	d21607d3          	fcvt.d.wu	fa5,a2
   1d5f8:	0125d603          	lhu	a2,18(a1)
   1d5fc:	1287f7d3          	fmul.d	fa5,fa5,fs0
   1d600:	4017f7d3          	fcvt.s.d	fa5,fa5
   1d604:	02f52027          	fsw	fa5,32(a0)
   1d608:	d21607d3          	fcvt.d.wu	fa5,a2
   1d60c:	1287f7d3          	fmul.d	fa5,fa5,fs0
   1d610:	0145d603          	lhu	a2,20(a1)
   1d614:	1287f7d3          	fmul.d	fa5,fa5,fs0
   1d618:	4017f7d3          	fcvt.s.d	fa5,fa5
   1d61c:	02f52227          	fsw	fa5,36(a0)
   1d620:	d21607d3          	fcvt.d.wu	fa5,a2
   1d624:	1287f7d3          	fmul.d	fa5,fa5,fs0
   1d628:	0165d603          	lhu	a2,22(a1)
   1d62c:	1297f7d3          	fmul.d	fa5,fa5,fs1
   1d630:	4017f7d3          	fcvt.s.d	fa5,fa5
   1d634:	02f52427          	fsw	fa5,40(a0)
   1d638:	d21607d3          	fcvt.d.wu	fa5,a2
   1d63c:	1287f7d3          	fmul.d	fa5,fa5,fs0
   1d640:	0185d603          	lhu	a2,24(a1)
   1d644:	1327f7d3          	fmul.d	fa5,fa5,fs2
   1d648:	4017f7d3          	fcvt.s.d	fa5,fa5
   1d64c:	02f52627          	fsw	fa5,44(a0)
   1d650:	d21607d3          	fcvt.d.wu	fa5,a2
   1d654:	01a5d603          	lhu	a2,26(a1)
   1d658:	1287f7d3          	fmul.d	fa5,fa5,fs0
   1d65c:	4017f7d3          	fcvt.s.d	fa5,fa5
   1d660:	02f52827          	fsw	fa5,48(a0)
   1d664:	d21607d3          	fcvt.d.wu	fa5,a2
   1d668:	1287f7d3          	fmul.d	fa5,fa5,fs0
   1d66c:	01c5d603          	lhu	a2,28(a1)
   1d670:	1337f7d3          	fmul.d	fa5,fa5,fs3
   1d674:	4017f7d3          	fcvt.s.d	fa5,fa5
   1d678:	02f52a27          	fsw	fa5,52(a0)
   1d67c:	d21607d3          	fcvt.d.wu	fa5,a2
   1d680:	1287f7d3          	fmul.d	fa5,fa5,fs0
   1d684:	01e5d603          	lhu	a2,30(a1)
   1d688:	1347f7d3          	fmul.d	fa5,fa5,fs4
   1d68c:	4017f7d3          	fcvt.s.d	fa5,fa5
   1d690:	02f52c27          	fsw	fa5,56(a0)
   1d694:	d21607d3          	fcvt.d.wu	fa5,a2
   1d698:	1287f7d3          	fmul.d	fa5,fa5,fs0
   1d69c:	0205d603          	lhu	a2,32(a1)
   1d6a0:	1357f7d3          	fmul.d	fa5,fa5,fs5
   1d6a4:	4017f7d3          	fcvt.s.d	fa5,fa5
   1d6a8:	02f52e27          	fsw	fa5,60(a0)
   1d6ac:	d21607d3          	fcvt.d.wu	fa5,a2
   1d6b0:	0225d603          	lhu	a2,34(a1)
   1d6b4:	1297f7d3          	fmul.d	fa5,fa5,fs1
   1d6b8:	4017f7d3          	fcvt.s.d	fa5,fa5
   1d6bc:	04f52027          	fsw	fa5,64(a0)
   1d6c0:	d21607d3          	fcvt.d.wu	fa5,a2
   1d6c4:	1297f7d3          	fmul.d	fa5,fa5,fs1
   1d6c8:	0245d603          	lhu	a2,36(a1)
   1d6cc:	1287f7d3          	fmul.d	fa5,fa5,fs0
   1d6d0:	4017f7d3          	fcvt.s.d	fa5,fa5
   1d6d4:	04f52227          	fsw	fa5,68(a0)
   1d6d8:	d21607d3          	fcvt.d.wu	fa5,a2
   1d6dc:	1297f7d3          	fmul.d	fa5,fa5,fs1
   1d6e0:	0265d603          	lhu	a2,38(a1)
   1d6e4:	1297f7d3          	fmul.d	fa5,fa5,fs1
   1d6e8:	4017f7d3          	fcvt.s.d	fa5,fa5
   1d6ec:	04f52427          	fsw	fa5,72(a0)
   1d6f0:	d21607d3          	fcvt.d.wu	fa5,a2
   1d6f4:	1297f7d3          	fmul.d	fa5,fa5,fs1
   1d6f8:	0285d603          	lhu	a2,40(a1)
   1d6fc:	1327f7d3          	fmul.d	fa5,fa5,fs2
   1d700:	4017f7d3          	fcvt.s.d	fa5,fa5
   1d704:	04f52627          	fsw	fa5,76(a0)
   1d708:	d21607d3          	fcvt.d.wu	fa5,a2
   1d70c:	02a5d603          	lhu	a2,42(a1)
   1d710:	1297f7d3          	fmul.d	fa5,fa5,fs1
   1d714:	4017f7d3          	fcvt.s.d	fa5,fa5
   1d718:	04f52827          	fsw	fa5,80(a0)
   1d71c:	d21607d3          	fcvt.d.wu	fa5,a2
   1d720:	1297f7d3          	fmul.d	fa5,fa5,fs1
   1d724:	02c5d603          	lhu	a2,44(a1)
   1d728:	1337f7d3          	fmul.d	fa5,fa5,fs3
   1d72c:	4017f7d3          	fcvt.s.d	fa5,fa5
   1d730:	04f52a27          	fsw	fa5,84(a0)
   1d734:	d21607d3          	fcvt.d.wu	fa5,a2
   1d738:	1297f7d3          	fmul.d	fa5,fa5,fs1
   1d73c:	02e5d603          	lhu	a2,46(a1)
   1d740:	1347f7d3          	fmul.d	fa5,fa5,fs4
   1d744:	4017f7d3          	fcvt.s.d	fa5,fa5
   1d748:	04f52c27          	fsw	fa5,88(a0)
   1d74c:	d21607d3          	fcvt.d.wu	fa5,a2
   1d750:	1297f7d3          	fmul.d	fa5,fa5,fs1
   1d754:	0305d603          	lhu	a2,48(a1)
   1d758:	1357f7d3          	fmul.d	fa5,fa5,fs5
   1d75c:	4017f7d3          	fcvt.s.d	fa5,fa5
   1d760:	04f52e27          	fsw	fa5,92(a0)
   1d764:	d21607d3          	fcvt.d.wu	fa5,a2
   1d768:	0325d603          	lhu	a2,50(a1)
   1d76c:	1327f7d3          	fmul.d	fa5,fa5,fs2
   1d770:	4017f7d3          	fcvt.s.d	fa5,fa5
   1d774:	06f52027          	fsw	fa5,96(a0)
   1d778:	d21607d3          	fcvt.d.wu	fa5,a2
   1d77c:	1327f7d3          	fmul.d	fa5,fa5,fs2
   1d780:	0345d603          	lhu	a2,52(a1)
   1d784:	1287f7d3          	fmul.d	fa5,fa5,fs0
   1d788:	4017f7d3          	fcvt.s.d	fa5,fa5
   1d78c:	06f52227          	fsw	fa5,100(a0)
   1d790:	d21607d3          	fcvt.d.wu	fa5,a2
   1d794:	1327f7d3          	fmul.d	fa5,fa5,fs2
   1d798:	0365d603          	lhu	a2,54(a1)
   1d79c:	1297f7d3          	fmul.d	fa5,fa5,fs1
   1d7a0:	4017f7d3          	fcvt.s.d	fa5,fa5
   1d7a4:	06f52427          	fsw	fa5,104(a0)
   1d7a8:	d21607d3          	fcvt.d.wu	fa5,a2
   1d7ac:	1327f7d3          	fmul.d	fa5,fa5,fs2
   1d7b0:	0385d603          	lhu	a2,56(a1)
   1d7b4:	1327f7d3          	fmul.d	fa5,fa5,fs2
   1d7b8:	4017f7d3          	fcvt.s.d	fa5,fa5
   1d7bc:	06f52627          	fsw	fa5,108(a0)
   1d7c0:	d21607d3          	fcvt.d.wu	fa5,a2
   1d7c4:	03a5d603          	lhu	a2,58(a1)
   1d7c8:	1327f7d3          	fmul.d	fa5,fa5,fs2
   1d7cc:	4017f7d3          	fcvt.s.d	fa5,fa5
   1d7d0:	06f52827          	fsw	fa5,112(a0)
   1d7d4:	d21607d3          	fcvt.d.wu	fa5,a2
   1d7d8:	1327f7d3          	fmul.d	fa5,fa5,fs2
   1d7dc:	03c5d603          	lhu	a2,60(a1)
   1d7e0:	1337f7d3          	fmul.d	fa5,fa5,fs3
   1d7e4:	4017f7d3          	fcvt.s.d	fa5,fa5
   1d7e8:	06f52a27          	fsw	fa5,116(a0)
   1d7ec:	d21607d3          	fcvt.d.wu	fa5,a2
   1d7f0:	1327f7d3          	fmul.d	fa5,fa5,fs2
   1d7f4:	03e5d603          	lhu	a2,62(a1)
   1d7f8:	1347f7d3          	fmul.d	fa5,fa5,fs4
   1d7fc:	4017f7d3          	fcvt.s.d	fa5,fa5
   1d800:	06f52c27          	fsw	fa5,120(a0)
   1d804:	d21607d3          	fcvt.d.wu	fa5,a2
   1d808:	1327f7d3          	fmul.d	fa5,fa5,fs2
   1d80c:	1357f7d3          	fmul.d	fa5,fa5,fs5
   1d810:	0405d603          	lhu	a2,64(a1)
   1d814:	4017f7d3          	fcvt.s.d	fa5,fa5
   1d818:	0425d683          	lhu	a3,66(a1)
   1d81c:	06f52e27          	fsw	fa5,124(a0)
   1d820:	d01677d3          	fcvt.s.wu	fa5,a2
   1d824:	08f52027          	fsw	fa5,128(a0)
   1d828:	d21687d3          	fcvt.d.wu	fa5,a3
   1d82c:	0445d603          	lhu	a2,68(a1)
   1d830:	1287f7d3          	fmul.d	fa5,fa5,fs0
   1d834:	4017f7d3          	fcvt.s.d	fa5,fa5
   1d838:	08f52227          	fsw	fa5,132(a0)
   1d83c:	d21607d3          	fcvt.d.wu	fa5,a2
   1d840:	0465d603          	lhu	a2,70(a1)
   1d844:	1297f7d3          	fmul.d	fa5,fa5,fs1
   1d848:	4017f7d3          	fcvt.s.d	fa5,fa5
   1d84c:	08f52427          	fsw	fa5,136(a0)
   1d850:	d21607d3          	fcvt.d.wu	fa5,a2
   1d854:	1327f7d3          	fmul.d	fa5,fa5,fs2
   1d858:	0485d603          	lhu	a2,72(a1)
   1d85c:	4017f7d3          	fcvt.s.d	fa5,fa5
   1d860:	04a5d683          	lhu	a3,74(a1)
   1d864:	08f52627          	fsw	fa5,140(a0)
   1d868:	d01677d3          	fcvt.s.wu	fa5,a2
   1d86c:	08f52827          	fsw	fa5,144(a0)
   1d870:	d21687d3          	fcvt.d.wu	fa5,a3
   1d874:	04c5d603          	lhu	a2,76(a1)
   1d878:	1337f7d3          	fmul.d	fa5,fa5,fs3
   1d87c:	4017f7d3          	fcvt.s.d	fa5,fa5
   1d880:	08f52a27          	fsw	fa5,148(a0)
   1d884:	d21607d3          	fcvt.d.wu	fa5,a2
   1d888:	04e5d603          	lhu	a2,78(a1)
   1d88c:	1347f7d3          	fmul.d	fa5,fa5,fs4
   1d890:	4017f7d3          	fcvt.s.d	fa5,fa5
   1d894:	08f52c27          	fsw	fa5,152(a0)
   1d898:	d21607d3          	fcvt.d.wu	fa5,a2
   1d89c:	0505d603          	lhu	a2,80(a1)
   1d8a0:	1357f7d3          	fmul.d	fa5,fa5,fs5
   1d8a4:	4017f7d3          	fcvt.s.d	fa5,fa5
   1d8a8:	08f52e27          	fsw	fa5,156(a0)
   1d8ac:	d21607d3          	fcvt.d.wu	fa5,a2
   1d8b0:	0525d603          	lhu	a2,82(a1)
   1d8b4:	1337f7d3          	fmul.d	fa5,fa5,fs3
   1d8b8:	4017f7d3          	fcvt.s.d	fa5,fa5
   1d8bc:	0af52027          	fsw	fa5,160(a0)
   1d8c0:	d21607d3          	fcvt.d.wu	fa5,a2
   1d8c4:	1337f7d3          	fmul.d	fa5,fa5,fs3
   1d8c8:	0545d603          	lhu	a2,84(a1)
   1d8cc:	1287f7d3          	fmul.d	fa5,fa5,fs0
   1d8d0:	4017f7d3          	fcvt.s.d	fa5,fa5
   1d8d4:	0af52227          	fsw	fa5,164(a0)
   1d8d8:	d21607d3          	fcvt.d.wu	fa5,a2
   1d8dc:	1337f7d3          	fmul.d	fa5,fa5,fs3
   1d8e0:	0565d603          	lhu	a2,86(a1)
   1d8e4:	1297f7d3          	fmul.d	fa5,fa5,fs1
   1d8e8:	4017f7d3          	fcvt.s.d	fa5,fa5
   1d8ec:	0af52427          	fsw	fa5,168(a0)
   1d8f0:	d21607d3          	fcvt.d.wu	fa5,a2
   1d8f4:	1337f7d3          	fmul.d	fa5,fa5,fs3
   1d8f8:	0585d603          	lhu	a2,88(a1)
   1d8fc:	1327f7d3          	fmul.d	fa5,fa5,fs2
   1d900:	4017f7d3          	fcvt.s.d	fa5,fa5
   1d904:	0af52627          	fsw	fa5,172(a0)
   1d908:	d21607d3          	fcvt.d.wu	fa5,a2
   1d90c:	05a5d603          	lhu	a2,90(a1)
   1d910:	1337f7d3          	fmul.d	fa5,fa5,fs3
   1d914:	4017f7d3          	fcvt.s.d	fa5,fa5
   1d918:	0af52827          	fsw	fa5,176(a0)
   1d91c:	d21607d3          	fcvt.d.wu	fa5,a2
   1d920:	1337f7d3          	fmul.d	fa5,fa5,fs3
   1d924:	05c5d603          	lhu	a2,92(a1)
   1d928:	1337f7d3          	fmul.d	fa5,fa5,fs3
   1d92c:	4017f7d3          	fcvt.s.d	fa5,fa5
   1d930:	0af52a27          	fsw	fa5,180(a0)
   1d934:	d21607d3          	fcvt.d.wu	fa5,a2
   1d938:	1337f7d3          	fmul.d	fa5,fa5,fs3
   1d93c:	05e5d603          	lhu	a2,94(a1)
   1d940:	1347f7d3          	fmul.d	fa5,fa5,fs4
   1d944:	4017f7d3          	fcvt.s.d	fa5,fa5
   1d948:	0af52c27          	fsw	fa5,184(a0)
   1d94c:	d21607d3          	fcvt.d.wu	fa5,a2
   1d950:	1337f7d3          	fmul.d	fa5,fa5,fs3
   1d954:	0605d603          	lhu	a2,96(a1)
   1d958:	1357f7d3          	fmul.d	fa5,fa5,fs5
   1d95c:	4017f7d3          	fcvt.s.d	fa5,fa5
   1d960:	0af52e27          	fsw	fa5,188(a0)
   1d964:	d21607d3          	fcvt.d.wu	fa5,a2
   1d968:	0625d603          	lhu	a2,98(a1)
   1d96c:	1347f7d3          	fmul.d	fa5,fa5,fs4
   1d970:	4017f7d3          	fcvt.s.d	fa5,fa5
   1d974:	0cf52027          	fsw	fa5,192(a0)
   1d978:	d21607d3          	fcvt.d.wu	fa5,a2
   1d97c:	1347f7d3          	fmul.d	fa5,fa5,fs4
   1d980:	0645d603          	lhu	a2,100(a1)
   1d984:	1287f7d3          	fmul.d	fa5,fa5,fs0
   1d988:	4017f7d3          	fcvt.s.d	fa5,fa5
   1d98c:	0cf52227          	fsw	fa5,196(a0)
   1d990:	d21607d3          	fcvt.d.wu	fa5,a2
   1d994:	1347f7d3          	fmul.d	fa5,fa5,fs4
   1d998:	0665d603          	lhu	a2,102(a1)
   1d99c:	1297f7d3          	fmul.d	fa5,fa5,fs1
   1d9a0:	4017f7d3          	fcvt.s.d	fa5,fa5
   1d9a4:	0cf52427          	fsw	fa5,200(a0)
   1d9a8:	d21607d3          	fcvt.d.wu	fa5,a2
   1d9ac:	1347f7d3          	fmul.d	fa5,fa5,fs4
   1d9b0:	0685d603          	lhu	a2,104(a1)
   1d9b4:	1327f7d3          	fmul.d	fa5,fa5,fs2
   1d9b8:	4017f7d3          	fcvt.s.d	fa5,fa5
   1d9bc:	0cf52627          	fsw	fa5,204(a0)
   1d9c0:	d21607d3          	fcvt.d.wu	fa5,a2
   1d9c4:	06a5d603          	lhu	a2,106(a1)
   1d9c8:	1347f7d3          	fmul.d	fa5,fa5,fs4
   1d9cc:	4017f7d3          	fcvt.s.d	fa5,fa5
   1d9d0:	0cf52827          	fsw	fa5,208(a0)
   1d9d4:	d21607d3          	fcvt.d.wu	fa5,a2
   1d9d8:	1347f7d3          	fmul.d	fa5,fa5,fs4
   1d9dc:	06c5d603          	lhu	a2,108(a1)
   1d9e0:	1337f7d3          	fmul.d	fa5,fa5,fs3
   1d9e4:	4017f7d3          	fcvt.s.d	fa5,fa5
   1d9e8:	0cf52a27          	fsw	fa5,212(a0)
   1d9ec:	d21607d3          	fcvt.d.wu	fa5,a2
   1d9f0:	1347f7d3          	fmul.d	fa5,fa5,fs4
   1d9f4:	06e5d603          	lhu	a2,110(a1)
   1d9f8:	1347f7d3          	fmul.d	fa5,fa5,fs4
   1d9fc:	4017f7d3          	fcvt.s.d	fa5,fa5
   1da00:	0cf52c27          	fsw	fa5,216(a0)
   1da04:	d21607d3          	fcvt.d.wu	fa5,a2
   1da08:	1347f7d3          	fmul.d	fa5,fa5,fs4
   1da0c:	0705d603          	lhu	a2,112(a1)
   1da10:	1357f7d3          	fmul.d	fa5,fa5,fs5
   1da14:	4017f7d3          	fcvt.s.d	fa5,fa5
   1da18:	0cf52e27          	fsw	fa5,220(a0)
   1da1c:	d21607d3          	fcvt.d.wu	fa5,a2
   1da20:	0725d603          	lhu	a2,114(a1)
   1da24:	1357f7d3          	fmul.d	fa5,fa5,fs5
   1da28:	4017f7d3          	fcvt.s.d	fa5,fa5
   1da2c:	0ef52027          	fsw	fa5,224(a0)
   1da30:	d21607d3          	fcvt.d.wu	fa5,a2
   1da34:	1357f7d3          	fmul.d	fa5,fa5,fs5
   1da38:	0745d603          	lhu	a2,116(a1)
   1da3c:	1287f7d3          	fmul.d	fa5,fa5,fs0
   1da40:	4017f7d3          	fcvt.s.d	fa5,fa5
   1da44:	0ef52227          	fsw	fa5,228(a0)
   1da48:	d21607d3          	fcvt.d.wu	fa5,a2
   1da4c:	1357f7d3          	fmul.d	fa5,fa5,fs5
   1da50:	0765d603          	lhu	a2,118(a1)
   1da54:	1297f7d3          	fmul.d	fa5,fa5,fs1
   1da58:	4017f7d3          	fcvt.s.d	fa5,fa5
   1da5c:	0ef52427          	fsw	fa5,232(a0)
   1da60:	d21607d3          	fcvt.d.wu	fa5,a2
   1da64:	1357f7d3          	fmul.d	fa5,fa5,fs5
   1da68:	0785d603          	lhu	a2,120(a1)
   1da6c:	1327f7d3          	fmul.d	fa5,fa5,fs2
   1da70:	4017f7d3          	fcvt.s.d	fa5,fa5
   1da74:	0ef52627          	fsw	fa5,236(a0)
   1da78:	d21607d3          	fcvt.d.wu	fa5,a2
   1da7c:	07a5d603          	lhu	a2,122(a1)
   1da80:	1357f7d3          	fmul.d	fa5,fa5,fs5
   1da84:	4017f7d3          	fcvt.s.d	fa5,fa5
   1da88:	0ef52827          	fsw	fa5,240(a0)
   1da8c:	d21607d3          	fcvt.d.wu	fa5,a2
   1da90:	1357f7d3          	fmul.d	fa5,fa5,fs5
   1da94:	07c5d603          	lhu	a2,124(a1)
   1da98:	1337f7d3          	fmul.d	fa5,fa5,fs3
   1da9c:	4017f7d3          	fcvt.s.d	fa5,fa5
   1daa0:	0ef52a27          	fsw	fa5,244(a0)
   1daa4:	d21607d3          	fcvt.d.wu	fa5,a2
   1daa8:	1357f7d3          	fmul.d	fa5,fa5,fs5
   1daac:	07e5d583          	lhu	a1,126(a1)
   1dab0:	1347f7d3          	fmul.d	fa5,fa5,fs4
   1dab4:	4017f7d3          	fcvt.s.d	fa5,fa5
   1dab8:	0ef52c27          	fsw	fa5,248(a0)
   1dabc:	d21587d3          	fcvt.d.wu	fa5,a1
   1dac0:	1357f7d3          	fmul.d	fa5,fa5,fs5
   1dac4:	1357f7d3          	fmul.d	fa5,fa5,fs5
   1dac8:	4017f7d3          	fcvt.s.d	fa5,fa5
   1dacc:	0ef52e27          	fsw	fa5,252(a0)
   1dad0:	03842503          	lw	a0,56(s0)
   1dad4:	00148493          	addi	s1,s1,1
   1dad8:	06090913          	addi	s2,s2,96
   1dadc:	14a4d063          	bge	s1,a0,1dc1c <start_pass+0x768>
   1dae0:	02492503          	lw	a0,36(s2)
   1dae4:	00ab4e63          	blt	s6,a0,1db00 <start_pass+0x64c>
   1dae8:	07750463          	beq	a0,s7,1db50 <start_pass+0x69c>
   1daec:	05851063          	bne	a0,s8,1db2c <start_pass+0x678>
   1daf0:	00000d13          	li	s10,0
   1daf4:	0001fdb7          	lui	s11,0x1f
   1daf8:	dc4d8d93          	addi	s11,s11,-572 # 1edc4 <jpeg_idct_2x2>
   1dafc:	08c0006f          	j	1db88 <start_pass+0x6d4>
   1db00:	07950063          	beq	a0,s9,1db60 <start_pass+0x6ac>
   1db04:	03551463          	bne	a0,s5,1db2c <start_pass+0x678>
   1db08:	06042503          	lw	a0,96(s0)
   1db0c:	07657263          	bgeu	a0,s6,1db70 <start_pass+0x6bc>
   1db10:	00351593          	slli	a1,a0,0x3
   1db14:	00028637          	lui	a2,0x28
   1db18:	1b860613          	addi	a2,a2,440 # 281b8 <start_pass.aanscales+0x80>
   1db1c:	00b605b3          	add	a1,a2,a1
   1db20:	0005bd83          	ld	s11,0(a1)
   1db24:	00050d13          	mv	s10,a0
   1db28:	0600006f          	j	1db88 <start_pass+0x6d4>
   1db2c:	00043583          	ld	a1,0(s0)
   1db30:	02a5a623          	sw	a0,44(a1)
   1db34:	00043503          	ld	a0,0(s0)
   1db38:	00053603          	ld	a2,0(a0)
   1db3c:	00700513          	li	a0,7
   1db40:	02a5a423          	sw	a0,40(a1)
   1db44:	00040513          	mv	a0,s0
   1db48:	000600e7          	jalr	a2
   1db4c:	03c0006f          	j	1db88 <start_pass+0x6d4>
   1db50:	00000d13          	li	s10,0
   1db54:	0001fdb7          	lui	s11,0x1f
   1db58:	374d8d93          	addi	s11,s11,884 # 1f374 <jpeg_idct_1x1>
   1db5c:	02c0006f          	j	1db88 <start_pass+0x6d4>
   1db60:	00000d13          	li	s10,0
   1db64:	0001fdb7          	lui	s11,0x1f
   1db68:	9e0d8d93          	addi	s11,s11,-1568 # 1e9e0 <jpeg_idct_4x4>
   1db6c:	01c0006f          	j	1db88 <start_pass+0x6d4>
   1db70:	00043503          	ld	a0,0(s0)
   1db74:	00053583          	ld	a1,0(a0)
   1db78:	03000613          	li	a2,48
   1db7c:	02c52423          	sw	a2,40(a0)
   1db80:	00040513          	mv	a0,s0
   1db84:	000580e7          	jalr	a1
   1db88:	03092503          	lw	a0,48(s2)
   1db8c:	00349593          	slli	a1,s1,0x3
   1db90:	00b985b3          	add	a1,s3,a1
   1db94:	01b5b023          	sd	s11,0(a1)
   1db98:	f2050ce3          	beqz	a0,1dad0 <start_pass+0x61c>
   1db9c:	00249613          	slli	a2,s1,0x2
   1dba0:	00ca0633          	add	a2,s4,a2
   1dba4:	00062503          	lw	a0,0(a2)
   1dba8:	f3a504e3          	beq	a0,s10,1dad0 <start_pass+0x61c>
   1dbac:	05093583          	ld	a1,80(s2)
   1dbb0:	f20580e3          	beqz	a1,1dad0 <start_pass+0x61c>
   1dbb4:	05893503          	ld	a0,88(s2)
   1dbb8:	01a62023          	sw	s10,0(a2)
   1dbbc:	040d0263          	beqz	s10,1dc00 <start_pass+0x74c>
   1dbc0:	9b8d00e3          	beq	s10,s8,1d560 <start_pass+0xac>
   1dbc4:	10050613          	addi	a2,a0,256
   1dbc8:	000286b7          	lui	a3,0x28
   1dbcc:	13868693          	addi	a3,a3,312 # 28138 <start_pass.aanscales>
   1dbd0:	0005d703          	lhu	a4,0(a1)
   1dbd4:	00069783          	lh	a5,0(a3)
   1dbd8:	02e78733          	mul	a4,a5,a4
   1dbdc:	7ff70713          	addi	a4,a4,2047
   1dbe0:	00170713          	addi	a4,a4,1
   1dbe4:	00c75713          	srli	a4,a4,0xc
   1dbe8:	00e52023          	sw	a4,0(a0)
   1dbec:	00450513          	addi	a0,a0,4
   1dbf0:	00268693          	addi	a3,a3,2
   1dbf4:	00258593          	addi	a1,a1,2
   1dbf8:	fcc51ce3          	bne	a0,a2,1dbd0 <start_pass+0x71c>
   1dbfc:	ed5ff06f          	j	1dad0 <start_pass+0x61c>
   1dc00:	10050613          	addi	a2,a0,256
   1dc04:	0005d683          	lhu	a3,0(a1)
   1dc08:	00d52023          	sw	a3,0(a0)
   1dc0c:	00450513          	addi	a0,a0,4
   1dc10:	00258593          	addi	a1,a1,2
   1dc14:	fec518e3          	bne	a0,a2,1dc04 <start_pass+0x750>
   1dc18:	eb9ff06f          	j	1dad0 <start_pass+0x61c>
   1dc1c:	09813083          	ld	ra,152(sp)
   1dc20:	09013403          	ld	s0,144(sp)
   1dc24:	08813483          	ld	s1,136(sp)
   1dc28:	08013903          	ld	s2,128(sp)
   1dc2c:	07813983          	ld	s3,120(sp)
   1dc30:	07013a03          	ld	s4,112(sp)
   1dc34:	06813a83          	ld	s5,104(sp)
   1dc38:	06013b03          	ld	s6,96(sp)
   1dc3c:	05813b83          	ld	s7,88(sp)
   1dc40:	05013c03          	ld	s8,80(sp)
   1dc44:	04813c83          	ld	s9,72(sp)
   1dc48:	04013d03          	ld	s10,64(sp)
   1dc4c:	03813d83          	ld	s11,56(sp)
   1dc50:	03013407          	fld	fs0,48(sp)
   1dc54:	02813487          	fld	fs1,40(sp)
   1dc58:	02013907          	fld	fs2,32(sp)
   1dc5c:	01813987          	fld	fs3,24(sp)
   1dc60:	01013a07          	fld	fs4,16(sp)
   1dc64:	00813a87          	fld	fs5,8(sp)
   1dc68:	0a010113          	addi	sp,sp,160
   1dc6c:	00008067          	ret

000000000001dc70 <jpeg_idct_ifast>:
   1dc70:	f0010113          	addi	sp,sp,-256
   1dc74:	00100793          	li	a5,1
   1dc78:	02879793          	slli	a5,a5,0x28
   1dc7c:	d6378793          	addi	a5,a5,-669
   1dc80:	00010813          	mv	a6,sp
   1dc84:	1a853503          	ld	a0,424(a0)
   1dc88:	0585b583          	ld	a1,88(a1)
   1dc8c:	04060613          	addi	a2,a2,64
   1dc90:	02010893          	addi	a7,sp,32
   1dc94:	16a00293          	li	t0,362
   1dc98:	1d900313          	li	t1,473
   1dc9c:	11500393          	li	t2,277
   1dca0:	fd065e03          	lhu	t3,-48(a2)
   1dca4:	fe065e83          	lhu	t4,-32(a2)
   1dca8:	01de6f33          	or	t5,t3,t4
   1dcac:	030f1f13          	slli	t5,t5,0x30
   1dcb0:	020f1863          	bnez	t5,1dce0 <jpeg_idct_ifast+0x70>
   1dcb4:	ff065e83          	lhu	t4,-16(a2)
   1dcb8:	020e9263          	bnez	t4,1dcdc <jpeg_idct_ifast+0x6c>
   1dcbc:	00065e83          	lhu	t4,0(a2)
   1dcc0:	000e9e63          	bnez	t4,1dcdc <jpeg_idct_ifast+0x6c>
   1dcc4:	01065e83          	lhu	t4,16(a2)
   1dcc8:	000e9a63          	bnez	t4,1dcdc <jpeg_idct_ifast+0x6c>
   1dccc:	02065e83          	lhu	t4,32(a2)
   1dcd0:	000e9663          	bnez	t4,1dcdc <jpeg_idct_ifast+0x6c>
   1dcd4:	03065e83          	lhu	t4,48(a2)
   1dcd8:	160e8663          	beqz	t4,1de44 <jpeg_idct_ifast+0x1d4>
   1dcdc:	00000e93          	li	t4,0
   1dce0:	fc061f03          	lh	t5,-64(a2)
   1dce4:	0005af83          	lw	t6,0(a1)
   1dce8:	03ef8f33          	mul	t5,t6,t5
   1dcec:	030e9e93          	slli	t4,t4,0x30
   1dcf0:	0405af83          	lw	t6,64(a1)
   1dcf4:	009941a3          	regsw_c	s1,3(s2)
   1dcf8:	00061083          	lh	ra,0(a2)
   1dcfc:	0805a103          	lw	sp,128(a1)
   1dd00:	02061183          	lh	gp,32(a2)
   1dd04:	0c05a203          	lw	tp,192(a1)
   1dd08:	430ede93          	srai	t4,t4,0x30
   1dd0c:	03df8eb3          	mul	t4,t6,t4
   1dd10:	02110fb3          	mul	t6,sp,ra
   1dd14:	440f4023          	regsw_c	zero,1088(t5)
   1dd18:	023200b3          	mul	ra,tp,gp
   1dd1c:	01ef8133          	add	sp,t6,t5
   1dd20:	41ff0f3b          	subw	t5,t5,t6
   1dd24:	01d08fb3          	add	t6,ra,t4
   1dd28:	401e8ebb          	subw	t4,t4,ra
   1dd2c:	025e8eb3          	mul	t4,t4,t0
   1dd30:	008ede93          	srli	t4,t4,0x8
   1dd34:	41fe8ebb          	subw	t4,t4,t6
   1dd38:	008ac023          	regsw_c	s0,0(s5)
   1dd3c:	002f80b3          	add	ra,t6,sp
   1dd40:	41f10fbb          	subw	t6,sp,t6
   1dd44:	01ee8133          	add	sp,t4,t5
   1dd48:	41df0f3b          	subw	t5,t5,t4
   1dd4c:	030e1e13          	slli	t3,t3,0x30
   1dd50:	430e5e13          	srai	t3,t3,0x30
   1dd54:	0205ae83          	lw	t4,32(a1)
   1dd58:	12994023          	regsw_c	s1,288(s2)
   1dd5c:	ff061183          	lh	gp,-16(a2)
   1dd60:	0605a203          	lw	tp,96(a1)
   1dd64:	01061283          	lh	t0,16(a2)
   1dd68:	0a05a303          	lw	t1,160(a1)
   1dd6c:	03061383          	lh	t2,48(a2)
   1dd70:	0e05a403          	lw	s0,224(a1)
   1dd74:	03ce8e33          	mul	t3,t4,t3
   1dd78:	4bf7c8a3          	regsw_c	t6,1201(a5)
   1dd7c:	02320eb3          	mul	t4,tp,gp
   1dd80:	025301b3          	mul	gp,t1,t0
   1dd84:	02740233          	mul	tp,s0,t2
   1dd88:	01d182b3          	add	t0,gp,t4
   1dd8c:	41d18ebb          	subw	t4,gp,t4
   1dd90:	01c201b3          	add	gp,tp,t3
   1dd94:	404e0e3b          	subw	t3,t3,tp
   1dd98:	53dfcb23          	regsw_c	t4,1334(t6)
   1dd9c:	00518233          	add	tp,gp,t0
   1dda0:	405181bb          	subw	gp,gp,t0
   1dda4:	025181b3          	mul	gp,gp,t0
   1dda8:	0081d193          	srli	gp,gp,0x8
   1ddac:	01de02bb          	addw	t0,t3,t4
   1ddb0:	026282b3          	mul	t0,t0,t1
   1ddb4:	0082d293          	srli	t0,t0,0x8
   1ddb8:	027e0e33          	mul	t3,t3,t2
   1ddbc:	008e5e13          	srli	t3,t3,0x8
   1ddc0:	26024923          	regsw_c	zero,626(tp) # 272 <__abi_tag-0x10022>
   1ddc4:	405e0e3b          	subw	t3,t3,t0
   1ddc8:	02fe8eb3          	mul	t4,t4,a5
   1ddcc:	008ede93          	srli	t4,t4,0x8
   1ddd0:	404e8ebb          	subw	t4,t4,tp
   1ddd4:	005e8eb3          	add	t4,t4,t0
   1ddd8:	41d181bb          	subw	gp,gp,t4
   1dddc:	01c18e33          	add	t3,gp,t3
   1dde0:	35ee4523          	regsw_c	t5,842(t3)
   1dde4:	001202b3          	add	t0,tp,ra
   1dde8:	00582023          	sw	t0,0(a6)
   1ddec:	404080bb          	subw	ra,ra,tp
   1ddf0:	0e182023          	sw	ra,224(a6)
   1ddf4:	002e80b3          	add	ra,t4,sp
   1ddf8:	02182023          	sw	ra,32(a6)
   1ddfc:	41d10ebb          	subw	t4,sp,t4
   1de00:	0dd82023          	sw	t4,192(a6)
   1de04:	00244023          	regsw_c	sp,0(s0)
   1de08:	01e18eb3          	add	t4,gp,t5
   1de0c:	05d82023          	sw	t4,64(a6)
   1de10:	403f0ebb          	subw	t4,t5,gp
   1de14:	0bd82023          	sw	t4,160(a6)
   1de18:	01fe0eb3          	add	t4,t3,t6
   1de1c:	09d82023          	sw	t4,128(a6)
   1de20:	41cf8e3b          	subw	t3,t6,t3
   1de24:	06000e93          	li	t4,96
   1de28:	01d80eb3          	add	t4,a6,t4
   1de2c:	01cea023          	sw	t3,0(t4)
   1de30:	00480813          	addi	a6,a6,4
   1de34:	00458593          	addi	a1,a1,4
   1de38:	00260613          	addi	a2,a2,2
   1de3c:	e71812e3          	bne	a6,a7,1dca0 <jpeg_idct_ifast+0x30>
   1de40:	0340006f          	j	1de74 <jpeg_idct_ifast+0x204>
   1de44:	fc061e03          	lh	t3,-64(a2)
   1de48:	0005ae83          	lw	t4,0(a1)
   1de4c:	03ce8e33          	mul	t3,t4,t3
   1de50:	01c82023          	sw	t3,0(a6)
   1de54:	03c82023          	sw	t3,32(a6)
   1de58:	05c82023          	sw	t3,64(a6)
   1de5c:	07c82023          	sw	t3,96(a6)
   1de60:	09c82023          	sw	t3,128(a6)
   1de64:	0bc82023          	sw	t3,160(a6)
   1de68:	0dc82023          	sw	t3,192(a6)
   1de6c:	0e000e93          	li	t4,224
   1de70:	fb9ff06f          	j	1de28 <jpeg_idct_ifast+0x1b8>
   1de74:	08050513          	addi	a0,a0,128
   1de78:	02071593          	slli	a1,a4,0x20
   1de7c:	0205d593          	srli	a1,a1,0x20
   1de80:	01010613          	addi	a2,sp,16
   1de84:	04068713          	addi	a4,a3,64
   1de88:	16a00813          	li	a6,362
   1de8c:	1d900893          	li	a7,473
   1de90:	02089893          	slli	a7,a7,0x20
   1de94:	11500293          	li	t0,277
   1de98:	02029293          	slli	t0,t0,0x20
   1de9c:	ff462383          	lw	t2,-12(a2)
   1dea0:	ff862e03          	lw	t3,-8(a2)
   1dea4:	0006b303          	ld	t1,0(a3)
   1dea8:	01c3eeb3          	or	t4,t2,t3
   1deac:	00b30333          	add	t1,t1,a1
   1deb0:	020e9863          	bnez	t4,1dee0 <jpeg_idct_ifast+0x270>
   1deb4:	ffc62e03          	lw	t3,-4(a2)
   1deb8:	020e1263          	bnez	t3,1dedc <jpeg_idct_ifast+0x26c>
   1debc:	00062e03          	lw	t3,0(a2)
   1dec0:	000e1e63          	bnez	t3,1dedc <jpeg_idct_ifast+0x26c>
   1dec4:	00462e03          	lw	t3,4(a2)
   1dec8:	000e1a63          	bnez	t3,1dedc <jpeg_idct_ifast+0x26c>
   1decc:	00862e03          	lw	t3,8(a2)
   1ded0:	000e1663          	bnez	t3,1dedc <jpeg_idct_ifast+0x26c>
   1ded4:	00c62e03          	lw	t3,12(a2)
   1ded8:	1a0e0c63          	beqz	t3,1e090 <jpeg_idct_ifast+0x420>
   1dedc:	00000e13          	li	t3,0
   1dee0:	ff062e83          	lw	t4,-16(a2)
   1dee4:	00062f03          	lw	t5,0(a2)
   1dee8:	00862f83          	lw	t6,8(a2)
   1deec:	00084023          	regsw_c	zero,0(a6)
   1def0:	01df00b3          	add	ra,t5,t4
   1def4:	41ee8ebb          	subw	t4,t4,t5
   1def8:	01cf8f33          	add	t5,t6,t3
   1defc:	41fe0e3b          	subw	t3,t3,t6
   1df00:	020e1e13          	slli	t3,t3,0x20
   1df04:	020e5e13          	srli	t3,t3,0x20
   1df08:	030e0e33          	mul	t3,t3,a6
   1df0c:	008e5e13          	srli	t3,t3,0x8
   1df10:	41ee0e3b          	subw	t3,t3,t5
   1df14:	00462f83          	lw	t6,4(a2)
   1df18:	1ab94ba3          	regsw_c	a1,439(s2)
   1df1c:	ffc62103          	lw	sp,-4(a2)
   1df20:	00c62183          	lw	gp,12(a2)
   1df24:	001f0233          	add	tp,t5,ra
   1df28:	01de02b3          	add	t0,t3,t4
   1df2c:	01f10333          	add	t1,sp,t6
   1df30:	007183b3          	add	t2,gp,t2
   1df34:	00638433          	add	s0,t2,t1
   1df38:	38dfc0a3          	regsw_c	a3,897(t6)
   1df3c:	004404b3          	add	s1,s0,tp
   1df40:	03149493          	slli	s1,s1,0x31
   1df44:	0364d493          	srli	s1,s1,0x36
   1df48:	009504b3          	add	s1,a0,s1
   1df4c:	0004c483          	lbu	s1,0(s1)
   1df50:	41ce8ebb          	subw	t4,t4,t3
   1df54:	402f8e3b          	subw	t3,t6,sp
   1df58:	010240a3          	regsw_c	a6,1(tp) # 1 <__abi_tag-0x10293>
   1df5c:	403383bb          	subw	t2,t2,gp
   1df60:	00930023          	sb	s1,0(t1)
   1df64:	020e1f93          	slli	t6,t3,0x20
   1df68:	020fdf93          	srli	t6,t6,0x20
   1df6c:	02ff8fb3          	mul	t6,t6,a5
   1df70:	008fdf93          	srli	t6,t6,0x8
   1df74:	408f8fbb          	subw	t6,t6,s0
   1df78:	5a1e4723          	regsw_c	ra,1454(t3)
   1df7c:	4082013b          	subw	sp,tp,s0
   1df80:	01c38e33          	add	t3,t2,t3
   1df84:	020e1e13          	slli	t3,t3,0x20
   1df88:	03111113          	slli	sp,sp,0x31
   1df8c:	03615113          	srli	sp,sp,0x36
   1df90:	00250133          	add	sp,a0,sp
   1df94:	00014103          	lbu	sp,0(sp)
   1df98:	031e3e33          	mulhu	t3,t3,a7
   1df9c:	008e5e13          	srli	t3,t3,0x8
   1dfa0:	01cf8fb3          	add	t6,t6,t3
   1dfa4:	57d34ba3          	regsw_c	t4,1399(t1)
   1dfa8:	002303a3          	sb	sp,7(t1)
   1dfac:	005f8133          	add	sp,t6,t0
   1dfb0:	03111113          	slli	sp,sp,0x31
   1dfb4:	03615113          	srli	sp,sp,0x36
   1dfb8:	00250133          	add	sp,a0,sp
   1dfbc:	00014103          	lbu	sp,0(sp)
   1dfc0:	406381bb          	subw	gp,t2,t1
   1dfc4:	5a3dcaa3          	regsw_c	gp,1461(s11)
   1dfc8:	02019193          	slli	gp,gp,0x20
   1dfcc:	0201d193          	srli	gp,gp,0x20
   1dfd0:	002300a3          	sb	sp,1(t1)
   1dfd4:	41f2813b          	subw	sp,t0,t6
   1dfd8:	03111113          	slli	sp,sp,0x31
   1dfdc:	03615113          	srli	sp,sp,0x36
   1dfe0:	00250133          	add	sp,a0,sp
   1dfe4:	46cdc323          	regsw_c	a2,1126(s11)
   1dfe8:	00014103          	lbu	sp,0(sp)
   1dfec:	030181b3          	mul	gp,gp,a6
   1dff0:	0081d193          	srli	gp,gp,0x8
   1dff4:	41f18fbb          	subw	t6,gp,t6
   1dff8:	00230323          	sb	sp,6(t1)
   1dffc:	01df8133          	add	sp,t6,t4
   1e000:	03111113          	slli	sp,sp,0x31
   1e004:	41cd40a3          	regsw_c	t3,1025(s10)
   1e008:	03615113          	srli	sp,sp,0x36
   1e00c:	00250133          	add	sp,a0,sp
   1e010:	00014103          	lbu	sp,0(sp)
   1e014:	41e08f3b          	subw	t5,ra,t5
   1e018:	02039393          	slli	t2,t2,0x20
   1e01c:	0253b3b3          	mulhu	t2,t2,t0
   1e020:	00230123          	sb	sp,2(t1)
   1e024:	41fe8ebb          	subw	t4,t4,t6
   1e028:	031e9e93          	slli	t4,t4,0x31
   1e02c:	036ede93          	srli	t4,t4,0x36
   1e030:	01d50eb3          	add	t4,a0,t4
   1e034:	000ece83          	lbu	t4,0(t4)
   1e038:	0083d393          	srli	t2,t2,0x8
   1e03c:	41c383bb          	subw	t2,t2,t3
   1e040:	007f83b3          	add	t2,t6,t2
   1e044:	01d302a3          	sb	t4,5(t1)
   1e048:	01e38e33          	add	t3,t2,t5
   1e04c:	031e1e13          	slli	t3,t3,0x31
   1e050:	036e5e13          	srli	t3,t3,0x36
   1e054:	01c50e33          	add	t3,a0,t3
   1e058:	000e4e03          	lbu	t3,0(t3)
   1e05c:	01c30223          	sb	t3,4(t1)
   1e060:	407f03bb          	subw	t2,t5,t2
   1e064:	03139393          	slli	t2,t2,0x31
   1e068:	0363d393          	srli	t2,t2,0x36
   1e06c:	007503b3          	add	t2,a0,t2
   1e070:	0003c383          	lbu	t2,0(t2)
   1e074:	00300e13          	li	t3,3
   1e078:	01c30333          	add	t1,t1,t3
   1e07c:	00730023          	sb	t2,0(t1)
   1e080:	00868693          	addi	a3,a3,8
   1e084:	02060613          	addi	a2,a2,32
   1e088:	e0e69ae3          	bne	a3,a4,1de9c <jpeg_idct_ifast+0x22c>
   1e08c:	03c0006f          	j	1e0c8 <jpeg_idct_ifast+0x458>
   1e090:	ff066383          	lwu	t2,-16(a2)
   1e094:	03139393          	slli	t2,t2,0x31
   1e098:	0363d393          	srli	t2,t2,0x36
   1e09c:	007503b3          	add	t2,a0,t2
   1e0a0:	0003c383          	lbu	t2,0(t2)
   1e0a4:	00730023          	sb	t2,0(t1)
   1e0a8:	007300a3          	sb	t2,1(t1)
   1e0ac:	00730123          	sb	t2,2(t1)
   1e0b0:	007301a3          	sb	t2,3(t1)
   1e0b4:	00730223          	sb	t2,4(t1)
   1e0b8:	007302a3          	sb	t2,5(t1)
   1e0bc:	00730323          	sb	t2,6(t1)
   1e0c0:	00700e13          	li	t3,7
   1e0c4:	fb5ff06f          	j	1e078 <jpeg_idct_ifast+0x408>
   1e0c8:	10010113          	addi	sp,sp,256
   1e0cc:	00008067          	ret

000000000001e0d0 <jpeg_idct_float>:
   1e0d0:	f0010113          	addi	sp,sp,-256
   1e0d4:	1a853503          	ld	a0,424(a0)
   1e0d8:	0585b583          	ld	a1,88(a1)
   1e0dc:	8301a787          	flw	fa5,-2000(gp) # 2a0e8 <__TMC_END__+0x30>
   1e0e0:	8341a707          	flw	fa4,-1996(gp) # 2a0ec <__TMC_END__+0x34>
   1e0e4:	8381a687          	flw	fa3,-1992(gp) # 2a0f0 <__TMC_END__+0x38>
   1e0e8:	83c1a607          	flw	fa2,-1988(gp) # 2a0f4 <__TMC_END__+0x3c>
   1e0ec:	04060613          	addi	a2,a2,64
   1e0f0:	00010793          	mv	a5,sp
   1e0f4:	02010813          	addi	a6,sp,32
   1e0f8:	fd065883          	lhu	a7,-48(a2)
   1e0fc:	fe065283          	lhu	t0,-32(a2)
   1e100:	0058e333          	or	t1,a7,t0
   1e104:	03031313          	slli	t1,t1,0x30
   1e108:	02031863          	bnez	t1,1e138 <jpeg_idct_float+0x68>
   1e10c:	ff065283          	lhu	t0,-16(a2)
   1e110:	02029263          	bnez	t0,1e134 <jpeg_idct_float+0x64>
   1e114:	00065283          	lhu	t0,0(a2)
   1e118:	00029e63          	bnez	t0,1e134 <jpeg_idct_float+0x64>
   1e11c:	01065283          	lhu	t0,16(a2)
   1e120:	00029a63          	bnez	t0,1e134 <jpeg_idct_float+0x64>
   1e124:	02065283          	lhu	t0,32(a2)
   1e128:	00029663          	bnez	t0,1e134 <jpeg_idct_float+0x64>
   1e12c:	03065283          	lhu	t0,48(a2)
   1e130:	14028463          	beqz	t0,1e278 <jpeg_idct_float+0x1a8>
   1e134:	00000293          	li	t0,0
   1e138:	fc061303          	lh	t1,-64(a2)
   1e13c:	0005a587          	flw	fa1,0(a1)
   1e140:	d0037553          	fcvt.s.w	fa0,t1
   1e144:	10a5f5d3          	fmul.s	fa1,fa1,fa0
   1e148:	0405a507          	flw	fa0,64(a1)
   1e14c:	03029293          	slli	t0,t0,0x30
   1e150:	4302d293          	srai	t0,t0,0x30
   1e154:	d002f053          	fcvt.s.w	ft0,t0
   1e158:	10057553          	fmul.s	fa0,fa0,ft0
   1e15c:	00061283          	lh	t0,0(a2)
   1e160:	0805a007          	flw	ft0,128(a1)
   1e164:	02061303          	lh	t1,32(a2)
   1e168:	0c05a087          	flw	ft1,192(a1)
   1e16c:	d002f153          	fcvt.s.w	ft2,t0
   1e170:	10207053          	fmul.s	ft0,ft0,ft2
   1e174:	d0037153          	fcvt.s.w	ft2,t1
   1e178:	1020f0d3          	fmul.s	ft1,ft1,ft2
   1e17c:	0005f153          	fadd.s	ft2,fa1,ft0
   1e180:	0805f5d3          	fsub.s	fa1,fa1,ft0
   1e184:	00157053          	fadd.s	ft0,fa0,ft1
   1e188:	08157553          	fsub.s	fa0,fa0,ft1
   1e18c:	00f57547          	fmsub.s	fa0,fa0,fa5,ft0
   1e190:	000170d3          	fadd.s	ft1,ft2,ft0
   1e194:	08017053          	fsub.s	ft0,ft2,ft0
   1e198:	00a5f153          	fadd.s	ft2,fa1,fa0
   1e19c:	08a5f5d3          	fsub.s	fa1,fa1,fa0
   1e1a0:	03089893          	slli	a7,a7,0x30
   1e1a4:	4308d893          	srai	a7,a7,0x30
   1e1a8:	0205a507          	flw	fa0,32(a1)
   1e1ac:	ff061283          	lh	t0,-16(a2)
   1e1b0:	0605a187          	flw	ft3,96(a1)
   1e1b4:	d008f253          	fcvt.s.w	ft4,a7
   1e1b8:	10457553          	fmul.s	fa0,fa0,ft4
   1e1bc:	d002f253          	fcvt.s.w	ft4,t0
   1e1c0:	1041f1d3          	fmul.s	ft3,ft3,ft4
   1e1c4:	01061883          	lh	a7,16(a2)
   1e1c8:	0a05a207          	flw	ft4,160(a1)
   1e1cc:	03061283          	lh	t0,48(a2)
   1e1d0:	0e05a287          	flw	ft5,224(a1)
   1e1d4:	d008f353          	fcvt.s.w	ft6,a7
   1e1d8:	10627253          	fmul.s	ft4,ft4,ft6
   1e1dc:	d002f353          	fcvt.s.w	ft6,t0
   1e1e0:	1062f2d3          	fmul.s	ft5,ft5,ft6
   1e1e4:	0041f353          	fadd.s	ft6,ft3,ft4
   1e1e8:	083271d3          	fsub.s	ft3,ft4,ft3
   1e1ec:	00557253          	fadd.s	ft4,fa0,ft5
   1e1f0:	08557553          	fsub.s	fa0,fa0,ft5
   1e1f4:	004372d3          	fadd.s	ft5,ft6,ft4
   1e1f8:	08627253          	fsub.s	ft4,ft4,ft6
   1e1fc:	10f27253          	fmul.s	ft4,ft4,fa5
   1e200:	00a1f353          	fadd.s	ft6,ft3,fa0
   1e204:	10e37353          	fmul.s	ft6,ft6,fa4
   1e208:	30d57547          	fmsub.s	fa0,fa0,fa3,ft6
   1e20c:	30c1f1c3          	fmadd.s	ft3,ft3,fa2,ft6
   1e210:	0851f1d3          	fsub.s	ft3,ft3,ft5
   1e214:	08327253          	fsub.s	ft4,ft4,ft3
   1e218:	00457553          	fadd.s	fa0,fa0,ft4
   1e21c:	0050f353          	fadd.s	ft6,ft1,ft5
   1e220:	0067a027          	fsw	ft6,0(a5)
   1e224:	0850f0d3          	fsub.s	ft1,ft1,ft5
   1e228:	0e17a027          	fsw	ft1,224(a5)
   1e22c:	003170d3          	fadd.s	ft1,ft2,ft3
   1e230:	0217a027          	fsw	ft1,32(a5)
   1e234:	083170d3          	fsub.s	ft1,ft2,ft3
   1e238:	0c17a027          	fsw	ft1,192(a5)
   1e23c:	0045f0d3          	fadd.s	ft1,fa1,ft4
   1e240:	0417a027          	fsw	ft1,64(a5)
   1e244:	0845f5d3          	fsub.s	fa1,fa1,ft4
   1e248:	0ab7a027          	fsw	fa1,160(a5)
   1e24c:	00a075d3          	fadd.s	fa1,ft0,fa0
   1e250:	08b7a027          	fsw	fa1,128(a5)
   1e254:	08a075d3          	fsub.s	fa1,ft0,fa0
   1e258:	06000893          	li	a7,96
   1e25c:	011788b3          	add	a7,a5,a7
   1e260:	00b8a027          	fsw	fa1,0(a7)
   1e264:	00478793          	addi	a5,a5,4
   1e268:	00458593          	addi	a1,a1,4
   1e26c:	00260613          	addi	a2,a2,2
   1e270:	e90794e3          	bne	a5,a6,1e0f8 <jpeg_idct_float+0x28>
   1e274:	0380006f          	j	1e2ac <jpeg_idct_float+0x1dc>
   1e278:	fc061883          	lh	a7,-64(a2)
   1e27c:	0005a587          	flw	fa1,0(a1)
   1e280:	d008f553          	fcvt.s.w	fa0,a7
   1e284:	10a5f5d3          	fmul.s	fa1,fa1,fa0
   1e288:	00b7a027          	fsw	fa1,0(a5)
   1e28c:	02b7a027          	fsw	fa1,32(a5)
   1e290:	04b7a027          	fsw	fa1,64(a5)
   1e294:	06b7a027          	fsw	fa1,96(a5)
   1e298:	08b7a027          	fsw	fa1,128(a5)
   1e29c:	0ab7a027          	fsw	fa1,160(a5)
   1e2a0:	0cb7a027          	fsw	fa1,192(a5)
   1e2a4:	0e000893          	li	a7,224
   1e2a8:	fb5ff06f          	j	1e25c <jpeg_idct_float+0x18c>
   1e2ac:	08050513          	addi	a0,a0,128
   1e2b0:	02071593          	slli	a1,a4,0x20
   1e2b4:	8301a787          	flw	fa5,-2000(gp) # 2a0e8 <__TMC_END__+0x30>
   1e2b8:	8341a707          	flw	fa4,-1996(gp) # 2a0ec <__TMC_END__+0x34>
   1e2bc:	8381a687          	flw	fa3,-1992(gp) # 2a0f0 <__TMC_END__+0x38>
   1e2c0:	83c1a607          	flw	fa2,-1988(gp) # 2a0f4 <__TMC_END__+0x3c>
   1e2c4:	0205d593          	srli	a1,a1,0x20
   1e2c8:	00010613          	mv	a2,sp
   1e2cc:	10010713          	addi	a4,sp,256
   1e2d0:	0006b783          	ld	a5,0(a3)
   1e2d4:	00062507          	flw	fa0,0(a2)
   1e2d8:	01062007          	flw	ft0,16(a2)
   1e2dc:	00862087          	flw	ft1,8(a2)
   1e2e0:	01862107          	flw	ft2,24(a2)
   1e2e4:	00b787b3          	add	a5,a5,a1
   1e2e8:	000575d3          	fadd.s	fa1,fa0,ft0
   1e2ec:	080571d3          	fsub.s	ft3,fa0,ft0
   1e2f0:	0020f553          	fadd.s	fa0,ft1,ft2
   1e2f4:	0820f053          	fsub.s	ft0,ft1,ft2
   1e2f8:	50f070c7          	fmsub.s	ft1,ft0,fa5,fa0
   1e2fc:	01462007          	flw	ft0,20(a2)
   1e300:	00c62107          	flw	ft2,12(a2)
   1e304:	00462207          	flw	ft4,4(a2)
   1e308:	01c62287          	flw	ft5,28(a2)
   1e30c:	00a5f353          	fadd.s	ft6,fa1,fa0
   1e310:	002073d3          	fadd.s	ft7,ft0,ft2
   1e314:	08207153          	fsub.s	ft2,ft0,ft2
   1e318:	00527853          	fadd.s	fa6,ft4,ft5
   1e31c:	08527053          	fsub.s	ft0,ft4,ft5
   1e320:	0103f253          	fadd.s	ft4,ft7,fa6
   1e324:	004372d3          	fadd.s	ft5,ft6,ft4
   1e328:	c0229853          	fcvt.l.s	a6,ft5,rtz
   1e32c:	0011f2d3          	fadd.s	ft5,ft3,ft1
   1e330:	00480813          	addi	a6,a6,4
   1e334:	03381813          	slli	a6,a6,0x33
   1e338:	03685813          	srli	a6,a6,0x36
   1e33c:	01050833          	add	a6,a0,a6
   1e340:	00084803          	lbu	a6,0(a6)
   1e344:	08437353          	fsub.s	ft6,ft6,ft4
   1e348:	c02318d3          	fcvt.l.s	a7,ft6,rtz
   1e34c:	00017353          	fadd.s	ft6,ft2,ft0
   1e350:	10e37353          	fmul.s	ft6,ft6,fa4
   1e354:	30c17143          	fmadd.s	ft2,ft2,fa2,ft6
   1e358:	01078023          	sb	a6,0(a5)
   1e35c:	00488893          	addi	a7,a7,4
   1e360:	03389893          	slli	a7,a7,0x33
   1e364:	0368d813          	srli	a6,a7,0x36
   1e368:	01050833          	add	a6,a0,a6
   1e36c:	00084803          	lbu	a6,0(a6)
   1e370:	08417153          	fsub.s	ft2,ft2,ft4
   1e374:	0022f253          	fadd.s	ft4,ft5,ft2
   1e378:	c02218d3          	fcvt.l.s	a7,ft4,rtz
   1e37c:	010783a3          	sb	a6,7(a5)
   1e380:	00488893          	addi	a7,a7,4
   1e384:	03389893          	slli	a7,a7,0x33
   1e388:	0368d813          	srli	a6,a7,0x36
   1e38c:	01050833          	add	a6,a0,a6
   1e390:	00084803          	lbu	a6,0(a6)
   1e394:	0811f0d3          	fsub.s	ft1,ft3,ft1
   1e398:	010780a3          	sb	a6,1(a5)
   1e39c:	0822f1d3          	fsub.s	ft3,ft5,ft2
   1e3a0:	c0219853          	fcvt.l.s	a6,ft3,rtz
   1e3a4:	00480813          	addi	a6,a6,4
   1e3a8:	03381813          	slli	a6,a6,0x33
   1e3ac:	03685813          	srli	a6,a6,0x36
   1e3b0:	01050833          	add	a6,a0,a6
   1e3b4:	00084803          	lbu	a6,0(a6)
   1e3b8:	087871d3          	fsub.s	ft3,fa6,ft7
   1e3bc:	10f1f1d3          	fmul.s	ft3,ft3,fa5
   1e3c0:	0821f153          	fsub.s	ft2,ft3,ft2
   1e3c4:	01078323          	sb	a6,6(a5)
   1e3c8:	0020f1d3          	fadd.s	ft3,ft1,ft2
   1e3cc:	c0219853          	fcvt.l.s	a6,ft3,rtz
   1e3d0:	00480813          	addi	a6,a6,4
   1e3d4:	03381813          	slli	a6,a6,0x33
   1e3d8:	03685813          	srli	a6,a6,0x36
   1e3dc:	01050833          	add	a6,a0,a6
   1e3e0:	00084803          	lbu	a6,0(a6)
   1e3e4:	01078123          	sb	a6,2(a5)
   1e3e8:	0820f0d3          	fsub.s	ft1,ft1,ft2
   1e3ec:	c0209853          	fcvt.l.s	a6,ft1,rtz
   1e3f0:	00480813          	addi	a6,a6,4
   1e3f4:	03381813          	slli	a6,a6,0x33
   1e3f8:	03685813          	srli	a6,a6,0x36
   1e3fc:	01050833          	add	a6,a0,a6
   1e400:	00084803          	lbu	a6,0(a6)
   1e404:	08a5f5d3          	fsub.s	fa1,fa1,fa0
   1e408:	30d07547          	fmsub.s	fa0,ft0,fa3,ft6
   1e40c:	00257553          	fadd.s	fa0,fa0,ft2
   1e410:	010782a3          	sb	a6,5(a5)
   1e414:	00a5f053          	fadd.s	ft0,fa1,fa0
   1e418:	c0201853          	fcvt.l.s	a6,ft0,rtz
   1e41c:	00480813          	addi	a6,a6,4
   1e420:	03381813          	slli	a6,a6,0x33
   1e424:	03685813          	srli	a6,a6,0x36
   1e428:	01050833          	add	a6,a0,a6
   1e42c:	00084803          	lbu	a6,0(a6)
   1e430:	01078223          	sb	a6,4(a5)
   1e434:	08a5f5d3          	fsub.s	fa1,fa1,fa0
   1e438:	c0259853          	fcvt.l.s	a6,fa1,rtz
   1e43c:	00480813          	addi	a6,a6,4
   1e440:	03381813          	slli	a6,a6,0x33
   1e444:	03685813          	srli	a6,a6,0x36
   1e448:	01050833          	add	a6,a0,a6
   1e44c:	00084803          	lbu	a6,0(a6)
   1e450:	010781a3          	sb	a6,3(a5)
   1e454:	02060613          	addi	a2,a2,32
   1e458:	00868693          	addi	a3,a3,8
   1e45c:	e6e61ae3          	bne	a2,a4,1e2d0 <jpeg_idct_float+0x200>
   1e460:	10010113          	addi	sp,sp,256
   1e464:	00008067          	ret

000000000001e468 <jpeg_idct_islow>:
   1e468:	f0010113          	addi	sp,sp,-256
   1e46c:	fffff7b7          	lui	a5,0xfffff
   1e470:	3847879b          	addiw	a5,a5,900 # fffffffffffff384 <__global_pointer$+0xfffffffffffd4acc>
   1e474:	ffffe837          	lui	a6,0xffffe
   1e478:	3338081b          	addiw	a6,a6,819 # ffffffffffffe333 <__global_pointer$+0xfffffffffffd3a7b>
   1e47c:	ffffc8b7          	lui	a7,0xffffc
   1e480:	13b8889b          	addiw	a7,a7,315 # ffffffffffffc13b <__global_pointer$+0xfffffffffffd1883>
   1e484:	ffffb2b7          	lui	t0,0xffffb
   1e488:	dfd2829b          	addiw	t0,t0,-515 # ffffffffffffadfd <__global_pointer$+0xfffffffffffd0545>
   1e48c:	00006337          	lui	t1,0x6
   1e490:	2543031b          	addiw	t1,t1,596 # 6254 <__abi_tag-0xa040>
   1e494:	000043b7          	lui	t2,0x4
   1e498:	1b33839b          	addiw	t2,t2,435 # 41b3 <__abi_tag-0xc0e1>
   1e49c:	00003e37          	lui	t3,0x3
   1e4a0:	00be0e1b          	addiw	t3,t3,11 # 300b <__abi_tag-0xd289>
   1e4a4:	00002f37          	lui	t5,0x2
   1e4a8:	5a1f0e9b          	addiw	t4,t5,1441 # 25a1 <__abi_tag-0xdcf3>
   1e4ac:	87ef0f1b          	addiw	t5,t5,-1922
   1e4b0:	00001fb7          	lui	t6,0x1
   1e4b4:	98ef8f9b          	addiw	t6,t6,-1650 # 98e <__abi_tag-0xf906>
   1e4b8:	12084223          	regsw_c	zero,292(a6)
   1e4bc:	00010093          	mv	ra,sp
   1e4c0:	1a853503          	ld	a0,424(a0)
   1e4c4:	0585b583          	ld	a1,88(a1)
   1e4c8:	04060613          	addi	a2,a2,64
   1e4cc:	02010113          	addi	sp,sp,32
   1e4d0:	7c3f8193          	addi	gp,t6,1987
   1e4d4:	3a488213          	addi	tp,a7,932
   1e4d8:	48f94023          	regsw_c	a5,1152(s2)
   1e4dc:	fd065283          	lhu	t0,-48(a2)
   1e4e0:	fe065303          	lhu	t1,-32(a2)
   1e4e4:	0062e3b3          	or	t2,t0,t1
   1e4e8:	03039393          	slli	t2,t2,0x30
   1e4ec:	04039463          	bnez	t2,1e534 <jpeg_idct_islow+0xcc>
   1e4f0:	0008c023          	regsw_c	zero,0(a7)
   1e4f4:	ff065303          	lhu	t1,-16(a2)
   1e4f8:	02031a63          	bnez	t1,1e52c <jpeg_idct_islow+0xc4>
   1e4fc:	0008c023          	regsw_c	zero,0(a7)
   1e500:	00065303          	lhu	t1,0(a2)
   1e504:	02031463          	bnez	t1,1e52c <jpeg_idct_islow+0xc4>
   1e508:	0008c023          	regsw_c	zero,0(a7)
   1e50c:	01065303          	lhu	t1,16(a2)
   1e510:	00031e63          	bnez	t1,1e52c <jpeg_idct_islow+0xc4>
   1e514:	0008c023          	regsw_c	zero,0(a7)
   1e518:	02065303          	lhu	t1,32(a2)
   1e51c:	00031863          	bnez	t1,1e52c <jpeg_idct_islow+0xc4>
   1e520:	0008c023          	regsw_c	zero,0(a7)
   1e524:	03065303          	lhu	t1,48(a2)
   1e528:	1c030a63          	beqz	t1,1e6fc <jpeg_idct_islow+0x294>
   1e52c:	00084023          	regsw_c	zero,0(a6)
   1e530:	00000313          	li	t1,0
   1e534:	5a994fa3          	regsw_c	s1,1471(s2)
   1e538:	0405a383          	lw	t2,64(a1)
   1e53c:	02061403          	lh	s0,32(a2)
   1e540:	0c05a483          	lw	s1,192(a1)
   1e544:	03031313          	slli	t1,t1,0x30
   1e548:	43035313          	srai	t1,t1,0x30
   1e54c:	0263833b          	mulw	t1,t2,t1
   1e550:	028483bb          	mulw	t2,s1,s0
   1e554:	73ffc223          	regsw_c	t6,1828(t6)
   1e558:	00638433          	add	s0,t2,t1
   1e55c:	02340433          	mul	s0,s0,gp
   1e560:	024383b3          	mul	t2,t2,tp
   1e564:	007403b3          	add	t2,s0,t2
   1e568:	fc061483          	lh	s1,-64(a2)
   1e56c:	0005a503          	lw	a0,0(a1)
   1e570:	00061583          	lh	a1,0(a2)
   1e574:	7ef9cf23          	regsw_c	a5,2046(s3)
   1e578:	0805a603          	lw	a2,128(a1)
   1e57c:	03e30333          	mul	t1,t1,t5
   1e580:	00640333          	add	t1,s0,t1
   1e584:	0295043b          	mulw	s0,a0,s1
   1e588:	02b604bb          	mulw	s1,a2,a1
   1e58c:	00848533          	add	a0,s1,s0
   1e590:	00d51513          	slli	a0,a0,0xd
   1e594:	7effce23          	regsw_c	a5,2044(t6)
   1e598:	40940433          	sub	s0,s0,s1
   1e59c:	00d41413          	slli	s0,s0,0xd
   1e5a0:	006504b3          	add	s1,a0,t1
   1e5a4:	40650333          	sub	t1,a0,t1
   1e5a8:	00740533          	add	a0,s0,t2
   1e5ac:	407403b3          	sub	t2,s0,t2
   1e5b0:	03061403          	lh	s0,48(a2)
   1e5b4:	12994fa3          	regsw_c	s1,319(s2)
   1e5b8:	0e05a583          	lw	a1,224(a1)
   1e5bc:	01061603          	lh	a2,16(a2)
   1e5c0:	0a05a683          	lw	a3,160(a1)
   1e5c4:	ff061703          	lh	a4,-16(a2)
   1e5c8:	0605a783          	lw	a5,96(a1)
   1e5cc:	0285843b          	mulw	s0,a1,s0
   1e5d0:	02c685bb          	mulw	a1,a3,a2
   1e5d4:	5fd9cfa3          	regsw_c	t4,1535(s3)
   1e5d8:	0205a603          	lw	a2,32(a1)
   1e5dc:	02e786bb          	mulw	a3,a5,a4
   1e5e0:	03029293          	slli	t0,t0,0x30
   1e5e4:	4302d293          	srai	t0,t0,0x30
   1e5e8:	025602bb          	mulw	t0,a2,t0
   1e5ec:	00828633          	add	a2,t0,s0
   1e5f0:	00b68733          	add	a4,a3,a1
   1e5f4:	5bffcb23          	regsw_c	t6,1462(t6)
   1e5f8:	008687b3          	add	a5,a3,s0
   1e5fc:	00b28833          	add	a6,t0,a1
   1e600:	00f808b3          	add	a7,a6,a5
   1e604:	03d888b3          	mul	a7,a7,t4
   1e608:	03f40433          	mul	s0,s0,t6
   1e60c:	027585b3          	mul	a1,a1,t2
   1e610:	026686b3          	mul	a3,a3,t1
   1e614:	5addcfa3          	regsw_c	a3,1471(s11)
   1e618:	03c282b3          	mul	t0,t0,t3
   1e61c:	03060633          	mul	a2,a2,a6
   1e620:	02570733          	mul	a4,a4,t0
   1e624:	031787b3          	mul	a5,a5,a7
   1e628:	02f80833          	mul	a6,a6,a5
   1e62c:	00f887b3          	add	a5,a7,a5
   1e630:	01088833          	add	a6,a7,a6
   1e634:	7fffcfa3          	regsw_c	t6,2047(t6)
   1e638:	00860433          	add	s0,a2,s0
   1e63c:	00f40433          	add	s0,s0,a5
   1e640:	00b705b3          	add	a1,a4,a1
   1e644:	010585b3          	add	a1,a1,a6
   1e648:	00d706b3          	add	a3,a4,a3
   1e64c:	00f686b3          	add	a3,a3,a5
   1e650:	005602b3          	add	t0,a2,t0
   1e654:	4effcf23          	regsw_c	a5,1278(t6)
   1e658:	010282b3          	add	t0,t0,a6
   1e65c:	40048493          	addi	s1,s1,1024
   1e660:	00548633          	add	a2,s1,t0
   1e664:	00b65613          	srli	a2,a2,0xb
   1e668:	00c0a023          	sw	a2,0(ra)
   1e66c:	405482b3          	sub	t0,s1,t0
   1e670:	00b2d293          	srli	t0,t0,0xb
   1e674:	4ef7cf23          	regsw_c	a5,1278(a5)
   1e678:	0e50a023          	sw	t0,224(ra)
   1e67c:	40050293          	addi	t0,a0,1024
   1e680:	00d284b3          	add	s1,t0,a3
   1e684:	00b4d493          	srli	s1,s1,0xb
   1e688:	0290a023          	sw	s1,32(ra)
   1e68c:	40d282b3          	sub	t0,t0,a3
   1e690:	00b2d293          	srli	t0,t0,0xb
   1e694:	4ef7cf23          	regsw_c	a5,1278(a5)
   1e698:	0c50a023          	sw	t0,192(ra)
   1e69c:	40038293          	addi	t0,t2,1024
   1e6a0:	00b283b3          	add	t2,t0,a1
   1e6a4:	00b3d393          	srli	t2,t2,0xb
   1e6a8:	0470a023          	sw	t2,64(ra)
   1e6ac:	40b282b3          	sub	t0,t0,a1
   1e6b0:	00b2d293          	srli	t0,t0,0xb
   1e6b4:	4ef7cf23          	regsw_c	a5,1278(a5)
   1e6b8:	0a50a023          	sw	t0,160(ra)
   1e6bc:	40030293          	addi	t0,t1,1024
   1e6c0:	00828333          	add	t1,t0,s0
   1e6c4:	00b35313          	srli	t1,t1,0xb
   1e6c8:	0660a023          	sw	t1,96(ra)
   1e6cc:	408282b3          	sub	t0,t0,s0
   1e6d0:	00b2d293          	srli	t0,t0,0xb
   1e6d4:	00084023          	regsw_c	zero,0(a6)
   1e6d8:	08000313          	li	t1,128
   1e6dc:	01cecc23          	regsw_c	t3,24(t4)
   1e6e0:	00608333          	add	t1,ra,t1
   1e6e4:	00532023          	sw	t0,0(t1)
   1e6e8:	00408093          	addi	ra,ra,4
   1e6ec:	00458593          	addi	a1,a1,4
   1e6f0:	00260613          	addi	a2,a2,2
   1e6f4:	de2092e3          	bne	ra,sp,1e4d8 <jpeg_idct_islow+0x70>
   1e6f8:	0400006f          	j	1e738 <jpeg_idct_islow+0x2d0>
   1e6fc:	4cf94da3          	regsw_c	a5,1243(s2)
   1e700:	fc061283          	lh	t0,-64(a2)
   1e704:	0005a303          	lw	t1,0(a1)
   1e708:	026282b3          	mul	t0,t0,t1
   1e70c:	00229293          	slli	t0,t0,0x2
   1e710:	0050a023          	sw	t0,0(ra)
   1e714:	0250a023          	sw	t0,32(ra)
   1e718:	0450a023          	sw	t0,64(ra)
   1e71c:	7166c023          	regsw_c	s6,1792(a3)
   1e720:	0650a023          	sw	t0,96(ra)
   1e724:	0850a023          	sw	t0,128(ra)
   1e728:	0a50a023          	sw	t0,160(ra)
   1e72c:	0c50a023          	sw	t0,192(ra)
   1e730:	0e000313          	li	t1,224
   1e734:	fa9ff06f          	j	1e6dc <jpeg_idct_islow+0x274>
   1e738:	08050513          	addi	a0,a0,128
   1e73c:	02071593          	slli	a1,a4,0x20
   1e740:	0205d593          	srli	a1,a1,0x20
   1e744:	01010613          	addi	a2,sp,16
   1e748:	04068713          	addi	a4,a3,64
   1e74c:	00894023          	regsw_c	s0,0(s2)
   1e750:	7c3f8093          	addi	ra,t6,1987
   1e754:	3a488113          	addi	sp,a7,932
   1e758:	000201b7          	lui	gp,0x20
   1e75c:	48994023          	regsw_c	s1,1152(s2)
   1e760:	0006b203          	ld	tp,0(a3)
   1e764:	ff466283          	lwu	t0,-12(a2)
   1e768:	ff866303          	lwu	t1,-8(a2)
   1e76c:	00b20233          	add	tp,tp,a1
   1e770:	04029863          	bnez	t0,1e7c0 <jpeg_idct_islow+0x358>
   1e774:	00044023          	regsw_c	zero,0(s0)
   1e778:	04031463          	bnez	t1,1e7c0 <jpeg_idct_islow+0x358>
   1e77c:	0008c023          	regsw_c	zero,0(a7)
   1e780:	ffc62303          	lw	t1,-4(a2)
   1e784:	02031a63          	bnez	t1,1e7b8 <jpeg_idct_islow+0x350>
   1e788:	0008c023          	regsw_c	zero,0(a7)
   1e78c:	00062303          	lw	t1,0(a2)
   1e790:	02031463          	bnez	t1,1e7b8 <jpeg_idct_islow+0x350>
   1e794:	0008c023          	regsw_c	zero,0(a7)
   1e798:	00462303          	lw	t1,4(a2)
   1e79c:	00031e63          	bnez	t1,1e7b8 <jpeg_idct_islow+0x350>
   1e7a0:	0008c023          	regsw_c	zero,0(a7)
   1e7a4:	00862303          	lw	t1,8(a2)
   1e7a8:	00031863          	bnez	t1,1e7b8 <jpeg_idct_islow+0x350>
   1e7ac:	0008c023          	regsw_c	zero,0(a7)
   1e7b0:	00c62303          	lw	t1,12(a2)
   1e7b4:	1e030063          	beqz	t1,1e994 <jpeg_idct_islow+0x52c>
   1e7b8:	00084023          	regsw_c	zero,0(a6)
   1e7bc:	00000313          	li	t1,0
   1e7c0:	1f99cba3          	regsw_c	s9,503(s3)
   1e7c4:	00866383          	lwu	t2,8(a2)
   1e7c8:	00638433          	add	s0,t2,t1
   1e7cc:	ff062483          	lw	s1,-16(a2)
   1e7d0:	00062503          	lw	a0,0(a2)
   1e7d4:	02140433          	mul	s0,s0,ra
   1e7d8:	03e30333          	mul	t1,t1,t5
   1e7dc:	00640333          	add	t1,s0,t1
   1e7e0:	1a9f4fa3          	regsw_c	s1,447(t5)
   1e7e4:	009505b3          	add	a1,a0,s1
   1e7e8:	00c66603          	lwu	a2,12(a2)
   1e7ec:	ffc66683          	lwu	a3,-4(a2)
   1e7f0:	00466703          	lwu	a4,4(a2)
   1e7f4:	00d59593          	slli	a1,a1,0xd
   1e7f8:	005607b3          	add	a5,a2,t0
   1e7fc:	00c68833          	add	a6,a3,a2
   1e800:	5bdfcba3          	regsw_c	t4,1463(t6)
   1e804:	005708b3          	add	a7,a4,t0
   1e808:	01180933          	add	s2,a6,a7
   1e80c:	03d90933          	mul	s2,s2,t4
   1e810:	03c282b3          	mul	t0,t0,t3
   1e814:	030787b3          	mul	a5,a5,a6
   1e818:	02f888b3          	mul	a7,a7,a5
   1e81c:	011908b3          	add	a7,s2,a7
   1e820:	7fffcb23          	regsw_c	t6,2038(t6)
   1e824:	005782b3          	add	t0,a5,t0
   1e828:	011282b3          	add	t0,t0,a7
   1e82c:	003589b3          	add	s3,a1,gp
   1e830:	006989b3          	add	s3,s3,t1
   1e834:	00598a33          	add	s4,s3,t0
   1e838:	024a1a13          	slli	s4,s4,0x24
   1e83c:	036a5a13          	srli	s4,s4,0x36
   1e840:	7cfbcf23          	regsw_c	a5,2014(s7)
   1e844:	01450a33          	add	s4,a0,s4
   1e848:	000a4a03          	lbu	s4,0(s4)
   1e84c:	022383b3          	mul	t2,t2,sp
   1e850:	007403b3          	add	t2,s0,t2
   1e854:	40a4843b          	subw	s0,s1,a0
   1e858:	01420023          	sb	s4,0(tp) # 0 <__abi_tag-0x10294>
   1e85c:	00d41413          	slli	s0,s0,0xd
   1e860:	5bdfcb23          	regsw_c	t4,1462(t6)
   1e864:	405982bb          	subw	t0,s3,t0
   1e868:	00e684b3          	add	s1,a3,a4
   1e86c:	02668533          	mul	a0,a3,t1
   1e870:	025484b3          	mul	s1,s1,t0
   1e874:	031806b3          	mul	a3,a6,a7
   1e878:	02429293          	slli	t0,t0,0x24
   1e87c:	0362d293          	srli	t0,t0,0x36
   1e880:	7cfbcfa3          	regsw_c	a5,2015(s7)
   1e884:	005502b3          	add	t0,a0,t0
   1e888:	0002c283          	lbu	t0,0(t0)
   1e88c:	00d906b3          	add	a3,s2,a3
   1e890:	00a48533          	add	a0,s1,a0
   1e894:	00d50533          	add	a0,a0,a3
   1e898:	005203a3          	sb	t0,7(tp) # 7 <__abi_tag-0x1028d>
   1e89c:	003402b3          	add	t0,s0,gp
   1e8a0:	57dfc9a3          	regsw_c	t4,1395(t6)
   1e8a4:	007282b3          	add	t0,t0,t2
   1e8a8:	00a28833          	add	a6,t0,a0
   1e8ac:	02481813          	slli	a6,a6,0x24
   1e8b0:	03685813          	srli	a6,a6,0x36
   1e8b4:	01050833          	add	a6,a0,a6
   1e8b8:	00084803          	lbu	a6,0(a6)
   1e8bc:	010200a3          	sb	a6,1(tp) # 1 <__abi_tag-0x10293>
   1e8c0:	3adfcba3          	regsw_c	a3,951(t6)
   1e8c4:	40a282bb          	subw	t0,t0,a0
   1e8c8:	02429293          	slli	t0,t0,0x24
   1e8cc:	0362d293          	srli	t0,t0,0x36
   1e8d0:	005502b3          	add	t0,a0,t0
   1e8d4:	0002c283          	lbu	t0,0(t0)
   1e8d8:	02770533          	mul	a0,a4,t2
   1e8dc:	00a484b3          	add	s1,s1,a0
   1e8e0:	7ffecb23          	regsw_c	t6,2038(t4)
   1e8e4:	011484b3          	add	s1,s1,a7
   1e8e8:	00520323          	sb	t0,6(tp) # 6 <__abi_tag-0x1028e>
   1e8ec:	00340433          	add	s0,s0,gp
   1e8f0:	407402bb          	subw	t0,s0,t2
   1e8f4:	009283b3          	add	t2,t0,s1
   1e8f8:	02439393          	slli	t2,t2,0x24
   1e8fc:	0363d393          	srli	t2,t2,0x36
   1e900:	7a7bcaa3          	regsw_c	t2,1973(s7)
   1e904:	007503b3          	add	t2,a0,t2
   1e908:	0003c383          	lbu	t2,0(t2)
   1e90c:	00720123          	sb	t2,2(tp) # 2 <__abi_tag-0x10292>
   1e910:	409282bb          	subw	t0,t0,s1
   1e914:	02429293          	slli	t0,t0,0x24
   1e918:	0362d293          	srli	t0,t0,0x36
   1e91c:	005502b3          	add	t0,a0,t0
   1e920:	6efdcfa3          	regsw_c	a5,1791(s11)
   1e924:	0002c283          	lbu	t0,0(t0)
   1e928:	03f603b3          	mul	t2,a2,t6
   1e92c:	007783b3          	add	t2,a5,t2
   1e930:	00d383b3          	add	t2,t2,a3
   1e934:	005202a3          	sb	t0,5(tp) # 5 <__abi_tag-0x1028f>
   1e938:	003585b3          	add	a1,a1,gp
   1e93c:	406582bb          	subw	t0,a1,t1
   1e940:	38dfcfa3          	regsw_c	a3,927(t6)
   1e944:	00728333          	add	t1,t0,t2
   1e948:	02431313          	slli	t1,t1,0x24
   1e94c:	03635313          	srli	t1,t1,0x36
   1e950:	00650333          	add	t1,a0,t1
   1e954:	00034303          	lbu	t1,0(t1)
   1e958:	006201a3          	sb	t1,3(tp) # 3 <__abi_tag-0x10291>
   1e95c:	407282bb          	subw	t0,t0,t2
   1e960:	50bdc023          	regsw_c	a1,1280(s11)
   1e964:	02429293          	slli	t0,t0,0x24
   1e968:	0362d293          	srli	t0,t0,0x36
   1e96c:	005502b3          	add	t0,a0,t0
   1e970:	0002c283          	lbu	t0,0(t0)
   1e974:	00400313          	li	t1,4
   1e978:	010ec023          	regsw_c	a6,0(t4)
   1e97c:	00620233          	add	tp,tp,t1
   1e980:	00520023          	sb	t0,0(tp) # 0 <__abi_tag-0x10294>
   1e984:	00868693          	addi	a3,a3,8
   1e988:	02060613          	addi	a2,a2,32
   1e98c:	dce698e3          	bne	a3,a4,1e75c <jpeg_idct_islow+0x2f4>
   1e990:	0480006f          	j	1e9d8 <jpeg_idct_islow+0x570>
   1e994:	56d9c9a3          	regsw_c	a3,1395(s3)
   1e998:	ff062283          	lw	t0,-16(a2)
   1e99c:	01028293          	addi	t0,t0,16
   1e9a0:	03129293          	slli	t0,t0,0x31
   1e9a4:	0362d293          	srli	t0,t0,0x36
   1e9a8:	005502b3          	add	t0,a0,t0
   1e9ac:	0002c283          	lbu	t0,0(t0)
   1e9b0:	00520023          	sb	t0,0(tp) # 0 <__abi_tag-0x10294>
   1e9b4:	6d66ce23          	regsw_c	s6,1756(a3)
   1e9b8:	005200a3          	sb	t0,1(tp) # 1 <__abi_tag-0x10293>
   1e9bc:	00520123          	sb	t0,2(tp) # 2 <__abi_tag-0x10292>
   1e9c0:	005201a3          	sb	t0,3(tp) # 3 <__abi_tag-0x10291>
   1e9c4:	00520223          	sb	t0,4(tp) # 4 <__abi_tag-0x10290>
   1e9c8:	005202a3          	sb	t0,5(tp) # 5 <__abi_tag-0x1028f>
   1e9cc:	00520323          	sb	t0,6(tp) # 6 <__abi_tag-0x1028e>
   1e9d0:	00700313          	li	t1,7
   1e9d4:	fa5ff06f          	j	1e978 <jpeg_idct_islow+0x510>
   1e9d8:	10010113          	addi	sp,sp,256
   1e9dc:	00008067          	ret

000000000001e9e0 <jpeg_idct_4x4>:
   1e9e0:	f8010113          	addi	sp,sp,-128
   1e9e4:	fffff7b7          	lui	a5,0xfffff
   1e9e8:	fb07879b          	addiw	a5,a5,-80 # ffffffffffffefb0 <__global_pointer$+0xfffffffffffd46f8>
   1e9ec:	ffffe837          	lui	a6,0xffffe
   1e9f0:	7828081b          	addiw	a6,a6,1922 # ffffffffffffe782 <__global_pointer$+0xfffffffffffd3eca>
   1e9f4:	ffffc8b7          	lui	a7,0xffffc
   1e9f8:	a798889b          	addiw	a7,a7,-1415 # ffffffffffffba79 <__global_pointer$+0xfffffffffffd11c1>
   1e9fc:	000052b7          	lui	t0,0x5
   1ea00:	2032829b          	addiw	t0,t0,515 # 5203 <__abi_tag-0xb091>
   1ea04:	00004337          	lui	t1,0x4
   1ea08:	b213031b          	addiw	t1,t1,-1247 # 3b21 <__abi_tag-0xc773>
   1ea0c:	000033b7          	lui	t2,0x3
   1ea10:	e753839b          	addiw	t2,t2,-395 # 2e75 <__abi_tag-0xd41f>
   1ea14:	00002e37          	lui	t3,0x2
   1ea18:	ccde0e1b          	addiw	t3,t3,-819 # 1ccd <__abi_tag-0xe5c7>
   1ea1c:	00100e93          	li	t4,1
   1ea20:	00be9f13          	slli	t5,t4,0xb
   1ea24:	00010f93          	mv	t6,sp
   1ea28:	1a853503          	ld	a0,424(a0)
   1ea2c:	0585b583          	ld	a1,88(a1)
   1ea30:	05060613          	addi	a2,a2,80
   1ea34:	10994023          	regsw_c	s1,256(s2)
   1ea38:	00900093          	li	ra,9
   1ea3c:	00500113          	li	sp,5
   1ea40:	93e00193          	li	gp,-1730
   1ea44:	52ce0213          	addi	tp,t3,1324
   1ea48:	54080293          	addi	t0,a6,1344
   1ea4c:	1380006f          	j	1eb84 <jpeg_idct_4x4+0x1a4>
   1ea50:	00084023          	regsw_c	zero,0(a6)
   1ea54:	00000393          	li	t2,0
   1ea58:	12f94323          	regsw_c	a5,294(s2)
   1ea5c:	fb061403          	lh	s0,-80(a2)
   1ea60:	0005a483          	lw	s1,0(a1)
   1ea64:	0284843b          	mulw	s0,s1,s0
   1ea68:	0405a483          	lw	s1,64(a1)
   1ea6c:	01061503          	lh	a0,16(a2)
   1ea70:	0c05a583          	lw	a1,192(a1)
   1ea74:	03039393          	slli	t2,t2,0x30
   1ea78:	13fdcb23          	regsw_c	t6,310(s11)
   1ea7c:	4303d393          	srai	t2,t2,0x30
   1ea80:	027483bb          	mulw	t2,s1,t2
   1ea84:	02a584bb          	mulw	s1,a1,a0
   1ea88:	02061503          	lh	a0,32(a2)
   1ea8c:	0e05a583          	lw	a1,224(a1)
   1ea90:	026383b3          	mul	t2,t2,t1
   1ea94:	030484b3          	mul	s1,s1,a6
   1ea98:	139fc323          	regsw_c	s9,294(t6)
   1ea9c:	007483b3          	add	t2,s1,t2
   1eaa0:	02a584bb          	mulw	s1,a1,a0
   1eaa4:	00061503          	lh	a0,0(a2)
   1eaa8:	0a05a583          	lw	a1,160(a1)
   1eaac:	fe061603          	lh	a2,-32(a2)
   1eab0:	0605a683          	lw	a3,96(a1)
   1eab4:	00e41413          	slli	s0,s0,0xe
   1eab8:	5aff4fa3          	regsw_c	a5,1471(t5)
   1eabc:	02a5853b          	mulw	a0,a1,a0
   1eac0:	0205a583          	lw	a1,32(a1)
   1eac4:	02c6863b          	mulw	a2,a3,a2
   1eac8:	03031313          	slli	t1,t1,0x30
   1eacc:	43035313          	srai	t1,t1,0x30
   1ead0:	0265833b          	mulw	t1,a1,t1
   1ead4:	023485b3          	mul	a1,s1,gp
   1ead8:	7fddcf23          	regsw_c	t4,2046(s11)
   1eadc:	027506b3          	mul	a3,a0,t2
   1eae0:	00b685b3          	add	a1,a3,a1
   1eae4:	031606b3          	mul	a3,a2,a7
   1eae8:	00d585b3          	add	a1,a1,a3
   1eaec:	024306b3          	mul	a3,t1,tp
   1eaf0:	00d585b3          	add	a1,a1,a3
   1eaf4:	02f484b3          	mul	s1,s1,a5
   1eaf8:	7bdfcf23          	regsw_c	t4,1982(t6)
   1eafc:	02550533          	mul	a0,a0,t0
   1eb00:	009504b3          	add	s1,a0,s1
   1eb04:	03c60533          	mul	a0,a2,t3
   1eb08:	00a484b3          	add	s1,s1,a0
   1eb0c:	02530333          	mul	t1,t1,t0
   1eb10:	00648333          	add	t1,s1,t1
   1eb14:	01e404b3          	add	s1,s0,t5
   1eb18:	3fcfc8a3          	regsw_c	t3,1009(t6)
   1eb1c:	009384b3          	add	s1,t2,s1
   1eb20:	00648533          	add	a0,s1,t1
   1eb24:	00c55513          	srli	a0,a0,0xc
   1eb28:	00afa023          	sw	a0,0(t6)
   1eb2c:	40648333          	sub	t1,s1,t1
   1eb30:	00c35313          	srli	t1,t1,0xc
   1eb34:	066fa023          	sw	t1,96(t6)
   1eb38:	47fdcf23          	regsw_c	t6,1150(s11)
   1eb3c:	01e40433          	add	s0,s0,t5
   1eb40:	40740333          	sub	t1,s0,t2
   1eb44:	00b303b3          	add	t2,t1,a1
   1eb48:	00c3d393          	srli	t2,t2,0xc
   1eb4c:	027fa023          	sw	t2,32(t6)
   1eb50:	40b30333          	sub	t1,t1,a1
   1eb54:	00c35313          	srli	t1,t1,0xc
   1eb58:	00084023          	regsw_c	zero,0(a6)
   1eb5c:	04000393          	li	t2,64
   1eb60:	010ac023          	regsw_c	a6,0(s5)
   1eb64:	007f83b3          	add	t2,t6,t2
   1eb68:	0063a023          	sw	t1,0(t2)
   1eb6c:	00458593          	addi	a1,a1,4
   1eb70:	004f8f93          	addi	t6,t6,4
   1eb74:	002c4023          	regsw_c	sp,0(s8)
   1eb78:	fff0809b          	addiw	ra,ra,-1
   1eb7c:	00260613          	addi	a2,a2,2
   1eb80:	081ef063          	bgeu	t4,ra,1ec00 <jpeg_idct_4x4+0x220>
   1eb84:	00064023          	regsw_c	zero,0(a2)
   1eb88:	fe2082e3          	beq	ra,sp,1eb6c <jpeg_idct_4x4+0x18c>
   1eb8c:	48f94023          	regsw_c	a5,1152(s2)
   1eb90:	fc065303          	lhu	t1,-64(a2)
   1eb94:	fd065383          	lhu	t2,-48(a2)
   1eb98:	00736433          	or	s0,t1,t2
   1eb9c:	03041413          	slli	s0,s0,0x30
   1eba0:	ea041ce3          	bnez	s0,1ea58 <jpeg_idct_4x4+0x78>
   1eba4:	0008c023          	regsw_c	zero,0(a7)
   1eba8:	fe065383          	lhu	t2,-32(a2)
   1ebac:	ea0392e3          	bnez	t2,1ea50 <jpeg_idct_4x4+0x70>
   1ebb0:	0008c023          	regsw_c	zero,0(a7)
   1ebb4:	00065383          	lhu	t2,0(a2)
   1ebb8:	e8039ce3          	bnez	t2,1ea50 <jpeg_idct_4x4+0x70>
   1ebbc:	0008c023          	regsw_c	zero,0(a7)
   1ebc0:	01065383          	lhu	t2,16(a2)
   1ebc4:	e80396e3          	bnez	t2,1ea50 <jpeg_idct_4x4+0x70>
   1ebc8:	0008c023          	regsw_c	zero,0(a7)
   1ebcc:	02065383          	lhu	t2,32(a2)
   1ebd0:	e80390e3          	bnez	t2,1ea50 <jpeg_idct_4x4+0x70>
   1ebd4:	44f944a3          	regsw_c	a5,1097(s2)
   1ebd8:	fb061303          	lh	t1,-80(a2)
   1ebdc:	0005a383          	lw	t2,0(a1)
   1ebe0:	02730333          	mul	t1,t1,t2
   1ebe4:	00231313          	slli	t1,t1,0x2
   1ebe8:	006fa023          	sw	t1,0(t6)
   1ebec:	026fa023          	sw	t1,32(t6)
   1ebf0:	046fa023          	sw	t1,64(t6)
   1ebf4:	00084023          	regsw_c	zero,0(a6)
   1ebf8:	06000393          	li	t2,96
   1ebfc:	f65ff06f          	j	1eb60 <jpeg_idct_4x4+0x180>
   1ec00:	08050513          	addi	a0,a0,128
   1ec04:	02071593          	slli	a1,a4,0x20
   1ec08:	0205d593          	srli	a1,a1,0x20
   1ec0c:	01c10613          	addi	a2,sp,28
   1ec10:	02068713          	addi	a4,a3,32
   1ec14:	93e00e93          	li	t4,-1730
   1ec18:	52ce0f13          	addi	t5,t3,1324
   1ec1c:	54080f93          	addi	t6,a6,1344
   1ec20:	00084023          	regsw_c	zero,0(a6)
   1ec24:	000400b7          	lui	ra,0x40
   1ec28:	48994023          	regsw_c	s1,1152(s2)
   1ec2c:	0006b103          	ld	sp,0(a3)
   1ec30:	fe866183          	lwu	gp,-24(a2)
   1ec34:	fec66203          	lwu	tp,-20(a2)
   1ec38:	00b10133          	add	sp,sp,a1
   1ec3c:	04019263          	bnez	gp,1ec80 <jpeg_idct_4x4+0x2a0>
   1ec40:	00044023          	regsw_c	zero,0(s0)
   1ec44:	02021e63          	bnez	tp,1ec80 <jpeg_idct_4x4+0x2a0>
   1ec48:	0008c023          	regsw_c	zero,0(a7)
   1ec4c:	ff062203          	lw	tp,-16(a2)
   1ec50:	02021463          	bnez	tp,1ec78 <jpeg_idct_4x4+0x298>
   1ec54:	0008c023          	regsw_c	zero,0(a7)
   1ec58:	ff862203          	lw	tp,-8(a2)
   1ec5c:	00021e63          	bnez	tp,1ec78 <jpeg_idct_4x4+0x298>
   1ec60:	0008c023          	regsw_c	zero,0(a7)
   1ec64:	ffc62203          	lw	tp,-4(a2)
   1ec68:	00021863          	bnez	tp,1ec78 <jpeg_idct_4x4+0x298>
   1ec6c:	0008c023          	regsw_c	zero,0(a7)
   1ec70:	00062203          	lw	tp,0(a2)
   1ec74:	10020a63          	beqz	tp,1ed88 <jpeg_idct_4x4+0x3a8>
   1ec78:	00084023          	regsw_c	zero,0(a6)
   1ec7c:	00000213          	li	tp,0
   1ec80:	5ad943a3          	regsw_c	a3,1447(s2)
   1ec84:	fe462283          	lw	t0,-28(a2)
   1ec88:	ffc66303          	lwu	t1,-4(a2)
   1ec8c:	00e29293          	slli	t0,t0,0xe
   1ec90:	02620233          	mul	tp,tp,t1
   1ec94:	03030333          	mul	t1,t1,a6
   1ec98:	00066383          	lwu	t2,0(a2)
   1ec9c:	00430233          	add	tp,t1,tp
   1eca0:	5ad94b23          	regsw_c	a3,1462(s2)
   1eca4:	ff866303          	lwu	t1,-8(a2)
   1eca8:	ff066403          	lwu	s0,-16(a2)
   1ecac:	03d384b3          	mul	s1,t2,t4
   1ecb0:	02f383b3          	mul	t2,t2,a5
   1ecb4:	03f30533          	mul	a0,t1,t6
   1ecb8:	03c405b3          	mul	a1,s0,t3
   1ecbc:	02518633          	mul	a2,gp,t0
   1ecc0:	7fffcf23          	regsw_c	t6,2046(t6)
   1ecc4:	00c383b3          	add	t2,t2,a2
   1ecc8:	00b50533          	add	a0,a0,a1
   1eccc:	00a383b3          	add	t2,t2,a0
   1ecd0:	00128533          	add	a0,t0,ra
   1ecd4:	00a20533          	add	a0,tp,a0
   1ecd8:	007505b3          	add	a1,a0,t2
   1ecdc:	02359593          	slli	a1,a1,0x23
   1ece0:	5bdd49a3          	regsw_c	t4,1459(s10)
   1ece4:	0365d593          	srli	a1,a1,0x36
   1ece8:	00b505b3          	add	a1,a0,a1
   1ecec:	0005c583          	lbu	a1,0(a1)
   1ecf0:	02730333          	mul	t1,t1,t2
   1ecf4:	03140433          	mul	s0,s0,a7
   1ecf8:	03e181b3          	mul	gp,gp,t5
   1ecfc:	00b10023          	sb	a1,0(sp)
   1ed00:	3adfcfa3          	regsw_c	a3,959(t6)
   1ed04:	407503bb          	subw	t2,a0,t2
   1ed08:	02339393          	slli	t2,t2,0x23
   1ed0c:	0363d393          	srli	t2,t2,0x36
   1ed10:	007503b3          	add	t2,a0,t2
   1ed14:	0003c383          	lbu	t2,0(t2)
   1ed18:	003481b3          	add	gp,s1,gp
   1ed1c:	00830333          	add	t1,t1,s0
   1ed20:	7ffecb23          	regsw_c	t6,2038(t4)
   1ed24:	006181b3          	add	gp,gp,t1
   1ed28:	007101a3          	sb	t2,3(sp)
   1ed2c:	001282b3          	add	t0,t0,ra
   1ed30:	4042823b          	subw	tp,t0,tp
   1ed34:	003202b3          	add	t0,tp,gp
   1ed38:	02329293          	slli	t0,t0,0x23
   1ed3c:	0362d293          	srli	t0,t0,0x36
   1ed40:	7a7bcaa3          	regsw_c	t2,1973(s7)
   1ed44:	005502b3          	add	t0,a0,t0
   1ed48:	0002c283          	lbu	t0,0(t0)
   1ed4c:	005100a3          	sb	t0,1(sp)
   1ed50:	403201bb          	subw	gp,tp,gp
   1ed54:	02319193          	slli	gp,gp,0x23
   1ed58:	0361d193          	srli	gp,gp,0x36
   1ed5c:	003501b3          	add	gp,a0,gp
   1ed60:	000d4023          	regsw_c	zero,0(s10)
   1ed64:	0001c183          	lbu	gp,0(gp) # 20000 <jinit_color_deconverter+0x154>
   1ed68:	00200213          	li	tp,2
   1ed6c:	010ec023          	regsw_c	a6,0(t4)
   1ed70:	00410133          	add	sp,sp,tp
   1ed74:	00310023          	sb	gp,0(sp)
   1ed78:	00868693          	addi	a3,a3,8
   1ed7c:	02060613          	addi	a2,a2,32
   1ed80:	eae694e3          	bne	a3,a4,1ec28 <jpeg_idct_4x4+0x248>
   1ed84:	0380006f          	j	1edbc <jpeg_idct_4x4+0x3dc>
   1ed88:	56d9c9a3          	regsw_c	a3,1395(s3)
   1ed8c:	fe462183          	lw	gp,-28(a2)
   1ed90:	01018193          	addi	gp,gp,16 # 2a8c8 <__global_pointer$+0x10>
   1ed94:	03119193          	slli	gp,gp,0x31
   1ed98:	0361d193          	srli	gp,gp,0x36
   1ed9c:	003501b3          	add	gp,a0,gp
   1eda0:	0001c183          	lbu	gp,0(gp) # 2a8b8 <__global_pointer$>
   1eda4:	00310023          	sb	gp,0(sp)
   1eda8:	0186c023          	regsw_c	s8,0(a3)
   1edac:	003100a3          	sb	gp,1(sp)
   1edb0:	00310123          	sb	gp,2(sp)
   1edb4:	00300213          	li	tp,3
   1edb8:	fb5ff06f          	j	1ed6c <jpeg_idct_4x4+0x38c>
   1edbc:	08010113          	addi	sp,sp,128
   1edc0:	00008067          	ret

000000000001edc4 <jpeg_idct_2x2>:
   1edc4:	fffff7b7          	lui	a5,0xfffff
   1edc8:	8ee7879b          	addiw	a5,a5,-1810 # ffffffffffffe8ee <__global_pointer$+0xfffffffffffd4036>
   1edcc:	ffffd837          	lui	a6,0xffffd
   1edd0:	7468081b          	addiw	a6,a6,1862 # ffffffffffffd746 <__global_pointer$+0xfffffffffffd2e8e>
   1edd4:	000078b7          	lui	a7,0x7
   1edd8:	01065283          	lhu	t0,16(a2)
   1eddc:	03065383          	lhu	t2,48(a2)
   1ede0:	3fc8889b          	addiw	a7,a7,1020 # 73fc <__abi_tag-0x8e98>
   1ede4:	00002e37          	lui	t3,0x2
   1ede8:	0585b303          	ld	t1,88(a1)
   1edec:	0072e5b3          	or	a1,t0,t2
   1edf0:	03059e93          	slli	t4,a1,0x30
   1edf4:	b37e059b          	addiw	a1,t3,-1225 # 1b37 <__abi_tag-0xe75d>
   1edf8:	000e9c63          	bnez	t4,1ee10 <jpeg_idct_2x2+0x4c>
   1edfc:	05065383          	lhu	t2,80(a2)
   1ee00:	00039663          	bnez	t2,1ee0c <jpeg_idct_2x2+0x48>
   1ee04:	07065383          	lhu	t2,112(a2)
   1ee08:	4e038663          	beqz	t2,1f2f4 <jpeg_idct_2x2+0x530>
   1ee0c:	00000393          	li	t2,0
   1ee10:	00061e03          	lh	t3,0(a2)
   1ee14:	00032e83          	lw	t4,0(t1)
   1ee18:	07061f03          	lh	t5,112(a2)
   1ee1c:	0e032f83          	lw	t6,224(t1)
   1ee20:	03ce8e3b          	mulw	t3,t4,t3
   1ee24:	05061e83          	lh	t4,80(a2)
   1ee28:	08084023          	regsw_c	zero,128(a6)
   1ee2c:	0a032083          	lw	ra,160(t1)
   1ee30:	03ef8f3b          	mulw	t5,t6,t5
   1ee34:	00fe1e13          	slli	t3,t3,0xf
   1ee38:	02ff0f33          	mul	t5,t5,a5
   1ee3c:	03d08ebb          	mulw	t4,ra,t4
   1ee40:	02be8eb3          	mul	t4,t4,a1
   1ee44:	06032f83          	lw	t6,96(t1)
   1ee48:	01ee8eb3          	add	t4,t4,t5
   1ee4c:	03039393          	slli	t2,t2,0x30
   1ee50:	4303d393          	srai	t2,t2,0x30
   1ee54:	027f83bb          	mulw	t2,t6,t2
   1ee58:	02032f03          	lw	t5,32(t1)
   1ee5c:	030383b3          	mul	t2,t2,a6
   1ee60:	03029293          	slli	t0,t0,0x30
   1ee64:	4302d293          	srai	t0,t0,0x30
   1ee68:	025f02bb          	mulw	t0,t5,t0
   1ee6c:	031282b3          	mul	t0,t0,a7
   1ee70:	005382b3          	add	t0,t2,t0
   1ee74:	005e82b3          	add	t0,t4,t0
   1ee78:	000013b7          	lui	t2,0x1
   1ee7c:	007e6e33          	or	t3,t3,t2
   1ee80:	005e03b3          	add	t2,t3,t0
   1ee84:	00d3d393          	srli	t2,t2,0xd
   1ee88:	405e02b3          	sub	t0,t3,t0
   1ee8c:	00d2d293          	srli	t0,t0,0xd
   1ee90:	01265e03          	lhu	t3,18(a2)
   1ee94:	03265e83          	lhu	t4,50(a2)
   1ee98:	01de6f33          	or	t5,t3,t4
   1ee9c:	030f1f13          	slli	t5,t5,0x30
   1eea0:	000f1c63          	bnez	t5,1eeb8 <jpeg_idct_2x2+0xf4>
   1eea4:	05265e83          	lhu	t4,82(a2)
   1eea8:	000e9663          	bnez	t4,1eeb4 <jpeg_idct_2x2+0xf0>
   1eeac:	07265e83          	lhu	t4,114(a2)
   1eeb0:	440e8e63          	beqz	t4,1f30c <jpeg_idct_2x2+0x548>
   1eeb4:	00000e93          	li	t4,0
   1eeb8:	00261f03          	lh	t5,2(a2)
   1eebc:	00432f83          	lw	t6,4(t1)
   1eec0:	12094c23          	regsw_c	zero,312(s2)
   1eec4:	07261083          	lh	ra,114(a2)
   1eec8:	0e432103          	lw	sp,228(t1)
   1eecc:	03ef8f3b          	mulw	t5,t6,t5
   1eed0:	05261f83          	lh	t6,82(a2)
   1eed4:	0a432183          	lw	gp,164(t1)
   1eed8:	021100bb          	mulw	ra,sp,ra
   1eedc:	00ff1f13          	slli	t5,t5,0xf
   1eee0:	041cc023          	regsw_c	ra,64(s9)
   1eee4:	02f080b3          	mul	ra,ra,a5
   1eee8:	03f18fbb          	mulw	t6,gp,t6
   1eeec:	02bf8fb3          	mul	t6,t6,a1
   1eef0:	06432103          	lw	sp,100(t1)
   1eef4:	001f8fb3          	add	t6,t6,ra
   1eef8:	030e9e93          	slli	t4,t4,0x30
   1eefc:	430ede93          	srai	t4,t4,0x30
   1ef00:	00054823          	regsw_c	zero,16(a0)
   1ef04:	03d10ebb          	mulw	t4,sp,t4
   1ef08:	02432083          	lw	ra,36(t1)
   1ef0c:	030e8eb3          	mul	t4,t4,a6
   1ef10:	030e1e13          	slli	t3,t3,0x30
   1ef14:	430e5e13          	srai	t3,t3,0x30
   1ef18:	03c08e3b          	mulw	t3,ra,t3
   1ef1c:	031e0e33          	mul	t3,t3,a7
   1ef20:	01ce8e33          	add	t3,t4,t3
   1ef24:	01cf8e33          	add	t3,t6,t3
   1ef28:	00001eb7          	lui	t4,0x1
   1ef2c:	01df6f33          	or	t5,t5,t4
   1ef30:	01cf0eb3          	add	t4,t5,t3
   1ef34:	00dede93          	srli	t4,t4,0xd
   1ef38:	41cf0e33          	sub	t3,t5,t3
   1ef3c:	00de5e13          	srli	t3,t3,0xd
   1ef40:	01665f03          	lhu	t5,22(a2)
   1ef44:	03665f83          	lhu	t6,54(a2)
   1ef48:	0049c023          	regsw_c	tp,0(s3)
   1ef4c:	01ff60b3          	or	ra,t5,t6
   1ef50:	03009093          	slli	ra,ra,0x30
   1ef54:	00009c63          	bnez	ra,1ef6c <jpeg_idct_2x2+0x1a8>
   1ef58:	05665f83          	lhu	t6,86(a2)
   1ef5c:	000f9663          	bnez	t6,1ef68 <jpeg_idct_2x2+0x1a4>
   1ef60:	07665f83          	lhu	t6,118(a2)
   1ef64:	3c0f8063          	beqz	t6,1f324 <jpeg_idct_2x2+0x560>
   1ef68:	00000f93          	li	t6,0
   1ef6c:	1e994223          	regsw_c	s1,484(s2)
   1ef70:	00661083          	lh	ra,6(a2)
   1ef74:	00c32103          	lw	sp,12(t1)
   1ef78:	07661183          	lh	gp,118(a2)
   1ef7c:	0ec32203          	lw	tp,236(t1)
   1ef80:	021100bb          	mulw	ra,sp,ra
   1ef84:	05661103          	lh	sp,86(a2)
   1ef88:	0ac32283          	lw	t0,172(t1)
   1ef8c:	7adfc3a3          	regsw_c	a3,1959(t6)
   1ef90:	023201bb          	mulw	gp,tp,gp
   1ef94:	00f09093          	slli	ra,ra,0xf
   1ef98:	02f181b3          	mul	gp,gp,a5
   1ef9c:	0222813b          	mulw	sp,t0,sp
   1efa0:	02b10133          	mul	sp,sp,a1
   1efa4:	06c32203          	lw	tp,108(t1)
   1efa8:	00310133          	add	sp,sp,gp
   1efac:	030f9f93          	slli	t6,t6,0x30
   1efb0:	430fdf93          	srai	t6,t6,0x30
   1efb4:	00054823          	regsw_c	zero,16(a0)
   1efb8:	03f20fbb          	mulw	t6,tp,t6
   1efbc:	02c32183          	lw	gp,44(t1)
   1efc0:	030f8fb3          	mul	t6,t6,a6
   1efc4:	030f1f13          	slli	t5,t5,0x30
   1efc8:	430f5f13          	srai	t5,t5,0x30
   1efcc:	03e18f3b          	mulw	t5,gp,t5
   1efd0:	031f0f33          	mul	t5,t5,a7
   1efd4:	01ef8f33          	add	t5,t6,t5
   1efd8:	40c44823          	regsw_c	a2,1040(s0)
   1efdc:	01e10f33          	add	t5,sp,t5
   1efe0:	00001fb7          	lui	t6,0x1
   1efe4:	01f0e0b3          	or	ra,ra,t6
   1efe8:	01e08fb3          	add	t6,ra,t5
   1efec:	00dfdf93          	srli	t6,t6,0xd
   1eff0:	41e08f33          	sub	t5,ra,t5
   1eff4:	00df5f13          	srli	t5,t5,0xd
   1eff8:	48f94023          	regsw_c	a5,1152(s2)
   1effc:	01a65083          	lhu	ra,26(a2)
   1f000:	03a65103          	lhu	sp,58(a2)
   1f004:	0020e1b3          	or	gp,ra,sp
   1f008:	03019193          	slli	gp,gp,0x30
   1f00c:	02019263          	bnez	gp,1f030 <jpeg_idct_2x2+0x26c>
   1f010:	0008c023          	regsw_c	zero,0(a7)
   1f014:	05a65103          	lhu	sp,90(a2)
   1f018:	00011863          	bnez	sp,1f028 <jpeg_idct_2x2+0x264>
   1f01c:	0008c023          	regsw_c	zero,0(a7)
   1f020:	07a65103          	lhu	sp,122(a2)
   1f024:	30010c63          	beqz	sp,1f33c <jpeg_idct_2x2+0x578>
   1f028:	00084023          	regsw_c	zero,0(a6)
   1f02c:	00000113          	li	sp,0
   1f030:	1e994223          	regsw_c	s1,484(s2)
   1f034:	00a61183          	lh	gp,10(a2)
   1f038:	01432203          	lw	tp,20(t1)
   1f03c:	07a61283          	lh	t0,122(a2)
   1f040:	0f432303          	lw	t1,244(t1)
   1f044:	023201bb          	mulw	gp,tp,gp
   1f048:	05a61203          	lh	tp,90(a2)
   1f04c:	0b432383          	lw	t2,180(t1)
   1f050:	7adfc3a3          	regsw_c	a3,1959(t6) # 17a7 <__abi_tag-0xeaed>
   1f054:	025302bb          	mulw	t0,t1,t0
   1f058:	00f19193          	slli	gp,gp,0xf
   1f05c:	02f282b3          	mul	t0,t0,a5
   1f060:	0243823b          	mulw	tp,t2,tp
   1f064:	02b20233          	mul	tp,tp,a1
   1f068:	07432303          	lw	t1,116(t1)
   1f06c:	00520233          	add	tp,tp,t0
   1f070:	1afdcb23          	regsw_c	a5,438(s11)
   1f074:	03011113          	slli	sp,sp,0x30
   1f078:	43015113          	srai	sp,sp,0x30
   1f07c:	0223013b          	mulw	sp,t1,sp
   1f080:	03432283          	lw	t0,52(t1)
   1f084:	03010133          	mul	sp,sp,a6
   1f088:	03009093          	slli	ra,ra,0x30
   1f08c:	4300d093          	srai	ra,ra,0x30
   1f090:	72ffcfa3          	regsw_c	a5,1855(t6)
   1f094:	021280bb          	mulw	ra,t0,ra
   1f098:	031080b3          	mul	ra,ra,a7
   1f09c:	001100b3          	add	ra,sp,ra
   1f0a0:	001200b3          	add	ra,tp,ra
   1f0a4:	00001137          	lui	sp,0x1
   1f0a8:	0021e1b3          	or	gp,gp,sp
   1f0ac:	00118133          	add	sp,gp,ra
   1f0b0:	01cdc023          	regsw_c	t3,0(s11)
   1f0b4:	00d15113          	srli	sp,sp,0xd
   1f0b8:	401180b3          	sub	ra,gp,ra
   1f0bc:	00d0d093          	srli	ra,ra,0xd
   1f0c0:	78194823          	regsw_c	ra,1936(s2)
   1f0c4:	01e65183          	lhu	gp,30(a2)
   1f0c8:	03e65203          	lhu	tp,62(a2)
   1f0cc:	1a853503          	ld	a0,424(a0)
   1f0d0:	0041e2b3          	or	t0,gp,tp
   1f0d4:	03029293          	slli	t0,t0,0x30
   1f0d8:	02029263          	bnez	t0,1f0fc <jpeg_idct_2x2+0x338>
   1f0dc:	0008c023          	regsw_c	zero,0(a7)
   1f0e0:	05e65203          	lhu	tp,94(a2)
   1f0e4:	00021863          	bnez	tp,1f0f4 <jpeg_idct_2x2+0x330>
   1f0e8:	0008c023          	regsw_c	zero,0(a7)
   1f0ec:	07e65203          	lhu	tp,126(a2)
   1f0f0:	26020463          	beqz	tp,1f358 <jpeg_idct_2x2+0x594>
   1f0f4:	00084023          	regsw_c	zero,0(a6)
   1f0f8:	00000213          	li	tp,0
   1f0fc:	1c994223          	regsw_c	s1,452(s2)
   1f100:	00e61283          	lh	t0,14(a2)
   1f104:	01c32303          	lw	t1,28(t1)
   1f108:	07e61383          	lh	t2,126(a2)
   1f10c:	0fc32403          	lw	s0,252(t1)
   1f110:	025302bb          	mulw	t0,t1,t0
   1f114:	05e61603          	lh	a2,94(a2)
   1f118:	0bc32303          	lw	t1,188(t1)
   1f11c:	42cfc0a3          	regsw_c	a2,1057(t6)
   1f120:	027403bb          	mulw	t2,s0,t2
   1f124:	00f29293          	slli	t0,t0,0xf
   1f128:	02f383b3          	mul	t2,t2,a5
   1f12c:	02c3063b          	mulw	a2,t1,a2
   1f130:	02b60633          	mul	a2,a2,a1
   1f134:	07c32303          	lw	t1,124(t1)
   1f138:	00760633          	add	a2,a2,t2
   1f13c:	1aedcb23          	regsw_c	a4,438(s11)
   1f140:	03021213          	slli	tp,tp,0x30
   1f144:	43025213          	srai	tp,tp,0x30
   1f148:	0243023b          	mulw	tp,t1,tp
   1f14c:	03c32303          	lw	t1,60(t1)
   1f150:	03020233          	mul	tp,tp,a6
   1f154:	03019193          	slli	gp,gp,0x30
   1f158:	4301d193          	srai	gp,gp,0x30
   1f15c:	00424a23          	regsw_c	tp,20(tp) # 14 <__abi_tag-0x10280>
   1f160:	0233033b          	mulw	t1,t1,gp
   1f164:	03130333          	mul	t1,t1,a7
   1f168:	00620333          	add	t1,tp,t1
   1f16c:	00660633          	add	a2,a2,t1
   1f170:	00001337          	lui	t1,0x1
   1f174:	0062e333          	or	t1,t0,t1
   1f178:	00c301b3          	add	gp,t1,a2
   1f17c:	000c4023          	regsw_c	zero,0(s8)
   1f180:	00d1d193          	srli	gp,gp,0xd
   1f184:	40c30633          	sub	a2,t1,a2
   1f188:	00d65613          	srli	a2,a2,0xd
   1f18c:	08050513          	addi	a0,a0,128
   1f190:	0006b303          	ld	t1,0(a3)
   1f194:	02071713          	slli	a4,a4,0x20
   1f198:	02075713          	srli	a4,a4,0x20
   1f19c:	00484023          	regsw_c	tp,0(a6)
   1f1a0:	000e821b          	sext.w	tp,t4
   1f1a4:	00e30333          	add	t1,t1,a4
   1f1a8:	04021263          	bnez	tp,1f1ec <jpeg_idct_2x2+0x428>
   1f1ac:	0008c023          	regsw_c	zero,0(a7)
   1f1b0:	000f821b          	sext.w	tp,t6
   1f1b4:	02021c63          	bnez	tp,1f1ec <jpeg_idct_2x2+0x428>
   1f1b8:	000cc023          	regsw_c	zero,0(s9)
   1f1bc:	0001021b          	sext.w	tp,sp
   1f1c0:	02021663          	bnez	tp,1f1ec <jpeg_idct_2x2+0x428>
   1f1c4:	000cc023          	regsw_c	zero,0(s9)
   1f1c8:	0001821b          	sext.w	tp,gp
   1f1cc:	02021063          	bnez	tp,1f1ec <jpeg_idct_2x2+0x428>
   1f1d0:	01038393          	addi	t2,t2,16 # 1010 <__abi_tag-0xf284>
   1f1d4:	03139393          	slli	t2,t2,0x31
   1f1d8:	0363d393          	srli	t2,t2,0x36
   1f1dc:	007503b3          	add	t2,a0,t2
   1f1e0:	0003c383          	lbu	t2,0(t2)
   1f1e4:	00730023          	sb	t2,0(t1) # 1000 <__abi_tag-0xf294>
   1f1e8:	05c0006f          	j	1f244 <jpeg_idct_2x2+0x480>
   1f1ec:	00f39393          	slli	t2,t2,0xf
   1f1f0:	080dc823          	regsw_c	zero,144(s11)
   1f1f4:	02f181b3          	mul	gp,gp,a5
   1f1f8:	02b10133          	mul	sp,sp,a1
   1f1fc:	030f8fb3          	mul	t6,t6,a6
   1f200:	031e8eb3          	mul	t4,t4,a7
   1f204:	01d18eb3          	add	t4,gp,t4
   1f208:	01f10fb3          	add	t6,sp,t6
   1f20c:	01fe8eb3          	add	t4,t4,t6
   1f210:	00080fb7          	lui	t6,0x80
   1f214:	01f383b3          	add	t2,t2,t6
   1f218:	01d38fb3          	add	t6,t2,t4
   1f21c:	022f9f93          	slli	t6,t6,0x22
   1f220:	036fdf93          	srli	t6,t6,0x36
   1f224:	01f50fb3          	add	t6,a0,t6
   1f228:	000fcf83          	lbu	t6,0(t6) # 80000 <__global_pointer$+0x55748>
   1f22c:	01f30023          	sb	t6,0(t1)
   1f230:	41d383bb          	subw	t2,t2,t4
   1f234:	02239393          	slli	t2,t2,0x22
   1f238:	0363d393          	srli	t2,t2,0x36
   1f23c:	007503b3          	add	t2,a0,t2
   1f240:	0003c383          	lbu	t2,0(t2)
   1f244:	007300a3          	sb	t2,1(t1)
   1f248:	0086b683          	ld	a3,8(a3)
   1f24c:	000e031b          	sext.w	t1,t3
   1f250:	00e68733          	add	a4,a3,a4
   1f254:	04031063          	bnez	t1,1f294 <jpeg_idct_2x2+0x4d0>
   1f258:	000f069b          	sext.w	a3,t5
   1f25c:	02069c63          	bnez	a3,1f294 <jpeg_idct_2x2+0x4d0>
   1f260:	00044023          	regsw_c	zero,0(s0)
   1f264:	0000869b          	sext.w	a3,ra
   1f268:	02069663          	bnez	a3,1f294 <jpeg_idct_2x2+0x4d0>
   1f26c:	0006069b          	sext.w	a3,a2
   1f270:	02069263          	bnez	a3,1f294 <jpeg_idct_2x2+0x4d0>
   1f274:	01028293          	addi	t0,t0,16
   1f278:	03129293          	slli	t0,t0,0x31
   1f27c:	0362d593          	srli	a1,t0,0x36
   1f280:	00b50533          	add	a0,a0,a1
   1f284:	00054503          	lbu	a0,0(a0)
   1f288:	00a70023          	sb	a0,0(a4)
   1f28c:	00a700a3          	sb	a0,1(a4)
   1f290:	00008067          	ret
   1f294:	00f29293          	slli	t0,t0,0xf
   1f298:	02f60633          	mul	a2,a2,a5
   1f29c:	00044023          	regsw_c	zero,0(s0)
   1f2a0:	02b085b3          	mul	a1,ra,a1
   1f2a4:	030f06b3          	mul	a3,t5,a6
   1f2a8:	031e07b3          	mul	a5,t3,a7
   1f2ac:	00f60633          	add	a2,a2,a5
   1f2b0:	00d585b3          	add	a1,a1,a3
   1f2b4:	00b605b3          	add	a1,a2,a1
   1f2b8:	00080637          	lui	a2,0x80
   1f2bc:	00c28633          	add	a2,t0,a2
   1f2c0:	00b606b3          	add	a3,a2,a1
   1f2c4:	02269693          	slli	a3,a3,0x22
   1f2c8:	0366d693          	srli	a3,a3,0x36
   1f2cc:	00d506b3          	add	a3,a0,a3
   1f2d0:	0006c683          	lbu	a3,0(a3)
   1f2d4:	00d70023          	sb	a3,0(a4)
   1f2d8:	40b6063b          	subw	a2,a2,a1
   1f2dc:	02261613          	slli	a2,a2,0x22
   1f2e0:	03665613          	srli	a2,a2,0x36
   1f2e4:	00c50533          	add	a0,a0,a2
   1f2e8:	00054503          	lbu	a0,0(a0)
   1f2ec:	00a700a3          	sb	a0,1(a4)
   1f2f0:	00008067          	ret
   1f2f4:	00061283          	lh	t0,0(a2) # 80000 <__global_pointer$+0x55748>
   1f2f8:	00032383          	lw	t2,0(t1)
   1f2fc:	027282b3          	mul	t0,t0,t2
   1f300:	00229293          	slli	t0,t0,0x2
   1f304:	00028393          	mv	t2,t0
   1f308:	b89ff06f          	j	1ee90 <jpeg_idct_2x2+0xcc>
   1f30c:	00261e03          	lh	t3,2(a2)
   1f310:	00432e83          	lw	t4,4(t1)
   1f314:	03de0e33          	mul	t3,t3,t4
   1f318:	002e1e13          	slli	t3,t3,0x2
   1f31c:	000e0e93          	mv	t4,t3
   1f320:	c21ff06f          	j	1ef40 <jpeg_idct_2x2+0x17c>
   1f324:	00661f03          	lh	t5,6(a2)
   1f328:	00c32f83          	lw	t6,12(t1)
   1f32c:	03ff0f33          	mul	t5,t5,t6
   1f330:	002f1f13          	slli	t5,t5,0x2
   1f334:	000f0f93          	mv	t6,t5
   1f338:	cc1ff06f          	j	1eff8 <jpeg_idct_2x2+0x234>
   1f33c:	58f94023          	regsw_c	a5,1408(s2)
   1f340:	00a61083          	lh	ra,10(a2)
   1f344:	01432103          	lw	sp,20(t1)
   1f348:	022080b3          	mul	ra,ra,sp
   1f34c:	00209093          	slli	ra,ra,0x2
   1f350:	00008113          	mv	sp,ra
   1f354:	d6dff06f          	j	1f0c0 <jpeg_idct_2x2+0x2fc>
   1f358:	00e61603          	lh	a2,14(a2)
   1f35c:	01c32303          	lw	t1,28(t1)
   1f360:	02660633          	mul	a2,a2,t1
   1f364:	00261613          	slli	a2,a2,0x2
   1f368:	00084023          	regsw_c	zero,0(a6)
   1f36c:	00060193          	mv	gp,a2
   1f370:	e1dff06f          	j	1f18c <jpeg_idct_2x2+0x3c8>

000000000001f374 <jpeg_idct_1x1>:
   1f374:	0585b583          	ld	a1,88(a1)
   1f378:	00061603          	lh	a2,0(a2)
   1f37c:	0005a583          	lw	a1,0(a1)
   1f380:	1a853503          	ld	a0,424(a0)
   1f384:	02c585b3          	mul	a1,a1,a2
   1f388:	00458593          	addi	a1,a1,4
   1f38c:	03359593          	slli	a1,a1,0x33
   1f390:	0365d593          	srli	a1,a1,0x36
   1f394:	00b50533          	add	a0,a0,a1
   1f398:	0006b583          	ld	a1,0(a3)
   1f39c:	08054503          	lbu	a0,128(a0)
   1f3a0:	02071713          	slli	a4,a4,0x20
   1f3a4:	02075713          	srli	a4,a4,0x20
   1f3a8:	00e585b3          	add	a1,a1,a4
   1f3ac:	00a58023          	sb	a0,0(a1)
   1f3b0:	00008067          	ret

000000000001f3b4 <jinit_upsampler>:
   1f3b4:	f9010113          	addi	sp,sp,-112 # f90 <__abi_tag-0xf304>
   1f3b8:	06113423          	sd	ra,104(sp)
   1f3bc:	06813023          	sd	s0,96(sp)
   1f3c0:	04913c23          	sd	s1,88(sp)
   1f3c4:	05213823          	sd	s2,80(sp)
   1f3c8:	05313423          	sd	s3,72(sp)
   1f3cc:	05413023          	sd	s4,64(sp)
   1f3d0:	03513c23          	sd	s5,56(sp)
   1f3d4:	03613823          	sd	s6,48(sp)
   1f3d8:	03713423          	sd	s7,40(sp)
   1f3dc:	03813023          	sd	s8,32(sp)
   1f3e0:	01913c23          	sd	s9,24(sp)
   1f3e4:	01a13823          	sd	s10,16(sp)
   1f3e8:	01b13423          	sd	s11,8(sp)
   1f3ec:	00050413          	mv	s0,a0
   1f3f0:	00853503          	ld	a0,8(a0)
   1f3f4:	00053683          	ld	a3,0(a0)
   1f3f8:	00100593          	li	a1,1
   1f3fc:	10000613          	li	a2,256
   1f400:	00040513          	mv	a0,s0
   1f404:	000680e7          	jalr	a3
   1f408:	00050493          	mv	s1,a0
   1f40c:	26a43023          	sd	a0,608(s0)
   1f410:	0001f537          	lui	a0,0x1f
   1f414:	66050513          	addi	a0,a0,1632 # 1f660 <start_pass_upsample>
   1f418:	18842583          	lw	a1,392(s0)
   1f41c:	00a4b023          	sd	a0,0(s1)
   1f420:	0001f537          	lui	a0,0x1f
   1f424:	67850513          	addi	a0,a0,1656 # 1f678 <sep_upsample>
   1f428:	00a4b423          	sd	a0,8(s1)
   1f42c:	0004a823          	sw	zero,16(s1)
   1f430:	00058e63          	beqz	a1,1f44c <jinit_upsampler+0x98>
   1f434:	00043503          	ld	a0,0(s0)
   1f438:	00053583          	ld	a1,0(a0)
   1f43c:	01900613          	li	a2,25
   1f440:	02c52423          	sw	a2,40(a0)
   1f444:	00040513          	mv	a0,s0
   1f448:	000580e7          	jalr	a1
   1f44c:	06442503          	lw	a0,100(s0)
   1f450:	00050e63          	beqz	a0,1f46c <jinit_upsampler+0xb8>
   1f454:	1a042503          	lw	a0,416(s0)
   1f458:	00252513          	slti	a0,a0,2
   1f45c:	00154913          	xori	s2,a0,1
   1f460:	03842503          	lw	a0,56(s0)
   1f464:	00a04a63          	bgtz	a0,1f478 <jinit_upsampler+0xc4>
   1f468:	1bc0006f          	j	1f624 <jinit_upsampler+0x270>
   1f46c:	00000913          	li	s2,0
   1f470:	03842503          	lw	a0,56(s0)
   1f474:	1aa05863          	blez	a0,1f624 <jinit_upsampler+0x270>
   1f478:	13043503          	ld	a0,304(s0)
   1f47c:	00000993          	li	s3,0
   1f480:	00000a13          	li	s4,0
   1f484:	06848a93          	addi	s5,s1,104
   1f488:	01848b13          	addi	s6,s1,24
   1f48c:	02450b93          	addi	s7,a0,36
   1f490:	0c000c13          	li	s8,192
   1f494:	00020cb7          	lui	s9,0x20
   1f498:	820c8c93          	addi	s9,s9,-2016 # 1f820 <noop_upsample>
   1f49c:	00020d37          	lui	s10,0x20
   1f4a0:	828d0d13          	addi	s10,s10,-2008 # 1f828 <fullsize_upsample>
   1f4a4:	0600006f          	j	1f504 <jinit_upsampler+0x150>
   1f4a8:	01348533          	add	a0,s1,s3
   1f4ac:	000205b7          	lui	a1,0x20
   1f4b0:	92058593          	addi	a1,a1,-1760 # 1f920 <h2v1_upsample>
   1f4b4:	06b53423          	sd	a1,104(a0)
   1f4b8:	00843503          	ld	a0,8(s0)
   1f4bc:	01053d83          	ld	s11,16(a0)
   1f4c0:	08846503          	lwu	a0,136(s0)
   1f4c4:	19842583          	lw	a1,408(s0)
   1f4c8:	729040ef          	jal	243f0 <jround_up>
   1f4cc:	19c42683          	lw	a3,412(s0)
   1f4d0:	0005061b          	sext.w	a2,a0
   1f4d4:	00100593          	li	a1,1
   1f4d8:	00040513          	mv	a0,s0
   1f4dc:	000d80e7          	jalr	s11
   1f4e0:	000b0893          	mv	a7,s6
   1f4e4:	013888b3          	add	a7,a7,s3
   1f4e8:	00a8b023          	sd	a0,0(a7)
   1f4ec:	03842503          	lw	a0,56(s0)
   1f4f0:	001a0a13          	addi	s4,s4,1
   1f4f4:	00898993          	addi	s3,s3,8
   1f4f8:	004c0c13          	addi	s8,s8,4
   1f4fc:	060b8b93          	addi	s7,s7,96
   1f500:	12aa5263          	bge	s4,a0,1f624 <jinit_upsampler+0x270>
   1f504:	000ba703          	lw	a4,0(s7)
   1f508:	fe8ba503          	lw	a0,-24(s7)
   1f50c:	1a042783          	lw	a5,416(s0)
   1f510:	fe4ba803          	lw	a6,-28(s7)
   1f514:	02e50533          	mul	a0,a0,a4
   1f518:	02f545bb          	divw	a1,a0,a5
   1f51c:	19842683          	lw	a3,408(s0)
   1f520:	19c42603          	lw	a2,412(s0)
   1f524:	01848533          	add	a0,s1,s8
   1f528:	00b52023          	sw	a1,0(a0)
   1f52c:	00cba283          	lw	t0,12(s7)
   1f530:	000a8893          	mv	a7,s5
   1f534:	000c8513          	mv	a0,s9
   1f538:	fa0286e3          	beqz	t0,1f4e4 <jinit_upsampler+0x130>
   1f53c:	03070533          	mul	a0,a4,a6
   1f540:	02f5473b          	divw	a4,a0,a5
   1f544:	00d71863          	bne	a4,a3,1f554 <jinit_upsampler+0x1a0>
   1f548:	000a8893          	mv	a7,s5
   1f54c:	000d0513          	mv	a0,s10
   1f550:	f8c58ae3          	beq	a1,a2,1f4e4 <jinit_upsampler+0x130>
   1f554:	0017151b          	slliw	a0,a4,0x1
   1f558:	02d51463          	bne	a0,a3,1f580 <jinit_upsampler+0x1cc>
   1f55c:	02c59263          	bne	a1,a2,1f580 <jinit_upsampler+0x1cc>
   1f560:	f40904e3          	beqz	s2,1f4a8 <jinit_upsampler+0xf4>
   1f564:	004ba503          	lw	a0,4(s7)
   1f568:	00300593          	li	a1,3
   1f56c:	f2b56ee3          	bltu	a0,a1,1f4a8 <jinit_upsampler+0xf4>
   1f570:	01348533          	add	a0,s1,s3
   1f574:	000205b7          	lui	a1,0x20
   1f578:	83058593          	addi	a1,a1,-2000 # 1f830 <h2v1_fancy_upsample>
   1f57c:	f39ff06f          	j	1f4b4 <jinit_upsampler+0x100>
   1f580:	02d51c63          	bne	a0,a3,1f5b8 <jinit_upsampler+0x204>
   1f584:	0015951b          	slliw	a0,a1,0x1
   1f588:	02c51863          	bne	a0,a2,1f5b8 <jinit_upsampler+0x204>
   1f58c:	06090463          	beqz	s2,1f5f4 <jinit_upsampler+0x240>
   1f590:	004ba503          	lw	a0,4(s7)
   1f594:	00300593          	li	a1,3
   1f598:	04b56e63          	bltu	a0,a1,1f5f4 <jinit_upsampler+0x240>
   1f59c:	01348533          	add	a0,s1,s3
   1f5a0:	000205b7          	lui	a1,0x20
   1f5a4:	98458593          	addi	a1,a1,-1660 # 1f984 <h2v2_fancy_upsample>
   1f5a8:	06b53423          	sd	a1,104(a0)
   1f5ac:	00100513          	li	a0,1
   1f5b0:	00a4a823          	sw	a0,16(s1)
   1f5b4:	f05ff06f          	j	1f4b8 <jinit_upsampler+0x104>
   1f5b8:	02e6c53b          	divw	a0,a3,a4
   1f5bc:	02e50733          	mul	a4,a0,a4
   1f5c0:	40e686bb          	subw	a3,a3,a4
   1f5c4:	00069a63          	bnez	a3,1f5d8 <jinit_upsampler+0x224>
   1f5c8:	02b646bb          	divw	a3,a2,a1
   1f5cc:	02b685b3          	mul	a1,a3,a1
   1f5d0:	40b6063b          	subw	a2,a2,a1
   1f5d4:	02060863          	beqz	a2,1f604 <jinit_upsampler+0x250>
   1f5d8:	00043503          	ld	a0,0(s0)
   1f5dc:	00053583          	ld	a1,0(a0)
   1f5e0:	02600613          	li	a2,38
   1f5e4:	02c52423          	sw	a2,40(a0)
   1f5e8:	00040513          	mv	a0,s0
   1f5ec:	000580e7          	jalr	a1
   1f5f0:	ec9ff06f          	j	1f4b8 <jinit_upsampler+0x104>
   1f5f4:	01348533          	add	a0,s1,s3
   1f5f8:	000205b7          	lui	a1,0x20
   1f5fc:	c2058593          	addi	a1,a1,-992 # 1fc20 <h2v2_upsample>
   1f600:	eb5ff06f          	j	1f4b4 <jinit_upsampler+0x100>
   1f604:	013485b3          	add	a1,s1,s3
   1f608:	00020637          	lui	a2,0x20
   1f60c:	d0460613          	addi	a2,a2,-764 # 1fd04 <int_upsample>
   1f610:	06c5b423          	sd	a2,104(a1)
   1f614:	014485b3          	add	a1,s1,s4
   1f618:	0ea58423          	sb	a0,232(a1)
   1f61c:	0ed58923          	sb	a3,242(a1)
   1f620:	e99ff06f          	j	1f4b8 <jinit_upsampler+0x104>
   1f624:	06813083          	ld	ra,104(sp)
   1f628:	06013403          	ld	s0,96(sp)
   1f62c:	05813483          	ld	s1,88(sp)
   1f630:	05013903          	ld	s2,80(sp)
   1f634:	04813983          	ld	s3,72(sp)
   1f638:	04013a03          	ld	s4,64(sp)
   1f63c:	03813a83          	ld	s5,56(sp)
   1f640:	03013b03          	ld	s6,48(sp)
   1f644:	02813b83          	ld	s7,40(sp)
   1f648:	02013c03          	ld	s8,32(sp)
   1f64c:	01813c83          	ld	s9,24(sp)
   1f650:	01013d03          	ld	s10,16(sp)
   1f654:	00813d83          	ld	s11,8(sp)
   1f658:	07010113          	addi	sp,sp,112
   1f65c:	00008067          	ret

000000000001f660 <start_pass_upsample>:
   1f660:	26053583          	ld	a1,608(a0)
   1f664:	19c52603          	lw	a2,412(a0)
   1f668:	08c52503          	lw	a0,140(a0)
   1f66c:	0ac5ac23          	sw	a2,184(a1)
   1f670:	0aa5ae23          	sw	a0,188(a1)
   1f674:	00008067          	ret

000000000001f678 <sep_upsample>:
   1f678:	fa010113          	addi	sp,sp,-96
   1f67c:	04113c23          	sd	ra,88(sp)
   1f680:	04813823          	sd	s0,80(sp)
   1f684:	04913423          	sd	s1,72(sp)
   1f688:	05213023          	sd	s2,64(sp)
   1f68c:	03313c23          	sd	s3,56(sp)
   1f690:	03413823          	sd	s4,48(sp)
   1f694:	03513423          	sd	s5,40(sp)
   1f698:	03613023          	sd	s6,32(sp)
   1f69c:	01713c23          	sd	s7,24(sp)
   1f6a0:	01813823          	sd	s8,16(sp)
   1f6a4:	01913423          	sd	s9,8(sp)
   1f6a8:	01a13023          	sd	s10,0(sp)
   1f6ac:	00050493          	mv	s1,a0
   1f6b0:	26053a83          	ld	s5,608(a0)
   1f6b4:	0b8aa683          	lw	a3,184(s5)
   1f6b8:	19c52503          	lw	a0,412(a0)
   1f6bc:	00078913          	mv	s2,a5
   1f6c0:	00060413          	mv	s0,a2
   1f6c4:	0aa6dc63          	bge	a3,a0,1f77c <sep_upsample+0x104>
   1f6c8:	0bcaa583          	lw	a1,188(s5)
   1f6cc:	40d509bb          	subw	s3,a0,a3
   1f6d0:	12b9fe63          	bgeu	s3,a1,1f80c <sep_upsample+0x194>
   1f6d4:	00096503          	lwu	a0,0(s2)
   1f6d8:	40a805bb          	subw	a1,a6,a0
   1f6dc:	00b9e463          	bltu	s3,a1,1f6e4 <sep_upsample+0x6c>
   1f6e0:	00058993          	mv	s3,a1
   1f6e4:	2684b583          	ld	a1,616(s1)
   1f6e8:	0085b783          	ld	a5,8(a1)
   1f6ec:	018a8593          	addi	a1,s5,24
   1f6f0:	00351513          	slli	a0,a0,0x3
   1f6f4:	00a70733          	add	a4,a4,a0
   1f6f8:	00048513          	mv	a0,s1
   1f6fc:	00068613          	mv	a2,a3
   1f700:	00070693          	mv	a3,a4
   1f704:	00098713          	mv	a4,s3
   1f708:	000780e7          	jalr	a5
   1f70c:	00092503          	lw	a0,0(s2)
   1f710:	01350533          	add	a0,a0,s3
   1f714:	00a92023          	sw	a0,0(s2)
   1f718:	0bcaa503          	lw	a0,188(s5)
   1f71c:	0b8aa583          	lw	a1,184(s5)
   1f720:	19c4a603          	lw	a2,412(s1)
   1f724:	4135053b          	subw	a0,a0,s3
   1f728:	0aaaae23          	sw	a0,188(s5)
   1f72c:	0135853b          	addw	a0,a1,s3
   1f730:	0aaaac23          	sw	a0,184(s5)
   1f734:	00c54863          	blt	a0,a2,1f744 <sep_upsample+0xcc>
   1f738:	00042503          	lw	a0,0(s0)
   1f73c:	00150513          	addi	a0,a0,1
   1f740:	00a42023          	sw	a0,0(s0)
   1f744:	05813083          	ld	ra,88(sp)
   1f748:	05013403          	ld	s0,80(sp)
   1f74c:	04813483          	ld	s1,72(sp)
   1f750:	04013903          	ld	s2,64(sp)
   1f754:	03813983          	ld	s3,56(sp)
   1f758:	03013a03          	ld	s4,48(sp)
   1f75c:	02813a83          	ld	s5,40(sp)
   1f760:	02013b03          	ld	s6,32(sp)
   1f764:	01813b83          	ld	s7,24(sp)
   1f768:	01013c03          	ld	s8,16(sp)
   1f76c:	00813c83          	ld	s9,8(sp)
   1f770:	00013d03          	ld	s10,0(sp)
   1f774:	06010113          	addi	sp,sp,96
   1f778:	00008067          	ret
   1f77c:	00058993          	mv	s3,a1
   1f780:	0384a583          	lw	a1,56(s1)
   1f784:	06b05a63          	blez	a1,1f7f8 <sep_upsample+0x180>
   1f788:	00080b13          	mv	s6,a6
   1f78c:	00070b93          	mv	s7,a4
   1f790:	1304ba03          	ld	s4,304(s1)
   1f794:	00000c13          	li	s8,0
   1f798:	068a8c93          	addi	s9,s5,104
   1f79c:	0c0a8d13          	addi	s10,s5,192
   1f7a0:	00042503          	lw	a0,0(s0)
   1f7a4:	000d2583          	lw	a1,0(s10)
   1f7a8:	000cb703          	ld	a4,0(s9)
   1f7ac:	0009b603          	ld	a2,0(s3)
   1f7b0:	02a58533          	mul	a0,a1,a0
   1f7b4:	02051513          	slli	a0,a0,0x20
   1f7b8:	01d55513          	srli	a0,a0,0x1d
   1f7bc:	00a60633          	add	a2,a2,a0
   1f7c0:	fb0c8693          	addi	a3,s9,-80
   1f7c4:	00048513          	mv	a0,s1
   1f7c8:	000a0593          	mv	a1,s4
   1f7cc:	000700e7          	jalr	a4
   1f7d0:	001c0c13          	addi	s8,s8,1
   1f7d4:	0384a503          	lw	a0,56(s1)
   1f7d8:	060a0a13          	addi	s4,s4,96
   1f7dc:	008c8c93          	addi	s9,s9,8
   1f7e0:	004d0d13          	addi	s10,s10,4
   1f7e4:	00898993          	addi	s3,s3,8
   1f7e8:	faac4ce3          	blt	s8,a0,1f7a0 <sep_upsample+0x128>
   1f7ec:	19c4a503          	lw	a0,412(s1)
   1f7f0:	000b8713          	mv	a4,s7
   1f7f4:	000b0813          	mv	a6,s6
   1f7f8:	00000693          	li	a3,0
   1f7fc:	0a0aac23          	sw	zero,184(s5)
   1f800:	0bcaa583          	lw	a1,188(s5)
   1f804:	400509bb          	subw	s3,a0,zero
   1f808:	ecb9e6e3          	bltu	s3,a1,1f6d4 <sep_upsample+0x5c>
   1f80c:	00058993          	mv	s3,a1
   1f810:	00096503          	lwu	a0,0(s2)
   1f814:	40a805bb          	subw	a1,a6,a0
   1f818:	ecb9f4e3          	bgeu	s3,a1,1f6e0 <sep_upsample+0x68>
   1f81c:	ec9ff06f          	j	1f6e4 <sep_upsample+0x6c>

000000000001f820 <noop_upsample>:
   1f820:	0006b023          	sd	zero,0(a3)
   1f824:	00008067          	ret

000000000001f828 <fullsize_upsample>:
   1f828:	00c6b023          	sd	a2,0(a3)
   1f82c:	00008067          	ret

000000000001f830 <h2v1_fancy_upsample>:
   1f830:	19c52703          	lw	a4,412(a0)
   1f834:	0ee05463          	blez	a4,1f91c <h2v1_fancy_upsample+0xec>
   1f838:	0006b683          	ld	a3,0(a3)
   1f83c:	00000713          	li	a4,0
   1f840:	00200793          	li	a5,2
   1f844:	0340006f          	j	1f878 <h2v1_fancy_upsample+0x48>
   1f848:	0008c303          	lbu	t1,0(a7)
   1f84c:	fff8c883          	lbu	a7,-1(a7)
   1f850:	00131393          	slli	t2,t1,0x1
   1f854:	006888b3          	add	a7,a7,t1
   1f858:	007888b3          	add	a7,a7,t2
   1f85c:	00188893          	addi	a7,a7,1
   1f860:	0028d893          	srli	a7,a7,0x2
   1f864:	01180023          	sb	a7,0(a6)
   1f868:	006281a3          	sb	t1,3(t0)
   1f86c:	19c52803          	lw	a6,412(a0)
   1f870:	00170713          	addi	a4,a4,1
   1f874:	0b075463          	bge	a4,a6,1f91c <h2v1_fancy_upsample+0xec>
   1f878:	00371813          	slli	a6,a4,0x3
   1f87c:	010608b3          	add	a7,a2,a6
   1f880:	0008b303          	ld	t1,0(a7)
   1f884:	01068833          	add	a6,a3,a6
   1f888:	00083283          	ld	t0,0(a6)
   1f88c:	00034803          	lbu	a6,0(t1)
   1f890:	01028023          	sb	a6,0(t0)
   1f894:	00134883          	lbu	a7,1(t1)
   1f898:	00181393          	slli	t2,a6,0x1
   1f89c:	01180833          	add	a6,a6,a7
   1f8a0:	01038833          	add	a6,t2,a6
   1f8a4:	00280813          	addi	a6,a6,2
   1f8a8:	00285813          	srli	a6,a6,0x2
   1f8ac:	010280a3          	sb	a6,1(t0)
   1f8b0:	0285a383          	lw	t2,40(a1)
   1f8b4:	00130893          	addi	a7,t1,1
   1f8b8:	00228813          	addi	a6,t0,2
   1f8bc:	f8f386e3          	beq	t2,a5,1f848 <h2v1_fancy_upsample+0x18>
   1f8c0:	ffd38393          	addi	t2,t2,-3
   1f8c4:	02039393          	slli	t2,t2,0x20
   1f8c8:	0203d293          	srli	t0,t2,0x20
   1f8cc:	005302b3          	add	t0,t1,t0
   1f8d0:	00228293          	addi	t0,t0,2
   1f8d4:	0008c303          	lbu	t1,0(a7)
   1f8d8:	fff8c383          	lbu	t2,-1(a7)
   1f8dc:	00131e13          	slli	t3,t1,0x1
   1f8e0:	006e0333          	add	t1,t3,t1
   1f8e4:	006383b3          	add	t2,t2,t1
   1f8e8:	00138393          	addi	t2,t2,1
   1f8ec:	0023d393          	srli	t2,t2,0x2
   1f8f0:	00780023          	sb	t2,0(a6)
   1f8f4:	0018c383          	lbu	t2,1(a7)
   1f8f8:	00188893          	addi	a7,a7,1
   1f8fc:	00730333          	add	t1,t1,t2
   1f900:	00230313          	addi	t1,t1,2
   1f904:	00235313          	srli	t1,t1,0x2
   1f908:	006800a3          	sb	t1,1(a6)
   1f90c:	00280813          	addi	a6,a6,2
   1f910:	fc5892e3          	bne	a7,t0,1f8d4 <h2v1_fancy_upsample+0xa4>
   1f914:	ffe80293          	addi	t0,a6,-2
   1f918:	f31ff06f          	j	1f848 <h2v1_fancy_upsample+0x18>
   1f91c:	00008067          	ret

000000000001f920 <h2v1_upsample>:
   1f920:	19c52703          	lw	a4,412(a0)
   1f924:	04e05e63          	blez	a4,1f980 <h2v1_upsample+0x60>
   1f928:	0006b583          	ld	a1,0(a3)
   1f92c:	00000693          	li	a3,0
   1f930:	00c0006f          	j	1f93c <h2v1_upsample+0x1c>
   1f934:	00168693          	addi	a3,a3,1
   1f938:	04e6d463          	bge	a3,a4,1f980 <h2v1_upsample+0x60>
   1f93c:	08856783          	lwu	a5,136(a0)
   1f940:	fe078ae3          	beqz	a5,1f934 <h2v1_upsample+0x14>
   1f944:	00369813          	slli	a6,a3,0x3
   1f948:	01058733          	add	a4,a1,a6
   1f94c:	00073703          	ld	a4,0(a4)
   1f950:	01060833          	add	a6,a2,a6
   1f954:	00083803          	ld	a6,0(a6)
   1f958:	00f707b3          	add	a5,a4,a5
   1f95c:	00084883          	lbu	a7,0(a6)
   1f960:	00180813          	addi	a6,a6,1
   1f964:	01170023          	sb	a7,0(a4)
   1f968:	00270293          	addi	t0,a4,2
   1f96c:	011700a3          	sb	a7,1(a4)
   1f970:	00028713          	mv	a4,t0
   1f974:	fef2e4e3          	bltu	t0,a5,1f95c <h2v1_upsample+0x3c>
   1f978:	19c52703          	lw	a4,412(a0)
   1f97c:	fb9ff06f          	j	1f934 <h2v1_upsample+0x14>
   1f980:	00008067          	ret

000000000001f984 <h2v2_fancy_upsample>:
   1f984:	19c52703          	lw	a4,412(a0)
   1f988:	28e05a63          	blez	a4,1fc1c <h2v2_fancy_upsample+0x298>
   1f98c:	0006b683          	ld	a3,0(a3)
   1f990:	00000713          	li	a4,0
   1f994:	00000793          	li	a5,0
   1f998:	00868813          	addi	a6,a3,8
   1f99c:	00200893          	li	a7,2
   1f9a0:	0400006f          	j	1f9e0 <h2v2_fancy_upsample+0x5c>
   1f9a4:	00038e93          	mv	t4,t2
   1f9a8:	00129393          	slli	t2,t0,0x1
   1f9ac:	005e8eb3          	add	t4,t4,t0
   1f9b0:	007e83b3          	add	t2,t4,t2
   1f9b4:	00838393          	addi	t2,t2,8
   1f9b8:	0043d393          	srli	t2,t2,0x4
   1f9bc:	00730023          	sb	t2,0(t1)
   1f9c0:	00229293          	slli	t0,t0,0x2
   1f9c4:	00728293          	addi	t0,t0,7
   1f9c8:	0042d293          	srli	t0,t0,0x4
   1f9cc:	005e01a3          	sb	t0,3(t3)
   1f9d0:	19c52283          	lw	t0,412(a0)
   1f9d4:	0027879b          	addiw	a5,a5,2
   1f9d8:	00170713          	addi	a4,a4,1
   1f9dc:	2457d063          	bge	a5,t0,1fc1c <h2v2_fancy_upsample+0x298>
   1f9e0:	00371313          	slli	t1,a4,0x3
   1f9e4:	00660333          	add	t1,a2,t1
   1f9e8:	00033f83          	ld	t6,0(t1)
   1f9ec:	00084823          	regsw_c	zero,16(a6)
   1f9f0:	ff833083          	ld	ra,-8(t1)
   1f9f4:	00379293          	slli	t0,a5,0x3
   1f9f8:	000fc383          	lbu	t2,0(t6)
   1f9fc:	00568e33          	add	t3,a3,t0
   1fa00:	000e3f03          	ld	t5,0(t3)
   1fa04:	0000ce03          	lbu	t3,0(ra) # 40000 <__global_pointer$+0x15748>
   1fa08:	00139e93          	slli	t4,t2,0x1
   1fa0c:	0a09cca3          	regsw_c	zero,185(s3)
   1fa10:	001fc103          	lbu	sp,1(t6)
   1fa14:	0010c183          	lbu	gp,1(ra)
   1fa18:	01c383b3          	add	t2,t2,t3
   1fa1c:	007e8eb3          	add	t4,t4,t2
   1fa20:	00111393          	slli	t2,sp,0x1
   1fa24:	00310133          	add	sp,sp,gp
   1fa28:	002383b3          	add	t2,t2,sp
   1fa2c:	002e9e13          	slli	t3,t4,0x2
   1fa30:	008e0e13          	addi	t3,t3,8
   1fa34:	004e5e13          	srli	t3,t3,0x4
   1fa38:	01cf0023          	sb	t3,0(t5)
   1fa3c:	001e9e13          	slli	t3,t4,0x1
   1fa40:	03084023          	regsw_c	a6,32(a6)
   1fa44:	007e8133          	add	sp,t4,t2
   1fa48:	002e0e33          	add	t3,t3,sp
   1fa4c:	007e0e13          	addi	t3,t3,7
   1fa50:	004e5e13          	srli	t3,t3,0x4
   1fa54:	01cf00a3          	sb	t3,1(t5)
   1fa58:	0285a183          	lw	gp,40(a1)
   1fa5c:	002f0e13          	addi	t3,t5,2
   1fa60:	00044023          	regsw_c	zero,0(s0)
   1fa64:	09118a63          	beq	gp,a7,1faf8 <h2v2_fancy_upsample+0x174>
   1fa68:	48dd4023          	regsw_c	a3,1152(s10)
   1fa6c:	00208093          	addi	ra,ra,2
   1fa70:	002f8113          	addi	sp,t6,2
   1fa74:	ffd18193          	addi	gp,gp,-3 # 2a8b5 <__BSS_END__+0x77d>
   1fa78:	02019193          	slli	gp,gp,0x20
   1fa7c:	0201df13          	srli	t5,gp,0x20
   1fa80:	01ef8f33          	add	t5,t6,t5
   1fa84:	003f0f13          	addi	t5,t5,3
   1fa88:	5a5c4923          	regsw_c	t0,1458(s8)
   1fa8c:	00014183          	lbu	gp,0(sp)
   1fa90:	00038f93          	mv	t6,t2
   1fa94:	0000c383          	lbu	t2,0(ra)
   1fa98:	00110213          	addi	tp,sp,1
   1fa9c:	00119113          	slli	sp,gp,0x1
   1faa0:	00108093          	addi	ra,ra,1
   1faa4:	007183b3          	add	t2,gp,t2
   1faa8:	20c54023          	regsw_c	a2,512(a0)
   1faac:	007103b3          	add	t2,sp,t2
   1fab0:	001f9113          	slli	sp,t6,0x1
   1fab4:	01f10133          	add	sp,sp,t6
   1fab8:	002e8eb3          	add	t4,t4,sp
   1fabc:	008e8e93          	addi	t4,t4,8 # 1008 <__abi_tag-0xf28c>
   1fac0:	004ede93          	srli	t4,t4,0x4
   1fac4:	01de0023          	sb	t4,0(t3)
   1fac8:	004dc323          	regsw_c	tp,6(s11)
   1facc:	00710133          	add	sp,sp,t2
   1fad0:	00710113          	addi	sp,sp,7
   1fad4:	00415e93          	srli	t4,sp,0x4
   1fad8:	01de00a3          	sb	t4,1(t3)
   1fadc:	002e0e13          	addi	t3,t3,2
   1fae0:	000f8e93          	mv	t4,t6
   1fae4:	00020113          	mv	sp,tp
   1fae8:	00044023          	regsw_c	zero,0(s0)
   1faec:	f9e21ee3          	bne	tp,t5,1fa88 <h2v2_fancy_upsample+0x104>
   1faf0:	ffee0f13          	addi	t5,t3,-2
   1faf4:	0080006f          	j	1fafc <h2v2_fancy_upsample+0x178>
   1faf8:	000e8f93          	mv	t6,t4
   1fafc:	00139e93          	slli	t4,t2,0x1
   1fb00:	007f8fb3          	add	t6,t6,t2
   1fb04:	01df8eb3          	add	t4,t6,t4
   1fb08:	008e8e93          	addi	t4,t4,8
   1fb0c:	004ede93          	srli	t4,t4,0x4
   1fb10:	01de0023          	sb	t4,0(t3)
   1fb14:	00239393          	slli	t2,t2,0x2
   1fb18:	00738393          	addi	t2,t2,7
   1fb1c:	0043d393          	srli	t2,t2,0x4
   1fb20:	007f01a3          	sb	t2,3(t5)
   1fb24:	00033e83          	ld	t4,0(t1)
   1fb28:	00833f03          	ld	t5,8(t1)
   1fb2c:	000ec303          	lbu	t1,0(t4)
   1fb30:	000f4383          	lbu	t2,0(t5)
   1fb34:	005802b3          	add	t0,a6,t0
   1fb38:	0002be03          	ld	t3,0(t0)
   1fb3c:	007303b3          	add	t2,t1,t2
   1fb40:	001ec283          	lbu	t0,1(t4)
   1fb44:	001f4f83          	lbu	t6,1(t5)
   1fb48:	00131313          	slli	t1,t1,0x1
   1fb4c:	007303b3          	add	t2,t1,t2
   1fb50:	00129313          	slli	t1,t0,0x1
   1fb54:	01f282b3          	add	t0,t0,t6
   1fb58:	005302b3          	add	t0,t1,t0
   1fb5c:	00239313          	slli	t1,t2,0x2
   1fb60:	00830313          	addi	t1,t1,8
   1fb64:	00435313          	srli	t1,t1,0x4
   1fb68:	006e0023          	sb	t1,0(t3)
   1fb6c:	00139313          	slli	t1,t2,0x1
   1fb70:	00538fb3          	add	t6,t2,t0
   1fb74:	01f30333          	add	t1,t1,t6
   1fb78:	00730313          	addi	t1,t1,7
   1fb7c:	00435313          	srli	t1,t1,0x4
   1fb80:	006e00a3          	sb	t1,1(t3)
   1fb84:	00484023          	regsw_c	tp,0(a6)
   1fb88:	0285a083          	lw	ra,40(a1)
   1fb8c:	002e0313          	addi	t1,t3,2
   1fb90:	e1108ae3          	beq	ra,a7,1f9a4 <h2v2_fancy_upsample+0x20>
   1fb94:	002f0f13          	addi	t5,t5,2
   1fb98:	002e8f93          	addi	t6,t4,2
   1fb9c:	004dc023          	regsw_c	tp,0(s11)
   1fba0:	ffd08093          	addi	ra,ra,-3
   1fba4:	02009093          	slli	ra,ra,0x20
   1fba8:	0200de13          	srli	t3,ra,0x20
   1fbac:	01ce8e33          	add	t3,t4,t3
   1fbb0:	003e0e13          	addi	t3,t3,3
   1fbb4:	08184123          	regsw_c	ra,130(a6)
   1fbb8:	000fc083          	lbu	ra,0(t6)
   1fbbc:	00028e93          	mv	t4,t0
   1fbc0:	000f4283          	lbu	t0,0(t5)
   1fbc4:	001f8113          	addi	sp,t6,1
   1fbc8:	00109f93          	slli	t6,ra,0x1
   1fbcc:	001f0f13          	addi	t5,t5,1
   1fbd0:	005082b3          	add	t0,ra,t0
   1fbd4:	005f82b3          	add	t0,t6,t0
   1fbd8:	001e9f93          	slli	t6,t4,0x1
   1fbdc:	01df8fb3          	add	t6,t6,t4
   1fbe0:	01f383b3          	add	t2,t2,t6
   1fbe4:	00838393          	addi	t2,t2,8
   1fbe8:	0043d393          	srli	t2,t2,0x4
   1fbec:	00730023          	sb	t2,0(t1)
   1fbf0:	005f8fb3          	add	t6,t6,t0
   1fbf4:	007f8f93          	addi	t6,t6,7
   1fbf8:	004fdf93          	srli	t6,t6,0x4
   1fbfc:	01f300a3          	sb	t6,1(t1)
   1fc00:	00230313          	addi	t1,t1,2
   1fc04:	000e8393          	mv	t2,t4
   1fc08:	0004c023          	regsw_c	zero,0(s1)
   1fc0c:	00010f93          	mv	t6,sp
   1fc10:	fbc112e3          	bne	sp,t3,1fbb4 <h2v2_fancy_upsample+0x230>
   1fc14:	ffe30e13          	addi	t3,t1,-2
   1fc18:	d91ff06f          	j	1f9a8 <h2v2_fancy_upsample+0x24>
   1fc1c:	00008067          	ret

000000000001fc20 <h2v2_upsample>:
   1fc20:	fc010113          	addi	sp,sp,-64
   1fc24:	02113c23          	sd	ra,56(sp)
   1fc28:	02813823          	sd	s0,48(sp)
   1fc2c:	02913423          	sd	s1,40(sp)
   1fc30:	03213023          	sd	s2,32(sp)
   1fc34:	01313c23          	sd	s3,24(sp)
   1fc38:	01413823          	sd	s4,16(sp)
   1fc3c:	01513423          	sd	s5,8(sp)
   1fc40:	00050413          	mv	s0,a0
   1fc44:	19c52503          	lw	a0,412(a0)
   1fc48:	08a05c63          	blez	a0,1fce0 <h2v2_upsample+0xc0>
   1fc4c:	00060493          	mv	s1,a2
   1fc50:	0006b903          	ld	s2,0(a3)
   1fc54:	00000993          	li	s3,0
   1fc58:	00000a93          	li	s5,0
   1fc5c:	00000a13          	li	s4,0
   1fc60:	0380006f          	j	1fc98 <h2v2_upsample+0x78>
   1fc64:	00000793          	li	a5,0
   1fc68:	001a6693          	ori	a3,s4,1
   1fc6c:	000a859b          	sext.w	a1,s5
   1fc70:	00100713          	li	a4,1
   1fc74:	00090513          	mv	a0,s2
   1fc78:	00090613          	mv	a2,s2
   1fc7c:	788040ef          	jal	24404 <jcopy_sample_rows>
   1fc80:	19c42503          	lw	a0,412(s0)
   1fc84:	00198993          	addi	s3,s3,1
   1fc88:	002a859b          	addiw	a1,s5,2
   1fc8c:	002a8a93          	addi	s5,s5,2
   1fc90:	002a0a1b          	addiw	s4,s4,2
   1fc94:	04a5d663          	bge	a1,a0,1fce0 <h2v2_upsample+0xc0>
   1fc98:	08846583          	lwu	a1,136(s0)
   1fc9c:	fc0584e3          	beqz	a1,1fc64 <h2v2_upsample+0x44>
   1fca0:	003a9513          	slli	a0,s5,0x3
   1fca4:	00a90533          	add	a0,s2,a0
   1fca8:	00053503          	ld	a0,0(a0)
   1fcac:	00399613          	slli	a2,s3,0x3
   1fcb0:	00c48633          	add	a2,s1,a2
   1fcb4:	00063603          	ld	a2,0(a2)
   1fcb8:	00b505b3          	add	a1,a0,a1
   1fcbc:	00064683          	lbu	a3,0(a2)
   1fcc0:	00160613          	addi	a2,a2,1
   1fcc4:	00d50023          	sb	a3,0(a0)
   1fcc8:	00250713          	addi	a4,a0,2
   1fccc:	00d500a3          	sb	a3,1(a0)
   1fcd0:	00070513          	mv	a0,a4
   1fcd4:	feb764e3          	bltu	a4,a1,1fcbc <h2v2_upsample+0x9c>
   1fcd8:	08842783          	lw	a5,136(s0)
   1fcdc:	f8dff06f          	j	1fc68 <h2v2_upsample+0x48>
   1fce0:	03813083          	ld	ra,56(sp)
   1fce4:	03013403          	ld	s0,48(sp)
   1fce8:	02813483          	ld	s1,40(sp)
   1fcec:	02013903          	ld	s2,32(sp)
   1fcf0:	01813983          	ld	s3,24(sp)
   1fcf4:	01013a03          	ld	s4,16(sp)
   1fcf8:	00813a83          	ld	s5,8(sp)
   1fcfc:	04010113          	addi	sp,sp,64
   1fd00:	00008067          	ret

000000000001fd04 <int_upsample>:
   1fd04:	f9010113          	addi	sp,sp,-112
   1fd08:	06113423          	sd	ra,104(sp)
   1fd0c:	06813023          	sd	s0,96(sp)
   1fd10:	04913c23          	sd	s1,88(sp)
   1fd14:	05213823          	sd	s2,80(sp)
   1fd18:	05313423          	sd	s3,72(sp)
   1fd1c:	05413023          	sd	s4,64(sp)
   1fd20:	03513c23          	sd	s5,56(sp)
   1fd24:	03613823          	sd	s6,48(sp)
   1fd28:	03713423          	sd	s7,40(sp)
   1fd2c:	03813023          	sd	s8,32(sp)
   1fd30:	01913c23          	sd	s9,24(sp)
   1fd34:	01a13823          	sd	s10,16(sp)
   1fd38:	01b13423          	sd	s11,8(sp)
   1fd3c:	00050413          	mv	s0,a0
   1fd40:	19c52503          	lw	a0,412(a0)
   1fd44:	12a05463          	blez	a0,1fe6c <int_upsample+0x168>
   1fd48:	00060993          	mv	s3,a2
   1fd4c:	26043603          	ld	a2,608(s0)
   1fd50:	0045a583          	lw	a1,4(a1)
   1fd54:	00b605b3          	add	a1,a2,a1
   1fd58:	0e85c603          	lbu	a2,232(a1)
   1fd5c:	0f25c583          	lbu	a1,242(a1)
   1fd60:	0006b483          	ld	s1,0(a3)
   1fd64:	0ff67a13          	zext.b	s4,a2
   1fd68:	0ff5fb13          	zext.b	s6,a1
   1fd6c:	fffb0593          	addi	a1,s6,-1
   1fd70:	00b13023          	sd	a1,0(sp)
   1fd74:	0a0a0263          	beqz	s4,1fe18 <int_upsample+0x114>
   1fd78:	00000b93          	li	s7,0
   1fd7c:	00000c93          	li	s9,0
   1fd80:	00000c13          	li	s8,0
   1fd84:	fffa0513          	addi	a0,s4,-1
   1fd88:	02051513          	slli	a0,a0,0x20
   1fd8c:	02055513          	srli	a0,a0,0x20
   1fd90:	00150d13          	addi	s10,a0,1
   1fd94:	01c0006f          	j	1fdb0 <int_upsample+0xac>
   1fd98:	19c42503          	lw	a0,412(s0)
   1fd9c:	001b8b93          	addi	s7,s7,1
   1fda0:	016c85bb          	addw	a1,s9,s6
   1fda4:	016c8cb3          	add	s9,s9,s6
   1fda8:	016c0c33          	add	s8,s8,s6
   1fdac:	0ca5d063          	bge	a1,a0,1fe6c <int_upsample+0x168>
   1fdb0:	08846d83          	lwu	s11,136(s0)
   1fdb4:	020d8e63          	beqz	s11,1fdf0 <int_upsample+0xec>
   1fdb8:	003c9513          	slli	a0,s9,0x3
   1fdbc:	00a48533          	add	a0,s1,a0
   1fdc0:	00053a83          	ld	s5,0(a0)
   1fdc4:	003b9513          	slli	a0,s7,0x3
   1fdc8:	00a98533          	add	a0,s3,a0
   1fdcc:	00053903          	ld	s2,0(a0)
   1fdd0:	01ba8db3          	add	s11,s5,s11
   1fdd4:	00094583          	lbu	a1,0(s2)
   1fdd8:	000a8513          	mv	a0,s5
   1fddc:	000a0613          	mv	a2,s4
   1fde0:	e71f00ef          	jal	10c50 <memset@plt>
   1fde4:	01aa8ab3          	add	s5,s5,s10
   1fde8:	00190913          	addi	s2,s2,1
   1fdec:	ffbae4e3          	bltu	s5,s11,1fdd4 <int_upsample+0xd0>
   1fdf0:	00200513          	li	a0,2
   1fdf4:	faab62e3          	bltu	s6,a0,1fd98 <int_upsample+0x94>
   1fdf8:	08842783          	lw	a5,136(s0)
   1fdfc:	001c069b          	addiw	a3,s8,1
   1fe00:	000c859b          	sext.w	a1,s9
   1fe04:	00048513          	mv	a0,s1
   1fe08:	00048613          	mv	a2,s1
   1fe0c:	00013703          	ld	a4,0(sp)
   1fe10:	5f4040ef          	jal	24404 <jcopy_sample_rows>
   1fe14:	f85ff06f          	j	1fd98 <int_upsample+0x94>
   1fe18:	00200593          	li	a1,2
   1fe1c:	02bb6e63          	bltu	s6,a1,1fe58 <int_upsample+0x154>
   1fe20:	00000993          	li	s3,0
   1fe24:	08842503          	lw	a0,136(s0)
   1fe28:	08051063          	bnez	a0,1fea8 <int_upsample+0x1a4>
   1fe2c:	0019869b          	addiw	a3,s3,1
   1fe30:	00048513          	mv	a0,s1
   1fe34:	00098593          	mv	a1,s3
   1fe38:	00048613          	mv	a2,s1
   1fe3c:	00013703          	ld	a4,0(sp)
   1fe40:	00000793          	li	a5,0
   1fe44:	5c0040ef          	jal	24404 <jcopy_sample_rows>
   1fe48:	19c42503          	lw	a0,412(s0)
   1fe4c:	016989bb          	addw	s3,s3,s6
   1fe50:	fca9cae3          	blt	s3,a0,1fe24 <int_upsample+0x120>
   1fe54:	0180006f          	j	1fe6c <int_upsample+0x168>
   1fe58:	08842583          	lw	a1,136(s0)
   1fe5c:	00000613          	li	a2,0
   1fe60:	04059463          	bnez	a1,1fea8 <int_upsample+0x1a4>
   1fe64:	0166063b          	addw	a2,a2,s6
   1fe68:	fea64ce3          	blt	a2,a0,1fe60 <int_upsample+0x15c>
   1fe6c:	06813083          	ld	ra,104(sp)
   1fe70:	06013403          	ld	s0,96(sp)
   1fe74:	05813483          	ld	s1,88(sp)
   1fe78:	05013903          	ld	s2,80(sp)
   1fe7c:	04813983          	ld	s3,72(sp)
   1fe80:	04013a03          	ld	s4,64(sp)
   1fe84:	03813a83          	ld	s5,56(sp)
   1fe88:	03013b03          	ld	s6,48(sp)
   1fe8c:	02813b83          	ld	s7,40(sp)
   1fe90:	02013c03          	ld	s8,32(sp)
   1fe94:	01813c83          	ld	s9,24(sp)
   1fe98:	01013d03          	ld	s10,16(sp)
   1fe9c:	00813d83          	ld	s11,8(sp)
   1fea0:	07010113          	addi	sp,sp,112
   1fea4:	00008067          	ret
   1fea8:	0000006f          	j	1fea8 <int_upsample+0x1a4>

000000000001feac <jinit_color_deconverter>:
   1feac:	fc010113          	addi	sp,sp,-64
   1feb0:	02113c23          	sd	ra,56(sp)
   1feb4:	02813823          	sd	s0,48(sp)
   1feb8:	02913423          	sd	s1,40(sp)
   1febc:	03213023          	sd	s2,32(sp)
   1fec0:	01313c23          	sd	s3,24(sp)
   1fec4:	01413823          	sd	s4,16(sp)
   1fec8:	01513423          	sd	s5,8(sp)
   1fecc:	01613023          	sd	s6,0(sp)
   1fed0:	00050413          	mv	s0,a0
   1fed4:	00853503          	ld	a0,8(a0)
   1fed8:	00053683          	ld	a3,0(a0)
   1fedc:	00100593          	li	a1,1
   1fee0:	03000613          	li	a2,48
   1fee4:	00040513          	mv	a0,s0
   1fee8:	000680e7          	jalr	a3
   1feec:	03c42583          	lw	a1,60(s0)
   1fef0:	00050493          	mv	s1,a0
   1fef4:	26a43423          	sd	a0,616(s0)
   1fef8:	00020637          	lui	a2,0x20
   1fefc:	2e060613          	addi	a2,a2,736 # 202e0 <start_pass_dcolor>
   1ff00:	ffe58693          	addi	a3,a1,-2
   1ff04:	00200513          	li	a0,2
   1ff08:	00c4b023          	sd	a2,0(s1)
   1ff0c:	00a6ee63          	bltu	a3,a0,1ff28 <jinit_color_deconverter+0x7c>
   1ff10:	ffc58613          	addi	a2,a1,-4
   1ff14:	0aa67463          	bgeu	a2,a0,1ffbc <jinit_color_deconverter+0x110>
   1ff18:	03842503          	lw	a0,56(s0)
   1ff1c:	00400593          	li	a1,4
   1ff20:	00b51a63          	bne	a0,a1,1ff34 <jinit_color_deconverter+0x88>
   1ff24:	0280006f          	j	1ff4c <jinit_color_deconverter+0xa0>
   1ff28:	03842503          	lw	a0,56(s0)
   1ff2c:	00300593          	li	a1,3
   1ff30:	00b50e63          	beq	a0,a1,1ff4c <jinit_color_deconverter+0xa0>
   1ff34:	00043503          	ld	a0,0(s0)
   1ff38:	00053583          	ld	a1,0(a0)
   1ff3c:	00a00613          	li	a2,10
   1ff40:	02c52423          	sw	a2,40(a0)
   1ff44:	00040513          	mv	a0,s0
   1ff48:	000580e7          	jalr	a1
   1ff4c:	04042503          	lw	a0,64(s0)
   1ff50:	00400593          	li	a1,4
   1ff54:	1ab50c63          	beq	a0,a1,2010c <jinit_color_deconverter+0x260>
   1ff58:	00200593          	li	a1,2
   1ff5c:	06b50a63          	beq	a0,a1,1ffd0 <jinit_color_deconverter+0x124>
   1ff60:	00100593          	li	a1,1
   1ff64:	2cb51a63          	bne	a0,a1,20238 <jinit_color_deconverter+0x38c>
   1ff68:	03c42503          	lw	a0,60(s0)
   1ff6c:	00256513          	ori	a0,a0,2
   1ff70:	00300613          	li	a2,3
   1ff74:	08b42823          	sw	a1,144(s0)
   1ff78:	2ec51663          	bne	a0,a2,20264 <jinit_color_deconverter+0x3b8>
   1ff7c:	03842583          	lw	a1,56(s0)
   1ff80:	00020537          	lui	a0,0x20
   1ff84:	2e450513          	addi	a0,a0,740 # 202e4 <grayscale_convert>
   1ff88:	00200613          	li	a2,2
   1ff8c:	00a4b423          	sd	a0,8(s1)
   1ff90:	2ec5c663          	blt	a1,a2,2027c <jinit_color_deconverter+0x3d0>
   1ff94:	13043603          	ld	a2,304(s0)
   1ff98:	09060513          	addi	a0,a2,144
   1ff9c:	06000693          	li	a3,96
   1ffa0:	02d585b3          	mul	a1,a1,a3
   1ffa4:	00c585b3          	add	a1,a1,a2
   1ffa8:	03058593          	addi	a1,a1,48
   1ffac:	00052023          	sw	zero,0(a0)
   1ffb0:	06050513          	addi	a0,a0,96
   1ffb4:	feb51ce3          	bne	a0,a1,1ffac <jinit_color_deconverter+0x100>
   1ffb8:	2c40006f          	j	2027c <jinit_color_deconverter+0x3d0>
   1ffbc:	00100513          	li	a0,1
   1ffc0:	2ea59c63          	bne	a1,a0,202b8 <jinit_color_deconverter+0x40c>
   1ffc4:	03842583          	lw	a1,56(s0)
   1ffc8:	f6a596e3          	bne	a1,a0,1ff34 <jinit_color_deconverter+0x88>
   1ffcc:	f81ff06f          	j	1ff4c <jinit_color_deconverter+0xa0>
   1ffd0:	03c42503          	lw	a0,60(s0)
   1ffd4:	00300593          	li	a1,3
   1ffd8:	00100613          	li	a2,1
   1ffdc:	08b42823          	sw	a1,144(s0)
   1ffe0:	2ec50263          	beq	a0,a2,202c4 <jinit_color_deconverter+0x418>
   1ffe4:	00200593          	li	a1,2
   1ffe8:	26b50063          	beq	a0,a1,20248 <jinit_color_deconverter+0x39c>
   1ffec:	00300593          	li	a1,3
   1fff0:	26b51a63          	bne	a0,a1,20264 <jinit_color_deconverter+0x3b8>
   1fff4:	ffffa537          	lui	a0,0xffffa
   1fff8:	7e65091b          	addiw	s2,a0,2022 # ffffffffffffa7e6 <__global_pointer$+0xfffffffffffcff2e>
   1fffc:	ffff5537          	lui	a0,0xffff5
   20000:	92e5099b          	addiw	s3,a0,-1746 # ffffffffffff492e <__global_pointer$+0xfffffffffffca076>
   20004:	0001c537          	lui	a0,0x1c
   20008:	00843583          	ld	a1,8(s0)
   2000c:	5a250a1b          	addiw	s4,a0,1442 # 1c5a2 <decompress_onepass+0x16>
   20010:	00016537          	lui	a0,0x16
   20014:	26843b03          	ld	s6,616(s0)
   20018:	0005b683          	ld	a3,0(a1)
   2001c:	6e950a9b          	addiw	s5,a0,1769 # 166e9 <next_marker+0x11>
   20020:	00020537          	lui	a0,0x20
   20024:	30050513          	addi	a0,a0,768 # 20300 <ycc_rgb_convert>
   20028:	00a4b423          	sd	a0,8(s1)
   2002c:	00100593          	li	a1,1
   20030:	40000613          	li	a2,1024
   20034:	00100493          	li	s1,1
   20038:	00040513          	mv	a0,s0
   2003c:	000680e7          	jalr	a3
   20040:	00843583          	ld	a1,8(s0)
   20044:	0005b683          	ld	a3,0(a1)
   20048:	00ab3823          	sd	a0,16(s6)
   2004c:	00100593          	li	a1,1
   20050:	40000613          	li	a2,1024
   20054:	00040513          	mv	a0,s0
   20058:	000680e7          	jalr	a3
   2005c:	00843583          	ld	a1,8(s0)
   20060:	0005b683          	ld	a3,0(a1)
   20064:	00ab3c23          	sd	a0,24(s6)
   20068:	00b49493          	slli	s1,s1,0xb
   2006c:	00100593          	li	a1,1
   20070:	00040513          	mv	a0,s0
   20074:	00048613          	mv	a2,s1
   20078:	000680e7          	jalr	a3
   2007c:	00843583          	ld	a1,8(s0)
   20080:	0005b683          	ld	a3,0(a1)
   20084:	02ab3023          	sd	a0,32(s6)
   20088:	00100593          	li	a1,1
   2008c:	00040513          	mv	a0,s0
   20090:	00048613          	mv	a2,s1
   20094:	000680e7          	jalr	a3
   20098:	02ab3423          	sd	a0,40(s6)
   2009c:	010b3583          	ld	a1,16(s6)
   200a0:	018b3603          	ld	a2,24(s6)
   200a4:	020b3683          	ld	a3,32(s6)
   200a8:	009504b3          	add	s1,a0,s1
   200ac:	002c9737          	lui	a4,0x2c9
   200b0:	d007071b          	addiw	a4,a4,-768 # 2c8d00 <__global_pointer$+0x29e448>
   200b4:	005b77b7          	lui	a5,0x5b7
   200b8:	9007879b          	addiw	a5,a5,-1792 # 5b6900 <__global_pointer$+0x58c048>
   200bc:	ff1db837          	lui	a6,0xff1db
   200c0:	f008081b          	addiw	a6,a6,-256 # ffffffffff1daf00 <__global_pointer$+0xffffffffff1b0648>
   200c4:	ff4d18b7          	lui	a7,0xff4d1
   200c8:	b808889b          	addiw	a7,a7,-1152 # ffffffffff4d0b80 <__global_pointer$+0xffffffffff4a62c8>
   200cc:	0108d293          	srli	t0,a7,0x10
   200d0:	0055a023          	sw	t0,0(a1)
   200d4:	01085293          	srli	t0,a6,0x10
   200d8:	00562023          	sw	t0,0(a2)
   200dc:	00f6b023          	sd	a5,0(a3)
   200e0:	00e53023          	sd	a4,0(a0)
   200e4:	00850513          	addi	a0,a0,8
   200e8:	00868693          	addi	a3,a3,8
   200ec:	00460613          	addi	a2,a2,4
   200f0:	00458593          	addi	a1,a1,4
   200f4:	01270733          	add	a4,a4,s2
   200f8:	013787b3          	add	a5,a5,s3
   200fc:	01480833          	add	a6,a6,s4
   20100:	015888b3          	add	a7,a7,s5
   20104:	fc9514e3          	bne	a0,s1,200cc <jinit_color_deconverter+0x220>
   20108:	1740006f          	j	2027c <jinit_color_deconverter+0x3d0>
   2010c:	03c42503          	lw	a0,60(s0)
   20110:	08b42823          	sw	a1,144(s0)
   20114:	12b50a63          	beq	a0,a1,20248 <jinit_color_deconverter+0x39c>
   20118:	00500593          	li	a1,5
   2011c:	14b51463          	bne	a0,a1,20264 <jinit_color_deconverter+0x3b8>
   20120:	ffffa537          	lui	a0,0xffffa
   20124:	7e65091b          	addiw	s2,a0,2022 # ffffffffffffa7e6 <__global_pointer$+0xfffffffffffcff2e>
   20128:	ffff5537          	lui	a0,0xffff5
   2012c:	92e5099b          	addiw	s3,a0,-1746 # ffffffffffff492e <__global_pointer$+0xfffffffffffca076>
   20130:	0001c537          	lui	a0,0x1c
   20134:	00843583          	ld	a1,8(s0)
   20138:	5a250a1b          	addiw	s4,a0,1442 # 1c5a2 <decompress_onepass+0x16>
   2013c:	00016537          	lui	a0,0x16
   20140:	26843b03          	ld	s6,616(s0)
   20144:	0005b683          	ld	a3,0(a1)
   20148:	6e950a9b          	addiw	s5,a0,1769 # 166e9 <next_marker+0x11>
   2014c:	00020537          	lui	a0,0x20
   20150:	51450513          	addi	a0,a0,1300 # 20514 <ycck_cmyk_convert>
   20154:	00a4b423          	sd	a0,8(s1)
   20158:	00100593          	li	a1,1
   2015c:	40000613          	li	a2,1024
   20160:	00100493          	li	s1,1
   20164:	00040513          	mv	a0,s0
   20168:	000680e7          	jalr	a3
   2016c:	00843583          	ld	a1,8(s0)
   20170:	0005b683          	ld	a3,0(a1)
   20174:	00ab3823          	sd	a0,16(s6)
   20178:	00100593          	li	a1,1
   2017c:	40000613          	li	a2,1024
   20180:	00040513          	mv	a0,s0
   20184:	000680e7          	jalr	a3
   20188:	00843583          	ld	a1,8(s0)
   2018c:	0005b683          	ld	a3,0(a1)
   20190:	00ab3c23          	sd	a0,24(s6)
   20194:	00b49493          	slli	s1,s1,0xb
   20198:	00100593          	li	a1,1
   2019c:	00040513          	mv	a0,s0
   201a0:	00048613          	mv	a2,s1
   201a4:	000680e7          	jalr	a3
   201a8:	00843583          	ld	a1,8(s0)
   201ac:	0005b683          	ld	a3,0(a1)
   201b0:	02ab3023          	sd	a0,32(s6)
   201b4:	00100593          	li	a1,1
   201b8:	00040513          	mv	a0,s0
   201bc:	00048613          	mv	a2,s1
   201c0:	000680e7          	jalr	a3
   201c4:	02ab3423          	sd	a0,40(s6)
   201c8:	010b3583          	ld	a1,16(s6)
   201cc:	018b3603          	ld	a2,24(s6)
   201d0:	020b3683          	ld	a3,32(s6)
   201d4:	009504b3          	add	s1,a0,s1
   201d8:	002c9737          	lui	a4,0x2c9
   201dc:	d007071b          	addiw	a4,a4,-768 # 2c8d00 <__global_pointer$+0x29e448>
   201e0:	005b77b7          	lui	a5,0x5b7
   201e4:	9007879b          	addiw	a5,a5,-1792 # 5b6900 <__global_pointer$+0x58c048>
   201e8:	ff1db837          	lui	a6,0xff1db
   201ec:	f008081b          	addiw	a6,a6,-256 # ffffffffff1daf00 <__global_pointer$+0xffffffffff1b0648>
   201f0:	ff4d18b7          	lui	a7,0xff4d1
   201f4:	b808889b          	addiw	a7,a7,-1152 # ffffffffff4d0b80 <__global_pointer$+0xffffffffff4a62c8>
   201f8:	0108d293          	srli	t0,a7,0x10
   201fc:	0055a023          	sw	t0,0(a1)
   20200:	01085293          	srli	t0,a6,0x10
   20204:	00562023          	sw	t0,0(a2)
   20208:	00f6b023          	sd	a5,0(a3)
   2020c:	00e53023          	sd	a4,0(a0)
   20210:	00850513          	addi	a0,a0,8
   20214:	00868693          	addi	a3,a3,8
   20218:	00460613          	addi	a2,a2,4
   2021c:	00458593          	addi	a1,a1,4
   20220:	01270733          	add	a4,a4,s2
   20224:	013787b3          	add	a5,a5,s3
   20228:	01480833          	add	a6,a6,s4
   2022c:	015888b3          	add	a7,a7,s5
   20230:	fc9514e3          	bne	a0,s1,201f8 <jinit_color_deconverter+0x34c>
   20234:	0480006f          	j	2027c <jinit_color_deconverter+0x3d0>
   20238:	03c42583          	lw	a1,60(s0)
   2023c:	02b51463          	bne	a0,a1,20264 <jinit_color_deconverter+0x3b8>
   20240:	03842503          	lw	a0,56(s0)
   20244:	08a42823          	sw	a0,144(s0)
   20248:	00020537          	lui	a0,0x20
   2024c:	48450513          	addi	a0,a0,1156 # 20484 <null_convert>
   20250:	00a4b423          	sd	a0,8(s1)
   20254:	06c42583          	lw	a1,108(s0)
   20258:	00100513          	li	a0,1
   2025c:	02059863          	bnez	a1,2028c <jinit_color_deconverter+0x3e0>
   20260:	0280006f          	j	20288 <jinit_color_deconverter+0x3dc>
   20264:	00043503          	ld	a0,0(s0)
   20268:	00053583          	ld	a1,0(a0)
   2026c:	01b00613          	li	a2,27
   20270:	02c52423          	sw	a2,40(a0)
   20274:	00040513          	mv	a0,s0
   20278:	000580e7          	jalr	a1
   2027c:	06c42583          	lw	a1,108(s0)
   20280:	00100513          	li	a0,1
   20284:	00059463          	bnez	a1,2028c <jinit_color_deconverter+0x3e0>
   20288:	09042503          	lw	a0,144(s0)
   2028c:	08a42a23          	sw	a0,148(s0)
   20290:	03813083          	ld	ra,56(sp)
   20294:	03013403          	ld	s0,48(sp)
   20298:	02813483          	ld	s1,40(sp)
   2029c:	02013903          	ld	s2,32(sp)
   202a0:	01813983          	ld	s3,24(sp)
   202a4:	01013a03          	ld	s4,16(sp)
   202a8:	00813a83          	ld	s5,8(sp)
   202ac:	00013b03          	ld	s6,0(sp)
   202b0:	04010113          	addi	sp,sp,64
   202b4:	00008067          	ret
   202b8:	03842503          	lw	a0,56(s0)
   202bc:	c8a048e3          	bgtz	a0,1ff4c <jinit_color_deconverter+0xa0>
   202c0:	c75ff06f          	j	1ff34 <jinit_color_deconverter+0x88>
   202c4:	00020537          	lui	a0,0x20
   202c8:	42050513          	addi	a0,a0,1056 # 20420 <gray_rgb_convert>
   202cc:	00a4b423          	sd	a0,8(s1)
   202d0:	06c42583          	lw	a1,108(s0)
   202d4:	00100513          	li	a0,1
   202d8:	fa059ae3          	bnez	a1,2028c <jinit_color_deconverter+0x3e0>
   202dc:	fadff06f          	j	20288 <jinit_color_deconverter+0x3dc>

00000000000202e0 <start_pass_dcolor>:
   202e0:	00008067          	ret

00000000000202e4 <grayscale_convert>:
   202e4:	0005b583          	ld	a1,0(a1)
   202e8:	08852783          	lw	a5,136(a0)
   202ec:	00058513          	mv	a0,a1
   202f0:	00060593          	mv	a1,a2
   202f4:	00068613          	mv	a2,a3
   202f8:	00000693          	li	a3,0
   202fc:	1080406f          	j	24404 <jcopy_sample_rows>

0000000000020300 <ycc_rgb_convert>:
   20300:	10e05e63          	blez	a4,2041c <ycc_rgb_convert+0x11c>
   20304:	08856303          	lwu	t1,136(a0)
   20308:	10030a63          	beqz	t1,2041c <ycc_rgb_convert+0x11c>
   2030c:	26853283          	ld	t0,616(a0)
   20310:	1a853503          	ld	a0,424(a0)
   20314:	0102b783          	ld	a5,16(t0)
   20318:	0182b803          	ld	a6,24(t0)
   2031c:	0202b883          	ld	a7,32(t0)
   20320:	0282b283          	ld	t0,40(t0)
   20324:	00131393          	slli	t2,t1,0x1
   20328:	00638333          	add	t1,t2,t1
   2032c:	00100393          	li	t2,1
   20330:	00070e13          	mv	t3,a4
   20334:	0005b703          	ld	a4,0(a1)
   20338:	02061e93          	slli	t4,a2,0x20
   2033c:	01dedf93          	srli	t6,t4,0x1d
   20340:	0085bf03          	ld	t5,8(a1)
   20344:	01f70733          	add	a4,a4,t6
   20348:	18084323          	regsw_c	zero,390(a6)
   2034c:	0105b083          	ld	ra,16(a1)
   20350:	00073e83          	ld	t4,0(a4)
   20354:	01ff0f33          	add	t5,t5,t6
   20358:	000f3f03          	ld	t5,0(t5)
   2035c:	01f080b3          	add	ra,ra,t6
   20360:	0006bf83          	ld	t6,0(a3)
   20364:	0000b083          	ld	ra,0(ra)
   20368:	fffe071b          	addiw	a4,t3,-1
   2036c:	00160613          	addi	a2,a2,1
   20370:	00084023          	regsw_c	zero,0(a6)
   20374:	006f8133          	add	sp,t6,t1
   20378:	3add4ea3          	regsw_c	a3,957(s10)
   2037c:	0000c183          	lbu	gp,0(ra)
   20380:	000ec203          	lbu	tp,0(t4)
   20384:	00219293          	slli	t0,gp,0x2
   20388:	005782b3          	add	t0,a5,t0
   2038c:	0002a283          	lw	t0,0(t0)
   20390:	004282bb          	addw	t0,t0,tp
   20394:	005502b3          	add	t0,a0,t0
   20398:	563d4b23          	regsw_c	gp,1398(s10)
   2039c:	0002c283          	lbu	t0,0(t0)
   203a0:	000f4303          	lbu	t1,0(t5)
   203a4:	005f8023          	sb	t0,0(t6)
   203a8:	00331293          	slli	t0,t1,0x3
   203ac:	005282b3          	add	t0,t0,t0
   203b0:	0002b283          	ld	t0,0(t0)
   203b4:	00319193          	slli	gp,gp,0x3
   203b8:	5efbc723          	regsw_c	a5,1518(s7)
   203bc:	003881b3          	add	gp,a7,gp
   203c0:	0001b183          	ld	gp,0(gp) # 2a8b8 <__global_pointer$>
   203c4:	005181b3          	add	gp,gp,t0
   203c8:	0101d193          	srli	gp,gp,0x10
   203cc:	004181bb          	addw	gp,gp,tp
   203d0:	003501b3          	add	gp,a0,gp
   203d4:	0001c183          	lbu	gp,0(gp) # 2a8b8 <__global_pointer$>
   203d8:	5eb3c723          	regsw_c	a1,1518(t2)
   203dc:	003f80a3          	sb	gp,1(t6)
   203e0:	00231313          	slli	t1,t1,0x2
   203e4:	00680333          	add	t1,a6,t1
   203e8:	00032183          	lw	gp,0(t1)
   203ec:	004181bb          	addw	gp,gp,tp
   203f0:	003501b3          	add	gp,a0,gp
   203f4:	0001c183          	lbu	gp,0(gp) # 2a8b8 <__global_pointer$>
   203f8:	0003c423          	regsw_c	zero,8(t2)
   203fc:	003f8123          	sb	gp,2(t6)
   20400:	00108093          	addi	ra,ra,1
   20404:	001f0f13          	addi	t5,t5,1
   20408:	003f8f93          	addi	t6,t6,3
   2040c:	001e8e93          	addi	t4,t4,1
   20410:	f62f94e3          	bne	t6,sp,20378 <ycc_rgb_convert+0x78>
   20414:	00868693          	addi	a3,a3,8
   20418:	f1c3cce3          	blt	t2,t3,20330 <ycc_rgb_convert+0x30>
   2041c:	00008067          	ret

0000000000020420 <gray_rgb_convert>:
   20420:	06e05063          	blez	a4,20480 <gray_rgb_convert+0x60>
   20424:	08856503          	lwu	a0,136(a0)
   20428:	04050c63          	beqz	a0,20480 <gray_rgb_convert+0x60>
   2042c:	00100793          	li	a5,1
   20430:	0005b803          	ld	a6,0(a1)
   20434:	02061893          	slli	a7,a2,0x20
   20438:	01d8d893          	srli	a7,a7,0x1d
   2043c:	01180833          	add	a6,a6,a7
   20440:	0006b283          	ld	t0,0(a3)
   20444:	00083883          	ld	a7,0(a6)
   20448:	00070813          	mv	a6,a4
   2044c:	fff7071b          	addiw	a4,a4,-1
   20450:	00228293          	addi	t0,t0,2
   20454:	00a88333          	add	t1,a7,a0
   20458:	0008c383          	lbu	t2,0(a7)
   2045c:	00728023          	sb	t2,0(t0)
   20460:	fe728fa3          	sb	t2,-1(t0)
   20464:	fe728f23          	sb	t2,-2(t0)
   20468:	00188893          	addi	a7,a7,1
   2046c:	00328293          	addi	t0,t0,3
   20470:	fe6894e3          	bne	a7,t1,20458 <gray_rgb_convert+0x38>
   20474:	00160613          	addi	a2,a2,1
   20478:	00868693          	addi	a3,a3,8
   2047c:	fb07cae3          	blt	a5,a6,20430 <gray_rgb_convert+0x10>
   20480:	00008067          	ret

0000000000020484 <null_convert>:
   20484:	08e05663          	blez	a4,20510 <null_convert+0x8c>
   20488:	03852783          	lw	a5,56(a0)
   2048c:	08f05263          	blez	a5,20510 <null_convert+0x8c>
   20490:	08852503          	lw	a0,136(a0)
   20494:	06050e63          	beqz	a0,20510 <null_convert+0x8c>
   20498:	fff50513          	addi	a0,a0,-1
   2049c:	02051513          	slli	a0,a0,0x20
   204a0:	02055513          	srli	a0,a0,0x20
   204a4:	00150513          	addi	a0,a0,1
   204a8:	00100813          	li	a6,1
   204ac:	00000293          	li	t0,0
   204b0:	00070893          	mv	a7,a4
   204b4:	fff7071b          	addiw	a4,a4,-1
   204b8:	02061313          	slli	t1,a2,0x20
   204bc:	02035313          	srli	t1,t1,0x20
   204c0:	00331313          	slli	t1,t1,0x3
   204c4:	00329393          	slli	t2,t0,0x3
   204c8:	007583b3          	add	t2,a1,t2
   204cc:	0003b383          	ld	t2,0(t2)
   204d0:	006383b3          	add	t2,t2,t1
   204d4:	0006be03          	ld	t3,0(a3)
   204d8:	0003be83          	ld	t4,0(t2)
   204dc:	005e03b3          	add	t2,t3,t0
   204e0:	00ae8e33          	add	t3,t4,a0
   204e4:	000ecf03          	lbu	t5,0(t4)
   204e8:	001e8f93          	addi	t6,t4,1
   204ec:	01e38023          	sb	t5,0(t2)
   204f0:	00f383b3          	add	t2,t2,a5
   204f4:	000f8e93          	mv	t4,t6
   204f8:	ffcf96e3          	bne	t6,t3,204e4 <null_convert+0x60>
   204fc:	00128293          	addi	t0,t0,1
   20500:	fcf292e3          	bne	t0,a5,204c4 <null_convert+0x40>
   20504:	00160613          	addi	a2,a2,1
   20508:	00868693          	addi	a3,a3,8
   2050c:	fb1840e3          	blt	a6,a7,204ac <null_convert+0x28>
   20510:	00008067          	ret

0000000000020514 <ycck_cmyk_convert>:
   20514:	12e05e63          	blez	a4,20650 <ycck_cmyk_convert+0x13c>
   20518:	08856303          	lwu	t1,136(a0)
   2051c:	12030a63          	beqz	t1,20650 <ycck_cmyk_convert+0x13c>
   20520:	26853283          	ld	t0,616(a0)
   20524:	1a853503          	ld	a0,424(a0)
   20528:	0102b783          	ld	a5,16(t0)
   2052c:	0182b803          	ld	a6,24(t0)
   20530:	0202b883          	ld	a7,32(t0)
   20534:	0282b283          	ld	t0,40(t0)
   20538:	00231313          	slli	t1,t1,0x2
   2053c:	00100393          	li	t2,1
   20540:	00070e13          	mv	t3,a4
   20544:	0005b703          	ld	a4,0(a1)
   20548:	02061e93          	slli	t4,a2,0x20
   2054c:	00284623          	regsw_c	sp,12(a6)
   20550:	01ded093          	srli	ra,t4,0x1d
   20554:	0085bf03          	ld	t5,8(a1)
   20558:	00170733          	add	a4,a4,ra
   2055c:	00073e83          	ld	t4,0(a4)
   20560:	0105b703          	ld	a4,16(a1)
   20564:	001f0f33          	add	t5,t5,ra
   20568:	0185b103          	ld	sp,24(a1)
   2056c:	000f3f03          	ld	t5,0(t5)
   20570:	18f24023          	regsw_c	a5,384(tp) # 180 <__abi_tag-0x10114>
   20574:	00170733          	add	a4,a4,ra
   20578:	00073f83          	ld	t6,0(a4)
   2057c:	00110133          	add	sp,sp,ra
   20580:	0006b083          	ld	ra,0(a3)
   20584:	00013103          	ld	sp,0(sp)
   20588:	fffe071b          	addiw	a4,t3,-1
   2058c:	00160613          	addi	a2,a2,1
   20590:	000c4023          	regsw_c	zero,0(s8)
   20594:	006081b3          	add	gp,ra,t1
   20598:	3ad94ba3          	regsw_c	a3,951(s2)
   2059c:	000fc203          	lbu	tp,0(t6)
   205a0:	000ec283          	lbu	t0,0(t4)
   205a4:	00221313          	slli	t1,tp,0x2
   205a8:	00678333          	add	t1,a5,t1
   205ac:	00032303          	lw	t1,0(t1)
   205b0:	0ff2c293          	xori	t0,t0,255
   205b4:	4062833b          	subw	t1,t0,t1
   205b8:	7a8bc723          	regsw_c	s0,1966(s7)
   205bc:	00650333          	add	t1,a0,t1
   205c0:	00034303          	lbu	t1,0(t1)
   205c4:	000f4383          	lbu	t2,0(t5)
   205c8:	00608023          	sb	t1,0(ra)
   205cc:	00339313          	slli	t1,t2,0x3
   205d0:	00628333          	add	t1,t0,t1
   205d4:	00033303          	ld	t1,0(t1)
   205d8:	7bdd4ea3          	regsw_c	t4,1981(s10)
   205dc:	00321213          	slli	tp,tp,0x3
   205e0:	00488233          	add	tp,a7,tp
   205e4:	00023203          	ld	tp,0(tp) # 0 <__abi_tag-0x10294>
   205e8:	00620233          	add	tp,tp,t1
   205ec:	01025213          	srli	tp,tp,0x10
   205f0:	4042823b          	subw	tp,t0,tp
   205f4:	00450233          	add	tp,a0,tp
   205f8:	3bdccea3          	regsw_c	t4,957(s9)
   205fc:	00024203          	lbu	tp,0(tp) # 0 <__abi_tag-0x10294>
   20600:	004080a3          	sb	tp,1(ra)
   20604:	00239393          	slli	t2,t2,0x2
   20608:	007803b3          	add	t2,a6,t2
   2060c:	0003a203          	lw	tp,0(t2)
   20610:	4042823b          	subw	tp,t0,tp
   20614:	00450233          	add	tp,a0,tp
   20618:	79ccc023          	regsw_c	t3,1920(s9)
   2061c:	00024203          	lbu	tp,0(tp) # 0 <__abi_tag-0x10294>
   20620:	00408123          	sb	tp,2(ra)
   20624:	00014203          	lbu	tp,0(sp)
   20628:	004081a3          	sb	tp,3(ra)
   2062c:	00110113          	addi	sp,sp,1
   20630:	001f8f93          	addi	t6,t6,1
   20634:	001f0f13          	addi	t5,t5,1
   20638:	006c4023          	regsw_c	t1,0(s8)
   2063c:	00408093          	addi	ra,ra,4
   20640:	001e8e93          	addi	t4,t4,1
   20644:	f4309ae3          	bne	ra,gp,20598 <ycck_cmyk_convert+0x84>
   20648:	00868693          	addi	a3,a3,8
   2064c:	efc3cae3          	blt	t2,t3,20540 <ycck_cmyk_convert+0x2c>
   20650:	00008067          	ret

0000000000020654 <jinit_1pass_quantizer>:
   20654:	fc010113          	addi	sp,sp,-64
   20658:	02113c23          	sd	ra,56(sp)
   2065c:	02813823          	sd	s0,48(sp)
   20660:	02913423          	sd	s1,40(sp)
   20664:	03213023          	sd	s2,32(sp)
   20668:	01313c23          	sd	s3,24(sp)
   2066c:	01413823          	sd	s4,16(sp)
   20670:	01513423          	sd	s5,8(sp)
   20674:	01613023          	sd	s6,0(sp)
   20678:	00050413          	mv	s0,a0
   2067c:	00853503          	ld	a0,8(a0)
   20680:	00053683          	ld	a3,0(a0)
   20684:	00100593          	li	a1,1
   20688:	09800613          	li	a2,152
   2068c:	00100493          	li	s1,1
   20690:	00040513          	mv	a0,s0
   20694:	000680e7          	jalr	a3
   20698:	26a43823          	sd	a0,624(s0)
   2069c:	000215b7          	lui	a1,0x21
   206a0:	ad458593          	addi	a1,a1,-1324 # 20ad4 <start_pass_1_quant>
   206a4:	00b53023          	sd	a1,0(a0)
   206a8:	000215b7          	lui	a1,0x21
   206ac:	f3058593          	addi	a1,a1,-208 # 20f30 <finish_pass_1_quant>
   206b0:	00b53823          	sd	a1,16(a0)
   206b4:	000215b7          	lui	a1,0x21
   206b8:	f3458593          	addi	a1,a1,-204 # 20f34 <new_color_map_1_quant>
   206bc:	09042603          	lw	a2,144(s0)
   206c0:	00b53c23          	sd	a1,24(a0)
   206c4:	06053823          	sd	zero,112(a0)
   206c8:	00500593          	li	a1,5
   206cc:	04053823          	sd	zero,80(a0)
   206d0:	12b65c63          	bge	a2,a1,20808 <jinit_1pass_quantizer+0x1b4>
   206d4:	07842483          	lw	s1,120(s0)
   206d8:	10100513          	li	a0,257
   206dc:	14a4dc63          	bge	s1,a0,20834 <jinit_1pass_quantizer+0x1e0>
   206e0:	09042a83          	lw	s5,144(s0)
   206e4:	00200513          	li	a0,2
   206e8:	18aac063          	blt	s5,a0,20868 <jinit_1pass_quantizer+0x214>
   206ec:	fffa8593          	addi	a1,s5,-1
   206f0:	00100613          	li	a2,1
   206f4:	00060b13          	mv	s6,a2
   206f8:	00160613          	addi	a2,a2,1
   206fc:	00058693          	mv	a3,a1
   20700:	00060513          	mv	a0,a2
   20704:	fff6869b          	addiw	a3,a3,-1
   20708:	02c50533          	mul	a0,a0,a2
   2070c:	fe069ce3          	bnez	a3,20704 <jinit_1pass_quantizer+0xb0>
   20710:	fea4d2e3          	bge	s1,a0,206f4 <jinit_1pass_quantizer+0xa0>
   20714:	27043903          	ld	s2,624(s0)
   20718:	000b059b          	sext.w	a1,s6
   2071c:	00100a13          	li	s4,1
   20720:	02ba6263          	bltu	s4,a1,20744 <jinit_1pass_quantizer+0xf0>
   20724:	00043583          	ld	a1,0(s0)
   20728:	02a5a623          	sw	a0,44(a1)
   2072c:	00043503          	ld	a0,0(s0)
   20730:	00053603          	ld	a2,0(a0)
   20734:	03800513          	li	a0,56
   20738:	02a5a423          	sw	a0,40(a1)
   2073c:	00040513          	mv	a0,s0
   20740:	000600e7          	jalr	a2
   20744:	03c90993          	addi	s3,s2,60
   20748:	09505463          	blez	s5,207d0 <jinit_1pass_quantizer+0x17c>
   2074c:	002a9513          	slli	a0,s5,0x2
   20750:	01250533          	add	a0,a0,s2
   20754:	03c50513          	addi	a0,a0,60
   20758:	00100a13          	li	s4,1
   2075c:	00098593          	mv	a1,s3
   20760:	0165a023          	sw	s6,0(a1)
   20764:	00458593          	addi	a1,a1,4
   20768:	036a0a33          	mul	s4,s4,s6
   2076c:	fea59ae3          	bne	a1,a0,20760 <jinit_1pass_quantizer+0x10c>
   20770:	04042503          	lw	a0,64(s0)
   20774:	ffe50513          	addi	a0,a0,-2
   20778:	00153513          	seqz	a0,a0
   2077c:	00251513          	slli	a0,a0,0x2
   20780:	00a986b3          	add	a3,s3,a0
   20784:	0006a703          	lw	a4,0(a3)
   20788:	02ea453b          	divw	a0,s4,a4
   2078c:	0017071b          	addiw	a4,a4,1
   20790:	02e50633          	mul	a2,a0,a4
   20794:	02c4ce63          	blt	s1,a2,207d0 <jinit_1pass_quantizer+0x17c>
   20798:	00100513          	li	a0,1
   2079c:	28aa9e63          	bne	s5,a0,20a38 <jinit_1pass_quantizer+0x3e4>
   207a0:	00e6a023          	sw	a4,0(a3)
   207a4:	04042503          	lw	a0,64(s0)
   207a8:	ffe50513          	addi	a0,a0,-2
   207ac:	00153513          	seqz	a0,a0
   207b0:	00251513          	slli	a0,a0,0x2
   207b4:	00a986b3          	add	a3,s3,a0
   207b8:	0006a703          	lw	a4,0(a3)
   207bc:	00060a13          	mv	s4,a2
   207c0:	02e6453b          	divw	a0,a2,a4
   207c4:	0017071b          	addiw	a4,a4,1
   207c8:	02e50633          	mul	a2,a0,a4
   207cc:	fcc4dae3          	bge	s1,a2,207a0 <jinit_1pass_quantizer+0x14c>
   207d0:	09042583          	lw	a1,144(s0)
   207d4:	00043503          	ld	a0,0(s0)
   207d8:	00300613          	li	a2,3
   207dc:	03452623          	sw	s4,44(a0)
   207e0:	0ac59663          	bne	a1,a2,2088c <jinit_1pass_quantizer+0x238>
   207e4:	03c92583          	lw	a1,60(s2)
   207e8:	02b52823          	sw	a1,48(a0)
   207ec:	04092583          	lw	a1,64(s2)
   207f0:	02b52a23          	sw	a1,52(a0)
   207f4:	04492583          	lw	a1,68(s2)
   207f8:	02b52c23          	sw	a1,56(a0)
   207fc:	05e00593          	li	a1,94
   20800:	00050613          	mv	a2,a0
   20804:	0900006f          	j	20894 <jinit_1pass_quantizer+0x240>
   20808:	00043503          	ld	a0,0(s0)
   2080c:	02249493          	slli	s1,s1,0x22
   20810:	03748593          	addi	a1,s1,55
   20814:	02b53423          	sd	a1,40(a0)
   20818:	00043503          	ld	a0,0(s0)
   2081c:	00053583          	ld	a1,0(a0)
   20820:	00040513          	mv	a0,s0
   20824:	000580e7          	jalr	a1
   20828:	07842483          	lw	s1,120(s0)
   2082c:	10100513          	li	a0,257
   20830:	eaa4c8e3          	blt	s1,a0,206e0 <jinit_1pass_quantizer+0x8c>
   20834:	00043503          	ld	a0,0(s0)
   20838:	00100593          	li	a1,1
   2083c:	02859593          	slli	a1,a1,0x28
   20840:	03958593          	addi	a1,a1,57
   20844:	02b53423          	sd	a1,40(a0)
   20848:	00043503          	ld	a0,0(s0)
   2084c:	00053583          	ld	a1,0(a0)
   20850:	00040513          	mv	a0,s0
   20854:	000580e7          	jalr	a1
   20858:	07842483          	lw	s1,120(s0)
   2085c:	09042a83          	lw	s5,144(s0)
   20860:	00200513          	li	a0,2
   20864:	e8aad4e3          	bge	s5,a0,206ec <jinit_1pass_quantizer+0x98>
   20868:	00048b13          	mv	s6,s1
   2086c:	00904463          	bgtz	s1,20874 <jinit_1pass_quantizer+0x220>
   20870:	00100b13          	li	s6,1
   20874:	001b0513          	addi	a0,s6,1
   20878:	27043903          	ld	s2,624(s0)
   2087c:	000b059b          	sext.w	a1,s6
   20880:	00100a13          	li	s4,1
   20884:	eaba70e3          	bgeu	s4,a1,20724 <jinit_1pass_quantizer+0xd0>
   20888:	ebdff06f          	j	20744 <jinit_1pass_quantizer+0xf0>
   2088c:	00043603          	ld	a2,0(s0)
   20890:	05f00593          	li	a1,95
   20894:	02b52423          	sw	a1,40(a0)
   20898:	00863603          	ld	a2,8(a2)
   2089c:	00100593          	li	a1,1
   208a0:	00040513          	mv	a0,s0
   208a4:	000600e7          	jalr	a2
   208a8:	00843503          	ld	a0,8(s0)
   208ac:	01053703          	ld	a4,16(a0)
   208b0:	09042683          	lw	a3,144(s0)
   208b4:	000a049b          	sext.w	s1,s4
   208b8:	00100593          	li	a1,1
   208bc:	00040513          	mv	a0,s0
   208c0:	00048613          	mv	a2,s1
   208c4:	000700e7          	jalr	a4
   208c8:	09042703          	lw	a4,144(s0)
   208cc:	0ce05c63          	blez	a4,209a4 <jinit_1pass_quantizer+0x350>
   208d0:	00000593          	li	a1,0
   208d4:	000a0613          	mv	a2,s4
   208d8:	0100006f          	j	208e8 <jinit_1pass_quantizer+0x294>
   208dc:	09042703          	lw	a4,144(s0)
   208e0:	00158593          	addi	a1,a1,1
   208e4:	0ce5d063          	bge	a1,a4,209a4 <jinit_1pass_quantizer+0x350>
   208e8:	00259693          	slli	a3,a1,0x2
   208ec:	00d986b3          	add	a3,s3,a3
   208f0:	0006a683          	lw	a3,0(a3)
   208f4:	00060313          	mv	t1,a2
   208f8:	02d6463b          	divw	a2,a2,a3
   208fc:	fed052e3          	blez	a3,208e0 <jinit_1pass_quantizer+0x28c>
   20900:	08c05863          	blez	a2,20990 <jinit_1pass_quantizer+0x33c>
   20904:	00000713          	li	a4,0
   20908:	00000793          	li	a5,0
   2090c:	fff6881b          	addiw	a6,a3,-1
   20910:	0018589b          	srliw	a7,a6,0x1
   20914:	00359293          	slli	t0,a1,0x3
   20918:	005502b3          	add	t0,a0,t0
   2091c:	0003031b          	sext.w	t1,t1
   20920:	0100006f          	j	20930 <jinit_1pass_quantizer+0x2dc>
   20924:	00170713          	addi	a4,a4,1
   20928:	00c787b3          	add	a5,a5,a2
   2092c:	fad708e3          	beq	a4,a3,208dc <jinit_1pass_quantizer+0x288>
   20930:	02e603bb          	mulw	t2,a2,a4
   20934:	fe93d8e3          	bge	t2,s1,20924 <jinit_1pass_quantizer+0x2d0>
   20938:	00000393          	li	t2,0
   2093c:	02e60e33          	mul	t3,a2,a4
   20940:	01c60e33          	add	t3,a2,t3
   20944:	00871e93          	slli	t4,a4,0x8
   20948:	40ee8eb3          	sub	t4,t4,a4
   2094c:	011e8eb3          	add	t4,t4,a7
   20950:	030edeb3          	divu	t4,t4,a6
   20954:	00078f13          	mv	t5,a5
   20958:	02730fb3          	mul	t6,t1,t2
   2095c:	01fe0fb3          	add	t6,t3,t6
   20960:	00084023          	regsw_c	zero,0(a6)
   20964:	000f0093          	mv	ra,t5
   20968:	49c9c023          	regsw_c	t3,1152(s3)
   2096c:	0002b103          	ld	sp,0(t0)
   20970:	00110133          	add	sp,sp,ra
   20974:	00108093          	addi	ra,ra,1
   20978:	01d10023          	sb	t4,0(sp)
   2097c:	fff096e3          	bne	ra,t6,20968 <jinit_1pass_quantizer+0x314>
   20980:	006f0f33          	add	t5,t5,t1
   20984:	00138393          	addi	t2,t2,1
   20988:	fc9f48e3          	blt	t5,s1,20958 <jinit_1pass_quantizer+0x304>
   2098c:	f99ff06f          	j	20924 <jinit_1pass_quantizer+0x2d0>
   20990:	f49058e3          	blez	s1,208e0 <jinit_1pass_quantizer+0x28c>
   20994:	00000693          	li	a3,0
   20998:	006686bb          	addw	a3,a3,t1
   2099c:	fe96cee3          	blt	a3,s1,20998 <jinit_1pass_quantizer+0x344>
   209a0:	f41ff06f          	j	208e0 <jinit_1pass_quantizer+0x28c>
   209a4:	02a93023          	sd	a0,32(s2)
   209a8:	03492423          	sw	s4,40(s2)
   209ac:	00040513          	mv	a0,s0
   209b0:	598000ef          	jal	20f48 <create_colorindex>
   209b4:	07042503          	lw	a0,112(s0)
   209b8:	00200593          	li	a1,2
   209bc:	04b51a63          	bne	a0,a1,20a10 <jinit_1pass_quantizer+0x3bc>
   209c0:	09042503          	lw	a0,144(s0)
   209c4:	04a05663          	blez	a0,20a10 <jinit_1pass_quantizer+0x3bc>
   209c8:	08842503          	lw	a0,136(s0)
   209cc:	00000913          	li	s2,0
   209d0:	27043583          	ld	a1,624(s0)
   209d4:	00250513          	addi	a0,a0,2
   209d8:	02051513          	slli	a0,a0,0x20
   209dc:	01f55493          	srli	s1,a0,0x1f
   209e0:	07058993          	addi	s3,a1,112
   209e4:	00843503          	ld	a0,8(s0)
   209e8:	00853683          	ld	a3,8(a0)
   209ec:	00100593          	li	a1,1
   209f0:	00040513          	mv	a0,s0
   209f4:	00048613          	mv	a2,s1
   209f8:	000680e7          	jalr	a3
   209fc:	09042583          	lw	a1,144(s0)
   20a00:	00a9b023          	sd	a0,0(s3)
   20a04:	00190913          	addi	s2,s2,1
   20a08:	00898993          	addi	s3,s3,8
   20a0c:	fcb94ce3          	blt	s2,a1,209e4 <jinit_1pass_quantizer+0x390>
   20a10:	03813083          	ld	ra,56(sp)
   20a14:	03013403          	ld	s0,48(sp)
   20a18:	02813483          	ld	s1,40(sp)
   20a1c:	02013903          	ld	s2,32(sp)
   20a20:	01813983          	ld	s3,24(sp)
   20a24:	01013a03          	ld	s4,16(sp)
   20a28:	00813a83          	ld	s5,8(sp)
   20a2c:	00013b03          	ld	s6,0(sp)
   20a30:	04010113          	addi	sp,sp,64
   20a34:	00008067          	ret
   20a38:	fffa8a93          	addi	s5,s5,-1
   20a3c:	00028537          	lui	a0,0x28
   20a40:	2d450513          	addi	a0,a0,724 # 282d4 <select_ncolors.RGB_order+0x4>
   20a44:	00200593          	li	a1,2
   20a48:	0300006f          	j	20a78 <jinit_1pass_quantizer+0x424>
   20a4c:	04042603          	lw	a2,64(s0)
   20a50:	00080a13          	mv	s4,a6
   20a54:	ffe60613          	addi	a2,a2,-2
   20a58:	00163613          	seqz	a2,a2
   20a5c:	00261613          	slli	a2,a2,0x2
   20a60:	00c986b3          	add	a3,s3,a2
   20a64:	0006a703          	lw	a4,0(a3)
   20a68:	02ea463b          	divw	a2,s4,a4
   20a6c:	0017071b          	addiw	a4,a4,1
   20a70:	02e60633          	mul	a2,a2,a4
   20a74:	d4c4cee3          	blt	s1,a2,207d0 <jinit_1pass_quantizer+0x17c>
   20a78:	00e6a023          	sw	a4,0(a3)
   20a7c:	00100693          	li	a3,1
   20a80:	00050713          	mv	a4,a0
   20a84:	000a8793          	mv	a5,s5
   20a88:	00060a13          	mv	s4,a2
   20a8c:	04042603          	lw	a2,64(s0)
   20a90:	00068813          	mv	a6,a3
   20a94:	00b61463          	bne	a2,a1,20a9c <jinit_1pass_quantizer+0x448>
   20a98:	00072803          	lw	a6,0(a4)
   20a9c:	00281813          	slli	a6,a6,0x2
   20aa0:	010988b3          	add	a7,s3,a6
   20aa4:	0008a283          	lw	t0,0(a7)
   20aa8:	025a483b          	divw	a6,s4,t0
   20aac:	0012829b          	addiw	t0,t0,1
   20ab0:	02580833          	mul	a6,a6,t0
   20ab4:	fb04c0e3          	blt	s1,a6,20a54 <jinit_1pass_quantizer+0x400>
   20ab8:	0058a023          	sw	t0,0(a7)
   20abc:	fff78793          	addi	a5,a5,-1
   20ac0:	00470713          	addi	a4,a4,4
   20ac4:	0016869b          	addiw	a3,a3,1
   20ac8:	00080a13          	mv	s4,a6
   20acc:	fc0790e3          	bnez	a5,20a8c <jinit_1pass_quantizer+0x438>
   20ad0:	f7dff06f          	j	20a4c <jinit_1pass_quantizer+0x3f8>

0000000000020ad4 <start_pass_1_quant>:
   20ad4:	fb010113          	addi	sp,sp,-80
   20ad8:	04113423          	sd	ra,72(sp)
   20adc:	04813023          	sd	s0,64(sp)
   20ae0:	02913c23          	sd	s1,56(sp)
   20ae4:	03213823          	sd	s2,48(sp)
   20ae8:	03313423          	sd	s3,40(sp)
   20aec:	03413023          	sd	s4,32(sp)
   20af0:	01513c23          	sd	s5,24(sp)
   20af4:	01613823          	sd	s6,16(sp)
   20af8:	01713423          	sd	s7,8(sp)
   20afc:	00050413          	mv	s0,a0
   20b00:	27053483          	ld	s1,624(a0)
   20b04:	0204b583          	ld	a1,32(s1)
   20b08:	0284a603          	lw	a2,40(s1)
   20b0c:	07052503          	lw	a0,112(a0)
   20b10:	0ab43023          	sd	a1,160(s0)
   20b14:	00200593          	li	a1,2
   20b18:	08c42e23          	sw	a2,156(s0)
   20b1c:	04b50863          	beq	a0,a1,20b6c <start_pass_1_quant+0x98>
   20b20:	00100593          	li	a1,1
   20b24:	02b50063          	beq	a0,a1,20b44 <start_pass_1_quant+0x70>
   20b28:	06051463          	bnez	a0,20b90 <start_pass_1_quant+0xbc>
   20b2c:	09042503          	lw	a0,144(s0)
   20b30:	00300593          	li	a1,3
   20b34:	34b51063          	bne	a0,a1,20e74 <start_pass_1_quant+0x3a0>
   20b38:	00021537          	lui	a0,0x21
   20b3c:	0b450513          	addi	a0,a0,180 # 210b4 <color_quantize3>
   20b40:	33c0006f          	j	20e7c <start_pass_1_quant+0x3a8>
   20b44:	09042503          	lw	a0,144(s0)
   20b48:	00300593          	li	a1,3
   20b4c:	08b50263          	beq	a0,a1,20bd0 <start_pass_1_quant+0xfc>
   20b50:	00021537          	lui	a0,0x21
   20b54:	36c50513          	addi	a0,a0,876 # 2136c <quantize_ord_dither>
   20b58:	0384a583          	lw	a1,56(s1)
   20b5c:	00a4b423          	sd	a0,8(s1)
   20b60:	0404a623          	sw	zero,76(s1)
   20b64:	08059663          	bnez	a1,20bf0 <start_pass_1_quant+0x11c>
   20b68:	0800006f          	j	20be8 <start_pass_1_quant+0x114>
   20b6c:	0704b503          	ld	a0,112(s1)
   20b70:	000215b7          	lui	a1,0x21
   20b74:	52c58593          	addi	a1,a1,1324 # 2152c <quantize_fs_dither>
   20b78:	00b4b423          	sd	a1,8(s1)
   20b7c:	0804a823          	sw	zero,144(s1)
   20b80:	07048913          	addi	s2,s1,112
   20b84:	30050063          	beqz	a0,20e84 <start_pass_1_quant+0x3b0>
   20b88:	09042583          	lw	a1,144(s0)
   20b8c:	3440006f          	j	20ed0 <start_pass_1_quant+0x3fc>
   20b90:	00043503          	ld	a0,0(s0)
   20b94:	00053303          	ld	t1,0(a0)
   20b98:	03000593          	li	a1,48
   20b9c:	02b52423          	sw	a1,40(a0)
   20ba0:	00040513          	mv	a0,s0
   20ba4:	04813083          	ld	ra,72(sp)
   20ba8:	04013403          	ld	s0,64(sp)
   20bac:	03813483          	ld	s1,56(sp)
   20bb0:	03013903          	ld	s2,48(sp)
   20bb4:	02813983          	ld	s3,40(sp)
   20bb8:	02013a03          	ld	s4,32(sp)
   20bbc:	01813a83          	ld	s5,24(sp)
   20bc0:	01013b03          	ld	s6,16(sp)
   20bc4:	00813b83          	ld	s7,8(sp)
   20bc8:	05010113          	addi	sp,sp,80
   20bcc:	00030067          	jr	t1
   20bd0:	00021537          	lui	a0,0x21
   20bd4:	24450513          	addi	a0,a0,580 # 21244 <quantize3_ord_dither>
   20bd8:	0384a583          	lw	a1,56(s1)
   20bdc:	00a4b423          	sd	a0,8(s1)
   20be0:	0404a623          	sw	zero,76(s1)
   20be4:	00059663          	bnez	a1,20bf0 <start_pass_1_quant+0x11c>
   20be8:	00040513          	mv	a0,s0
   20bec:	35c000ef          	jal	20f48 <create_colorindex>
   20bf0:	0504b503          	ld	a0,80(s1)
   20bf4:	30051863          	bnez	a0,20f04 <start_pass_1_quant+0x430>
   20bf8:	09042583          	lw	a1,144(s0)
   20bfc:	30b05463          	blez	a1,20f04 <start_pass_1_quant+0x430>
   20c00:	27043503          	ld	a0,624(s0)
   20c04:	00000493          	li	s1,0
   20c08:	03c50913          	addi	s2,a0,60
   20c0c:	05050993          	addi	s3,a0,80
   20c10:	00028537          	lui	a0,0x28
   20c14:	1d050513          	addi	a0,a0,464 # 281d0 <base_dither_matrix>
   20c18:	00750a13          	addi	s4,a0,7
   20c1c:	0ff00a93          	li	s5,255
   20c20:	10750b13          	addi	s6,a0,263
   20c24:	0200006f          	j	20c44 <start_pass_1_quant+0x170>
   20c28:	00063503          	ld	a0,0(a2)
   20c2c:	04050663          	beqz	a0,20c78 <start_pass_1_quant+0x1a4>
   20c30:	00349613          	slli	a2,s1,0x3
   20c34:	00c98633          	add	a2,s3,a2
   20c38:	00148493          	addi	s1,s1,1
   20c3c:	00a63023          	sd	a0,0(a2)
   20c40:	2cb4d263          	bge	s1,a1,20f04 <start_pass_1_quant+0x430>
   20c44:	00249513          	slli	a0,s1,0x2
   20c48:	00a90533          	add	a0,s2,a0
   20c4c:	00052b83          	lw	s7,0(a0)
   20c50:	00048513          	mv	a0,s1
   20c54:	00090693          	mv	a3,s2
   20c58:	00098613          	mv	a2,s3
   20c5c:	00048e63          	beqz	s1,20c78 <start_pass_1_quant+0x1a4>
   20c60:	0006a703          	lw	a4,0(a3)
   20c64:	fceb82e3          	beq	s7,a4,20c28 <start_pass_1_quant+0x154>
   20c68:	00860613          	addi	a2,a2,8
   20c6c:	fff50513          	addi	a0,a0,-1
   20c70:	00468693          	addi	a3,a3,4
   20c74:	fe0516e3          	bnez	a0,20c60 <start_pass_1_quant+0x18c>
   20c78:	00843503          	ld	a0,8(s0)
   20c7c:	00053683          	ld	a3,0(a0)
   20c80:	00100593          	li	a1,1
   20c84:	40000613          	li	a2,1024
   20c88:	00040513          	mv	a0,s0
   20c8c:	000680e7          	jalr	a3
   20c90:	009b9b93          	slli	s7,s7,0x9
   20c94:	e00b8593          	addi	a1,s7,-512
   20c98:	02050613          	addi	a2,a0,32
   20c9c:	000a0693          	mv	a3,s4
   20ca0:	ff96c703          	lbu	a4,-7(a3)
   20ca4:	00171713          	slli	a4,a4,0x1
   20ca8:	40ea8733          	sub	a4,s5,a4
   20cac:	00871793          	slli	a5,a4,0x8
   20cb0:	40e787b3          	sub	a5,a5,a4
   20cb4:	02b7c733          	div	a4,a5,a1
   20cb8:	fee62023          	sw	a4,-32(a2)
   20cbc:	ffa6c703          	lbu	a4,-6(a3)
   20cc0:	00171713          	slli	a4,a4,0x1
   20cc4:	40ea8733          	sub	a4,s5,a4
   20cc8:	00871793          	slli	a5,a4,0x8
   20ccc:	40e787b3          	sub	a5,a5,a4
   20cd0:	02b7c733          	div	a4,a5,a1
   20cd4:	fee62223          	sw	a4,-28(a2)
   20cd8:	ffb6c703          	lbu	a4,-5(a3)
   20cdc:	00171713          	slli	a4,a4,0x1
   20ce0:	40ea8733          	sub	a4,s5,a4
   20ce4:	00871793          	slli	a5,a4,0x8
   20ce8:	40e787b3          	sub	a5,a5,a4
   20cec:	02b7c733          	div	a4,a5,a1
   20cf0:	fee62423          	sw	a4,-24(a2)
   20cf4:	ffc6c703          	lbu	a4,-4(a3)
   20cf8:	00171713          	slli	a4,a4,0x1
   20cfc:	40ea8733          	sub	a4,s5,a4
   20d00:	00871793          	slli	a5,a4,0x8
   20d04:	40e787b3          	sub	a5,a5,a4
   20d08:	02b7c733          	div	a4,a5,a1
   20d0c:	fee62623          	sw	a4,-20(a2)
   20d10:	ffd6c703          	lbu	a4,-3(a3)
   20d14:	00171713          	slli	a4,a4,0x1
   20d18:	40ea8733          	sub	a4,s5,a4
   20d1c:	00871793          	slli	a5,a4,0x8
   20d20:	40e787b3          	sub	a5,a5,a4
   20d24:	02b7c733          	div	a4,a5,a1
   20d28:	fee62823          	sw	a4,-16(a2)
   20d2c:	ffe6c703          	lbu	a4,-2(a3)
   20d30:	00171713          	slli	a4,a4,0x1
   20d34:	40ea8733          	sub	a4,s5,a4
   20d38:	00871793          	slli	a5,a4,0x8
   20d3c:	40e787b3          	sub	a5,a5,a4
   20d40:	02b7c733          	div	a4,a5,a1
   20d44:	fee62a23          	sw	a4,-12(a2)
   20d48:	fff6c703          	lbu	a4,-1(a3)
   20d4c:	00171713          	slli	a4,a4,0x1
   20d50:	40ea8733          	sub	a4,s5,a4
   20d54:	00871793          	slli	a5,a4,0x8
   20d58:	40e787b3          	sub	a5,a5,a4
   20d5c:	02b7c733          	div	a4,a5,a1
   20d60:	fee62c23          	sw	a4,-8(a2)
   20d64:	0006c703          	lbu	a4,0(a3)
   20d68:	00171713          	slli	a4,a4,0x1
   20d6c:	40ea8733          	sub	a4,s5,a4
   20d70:	00871793          	slli	a5,a4,0x8
   20d74:	40e787b3          	sub	a5,a5,a4
   20d78:	02b7c733          	div	a4,a5,a1
   20d7c:	fee62e23          	sw	a4,-4(a2)
   20d80:	0016c703          	lbu	a4,1(a3)
   20d84:	00171713          	slli	a4,a4,0x1
   20d88:	40ea8733          	sub	a4,s5,a4
   20d8c:	00871793          	slli	a5,a4,0x8
   20d90:	40e787b3          	sub	a5,a5,a4
   20d94:	02b7c733          	div	a4,a5,a1
   20d98:	00e62023          	sw	a4,0(a2)
   20d9c:	0026c703          	lbu	a4,2(a3)
   20da0:	00171713          	slli	a4,a4,0x1
   20da4:	40ea8733          	sub	a4,s5,a4
   20da8:	00871793          	slli	a5,a4,0x8
   20dac:	40e787b3          	sub	a5,a5,a4
   20db0:	02b7c733          	div	a4,a5,a1
   20db4:	00e62223          	sw	a4,4(a2)
   20db8:	0036c703          	lbu	a4,3(a3)
   20dbc:	00171713          	slli	a4,a4,0x1
   20dc0:	40ea8733          	sub	a4,s5,a4
   20dc4:	00871793          	slli	a5,a4,0x8
   20dc8:	40e787b3          	sub	a5,a5,a4
   20dcc:	02b7c733          	div	a4,a5,a1
   20dd0:	00e62423          	sw	a4,8(a2)
   20dd4:	0046c703          	lbu	a4,4(a3)
   20dd8:	00171713          	slli	a4,a4,0x1
   20ddc:	40ea8733          	sub	a4,s5,a4
   20de0:	00871793          	slli	a5,a4,0x8
   20de4:	40e787b3          	sub	a5,a5,a4
   20de8:	02b7c733          	div	a4,a5,a1
   20dec:	00e62623          	sw	a4,12(a2)
   20df0:	0056c703          	lbu	a4,5(a3)
   20df4:	00171713          	slli	a4,a4,0x1
   20df8:	40ea8733          	sub	a4,s5,a4
   20dfc:	00871793          	slli	a5,a4,0x8
   20e00:	40e787b3          	sub	a5,a5,a4
   20e04:	02b7c733          	div	a4,a5,a1
   20e08:	00e62823          	sw	a4,16(a2)
   20e0c:	0066c703          	lbu	a4,6(a3)
   20e10:	00171713          	slli	a4,a4,0x1
   20e14:	40ea8733          	sub	a4,s5,a4
   20e18:	00871793          	slli	a5,a4,0x8
   20e1c:	40e787b3          	sub	a5,a5,a4
   20e20:	02b7c733          	div	a4,a5,a1
   20e24:	00e62a23          	sw	a4,20(a2)
   20e28:	0076c703          	lbu	a4,7(a3)
   20e2c:	00171713          	slli	a4,a4,0x1
   20e30:	40ea8733          	sub	a4,s5,a4
   20e34:	00871793          	slli	a5,a4,0x8
   20e38:	40e787b3          	sub	a5,a5,a4
   20e3c:	02b7c733          	div	a4,a5,a1
   20e40:	00e62c23          	sw	a4,24(a2)
   20e44:	0086c703          	lbu	a4,8(a3)
   20e48:	00171713          	slli	a4,a4,0x1
   20e4c:	40ea8733          	sub	a4,s5,a4
   20e50:	00871793          	slli	a5,a4,0x8
   20e54:	40e787b3          	sub	a5,a5,a4
   20e58:	02b7c733          	div	a4,a5,a1
   20e5c:	00e62e23          	sw	a4,28(a2)
   20e60:	01068693          	addi	a3,a3,16
   20e64:	04060613          	addi	a2,a2,64
   20e68:	e3669ce3          	bne	a3,s6,20ca0 <start_pass_1_quant+0x1cc>
   20e6c:	09042583          	lw	a1,144(s0)
   20e70:	dc1ff06f          	j	20c30 <start_pass_1_quant+0x15c>
   20e74:	00021537          	lui	a0,0x21
   20e78:	14c50513          	addi	a0,a0,332 # 2114c <color_quantize>
   20e7c:	00a4b423          	sd	a0,8(s1)
   20e80:	0840006f          	j	20f04 <start_pass_1_quant+0x430>
   20e84:	09042503          	lw	a0,144(s0)
   20e88:	06a05e63          	blez	a0,20f04 <start_pass_1_quant+0x430>
   20e8c:	08842503          	lw	a0,136(s0)
   20e90:	00000993          	li	s3,0
   20e94:	00250513          	addi	a0,a0,2
   20e98:	02051513          	slli	a0,a0,0x20
   20e9c:	01f55493          	srli	s1,a0,0x1f
   20ea0:	00090a13          	mv	s4,s2
   20ea4:	00843503          	ld	a0,8(s0)
   20ea8:	00853683          	ld	a3,8(a0)
   20eac:	00100593          	li	a1,1
   20eb0:	00040513          	mv	a0,s0
   20eb4:	00048613          	mv	a2,s1
   20eb8:	000680e7          	jalr	a3
   20ebc:	09042583          	lw	a1,144(s0)
   20ec0:	00aa3023          	sd	a0,0(s4)
   20ec4:	00198993          	addi	s3,s3,1
   20ec8:	008a0a13          	addi	s4,s4,8
   20ecc:	fcb9cce3          	blt	s3,a1,20ea4 <start_pass_1_quant+0x3d0>
   20ed0:	02b05a63          	blez	a1,20f04 <start_pass_1_quant+0x430>
   20ed4:	08842503          	lw	a0,136(s0)
   20ed8:	00000993          	li	s3,0
   20edc:	00250513          	addi	a0,a0,2
   20ee0:	02051513          	slli	a0,a0,0x20
   20ee4:	01f55493          	srli	s1,a0,0x1f
   20ee8:	00093503          	ld	a0,0(s2)
   20eec:	00048593          	mv	a1,s1
   20ef0:	5b8030ef          	jal	244a8 <jzero_far>
   20ef4:	09042503          	lw	a0,144(s0)
   20ef8:	00198993          	addi	s3,s3,1
   20efc:	00890913          	addi	s2,s2,8
   20f00:	fea9c4e3          	blt	s3,a0,20ee8 <start_pass_1_quant+0x414>
   20f04:	04813083          	ld	ra,72(sp)
   20f08:	04013403          	ld	s0,64(sp)
   20f0c:	03813483          	ld	s1,56(sp)
   20f10:	03013903          	ld	s2,48(sp)
   20f14:	02813983          	ld	s3,40(sp)
   20f18:	02013a03          	ld	s4,32(sp)
   20f1c:	01813a83          	ld	s5,24(sp)
   20f20:	01013b03          	ld	s6,16(sp)
   20f24:	00813b83          	ld	s7,8(sp)
   20f28:	05010113          	addi	sp,sp,80
   20f2c:	00008067          	ret

0000000000020f30 <finish_pass_1_quant>:
   20f30:	00008067          	ret

0000000000020f34 <new_color_map_1_quant>:
   20f34:	00053583          	ld	a1,0(a0)
   20f38:	0005b303          	ld	t1,0(a1)
   20f3c:	02e00613          	li	a2,46
   20f40:	02c5a423          	sw	a2,40(a1)
   20f44:	00030067          	jr	t1

0000000000020f48 <create_colorindex>:
   20f48:	fe010113          	addi	sp,sp,-32
   20f4c:	00113c23          	sd	ra,24(sp)
   20f50:	00813823          	sd	s0,16(sp)
   20f54:	00913423          	sd	s1,8(sp)
   20f58:	01213023          	sd	s2,0(sp)
   20f5c:	00050413          	mv	s0,a0
   20f60:	07052483          	lw	s1,112(a0)
   20f64:	27053903          	ld	s2,624(a0)
   20f68:	fff48513          	addi	a0,s1,-1
   20f6c:	00153513          	seqz	a0,a0
   20f70:	02a92c23          	sw	a0,56(s2)
   20f74:	00843503          	ld	a0,8(s0)
   20f78:	01053703          	ld	a4,16(a0)
   20f7c:	09042683          	lw	a3,144(s0)
   20f80:	00100513          	li	a0,1
   20f84:	2fe00613          	li	a2,766
   20f88:	00a48463          	beq	s1,a0,20f90 <create_colorindex+0x48>
   20f8c:	10000613          	li	a2,256
   20f90:	00100593          	li	a1,1
   20f94:	00040513          	mv	a0,s0
   20f98:	000700e7          	jalr	a4
   20f9c:	09042583          	lw	a1,144(s0)
   20fa0:	02a93823          	sd	a0,48(s2)
   20fa4:	0eb05c63          	blez	a1,2109c <create_colorindex+0x154>
   20fa8:	00000513          	li	a0,0
   20fac:	02892583          	lw	a1,40(s2)
   20fb0:	03c90613          	addi	a2,s2,60
   20fb4:	00100693          	li	a3,1
   20fb8:	1fe00713          	li	a4,510
   20fbc:	10000793          	li	a5,256
   20fc0:	f0100813          	li	a6,-255
   20fc4:	0100006f          	j	20fd4 <create_colorindex+0x8c>
   20fc8:	09042883          	lw	a7,144(s0)
   20fcc:	00150513          	addi	a0,a0,1
   20fd0:	0d155663          	bge	a0,a7,2109c <create_colorindex+0x154>
   20fd4:	00251893          	slli	a7,a0,0x2
   20fd8:	011608b3          	add	a7,a2,a7
   20fdc:	0008a383          	lw	t2,0(a7)
   20fe0:	03093e03          	ld	t3,48(s2)
   20fe4:	00351893          	slli	a7,a0,0x3
   20fe8:	00d49c63          	bne	s1,a3,21000 <create_colorindex+0xb8>
   20fec:	011e0e33          	add	t3,t3,a7
   20ff0:	000e3283          	ld	t0,0(t3)
   20ff4:	0ff28293          	addi	t0,t0,255
   20ff8:	005e3023          	sd	t0,0(t3)
   20ffc:	03093e03          	ld	t3,48(s2)
   21000:	00000293          	li	t0,0
   21004:	00000313          	li	t1,0
   21008:	0275c5bb          	divw	a1,a1,t2
   2100c:	011e08b3          	add	a7,t3,a7
   21010:	0008b883          	ld	a7,0(a7)
   21014:	fff38e1b          	addiw	t3,t2,-1
   21018:	0ffe0e93          	addi	t4,t3,255
   2101c:	001e139b          	slliw	t2,t3,0x1
   21020:	027eceb3          	div	t4,t4,t2
   21024:	2fde0e13          	addi	t3,t3,765
   21028:	0180006f          	j	21040 <create_colorindex+0xf8>
   2102c:	02b30f33          	mul	t5,t1,a1
   21030:	00588fb3          	add	t6,a7,t0
   21034:	00128293          	addi	t0,t0,1
   21038:	01ef8023          	sb	t5,0(t6)
   2103c:	02f28663          	beq	t0,a5,21068 <create_colorindex+0x120>
   21040:	000e8f1b          	sext.w	t5,t4
   21044:	fe5f54e3          	bge	t5,t0,2102c <create_colorindex+0xe4>
   21048:	02e30f33          	mul	t5,t1,a4
   2104c:	01ee0f33          	add	t5,t3,t5
   21050:	027f4eb3          	div	t4,t5,t2
   21054:	000e8f9b          	sext.w	t6,t4
   21058:	0013031b          	addiw	t1,t1,1
   2105c:	1fef0f13          	addi	t5,t5,510
   21060:	fe5fc8e3          	blt	t6,t0,21050 <create_colorindex+0x108>
   21064:	fc9ff06f          	j	2102c <create_colorindex+0xe4>
   21068:	f6d490e3          	bne	s1,a3,20fc8 <create_colorindex+0x80>
   2106c:	0008c283          	lbu	t0,0(a7)
   21070:	00000313          	li	t1,0
   21074:	10088393          	addi	t2,a7,256
   21078:	fff88e13          	addi	t3,a7,-1
   2107c:	006e0eb3          	add	t4,t3,t1
   21080:	005e8023          	sb	t0,0(t4)
   21084:	0ff8ce83          	lbu	t4,255(a7)
   21088:	01d38023          	sb	t4,0(t2)
   2108c:	fff30313          	addi	t1,t1,-1
   21090:	00138393          	addi	t2,t2,1
   21094:	ff0314e3          	bne	t1,a6,2107c <create_colorindex+0x134>
   21098:	f31ff06f          	j	20fc8 <create_colorindex+0x80>
   2109c:	01813083          	ld	ra,24(sp)
   210a0:	01013403          	ld	s0,16(sp)
   210a4:	00813483          	ld	s1,8(sp)
   210a8:	00013903          	ld	s2,0(sp)
   210ac:	02010113          	addi	sp,sp,32
   210b0:	00008067          	ret

00000000000210b4 <color_quantize3>:
   210b4:	08d05a63          	blez	a3,21148 <color_quantize3+0x94>
   210b8:	08852883          	lw	a7,136(a0)
   210bc:	08088663          	beqz	a7,21148 <color_quantize3+0x94>
   210c0:	27053503          	ld	a0,624(a0)
   210c4:	03053803          	ld	a6,48(a0)
   210c8:	00000513          	li	a0,0
   210cc:	00083703          	ld	a4,0(a6)
   210d0:	00883783          	ld	a5,8(a6)
   210d4:	01083803          	ld	a6,16(a6)
   210d8:	fff88893          	addi	a7,a7,-1
   210dc:	02089893          	slli	a7,a7,0x20
   210e0:	0208d893          	srli	a7,a7,0x20
   210e4:	00188893          	addi	a7,a7,1
   210e8:	00351293          	slli	t0,a0,0x3
   210ec:	00558333          	add	t1,a1,t0
   210f0:	005602b3          	add	t0,a2,t0
   210f4:	0002b383          	ld	t2,0(t0)
   210f8:	00033283          	ld	t0,0(t1)
   210fc:	01138333          	add	t1,t2,a7
   21100:	0002ce03          	lbu	t3,0(t0)
   21104:	0012ce83          	lbu	t4,1(t0)
   21108:	01c70e33          	add	t3,a4,t3
   2110c:	0022cf03          	lbu	t5,2(t0)
   21110:	000e4e03          	lbu	t3,0(t3)
   21114:	01d78eb3          	add	t4,a5,t4
   21118:	000ece83          	lbu	t4,0(t4)
   2111c:	01e80f33          	add	t5,a6,t5
   21120:	000f4f03          	lbu	t5,0(t5)
   21124:	01ce8e33          	add	t3,t4,t3
   21128:	01ee0e33          	add	t3,t3,t5
   2112c:	00138e93          	addi	t4,t2,1
   21130:	01c38023          	sb	t3,0(t2)
   21134:	00328293          	addi	t0,t0,3
   21138:	000e8393          	mv	t2,t4
   2113c:	fc6e92e3          	bne	t4,t1,21100 <color_quantize3+0x4c>
   21140:	00150513          	addi	a0,a0,1
   21144:	fad512e3          	bne	a0,a3,210e8 <color_quantize3+0x34>
   21148:	00008067          	ret

000000000002114c <color_quantize>:
   2114c:	0ed05a63          	blez	a3,21240 <color_quantize+0xf4>
   21150:	fe010113          	addi	sp,sp,-32
   21154:	00113c23          	sd	ra,24(sp)
   21158:	00813823          	sd	s0,16(sp)
   2115c:	00913423          	sd	s1,8(sp)
   21160:	01213023          	sd	s2,0(sp)
   21164:	08856483          	lwu	s1,136(a0)
   21168:	0c048263          	beqz	s1,2122c <color_quantize+0xe0>
   2116c:	00060413          	mv	s0,a2
   21170:	09052603          	lw	a2,144(a0)
   21174:	08c05c63          	blez	a2,2120c <color_quantize+0xc0>
   21178:	27053503          	ld	a0,624(a0)
   2117c:	03053503          	ld	a0,48(a0)
   21180:	00000713          	li	a4,0
   21184:	00371813          	slli	a6,a4,0x3
   21188:	010587b3          	add	a5,a1,a6
   2118c:	0007b783          	ld	a5,0(a5)
   21190:	01040833          	add	a6,s0,a6
   21194:	00083283          	ld	t0,0(a6)
   21198:	00000813          	li	a6,0
   2119c:	00048893          	mv	a7,s1
   211a0:	00078313          	mv	t1,a5
   211a4:	00000393          	li	t2,0
   211a8:	03060e33          	mul	t3,a2,a6
   211ac:	01c60e33          	add	t3,a2,t3
   211b0:	01c78e33          	add	t3,a5,t3
   211b4:	00050e93          	mv	t4,a0
   211b8:	00030f13          	mv	t5,t1
   211bc:	000ebf83          	ld	t6,0(t4)
   211c0:	01184123          	regsw_c	a7,2(a6)
   211c4:	000f4083          	lbu	ra,0(t5)
   211c8:	001f8fb3          	add	t6,t6,ra
   211cc:	000fcf83          	lbu	t6,0(t6)
   211d0:	001f0093          	addi	ra,t5,1
   211d4:	01f383b3          	add	t2,t2,t6
   211d8:	008e8e93          	addi	t4,t4,8
   211dc:	00008f13          	mv	t5,ra
   211e0:	00044023          	regsw_c	zero,0(s0)
   211e4:	fdc09ce3          	bne	ra,t3,211bc <color_quantize+0x70>
   211e8:	00c30333          	add	t1,t1,a2
   211ec:	00728023          	sb	t2,0(t0)
   211f0:	00128293          	addi	t0,t0,1
   211f4:	fff8889b          	addiw	a7,a7,-1
   211f8:	00180813          	addi	a6,a6,1
   211fc:	fa0894e3          	bnez	a7,211a4 <color_quantize+0x58>
   21200:	00170713          	addi	a4,a4,1
   21204:	f8d710e3          	bne	a4,a3,21184 <color_quantize+0x38>
   21208:	0240006f          	j	2122c <color_quantize+0xe0>
   2120c:	00369693          	slli	a3,a3,0x3
   21210:	00d40933          	add	s2,s0,a3
   21214:	00043503          	ld	a0,0(s0)
   21218:	00000593          	li	a1,0
   2121c:	00048613          	mv	a2,s1
   21220:	a31ef0ef          	jal	10c50 <memset@plt>
   21224:	00840413          	addi	s0,s0,8
   21228:	ff2416e3          	bne	s0,s2,21214 <color_quantize+0xc8>
   2122c:	01813083          	ld	ra,24(sp)
   21230:	01013403          	ld	s0,16(sp)
   21234:	00813483          	ld	s1,8(sp)
   21238:	00013903          	ld	s2,0(sp)
   2123c:	02010113          	addi	sp,sp,32
   21240:	00008067          	ret

0000000000021244 <quantize3_ord_dither>:
   21244:	10d05463          	blez	a3,2134c <quantize3_ord_dither+0x108>
   21248:	08852303          	lw	t1,136(a0)
   2124c:	27053503          	ld	a0,624(a0)
   21250:	10030063          	beqz	t1,21350 <quantize3_ord_dither+0x10c>
   21254:	03053883          	ld	a7,48(a0)
   21258:	00000713          	li	a4,0
   2125c:	0008b783          	ld	a5,0(a7)
   21260:	0088b803          	ld	a6,8(a7)
   21264:	0108b883          	ld	a7,16(a7)
   21268:	04c52283          	lw	t0,76(a0)
   2126c:	fff30313          	addi	t1,t1,-1
   21270:	02031313          	slli	t1,t1,0x20
   21274:	02035313          	srli	t1,t1,0x20
   21278:	00130313          	addi	t1,t1,1
   2127c:	00000393          	li	t2,0
   21280:	00371e93          	slli	t4,a4,0x3
   21284:	01d58e33          	add	t3,a1,t4
   21288:	000e3e03          	ld	t3,0(t3)
   2128c:	01d60eb3          	add	t4,a2,t4
   21290:	000ebf83          	ld	t6,0(t4)
   21294:	05053e83          	ld	t4,80(a0)
   21298:	05853f03          	ld	t5,88(a0)
   2129c:	3e294023          	regsw_c	sp,992(s2)
   212a0:	06053083          	ld	ra,96(a0)
   212a4:	00629113          	slli	sp,t0,0x6
   212a8:	002e8eb3          	add	t4,t4,sp
   212ac:	002f0f33          	add	t5,t5,sp
   212b0:	002080b3          	add	ra,ra,sp
   212b4:	006f8133          	add	sp,t6,t1
   212b8:	5eb94723          	regsw_c	a1,1518(s2)
   212bc:	000e4183          	lbu	gp,0(t3)
   212c0:	00239213          	slli	tp,t2,0x2
   212c4:	004e82b3          	add	t0,t4,tp
   212c8:	0002a283          	lw	t0,0(t0)
   212cc:	003281bb          	addw	gp,t0,gp
   212d0:	003781b3          	add	gp,a5,gp
   212d4:	0001c183          	lbu	gp,0(gp) # 2a8b8 <__global_pointer$>
   212d8:	1fd94ba3          	regsw_c	t4,503(s2)
   212dc:	001e4283          	lbu	t0,1(t3)
   212e0:	004f0333          	add	t1,t5,tp
   212e4:	00032303          	lw	t1,0(t1)
   212e8:	002e4383          	lbu	t2,2(t3)
   212ec:	00408233          	add	tp,ra,tp
   212f0:	00022203          	lw	tp,0(tp) # 0 <__abi_tag-0x10294>
   212f4:	005302bb          	addw	t0,t1,t0
   212f8:	3afbcfa3          	regsw_c	a5,959(s7)
   212fc:	005802b3          	add	t0,a6,t0
   21300:	0002c283          	lbu	t0,0(t0)
   21304:	0072023b          	addw	tp,tp,t2
   21308:	00488233          	add	tp,a7,tp
   2130c:	00024203          	lbu	tp,0(tp) # 0 <__abi_tag-0x10294>
   21310:	003281b3          	add	gp,t0,gp
   21314:	004181b3          	add	gp,gp,tp
   21318:	010849a3          	regsw_c	a6,19(a6)
   2131c:	001f8213          	addi	tp,t6,1
   21320:	003f8023          	sb	gp,0(t6)
   21324:	00138393          	addi	t2,t2,1
   21328:	00f3f393          	andi	t2,t2,15
   2132c:	003e0e13          	addi	t3,t3,3
   21330:	00020f93          	mv	t6,tp
   21334:	f82212e3          	bne	tp,sp,212b8 <quantize3_ord_dither+0x74>
   21338:	00128293          	addi	t0,t0,1
   2133c:	00f2f293          	andi	t0,t0,15
   21340:	00170713          	addi	a4,a4,1
   21344:	04552623          	sw	t0,76(a0)
   21348:	f2d71ae3          	bne	a4,a3,2127c <quantize3_ord_dither+0x38>
   2134c:	00008067          	ret
   21350:	04c52583          	lw	a1,76(a0)
   21354:	00158593          	addi	a1,a1,1
   21358:	fff6869b          	addiw	a3,a3,-1
   2135c:	00f5f593          	andi	a1,a1,15
   21360:	fe069ae3          	bnez	a3,21354 <quantize3_ord_dither+0x110>
   21364:	04b52623          	sw	a1,76(a0)
   21368:	00008067          	ret

000000000002136c <quantize_ord_dither>:
   2136c:	1ad05e63          	blez	a3,21528 <quantize_ord_dither+0x1bc>
   21370:	fa010113          	addi	sp,sp,-96
   21374:	04113c23          	sd	ra,88(sp)
   21378:	04813823          	sd	s0,80(sp)
   2137c:	04913423          	sd	s1,72(sp)
   21380:	05213023          	sd	s2,64(sp)
   21384:	03313c23          	sd	s3,56(sp)
   21388:	03413823          	sd	s4,48(sp)
   2138c:	03513423          	sd	s5,40(sp)
   21390:	03613023          	sd	s6,32(sp)
   21394:	01713c23          	sd	s7,24(sp)
   21398:	01813823          	sd	s8,16(sp)
   2139c:	01913423          	sd	s9,8(sp)
   213a0:	01a13023          	sd	s10,0(sp)
   213a4:	00060413          	mv	s0,a2
   213a8:	00058913          	mv	s2,a1
   213ac:	08852583          	lw	a1,136(a0)
   213b0:	09052a03          	lw	s4,144(a0)
   213b4:	27053983          	ld	s3,624(a0)
   213b8:	02059493          	slli	s1,a1,0x20
   213bc:	0204d493          	srli	s1,s1,0x20
   213c0:	02069693          	slli	a3,a3,0x20
   213c4:	0d405a63          	blez	s4,21498 <quantize_ord_dither+0x12c>
   213c8:	0206da93          	srli	s5,a3,0x20
   213cc:	0e058e63          	beqz	a1,214c8 <quantize_ord_dither+0x15c>
   213d0:	00000b13          	li	s6,0
   213d4:	05098b93          	addi	s7,s3,80
   213d8:	fff58593          	addi	a1,a1,-1
   213dc:	02059593          	slli	a1,a1,0x20
   213e0:	0205d593          	srli	a1,a1,0x20
   213e4:	00158c13          	addi	s8,a1,1
   213e8:	003b1d13          	slli	s10,s6,0x3
   213ec:	01a40cb3          	add	s9,s0,s10
   213f0:	000cb503          	ld	a0,0(s9)
   213f4:	00048593          	mv	a1,s1
   213f8:	0b0030ef          	jal	244a8 <jzero_far>
   213fc:	04c9a503          	lw	a0,76(s3)
   21400:	00000593          	li	a1,0
   21404:	01a90633          	add	a2,s2,s10
   21408:	00651693          	slli	a3,a0,0x6
   2140c:	00000713          	li	a4,0
   21410:	00063883          	ld	a7,0(a2)
   21414:	000cb783          	ld	a5,0(s9)
   21418:	0309b803          	ld	a6,48(s3)
   2141c:	00359293          	slli	t0,a1,0x3
   21420:	005b8333          	add	t1,s7,t0
   21424:	00033303          	ld	t1,0(t1)
   21428:	00580833          	add	a6,a6,t0
   2142c:	00083803          	ld	a6,0(a6)
   21430:	00b888b3          	add	a7,a7,a1
   21434:	00d302b3          	add	t0,t1,a3
   21438:	01878333          	add	t1,a5,s8
   2143c:	0008c383          	lbu	t2,0(a7)
   21440:	00271e13          	slli	t3,a4,0x2
   21444:	01c28e33          	add	t3,t0,t3
   21448:	000e2e03          	lw	t3,0(t3)
   2144c:	007e03bb          	addw	t2,t3,t2
   21450:	007803b3          	add	t2,a6,t2
   21454:	0003c383          	lbu	t2,0(t2)
   21458:	0007ce03          	lbu	t3,0(a5)
   2145c:	007e03b3          	add	t2,t3,t2
   21460:	00778023          	sb	t2,0(a5)
   21464:	014888b3          	add	a7,a7,s4
   21468:	00178793          	addi	a5,a5,1
   2146c:	00170713          	addi	a4,a4,1
   21470:	00f77713          	andi	a4,a4,15
   21474:	fc6794e3          	bne	a5,t1,2143c <quantize_ord_dither+0xd0>
   21478:	00158593          	addi	a1,a1,1
   2147c:	f94598e3          	bne	a1,s4,2140c <quantize_ord_dither+0xa0>
   21480:	00150513          	addi	a0,a0,1
   21484:	00f57513          	andi	a0,a0,15
   21488:	001b0b13          	addi	s6,s6,1
   2148c:	04a9a623          	sw	a0,76(s3)
   21490:	f55b1ce3          	bne	s6,s5,213e8 <quantize_ord_dither+0x7c>
   21494:	0600006f          	j	214f4 <quantize_ord_dither+0x188>
   21498:	01d6d693          	srli	a3,a3,0x1d
   2149c:	00d40933          	add	s2,s0,a3
   214a0:	00043503          	ld	a0,0(s0)
   214a4:	00048593          	mv	a1,s1
   214a8:	000030ef          	jal	244a8 <jzero_far>
   214ac:	04c9a503          	lw	a0,76(s3)
   214b0:	00150513          	addi	a0,a0,1
   214b4:	00f57513          	andi	a0,a0,15
   214b8:	00840413          	addi	s0,s0,8
   214bc:	04a9a623          	sw	a0,76(s3)
   214c0:	ff2410e3          	bne	s0,s2,214a0 <quantize_ord_dither+0x134>
   214c4:	0300006f          	j	214f4 <quantize_ord_dither+0x188>
   214c8:	003a9913          	slli	s2,s5,0x3
   214cc:	01240933          	add	s2,s0,s2
   214d0:	00043503          	ld	a0,0(s0)
   214d4:	00048593          	mv	a1,s1
   214d8:	7d1020ef          	jal	244a8 <jzero_far>
   214dc:	04c9a503          	lw	a0,76(s3)
   214e0:	00150513          	addi	a0,a0,1
   214e4:	00f57513          	andi	a0,a0,15
   214e8:	00840413          	addi	s0,s0,8
   214ec:	04a9a623          	sw	a0,76(s3)
   214f0:	ff2410e3          	bne	s0,s2,214d0 <quantize_ord_dither+0x164>
   214f4:	05813083          	ld	ra,88(sp)
   214f8:	05013403          	ld	s0,80(sp)
   214fc:	04813483          	ld	s1,72(sp)
   21500:	04013903          	ld	s2,64(sp)
   21504:	03813983          	ld	s3,56(sp)
   21508:	03013a03          	ld	s4,48(sp)
   2150c:	02813a83          	ld	s5,40(sp)
   21510:	02013b03          	ld	s6,32(sp)
   21514:	01813b83          	ld	s7,24(sp)
   21518:	01013c03          	ld	s8,16(sp)
   2151c:	00813c83          	ld	s9,8(sp)
   21520:	00013d03          	ld	s10,0(sp)
   21524:	06010113          	addi	sp,sp,96
   21528:	00008067          	ret

000000000002152c <quantize_fs_dither>:
   2152c:	f7010113          	addi	sp,sp,-144
   21530:	08113423          	sd	ra,136(sp)
   21534:	08813023          	sd	s0,128(sp)
   21538:	06913c23          	sd	s1,120(sp)
   2153c:	07213823          	sd	s2,112(sp)
   21540:	07313423          	sd	s3,104(sp)
   21544:	07413023          	sd	s4,96(sp)
   21548:	05513c23          	sd	s5,88(sp)
   2154c:	05613823          	sd	s6,80(sp)
   21550:	05713423          	sd	s7,72(sp)
   21554:	05813023          	sd	s8,64(sp)
   21558:	03913c23          	sd	s9,56(sp)
   2155c:	03a13823          	sd	s10,48(sp)
   21560:	03b13423          	sd	s11,40(sp)
   21564:	00b13823          	sd	a1,16(sp)
   21568:	00d13c23          	sd	a3,24(sp)
   2156c:	1ed05663          	blez	a3,21758 <quantize_fs_dither+0x22c>
   21570:	00060b93          	mv	s7,a2
   21574:	08852603          	lw	a2,136(a0)
   21578:	09052b03          	lw	s6,144(a0)
   2157c:	27053a03          	ld	s4,624(a0)
   21580:	02061593          	slli	a1,a2,0x20
   21584:	0205d593          	srli	a1,a1,0x20
   21588:	02b13023          	sd	a1,32(sp)
   2158c:	19605e63          	blez	s6,21728 <quantize_fs_dither+0x1fc>
   21590:	070a0a93          	addi	s5,s4,112
   21594:	00160693          	addi	a3,a2,1
   21598:	02069693          	slli	a3,a3,0x20
   2159c:	0206d693          	srli	a3,a3,0x20
   215a0:	1e060a63          	beqz	a2,21794 <quantize_fs_dither+0x268>
   215a4:	00000493          	li	s1,0
   215a8:	1a853c03          	ld	s8,424(a0)
   215ac:	fff60613          	addi	a2,a2,-1
   215b0:	03660533          	mul	a0,a2,s6
   215b4:	02051513          	slli	a0,a0,0x20
   215b8:	02055c93          	srli	s9,a0,0x20
   215bc:	02061613          	slli	a2,a2,0x20
   215c0:	02065993          	srli	s3,a2,0x20
   215c4:	41600dbb          	negw	s11,s6
   215c8:	00198d13          	addi	s10,s3,1
   215cc:	00169913          	slli	s2,a3,0x1
   215d0:	01713423          	sd	s7,8(sp)
   215d4:	000b8413          	mv	s0,s7
   215d8:	00349b93          	slli	s7,s1,0x3
   215dc:	01740433          	add	s0,s0,s7
   215e0:	00043503          	ld	a0,0(s0)
   215e4:	6c5020ef          	jal	244a8 <jzero_far>
   215e8:	00000513          	li	a0,0
   215ec:	01013583          	ld	a1,16(sp)
   215f0:	017585b3          	add	a1,a1,s7
   215f4:	0005b683          	ld	a3,0(a1)
   215f8:	090a2703          	lw	a4,144(s4)
   215fc:	00043603          	ld	a2,0(s0)
   21600:	00a686b3          	add	a3,a3,a0
   21604:	00351313          	slli	t1,a0,0x3
   21608:	02070263          	beqz	a4,2162c <quantize_fs_dither+0x100>
   2160c:	006a8733          	add	a4,s5,t1
   21610:	00073703          	ld	a4,0(a4)
   21614:	019686b3          	add	a3,a3,s9
   21618:	01360633          	add	a2,a2,s3
   2161c:	01270733          	add	a4,a4,s2
   21620:	fff00793          	li	a5,-1
   21624:	000d8813          	mv	a6,s11
   21628:	0140006f          	j	2163c <quantize_fs_dither+0x110>
   2162c:	006a8733          	add	a4,s5,t1
   21630:	00073703          	ld	a4,0(a4)
   21634:	00100793          	li	a5,1
   21638:	000b0813          	mv	a6,s6
   2163c:	030a3283          	ld	t0,48(s4)
   21640:	020a3383          	ld	t2,32(s4)
   21644:	00000f13          	li	t5,0
   21648:	00000e93          	li	t4,0
   2164c:	00000893          	li	a7,0
   21650:	006282b3          	add	t0,t0,t1
   21654:	0002b283          	ld	t0,0(t0)
   21658:	00638333          	add	t1,t2,t1
   2165c:	00033303          	ld	t1,0(t1)
   21660:	00179393          	slli	t2,a5,0x1
   21664:	02fd0e33          	mul	t3,s10,a5
   21668:	01c60e33          	add	t3,a2,t3
   2166c:	00070f93          	mv	t6,a4
   21670:	00770733          	add	a4,a4,t2
   21674:	02294523          	regsw_c	sp,42(s2)
   21678:	00071083          	lh	ra,0(a4)
   2167c:	0006c103          	lbu	sp,0(a3)
   21680:	001f0f33          	add	t5,t5,ra
   21684:	008f0f13          	addi	t5,t5,8
   21688:	404f5f1b          	sraiw	t5,t5,0x4
   2168c:	002c0133          	add	sp,s8,sp
   21690:	01e10f33          	add	t5,sp,t5
   21694:	000f4f03          	lbu	t5,0(t5)
   21698:	6699c723          	regsw_c	s1,1646(s3)
   2169c:	01e280b3          	add	ra,t0,t5
   216a0:	0000c083          	lbu	ra,0(ra)
   216a4:	00064103          	lbu	sp,0(a2)
   216a8:	00110133          	add	sp,sp,ra
   216ac:	00260023          	sb	sp,0(a2)
   216b0:	001300b3          	add	ra,t1,ra
   216b4:	0000c083          	lbu	ra,0(ra)
   216b8:	004ac923          	regsw_c	tp,18(s5)
   216bc:	401f00b3          	sub	ra,t5,ra
   216c0:	00109f13          	slli	t5,ra,0x1
   216c4:	011088b3          	add	a7,ra,a7
   216c8:	011f08b3          	add	a7,t5,a7
   216cc:	011f9023          	sh	a7,0(t6)
   216d0:	00209893          	slli	a7,ra,0x2
   216d4:	01d08eb3          	add	t4,ra,t4
   216d8:	01d888b3          	add	a7,a7,t4
   216dc:	09044023          	regsw_c	a6,128(s0)
   216e0:	00309e93          	slli	t4,ra,0x3
   216e4:	401e8f33          	sub	t5,t4,ra
   216e8:	00f60633          	add	a2,a2,a5
   216ec:	010686b3          	add	a3,a3,a6
   216f0:	00008e93          	mv	t4,ra
   216f4:	f7c61ce3          	bne	a2,t3,2166c <quantize_fs_dither+0x140>
   216f8:	00150513          	addi	a0,a0,1
   216fc:	01171023          	sh	a7,0(a4)
   21700:	ef651ae3          	bne	a0,s6,215f4 <quantize_fs_dither+0xc8>
   21704:	090a2503          	lw	a0,144(s4)
   21708:	00153513          	seqz	a0,a0
   2170c:	00148493          	addi	s1,s1,1
   21710:	08aa2823          	sw	a0,144(s4)
   21714:	00813b83          	ld	s7,8(sp)
   21718:	02013583          	ld	a1,32(sp)
   2171c:	01813503          	ld	a0,24(sp)
   21720:	eaa49ae3          	bne	s1,a0,215d4 <quantize_fs_dither+0xa8>
   21724:	0340006f          	j	21758 <quantize_fs_dither+0x22c>
   21728:	01813503          	ld	a0,24(sp)
   2172c:	02051513          	slli	a0,a0,0x20
   21730:	01d55513          	srli	a0,a0,0x1d
   21734:	00ab8433          	add	s0,s7,a0
   21738:	000bb503          	ld	a0,0(s7)
   2173c:	56d020ef          	jal	244a8 <jzero_far>
   21740:	02013583          	ld	a1,32(sp)
   21744:	090a2503          	lw	a0,144(s4)
   21748:	00153513          	seqz	a0,a0
   2174c:	008b8b93          	addi	s7,s7,8
   21750:	08aa2823          	sw	a0,144(s4)
   21754:	fe8b92e3          	bne	s7,s0,21738 <quantize_fs_dither+0x20c>
   21758:	08813083          	ld	ra,136(sp)
   2175c:	08013403          	ld	s0,128(sp)
   21760:	07813483          	ld	s1,120(sp)
   21764:	07013903          	ld	s2,112(sp)
   21768:	06813983          	ld	s3,104(sp)
   2176c:	06013a03          	ld	s4,96(sp)
   21770:	05813a83          	ld	s5,88(sp)
   21774:	05013b03          	ld	s6,80(sp)
   21778:	04813b83          	ld	s7,72(sp)
   2177c:	04013c03          	ld	s8,64(sp)
   21780:	03813c83          	ld	s9,56(sp)
   21784:	03013d03          	ld	s10,48(sp)
   21788:	02813d83          	ld	s11,40(sp)
   2178c:	09010113          	addi	sp,sp,144
   21790:	00008067          	ret
   21794:	00000413          	li	s0,0
   21798:	003b1b13          	slli	s6,s6,0x3
   2179c:	014b0b33          	add	s6,s6,s4
   217a0:	070b0913          	addi	s2,s6,112
   217a4:	00169993          	slli	s3,a3,0x1
   217a8:	01c0006f          	j	217c4 <quantize_fs_dither+0x298>
   217ac:	00153513          	seqz	a0,a0
   217b0:	00140413          	addi	s0,s0,1
   217b4:	08aa2823          	sw	a0,144(s4)
   217b8:	02013583          	ld	a1,32(sp)
   217bc:	01813503          	ld	a0,24(sp)
   217c0:	f8a40ce3          	beq	s0,a0,21758 <quantize_fs_dither+0x22c>
   217c4:	00341513          	slli	a0,s0,0x3
   217c8:	00ab8533          	add	a0,s7,a0
   217cc:	00053503          	ld	a0,0(a0)
   217d0:	4d9020ef          	jal	244a8 <jzero_far>
   217d4:	090a2503          	lw	a0,144(s4)
   217d8:	000a8593          	mv	a1,s5
   217dc:	000a8613          	mv	a2,s5
   217e0:	00050e63          	beqz	a0,217fc <quantize_fs_dither+0x2d0>
   217e4:	0005b603          	ld	a2,0(a1)
   217e8:	01360633          	add	a2,a2,s3
   217ec:	00858593          	addi	a1,a1,8
   217f0:	00061023          	sh	zero,0(a2)
   217f4:	ff2598e3          	bne	a1,s2,217e4 <quantize_fs_dither+0x2b8>
   217f8:	fb5ff06f          	j	217ac <quantize_fs_dither+0x280>
   217fc:	00063583          	ld	a1,0(a2)
   21800:	00860613          	addi	a2,a2,8
   21804:	00059023          	sh	zero,0(a1)
   21808:	ff261ae3          	bne	a2,s2,217fc <quantize_fs_dither+0x2d0>
   2180c:	fa1ff06f          	j	217ac <quantize_fs_dither+0x280>

0000000000021810 <jinit_2pass_quantizer>:
   21810:	fd010113          	addi	sp,sp,-48
   21814:	02113423          	sd	ra,40(sp)
   21818:	02813023          	sd	s0,32(sp)
   2181c:	00913c23          	sd	s1,24(sp)
   21820:	01213823          	sd	s2,16(sp)
   21824:	01313423          	sd	s3,8(sp)
   21828:	00050413          	mv	s0,a0
   2182c:	00853503          	ld	a0,8(a0)
   21830:	00053683          	ld	a3,0(a0)
   21834:	00100593          	li	a1,1
   21838:	05800613          	li	a2,88
   2183c:	00040513          	mv	a0,s0
   21840:	000680e7          	jalr	a3
   21844:	00050493          	mv	s1,a0
   21848:	26a43823          	sd	a0,624(s0)
   2184c:	00022537          	lui	a0,0x22
   21850:	9d850513          	addi	a0,a0,-1576 # 219d8 <start_pass_2_quant>
   21854:	00a4b023          	sd	a0,0(s1)
   21858:	00022537          	lui	a0,0x22
   2185c:	ccc50513          	addi	a0,a0,-820 # 21ccc <new_color_map_2_quant>
   21860:	09042583          	lw	a1,144(s0)
   21864:	00a4bc23          	sd	a0,24(s1)
   21868:	0404b023          	sd	zero,64(s1)
   2186c:	00300513          	li	a0,3
   21870:	0404b823          	sd	zero,80(s1)
   21874:	00a58e63          	beq	a1,a0,21890 <jinit_2pass_quantizer+0x80>
   21878:	00043503          	ld	a0,0(s0)
   2187c:	00053583          	ld	a1,0(a0)
   21880:	02f00613          	li	a2,47
   21884:	02c52423          	sw	a2,40(a0)
   21888:	00040513          	mv	a0,s0
   2188c:	000580e7          	jalr	a1
   21890:	00843503          	ld	a0,8(s0)
   21894:	00053683          	ld	a3,0(a0)
   21898:	00100593          	li	a1,1
   2189c:	10000613          	li	a2,256
   218a0:	10000913          	li	s2,256
   218a4:	00040513          	mv	a0,s0
   218a8:	000680e7          	jalr	a3
   218ac:	00000993          	li	s3,0
   218b0:	02a4b823          	sd	a0,48(s1)
   218b4:	00843503          	ld	a0,8(s0)
   218b8:	00853683          	ld	a3,8(a0)
   218bc:	00100593          	li	a1,1
   218c0:	00001637          	lui	a2,0x1
   218c4:	00040513          	mv	a0,s0
   218c8:	000680e7          	jalr	a3
   218cc:	0304b583          	ld	a1,48(s1)
   218d0:	013585b3          	add	a1,a1,s3
   218d4:	00898993          	addi	s3,s3,8
   218d8:	00a5b023          	sd	a0,0(a1)
   218dc:	fd299ce3          	bne	s3,s2,218b4 <jinit_2pass_quantizer+0xa4>
   218e0:	08442503          	lw	a0,132(s0)
   218e4:	00100593          	li	a1,1
   218e8:	02b4ac23          	sw	a1,56(s1)
   218ec:	0c050263          	beqz	a0,219b0 <jinit_2pass_quantizer+0x1a0>
   218f0:	07842903          	lw	s2,120(s0)
   218f4:	00800593          	li	a1,8
   218f8:	03800513          	li	a0,56
   218fc:	00b94a63          	blt	s2,a1,21910 <jinit_2pass_quantizer+0x100>
   21900:	10100513          	li	a0,257
   21904:	02a96463          	bltu	s2,a0,2192c <jinit_2pass_quantizer+0x11c>
   21908:	10000593          	li	a1,256
   2190c:	03900513          	li	a0,57
   21910:	00043603          	ld	a2,0(s0)
   21914:	02b62623          	sw	a1,44(a2) # 102c <__abi_tag-0xf268>
   21918:	00043583          	ld	a1,0(s0)
   2191c:	0005b583          	ld	a1,0(a1)
   21920:	02a62423          	sw	a0,40(a2)
   21924:	00040513          	mv	a0,s0
   21928:	000580e7          	jalr	a1
   2192c:	00843503          	ld	a0,8(s0)
   21930:	01053703          	ld	a4,16(a0)
   21934:	00100593          	li	a1,1
   21938:	00300693          	li	a3,3
   2193c:	00040513          	mv	a0,s0
   21940:	00090613          	mv	a2,s2
   21944:	000700e7          	jalr	a4
   21948:	02a4b023          	sd	a0,32(s1)
   2194c:	0324a423          	sw	s2,40(s1)
   21950:	07042503          	lw	a0,112(s0)
   21954:	06050463          	beqz	a0,219bc <jinit_2pass_quantizer+0x1ac>
   21958:	00843503          	ld	a0,8(s0)
   2195c:	08842583          	lw	a1,136(s0)
   21960:	00200613          	li	a2,2
   21964:	06c42823          	sw	a2,112(s0)
   21968:	00853683          	ld	a3,8(a0)
   2196c:	00258593          	addi	a1,a1,2
   21970:	00300513          	li	a0,3
   21974:	02151513          	slli	a0,a0,0x21
   21978:	02059593          	slli	a1,a1,0x20
   2197c:	02a5b633          	mulhu	a2,a1,a0
   21980:	00100593          	li	a1,1
   21984:	00040513          	mv	a0,s0
   21988:	000680e7          	jalr	a3
   2198c:	04a4b023          	sd	a0,64(s1)
   21990:	00040513          	mv	a0,s0
   21994:	02813083          	ld	ra,40(sp)
   21998:	02013403          	ld	s0,32(sp)
   2199c:	01813483          	ld	s1,24(sp)
   219a0:	01013903          	ld	s2,16(sp)
   219a4:	00813983          	ld	s3,8(sp)
   219a8:	03010113          	addi	sp,sp,48
   219ac:	3300006f          	j	21cdc <init_error_limit>
   219b0:	0204b023          	sd	zero,32(s1)
   219b4:	07042503          	lw	a0,112(s0)
   219b8:	fa0510e3          	bnez	a0,21958 <jinit_2pass_quantizer+0x148>
   219bc:	02813083          	ld	ra,40(sp)
   219c0:	02013403          	ld	s0,32(sp)
   219c4:	01813483          	ld	s1,24(sp)
   219c8:	01013903          	ld	s2,16(sp)
   219cc:	00813983          	ld	s3,8(sp)
   219d0:	03010113          	addi	sp,sp,48
   219d4:	00008067          	ret

00000000000219d8 <start_pass_2_quant>:
   219d8:	fd010113          	addi	sp,sp,-48
   219dc:	02113423          	sd	ra,40(sp)
   219e0:	02813023          	sd	s0,32(sp)
   219e4:	00913c23          	sd	s1,24(sp)
   219e8:	01213823          	sd	s2,16(sp)
   219ec:	01313423          	sd	s3,8(sp)
   219f0:	00050413          	mv	s0,a0
   219f4:	27053903          	ld	s2,624(a0)
   219f8:	07052503          	lw	a0,112(a0)
   219fc:	03093983          	ld	s3,48(s2)
   21a00:	00050e63          	beqz	a0,21a1c <start_pass_2_quant+0x44>
   21a04:	00200513          	li	a0,2
   21a08:	06a42823          	sw	a0,112(s0)
   21a0c:	00059a63          	bnez	a1,21a20 <start_pass_2_quant+0x48>
   21a10:	00022537          	lui	a0,0x22
   21a14:	4ac50513          	addi	a0,a0,1196 # 224ac <pass2_fs_dither>
   21a18:	0340006f          	j	21a4c <start_pass_2_quant+0x74>
   21a1c:	02058463          	beqz	a1,21a44 <start_pass_2_quant+0x6c>
   21a20:	00022537          	lui	a0,0x22
   21a24:	fbc50513          	addi	a0,a0,-68 # 21fbc <prescan_quantize>
   21a28:	00a93423          	sd	a0,8(s2)
   21a2c:	00022537          	lui	a0,0x22
   21a30:	06450513          	addi	a0,a0,100 # 22064 <finish_pass1>
   21a34:	00a93823          	sd	a0,16(s2)
   21a38:	00100513          	li	a0,1
   21a3c:	03800493          	li	s1,56
   21a40:	2780006f          	j	21cb8 <start_pass_2_quant+0x2e0>
   21a44:	00023537          	lui	a0,0x23
   21a48:	8cc50513          	addi	a0,a0,-1844 # 228cc <pass2_no_dither>
   21a4c:	00a93423          	sd	a0,8(s2)
   21a50:	09c42503          	lw	a0,156(s0)
   21a54:	000235b7          	lui	a1,0x23
   21a58:	9fc58593          	addi	a1,a1,-1540 # 229fc <finish_pass2>
   21a5c:	00b93823          	sd	a1,16(s2)
   21a60:	1ca05063          	blez	a0,21c20 <start_pass_2_quant+0x248>
   21a64:	10100593          	li	a1,257
   21a68:	1cb57263          	bgeu	a0,a1,21c2c <start_pass_2_quant+0x254>
   21a6c:	07042503          	lw	a0,112(s0)
   21a70:	00200593          	li	a1,2
   21a74:	1eb50463          	beq	a0,a1,21c5c <start_pass_2_quant+0x284>
   21a78:	03892503          	lw	a0,56(s2)
   21a7c:	18050463          	beqz	a0,21c04 <start_pass_2_quant+0x22c>
   21a80:	0009b503          	ld	a0,0(s3)
   21a84:	000015b7          	lui	a1,0x1
   21a88:	221020ef          	jal	244a8 <jzero_far>
   21a8c:	0089b503          	ld	a0,8(s3)
   21a90:	000015b7          	lui	a1,0x1
   21a94:	215020ef          	jal	244a8 <jzero_far>
   21a98:	0109b503          	ld	a0,16(s3)
   21a9c:	000015b7          	lui	a1,0x1
   21aa0:	209020ef          	jal	244a8 <jzero_far>
   21aa4:	0189b503          	ld	a0,24(s3)
   21aa8:	000015b7          	lui	a1,0x1
   21aac:	1fd020ef          	jal	244a8 <jzero_far>
   21ab0:	0209b503          	ld	a0,32(s3)
   21ab4:	000015b7          	lui	a1,0x1
   21ab8:	1f1020ef          	jal	244a8 <jzero_far>
   21abc:	0289b503          	ld	a0,40(s3)
   21ac0:	000015b7          	lui	a1,0x1
   21ac4:	1e5020ef          	jal	244a8 <jzero_far>
   21ac8:	0309b503          	ld	a0,48(s3)
   21acc:	000015b7          	lui	a1,0x1
   21ad0:	1d9020ef          	jal	244a8 <jzero_far>
   21ad4:	0389b503          	ld	a0,56(s3)
   21ad8:	000015b7          	lui	a1,0x1
   21adc:	1cd020ef          	jal	244a8 <jzero_far>
   21ae0:	0409b503          	ld	a0,64(s3)
   21ae4:	000015b7          	lui	a1,0x1
   21ae8:	1c1020ef          	jal	244a8 <jzero_far>
   21aec:	0489b503          	ld	a0,72(s3)
   21af0:	000015b7          	lui	a1,0x1
   21af4:	1b5020ef          	jal	244a8 <jzero_far>
   21af8:	0509b503          	ld	a0,80(s3)
   21afc:	000015b7          	lui	a1,0x1
   21b00:	1a9020ef          	jal	244a8 <jzero_far>
   21b04:	0589b503          	ld	a0,88(s3)
   21b08:	000015b7          	lui	a1,0x1
   21b0c:	19d020ef          	jal	244a8 <jzero_far>
   21b10:	0609b503          	ld	a0,96(s3)
   21b14:	000015b7          	lui	a1,0x1
   21b18:	191020ef          	jal	244a8 <jzero_far>
   21b1c:	0689b503          	ld	a0,104(s3)
   21b20:	000015b7          	lui	a1,0x1
   21b24:	185020ef          	jal	244a8 <jzero_far>
   21b28:	0709b503          	ld	a0,112(s3)
   21b2c:	000015b7          	lui	a1,0x1
   21b30:	179020ef          	jal	244a8 <jzero_far>
   21b34:	0789b503          	ld	a0,120(s3)
   21b38:	000015b7          	lui	a1,0x1
   21b3c:	16d020ef          	jal	244a8 <jzero_far>
   21b40:	0809b503          	ld	a0,128(s3)
   21b44:	000015b7          	lui	a1,0x1
   21b48:	161020ef          	jal	244a8 <jzero_far>
   21b4c:	0889b503          	ld	a0,136(s3)
   21b50:	000015b7          	lui	a1,0x1
   21b54:	155020ef          	jal	244a8 <jzero_far>
   21b58:	0909b503          	ld	a0,144(s3)
   21b5c:	000015b7          	lui	a1,0x1
   21b60:	149020ef          	jal	244a8 <jzero_far>
   21b64:	0989b503          	ld	a0,152(s3)
   21b68:	000015b7          	lui	a1,0x1
   21b6c:	13d020ef          	jal	244a8 <jzero_far>
   21b70:	0a09b503          	ld	a0,160(s3)
   21b74:	000015b7          	lui	a1,0x1
   21b78:	131020ef          	jal	244a8 <jzero_far>
   21b7c:	0a89b503          	ld	a0,168(s3)
   21b80:	000015b7          	lui	a1,0x1
   21b84:	125020ef          	jal	244a8 <jzero_far>
   21b88:	0b09b503          	ld	a0,176(s3)
   21b8c:	000015b7          	lui	a1,0x1
   21b90:	119020ef          	jal	244a8 <jzero_far>
   21b94:	0b89b503          	ld	a0,184(s3)
   21b98:	000015b7          	lui	a1,0x1
   21b9c:	10d020ef          	jal	244a8 <jzero_far>
   21ba0:	0c09b503          	ld	a0,192(s3)
   21ba4:	000015b7          	lui	a1,0x1
   21ba8:	101020ef          	jal	244a8 <jzero_far>
   21bac:	0c89b503          	ld	a0,200(s3)
   21bb0:	000015b7          	lui	a1,0x1
   21bb4:	0f5020ef          	jal	244a8 <jzero_far>
   21bb8:	0d09b503          	ld	a0,208(s3)
   21bbc:	000015b7          	lui	a1,0x1
   21bc0:	0e9020ef          	jal	244a8 <jzero_far>
   21bc4:	0d89b503          	ld	a0,216(s3)
   21bc8:	000015b7          	lui	a1,0x1
   21bcc:	0dd020ef          	jal	244a8 <jzero_far>
   21bd0:	0e09b503          	ld	a0,224(s3)
   21bd4:	000015b7          	lui	a1,0x1
   21bd8:	0d1020ef          	jal	244a8 <jzero_far>
   21bdc:	0e89b503          	ld	a0,232(s3)
   21be0:	000015b7          	lui	a1,0x1
   21be4:	0c5020ef          	jal	244a8 <jzero_far>
   21be8:	0f09b503          	ld	a0,240(s3)
   21bec:	000015b7          	lui	a1,0x1
   21bf0:	0b9020ef          	jal	244a8 <jzero_far>
   21bf4:	0f89b503          	ld	a0,248(s3)
   21bf8:	000015b7          	lui	a1,0x1
   21bfc:	0ad020ef          	jal	244a8 <jzero_far>
   21c00:	02092c23          	sw	zero,56(s2)
   21c04:	02813083          	ld	ra,40(sp)
   21c08:	02013403          	ld	s0,32(sp)
   21c0c:	01813483          	ld	s1,24(sp)
   21c10:	01013903          	ld	s2,16(sp)
   21c14:	00813983          	ld	s3,8(sp)
   21c18:	03010113          	addi	sp,sp,48
   21c1c:	00008067          	ret
   21c20:	00100593          	li	a1,1
   21c24:	03800513          	li	a0,56
   21c28:	00c0006f          	j	21c34 <start_pass_2_quant+0x25c>
   21c2c:	10000593          	li	a1,256
   21c30:	03900513          	li	a0,57
   21c34:	00043603          	ld	a2,0(s0)
   21c38:	02b62623          	sw	a1,44(a2)
   21c3c:	00043583          	ld	a1,0(s0)
   21c40:	0005b583          	ld	a1,0(a1) # 1000 <__abi_tag-0xf294>
   21c44:	02a62423          	sw	a0,40(a2)
   21c48:	00040513          	mv	a0,s0
   21c4c:	000580e7          	jalr	a1
   21c50:	07042503          	lw	a0,112(s0)
   21c54:	00200593          	li	a1,2
   21c58:	e2b510e3          	bne	a0,a1,21a78 <start_pass_2_quant+0xa0>
   21c5c:	08842503          	lw	a0,136(s0)
   21c60:	00250593          	addi	a1,a0,2
   21c64:	04093503          	ld	a0,64(s2)
   21c68:	00300613          	li	a2,3
   21c6c:	02161613          	slli	a2,a2,0x21
   21c70:	02059593          	slli	a1,a1,0x20
   21c74:	02c5b4b3          	mulhu	s1,a1,a2
   21c78:	02051063          	bnez	a0,21c98 <start_pass_2_quant+0x2c0>
   21c7c:	00843503          	ld	a0,8(s0)
   21c80:	00853683          	ld	a3,8(a0)
   21c84:	00100593          	li	a1,1
   21c88:	00040513          	mv	a0,s0
   21c8c:	00048613          	mv	a2,s1
   21c90:	000680e7          	jalr	a3
   21c94:	04a93023          	sd	a0,64(s2)
   21c98:	00048593          	mv	a1,s1
   21c9c:	00d020ef          	jal	244a8 <jzero_far>
   21ca0:	05093503          	ld	a0,80(s2)
   21ca4:	04800493          	li	s1,72
   21ca8:	00051663          	bnez	a0,21cb4 <start_pass_2_quant+0x2dc>
   21cac:	00040513          	mv	a0,s0
   21cb0:	02c000ef          	jal	21cdc <init_error_limit>
   21cb4:	00000513          	li	a0,0
   21cb8:	009904b3          	add	s1,s2,s1
   21cbc:	00a4a023          	sw	a0,0(s1)
   21cc0:	03892503          	lw	a0,56(s2)
   21cc4:	da051ee3          	bnez	a0,21a80 <start_pass_2_quant+0xa8>
   21cc8:	f3dff06f          	j	21c04 <start_pass_2_quant+0x22c>

0000000000021ccc <new_color_map_2_quant>:
   21ccc:	27053503          	ld	a0,624(a0)
   21cd0:	00100593          	li	a1,1
   21cd4:	02b52c23          	sw	a1,56(a0)
   21cd8:	00008067          	ret

0000000000021cdc <init_error_limit>:
   21cdc:	fe010113          	addi	sp,sp,-32
   21ce0:	00113c23          	sd	ra,24(sp)
   21ce4:	00813823          	sd	s0,16(sp)
   21ce8:	00913423          	sd	s1,8(sp)
   21cec:	00853583          	ld	a1,8(a0)
   21cf0:	27053403          	ld	s0,624(a0)
   21cf4:	0005b683          	ld	a3,0(a1)
   21cf8:	00100593          	li	a1,1
   21cfc:	7fc00613          	li	a2,2044
   21d00:	00100493          	li	s1,1
   21d04:	000680e7          	jalr	a3
   21d08:	3fc50593          	addi	a1,a0,1020
   21d0c:	04b43823          	sd	a1,80(s0)
   21d10:	3e052e23          	sw	zero,1020(a0)
   21d14:	40952023          	sw	s1,1024(a0)
   21d18:	fff00593          	li	a1,-1
   21d1c:	3eb52c23          	sw	a1,1016(a0)
   21d20:	00200593          	li	a1,2
   21d24:	40b52223          	sw	a1,1028(a0)
   21d28:	ffe00593          	li	a1,-2
   21d2c:	3eb52a23          	sw	a1,1012(a0)
   21d30:	00300593          	li	a1,3
   21d34:	40b52423          	sw	a1,1032(a0)
   21d38:	ffd00593          	li	a1,-3
   21d3c:	3eb52823          	sw	a1,1008(a0)
   21d40:	00400593          	li	a1,4
   21d44:	40b52623          	sw	a1,1036(a0)
   21d48:	ffc00593          	li	a1,-4
   21d4c:	3eb52623          	sw	a1,1004(a0)
   21d50:	00500593          	li	a1,5
   21d54:	40b52823          	sw	a1,1040(a0)
   21d58:	ffb00593          	li	a1,-5
   21d5c:	3eb52423          	sw	a1,1000(a0)
   21d60:	00600593          	li	a1,6
   21d64:	40b52a23          	sw	a1,1044(a0)
   21d68:	ffa00593          	li	a1,-6
   21d6c:	3eb52223          	sw	a1,996(a0)
   21d70:	00700593          	li	a1,7
   21d74:	40b52c23          	sw	a1,1048(a0)
   21d78:	ff900593          	li	a1,-7
   21d7c:	3eb52023          	sw	a1,992(a0)
   21d80:	00800593          	li	a1,8
   21d84:	40b52e23          	sw	a1,1052(a0)
   21d88:	ff800593          	li	a1,-8
   21d8c:	3cb52e23          	sw	a1,988(a0)
   21d90:	00900593          	li	a1,9
   21d94:	42b52023          	sw	a1,1056(a0)
   21d98:	ff700593          	li	a1,-9
   21d9c:	3cb52c23          	sw	a1,984(a0)
   21da0:	00a00593          	li	a1,10
   21da4:	42b52223          	sw	a1,1060(a0)
   21da8:	ff600593          	li	a1,-10
   21dac:	3cb52a23          	sw	a1,980(a0)
   21db0:	00b00593          	li	a1,11
   21db4:	42b52423          	sw	a1,1064(a0)
   21db8:	ff500593          	li	a1,-11
   21dbc:	3cb52823          	sw	a1,976(a0)
   21dc0:	00c00593          	li	a1,12
   21dc4:	42b52623          	sw	a1,1068(a0)
   21dc8:	ff400593          	li	a1,-12
   21dcc:	3cb52623          	sw	a1,972(a0)
   21dd0:	00d00593          	li	a1,13
   21dd4:	42b52823          	sw	a1,1072(a0)
   21dd8:	ff300593          	li	a1,-13
   21ddc:	3cb52423          	sw	a1,968(a0)
   21de0:	00e00593          	li	a1,14
   21de4:	42b52a23          	sw	a1,1076(a0)
   21de8:	ff200593          	li	a1,-14
   21dec:	3cb52223          	sw	a1,964(a0)
   21df0:	00f00593          	li	a1,15
   21df4:	42b52c23          	sw	a1,1080(a0)
   21df8:	ff100593          	li	a1,-15
   21dfc:	3cb52023          	sw	a1,960(a0)
   21e00:	01000593          	li	a1,16
   21e04:	42b52e23          	sw	a1,1084(a0)
   21e08:	ff000613          	li	a2,-16
   21e0c:	3ac52e23          	sw	a2,956(a0)
   21e10:	44b52023          	sw	a1,1088(a0)
   21e14:	3ac52c23          	sw	a2,952(a0)
   21e18:	01100593          	li	a1,17
   21e1c:	44b52223          	sw	a1,1092(a0)
   21e20:	fef00613          	li	a2,-17
   21e24:	3ac52a23          	sw	a2,948(a0)
   21e28:	44b52423          	sw	a1,1096(a0)
   21e2c:	3ac52823          	sw	a2,944(a0)
   21e30:	01200593          	li	a1,18
   21e34:	44b52623          	sw	a1,1100(a0)
   21e38:	fee00613          	li	a2,-18
   21e3c:	3ac52623          	sw	a2,940(a0)
   21e40:	44b52823          	sw	a1,1104(a0)
   21e44:	3ac52423          	sw	a2,936(a0)
   21e48:	01300593          	li	a1,19
   21e4c:	44b52a23          	sw	a1,1108(a0)
   21e50:	fed00613          	li	a2,-19
   21e54:	3ac52223          	sw	a2,932(a0)
   21e58:	44b52c23          	sw	a1,1112(a0)
   21e5c:	3ac52023          	sw	a2,928(a0)
   21e60:	01400593          	li	a1,20
   21e64:	44b52e23          	sw	a1,1116(a0)
   21e68:	fec00613          	li	a2,-20
   21e6c:	38c52e23          	sw	a2,924(a0)
   21e70:	46b52023          	sw	a1,1120(a0)
   21e74:	38c52c23          	sw	a2,920(a0)
   21e78:	01500593          	li	a1,21
   21e7c:	46b52223          	sw	a1,1124(a0)
   21e80:	feb00613          	li	a2,-21
   21e84:	38c52a23          	sw	a2,916(a0)
   21e88:	46b52423          	sw	a1,1128(a0)
   21e8c:	38c52823          	sw	a2,912(a0)
   21e90:	01600593          	li	a1,22
   21e94:	46b52623          	sw	a1,1132(a0)
   21e98:	fea00613          	li	a2,-22
   21e9c:	38c52623          	sw	a2,908(a0)
   21ea0:	46b52823          	sw	a1,1136(a0)
   21ea4:	38c52423          	sw	a2,904(a0)
   21ea8:	01700593          	li	a1,23
   21eac:	46b52a23          	sw	a1,1140(a0)
   21eb0:	fe900613          	li	a2,-23
   21eb4:	38c52223          	sw	a2,900(a0)
   21eb8:	46b52c23          	sw	a1,1144(a0)
   21ebc:	38c52023          	sw	a2,896(a0)
   21ec0:	01800593          	li	a1,24
   21ec4:	46b52e23          	sw	a1,1148(a0)
   21ec8:	fe800613          	li	a2,-24
   21ecc:	36c52e23          	sw	a2,892(a0)
   21ed0:	48b52023          	sw	a1,1152(a0)
   21ed4:	36c52c23          	sw	a2,888(a0)
   21ed8:	01900593          	li	a1,25
   21edc:	48b52223          	sw	a1,1156(a0)
   21ee0:	fe700613          	li	a2,-25
   21ee4:	36c52a23          	sw	a2,884(a0)
   21ee8:	48b52423          	sw	a1,1160(a0)
   21eec:	36c52823          	sw	a2,880(a0)
   21ef0:	01a00593          	li	a1,26
   21ef4:	48b52623          	sw	a1,1164(a0)
   21ef8:	fe600613          	li	a2,-26
   21efc:	36c52623          	sw	a2,876(a0)
   21f00:	48b52823          	sw	a1,1168(a0)
   21f04:	36c52423          	sw	a2,872(a0)
   21f08:	01b00593          	li	a1,27
   21f0c:	48b52a23          	sw	a1,1172(a0)
   21f10:	fe500613          	li	a2,-27
   21f14:	36c52223          	sw	a2,868(a0)
   21f18:	48b52c23          	sw	a1,1176(a0)
   21f1c:	36c52023          	sw	a2,864(a0)
   21f20:	01c00593          	li	a1,28
   21f24:	48b52e23          	sw	a1,1180(a0)
   21f28:	fe400613          	li	a2,-28
   21f2c:	34c52e23          	sw	a2,860(a0)
   21f30:	4ab52023          	sw	a1,1184(a0)
   21f34:	34c52c23          	sw	a2,856(a0)
   21f38:	01d00593          	li	a1,29
   21f3c:	4ab52223          	sw	a1,1188(a0)
   21f40:	fe300613          	li	a2,-29
   21f44:	34c52a23          	sw	a2,852(a0)
   21f48:	4ab52423          	sw	a1,1192(a0)
   21f4c:	34c52823          	sw	a2,848(a0)
   21f50:	01e00593          	li	a1,30
   21f54:	4ab52623          	sw	a1,1196(a0)
   21f58:	fe200613          	li	a2,-30
   21f5c:	34c52623          	sw	a2,844(a0)
   21f60:	4ab52823          	sw	a1,1200(a0)
   21f64:	34c52423          	sw	a2,840(a0)
   21f68:	01f00593          	li	a1,31
   21f6c:	4ab52a23          	sw	a1,1204(a0)
   21f70:	fe100613          	li	a2,-31
   21f74:	34c52223          	sw	a2,836(a0)
   21f78:	4ab52c23          	sw	a1,1208(a0)
   21f7c:	34c52023          	sw	a2,832(a0)
   21f80:	33c50593          	addi	a1,a0,828
   21f84:	4bc50613          	addi	a2,a0,1212
   21f88:	ffc50513          	addi	a0,a0,-4
   21f8c:	02000693          	li	a3,32
   21f90:	fe000713          	li	a4,-32
   21f94:	00d62023          	sw	a3,0(a2)
   21f98:	00e5a023          	sw	a4,0(a1)
   21f9c:	ffc58593          	addi	a1,a1,-4
   21fa0:	00460613          	addi	a2,a2,4
   21fa4:	fea598e3          	bne	a1,a0,21f94 <init_error_limit+0x2b8>
   21fa8:	01813083          	ld	ra,24(sp)
   21fac:	01013403          	ld	s0,16(sp)
   21fb0:	00813483          	ld	s1,8(sp)
   21fb4:	02010113          	addi	sp,sp,32
   21fb8:	00008067          	ret

0000000000021fbc <prescan_quantize>:
   21fbc:	0ad05263          	blez	a3,22060 <prescan_quantize+0xa4>
   21fc0:	08852703          	lw	a4,136(a0)
   21fc4:	08070e63          	beqz	a4,22060 <prescan_quantize+0xa4>
   21fc8:	27053603          	ld	a2,624(a0)
   21fcc:	00000513          	li	a0,0
   21fd0:	03063603          	ld	a2,48(a2)
   21fd4:	fff70713          	addi	a4,a4,-1
   21fd8:	02071713          	slli	a4,a4,0x20
   21fdc:	02075793          	srli	a5,a4,0x20
   21fe0:	01f75713          	srli	a4,a4,0x1f
   21fe4:	00f70733          	add	a4,a4,a5
   21fe8:	00370713          	addi	a4,a4,3
   21fec:	00c0006f          	j	21ff8 <prescan_quantize+0x3c>
   21ff0:	00150513          	addi	a0,a0,1
   21ff4:	06d50663          	beq	a0,a3,22060 <prescan_quantize+0xa4>
   21ff8:	00351793          	slli	a5,a0,0x3
   21ffc:	00f587b3          	add	a5,a1,a5
   22000:	0007b783          	ld	a5,0(a5)
   22004:	00e78833          	add	a6,a5,a4
   22008:	0100006f          	j	22018 <prescan_quantize+0x5c>
   2200c:	00378793          	addi	a5,a5,3
   22010:	00589023          	sh	t0,0(a7)
   22014:	fd078ee3          	beq	a5,a6,21ff0 <prescan_quantize+0x34>
   22018:	0007c883          	lbu	a7,0(a5)
   2201c:	0f88f893          	andi	a7,a7,248
   22020:	0017c283          	lbu	t0,1(a5)
   22024:	011608b3          	add	a7,a2,a7
   22028:	0027c303          	lbu	t1,2(a5)
   2202c:	0008b883          	ld	a7,0(a7)
   22030:	0022d293          	srli	t0,t0,0x2
   22034:	00629293          	slli	t0,t0,0x6
   22038:	00235313          	srli	t1,t1,0x2
   2203c:	03e37313          	andi	t1,t1,62
   22040:	006282b3          	add	t0,t0,t1
   22044:	005888b3          	add	a7,a7,t0
   22048:	00089283          	lh	t0,0(a7)
   2204c:	00128313          	addi	t1,t0,1
   22050:	03031393          	slli	t2,t1,0x30
   22054:	fa038ce3          	beqz	t2,2200c <prescan_quantize+0x50>
   22058:	00030293          	mv	t0,t1
   2205c:	fb1ff06f          	j	2200c <prescan_quantize+0x50>
   22060:	00008067          	ret

0000000000022064 <finish_pass1>:
   22064:	fa010113          	addi	sp,sp,-96
   22068:	04113c23          	sd	ra,88(sp)
   2206c:	04813823          	sd	s0,80(sp)
   22070:	04913423          	sd	s1,72(sp)
   22074:	05213023          	sd	s2,64(sp)
   22078:	03313c23          	sd	s3,56(sp)
   2207c:	03413823          	sd	s4,48(sp)
   22080:	03513423          	sd	s5,40(sp)
   22084:	03613023          	sd	s6,32(sp)
   22088:	01713c23          	sd	s7,24(sp)
   2208c:	01813823          	sd	s8,16(sp)
   22090:	01913423          	sd	s9,8(sp)
   22094:	00050413          	mv	s0,a0
   22098:	27053983          	ld	s3,624(a0)
   2209c:	00853503          	ld	a0,8(a0)
   220a0:	0209b583          	ld	a1,32(s3)
   220a4:	0289aa83          	lw	s5,40(s3)
   220a8:	00053683          	ld	a3,0(a0)
   220ac:	0ab43023          	sd	a1,160(s0)
   220b0:	02800a13          	li	s4,40
   220b4:	034a8633          	mul	a2,s5,s4
   220b8:	00100593          	li	a1,1
   220bc:	00100913          	li	s2,1
   220c0:	00040513          	mv	a0,s0
   220c4:	000680e7          	jalr	a3
   220c8:	00050493          	mv	s1,a0
   220cc:	01f00513          	li	a0,31
   220d0:	02051513          	slli	a0,a0,0x20
   220d4:	00a4b023          	sd	a0,0(s1)
   220d8:	03f00593          	li	a1,63
   220dc:	02059593          	slli	a1,a1,0x20
   220e0:	00b4b423          	sd	a1,8(s1)
   220e4:	00a4b823          	sd	a0,16(s1)
   220e8:	27043503          	ld	a0,624(s0)
   220ec:	03053503          	ld	a0,48(a0)
   220f0:	00048593          	mv	a1,s1
   220f4:	10d000ef          	jal	22a00 <update_box>
   220f8:	1b595c63          	bge	s2,s5,222b0 <finish_pass1+0x24c>
   220fc:	00000b13          	li	s6,0
   22100:	00100c13          	li	s8,1
   22104:	00c00c93          	li	s9,12
   22108:	00100b93          	li	s7,1
   2210c:	04c0006f          	j	22158 <finish_pass1+0xf4>
   22110:	01090693          	addi	a3,s2,16
   22114:	00e80733          	add	a4,a6,a4
   22118:	01f7551b          	srliw	a0,a4,0x1f
   2211c:	00a70533          	add	a0,a4,a0
   22120:	4015561b          	sraiw	a2,a0,0x1
   22124:	00c5aa23          	sw	a2,20(a1)
   22128:	27043503          	ld	a0,624(s0)
   2212c:	03053503          	ld	a0,48(a0)
   22130:	00160613          	addi	a2,a2,1
   22134:	00c6a023          	sw	a2,0(a3)
   22138:	0c9000ef          	jal	22a00 <update_box>
   2213c:	27043503          	ld	a0,624(s0)
   22140:	03053503          	ld	a0,48(a0)
   22144:	00090593          	mv	a1,s2
   22148:	0b9000ef          	jal	22a00 <update_box>
   2214c:	001b8b93          	addi	s7,s7,1
   22150:	001b0b13          	addi	s6,s6,1
   22154:	155b8863          	beq	s7,s5,222a4 <finish_pass1+0x240>
   22158:	034b0533          	mul	a0,s6,s4
   2215c:	00950533          	add	a0,a0,s1
   22160:	001b9593          	slli	a1,s7,0x1
   22164:	02850513          	addi	a0,a0,40
   22168:	02bafe63          	bgeu	s5,a1,221a4 <finish_pass1+0x140>
   2216c:	00000693          	li	a3,0
   22170:	00000713          	li	a4,0
   22174:	00048613          	mv	a2,s1
   22178:	0140006f          	j	2218c <finish_pass1+0x128>
   2217c:	02860613          	addi	a2,a2,40
   22180:	00058693          	mv	a3,a1
   22184:	00078713          	mv	a4,a5
   22188:	04a60e63          	beq	a2,a0,221e4 <finish_pass1+0x180>
   2218c:	01863783          	ld	a5,24(a2)
   22190:	00060593          	mv	a1,a2
   22194:	fef744e3          	blt	a4,a5,2217c <finish_pass1+0x118>
   22198:	00070793          	mv	a5,a4
   2219c:	00068593          	mv	a1,a3
   221a0:	fddff06f          	j	2217c <finish_pass1+0x118>
   221a4:	00000593          	li	a1,0
   221a8:	00000693          	li	a3,0
   221ac:	00048613          	mv	a2,s1
   221b0:	0140006f          	j	221c4 <finish_pass1+0x160>
   221b4:	00070693          	mv	a3,a4
   221b8:	00078593          	mv	a1,a5
   221bc:	02860613          	addi	a2,a2,40
   221c0:	02a60263          	beq	a2,a0,221e4 <finish_pass1+0x180>
   221c4:	02063703          	ld	a4,32(a2)
   221c8:	fee6dae3          	bge	a3,a4,221bc <finish_pass1+0x158>
   221cc:	01863803          	ld	a6,24(a2)
   221d0:	00060793          	mv	a5,a2
   221d4:	ff0040e3          	bgtz	a6,221b4 <finish_pass1+0x150>
   221d8:	00068713          	mv	a4,a3
   221dc:	00058793          	mv	a5,a1
   221e0:	fd5ff06f          	j	221b4 <finish_pass1+0x150>
   221e4:	0a058e63          	beqz	a1,222a0 <finish_pass1+0x23c>
   221e8:	0045a503          	lw	a0,4(a1)
   221ec:	034b8933          	mul	s2,s7,s4
   221f0:	01248933          	add	s2,s1,s2
   221f4:	00a92223          	sw	a0,4(s2)
   221f8:	00c5a603          	lw	a2,12(a1)
   221fc:	0145a703          	lw	a4,20(a1)
   22200:	0005a683          	lw	a3,0(a1)
   22204:	0085a783          	lw	a5,8(a1)
   22208:	00c92623          	sw	a2,12(s2)
   2220c:	00e92a23          	sw	a4,20(s2)
   22210:	00d92023          	sw	a3,0(s2)
   22214:	00f92423          	sw	a5,8(s2)
   22218:	0105a803          	lw	a6,16(a1)
   2221c:	40d508bb          	subw	a7,a0,a3
   22220:	0048989b          	slliw	a7,a7,0x4
   22224:	40f602bb          	subw	t0,a2,a5
   22228:	039282bb          	mulw	t0,t0,s9
   2222c:	01092823          	sw	a6,16(s2)
   22230:	00088393          	mv	t2,a7
   22234:	0112c463          	blt	t0,a7,2223c <finish_pass1+0x1d8>
   22238:	00028393          	mv	t2,t0
   2223c:	4107033b          	subw	t1,a4,a6
   22240:	00331e1b          	slliw	t3,t1,0x3
   22244:	00200313          	li	t1,2
   22248:	01c3d863          	bge	t2,t3,22258 <finish_pass1+0x1f4>
   2224c:	00200893          	li	a7,2
   22250:	00689a63          	bne	a7,t1,22264 <finish_pass1+0x200>
   22254:	ebdff06f          	j	22110 <finish_pass1+0xac>
   22258:	0112a8b3          	slt	a7,t0,a7
   2225c:	0018c893          	xori	a7,a7,1
   22260:	ea6888e3          	beq	a7,t1,22110 <finish_pass1+0xac>
   22264:	03889063          	bne	a7,s8,22284 <finish_pass1+0x220>
   22268:	00890693          	addi	a3,s2,8
   2226c:	00c78633          	add	a2,a5,a2
   22270:	01f6551b          	srliw	a0,a2,0x1f
   22274:	00a60533          	add	a0,a2,a0
   22278:	4015561b          	sraiw	a2,a0,0x1
   2227c:	00c5a623          	sw	a2,12(a1)
   22280:	ea9ff06f          	j	22128 <finish_pass1+0xc4>
   22284:	00a68533          	add	a0,a3,a0
   22288:	01f5561b          	srliw	a2,a0,0x1f
   2228c:	00c50533          	add	a0,a0,a2
   22290:	4015561b          	sraiw	a2,a0,0x1
   22294:	00c5a223          	sw	a2,4(a1)
   22298:	00090693          	mv	a3,s2
   2229c:	e8dff06f          	j	22128 <finish_pass1+0xc4>
   222a0:	000b8a93          	mv	s5,s7
   222a4:	000a851b          	sext.w	a0,s5
   222a8:	000a8913          	mv	s2,s5
   222ac:	18a05e63          	blez	a0,22448 <finish_pass1+0x3e4>
   222b0:	00000513          	li	a0,0
   222b4:	0009059b          	sext.w	a1,s2
   222b8:	0680006f          	j	22320 <finish_pass1+0x2bc>
   222bc:	00000613          	li	a2,0
   222c0:	00000893          	li	a7,0
   222c4:	00000813          	li	a6,0
   222c8:	00000693          	li	a3,0
   222cc:	0a043703          	ld	a4,160(s0)
   222d0:	00073703          	ld	a4,0(a4)
   222d4:	40165793          	srai	a5,a2,0x1
   222d8:	00f888b3          	add	a7,a7,a5
   222dc:	02c8c8b3          	div	a7,a7,a2
   222e0:	00a70733          	add	a4,a4,a0
   222e4:	01170023          	sb	a7,0(a4)
   222e8:	0a043703          	ld	a4,160(s0)
   222ec:	00873703          	ld	a4,8(a4)
   222f0:	00f80833          	add	a6,a6,a5
   222f4:	02c84833          	div	a6,a6,a2
   222f8:	00a70733          	add	a4,a4,a0
   222fc:	01070023          	sb	a6,0(a4)
   22300:	0a043703          	ld	a4,160(s0)
   22304:	01073703          	ld	a4,16(a4)
   22308:	00f686b3          	add	a3,a3,a5
   2230c:	02c6c633          	div	a2,a3,a2
   22310:	00a70733          	add	a4,a4,a0
   22314:	00150513          	addi	a0,a0,1
   22318:	00c70023          	sb	a2,0(a4)
   2231c:	12b50663          	beq	a0,a1,22448 <finish_pass1+0x3e4>
   22320:	034506b3          	mul	a3,a0,s4
   22324:	00d486b3          	add	a3,s1,a3
   22328:	0006a703          	lw	a4,0(a3)
   2232c:	0046a383          	lw	t2,4(a3)
   22330:	f8e3c6e3          	blt	t2,a4,222bc <finish_pass1+0x258>
   22334:	0086a783          	lw	a5,8(a3)
   22338:	00c6a303          	lw	t1,12(a3)
   2233c:	00000613          	li	a2,0
   22340:	0ef34c63          	blt	t1,a5,22438 <finish_pass1+0x3d4>
   22344:	0146ae03          	lw	t3,20(a3)
   22348:	0106af03          	lw	t5,16(a3)
   2234c:	00060893          	mv	a7,a2
   22350:	00060813          	mv	a6,a2
   22354:	00060693          	mv	a3,a2
   22358:	f7ee4ae3          	blt	t3,t5,222cc <finish_pass1+0x268>
   2235c:	27043283          	ld	t0,624(s0)
   22360:	00000693          	li	a3,0
   22364:	00000813          	li	a6,0
   22368:	00000893          	li	a7,0
   2236c:	00000613          	li	a2,0
   22370:	0302b283          	ld	t0,48(t0)
   22374:	0013031b          	addiw	t1,t1,1
   22378:	0013839b          	addiw	t2,t2,1
   2237c:	41ee0e3b          	subw	t3,t3,t5
   22380:	001e0e13          	addi	t3,t3,1
   22384:	003f1e93          	slli	t4,t5,0x3
   22388:	004e8e9b          	addiw	t4,t4,4
   2238c:	001f1f13          	slli	t5,t5,0x1
   22390:	0100006f          	j	223a0 <finish_pass1+0x33c>
   22394:	00170f9b          	addiw	t6,a4,1
   22398:	00170713          	addi	a4,a4,1
   2239c:	f3f388e3          	beq	t2,t6,222cc <finish_pass1+0x268>
   223a0:	00371f93          	slli	t6,a4,0x3
   223a4:	01f28fb3          	add	t6,t0,t6
   223a8:	000fbf83          	ld	t6,0(t6)
   223ac:	0089c023          	regsw_c	s0,0(s3)
   223b0:	0037109b          	slliw	ra,a4,0x3
   223b4:	00408093          	addi	ra,ra,4
   223b8:	00078113          	mv	sp,a5
   223bc:	0140006f          	j	223d0 <finish_pass1+0x36c>
   223c0:	002dc023          	regsw_c	sp,0(s11)
   223c4:	0011019b          	addiw	gp,sp,1
   223c8:	00110113          	addi	sp,sp,1
   223cc:	fc3304e3          	beq	t1,gp,22394 <finish_pass1+0x330>
   223d0:	5bdd4223          	regsw_c	t4,1444(s10)
   223d4:	00611193          	slli	gp,sp,0x6
   223d8:	003f81b3          	add	gp,t6,gp
   223dc:	01e181b3          	add	gp,gp,t5
   223e0:	0021121b          	slliw	tp,sp,0x2
   223e4:	00220213          	addi	tp,tp,2 # 2 <__abi_tag-0x10292>
   223e8:	000e8293          	mv	t0,t4
   223ec:	000e0313          	mv	t1,t3
   223f0:	0180006f          	j	22408 <finish_pass1+0x3a4>
   223f4:	40cdc023          	regsw_c	a2,1024(s11)
   223f8:	00218193          	addi	gp,gp,2 # 2a8ba <__global_pointer$+0x2>
   223fc:	fff3031b          	addiw	t1,t1,-1
   22400:	0082829b          	addiw	t0,t0,8
   22404:	fa030ee3          	beqz	t1,223c0 <finish_pass1+0x35c>
   22408:	000cc023          	regsw_c	zero,0(s9)
   2240c:	0001d383          	lhu	t2,0(gp) # 2a8b8 <__global_pointer$>
   22410:	fe0382e3          	beqz	t2,223f4 <finish_pass1+0x390>
   22414:	6b53cd23          	regsw_c	s5,1722(t2)
   22418:	00760633          	add	a2,a2,t2
   2241c:	02138433          	mul	s0,t2,ra
   22420:	011408b3          	add	a7,s0,a7
   22424:	02438433          	mul	s0,t2,tp
   22428:	01040833          	add	a6,s0,a6
   2242c:	025383b3          	mul	t2,t2,t0
   22430:	00d386b3          	add	a3,t2,a3
   22434:	fc1ff06f          	j	223f4 <finish_pass1+0x390>
   22438:	00060893          	mv	a7,a2
   2243c:	00060813          	mv	a6,a2
   22440:	00060693          	mv	a3,a2
   22444:	e89ff06f          	j	222cc <finish_pass1+0x268>
   22448:	00043503          	ld	a0,0(s0)
   2244c:	09242e23          	sw	s2,156(s0)
   22450:	03252623          	sw	s2,44(a0)
   22454:	00043583          	ld	a1,0(s0)
   22458:	0085b603          	ld	a2,8(a1)
   2245c:	06000593          	li	a1,96
   22460:	02b52423          	sw	a1,40(a0)
   22464:	00100593          	li	a1,1
   22468:	00100493          	li	s1,1
   2246c:	00040513          	mv	a0,s0
   22470:	000600e7          	jalr	a2
   22474:	0299ac23          	sw	s1,56(s3)
   22478:	05813083          	ld	ra,88(sp)
   2247c:	05013403          	ld	s0,80(sp)
   22480:	04813483          	ld	s1,72(sp)
   22484:	04013903          	ld	s2,64(sp)
   22488:	03813983          	ld	s3,56(sp)
   2248c:	03013a03          	ld	s4,48(sp)
   22490:	02813a83          	ld	s5,40(sp)
   22494:	02013b03          	ld	s6,32(sp)
   22498:	01813b83          	ld	s7,24(sp)
   2249c:	01013c03          	ld	s8,16(sp)
   224a0:	00813c83          	ld	s9,8(sp)
   224a4:	06010113          	addi	sp,sp,96
   224a8:	00008067          	ret

00000000000224ac <pass2_fs_dither>:
   224ac:	ee010113          	addi	sp,sp,-288
   224b0:	10113c23          	sd	ra,280(sp)
   224b4:	10813823          	sd	s0,272(sp)
   224b8:	10913423          	sd	s1,264(sp)
   224bc:	11213023          	sd	s2,256(sp)
   224c0:	0f313c23          	sd	s3,248(sp)
   224c4:	0f413823          	sd	s4,240(sp)
   224c8:	0f513423          	sd	s5,232(sp)
   224cc:	0f613023          	sd	s6,224(sp)
   224d0:	0d713c23          	sd	s7,216(sp)
   224d4:	0d813823          	sd	s8,208(sp)
   224d8:	0d913423          	sd	s9,200(sp)
   224dc:	0da13023          	sd	s10,192(sp)
   224e0:	0bb13c23          	sd	s11,184(sp)
   224e4:	04c13023          	sd	a2,64(sp)
   224e8:	02b13c23          	sd	a1,56(sp)
   224ec:	3ad05263          	blez	a3,22890 <pass2_fs_dither+0x3e4>
   224f0:	00050813          	mv	a6,a0
   224f4:	08852583          	lw	a1,136(a0)
   224f8:	27053783          	ld	a5,624(a0)
   224fc:	00159513          	slli	a0,a1,0x1
   22500:	00b50533          	add	a0,a0,a1
   22504:	00350513          	addi	a0,a0,3
   22508:	02051513          	slli	a0,a0,0x20
   2250c:	02055513          	srli	a0,a0,0x20
   22510:	34058663          	beqz	a1,2285c <pass2_fs_dither+0x3b0>
   22514:	00000713          	li	a4,0
   22518:	0a083603          	ld	a2,160(a6)
   2251c:	0307b883          	ld	a7,48(a5)
   22520:	1a883283          	ld	t0,424(a6)
   22524:	0507b303          	ld	t1,80(a5)
   22528:	00063383          	ld	t2,0(a2)
   2252c:	00863e03          	ld	t3,8(a2)
   22530:	01063e83          	ld	t4,16(a2)
   22534:	fff58593          	addi	a1,a1,-1
   22538:	00159613          	slli	a2,a1,0x1
   2253c:	00b60633          	add	a2,a2,a1
   22540:	02061613          	slli	a2,a2,0x20
   22544:	02065613          	srli	a2,a2,0x20
   22548:	00c13c23          	sd	a2,24(sp)
   2254c:	02059593          	slli	a1,a1,0x20
   22550:	0205d593          	srli	a1,a1,0x20
   22554:	00b13823          	sd	a1,16(sp)
   22558:	00158593          	addi	a1,a1,1
   2255c:	02b13023          	sd	a1,32(sp)
   22560:	00151513          	slli	a0,a0,0x1
   22564:	00a13423          	sd	a0,8(sp)
   22568:	02d13823          	sd	a3,48(sp)
   2256c:	02f13423          	sd	a5,40(sp)
   22570:	06713423          	sd	t2,104(sp)
   22574:	06513023          	sd	t0,96(sp)
   22578:	05d13c23          	sd	t4,88(sp)
   2257c:	05013823          	sd	a6,80(sp)
   22580:	0240006f          	j	225a4 <pass2_fs_dither+0xf8>
   22584:	ff5b1f23          	sh	s5,-2(s6)
   22588:	014b1023          	sh	s4,0(s6)
   2258c:	04813703          	ld	a4,72(sp)
   22590:	00170713          	addi	a4,a4,1
   22594:	01bb1123          	sh	s11,2(s6)
   22598:	03013503          	ld	a0,48(sp)
   2259c:	02813783          	ld	a5,40(sp)
   225a0:	2ea70863          	beq	a4,a0,22890 <pass2_fs_dither+0x3e4>
   225a4:	00371513          	slli	a0,a4,0x3
   225a8:	03813583          	ld	a1,56(sp)
   225ac:	00a585b3          	add	a1,a1,a0
   225b0:	0005b483          	ld	s1,0(a1)
   225b4:	04013583          	ld	a1,64(sp)
   225b8:	00a58533          	add	a0,a1,a0
   225bc:	0487a583          	lw	a1,72(a5)
   225c0:	00053903          	ld	s2,0(a0)
   225c4:	04e13423          	sd	a4,72(sp)
   225c8:	02058863          	beqz	a1,225f8 <pass2_fs_dither+0x14c>
   225cc:	0407bc83          	ld	s9,64(a5)
   225d0:	00000693          	li	a3,0
   225d4:	01813503          	ld	a0,24(sp)
   225d8:	00a484b3          	add	s1,s1,a0
   225dc:	01013503          	ld	a0,16(sp)
   225e0:	00a90933          	add	s2,s2,a0
   225e4:	00813503          	ld	a0,8(sp)
   225e8:	00ac8cb3          	add	s9,s9,a0
   225ec:	ffd00f13          	li	t5,-3
   225f0:	fff00f93          	li	t6,-1
   225f4:	0140006f          	j	22608 <pass2_fs_dither+0x15c>
   225f8:	0407bc83          	ld	s9,64(a5)
   225fc:	00300f13          	li	t5,3
   22600:	00100693          	li	a3,1
   22604:	00100f93          	li	t6,1
   22608:	00000513          	li	a0,0
   2260c:	00000593          	li	a1,0
   22610:	00000613          	li	a2,0
   22614:	00000d13          	li	s10,0
   22618:	00094023          	regsw_c	zero,0(s2)
   2261c:	00000213          	li	tp,0
   22620:	00000193          	li	gp,0
   22624:	00000a93          	li	s5,0
   22628:	00000a13          	li	s4,0
   2262c:	00000d93          	li	s11,0
   22630:	04d7a423          	sw	a3,72(a5)
   22634:	00248493          	addi	s1,s1,2
   22638:	002c8c93          	addi	s9,s9,2
   2263c:	001844a3          	regsw_c	ra,9(a6)
   22640:	001f1093          	slli	ra,t5,0x1
   22644:	02013683          	ld	a3,32(sp)
   22648:	03f686b3          	mul	a3,a3,t6
   2264c:	00d90133          	add	sp,s2,a3
   22650:	09f13023          	sd	t6,128(sp)
   22654:	06113c23          	sd	ra,120(sp)
   22658:	06213823          	sd	sp,112(sp)
   2265c:	0c40006f          	j	22720 <pass2_fs_dither+0x274>
   22660:	fff50513          	addi	a0,a0,-1
   22664:	00a90023          	sb	a0,0(s2)
   22668:	00a385b3          	add	a1,t2,a0
   2266c:	0005c583          	lbu	a1,0(a1)
   22670:	00ae0633          	add	a2,t3,a0
   22674:	00064603          	lbu	a2,0(a2)
   22678:	00ae8533          	add	a0,t4,a0
   2267c:	00054503          	lbu	a0,0(a0)
   22680:	40bb86b3          	sub	a3,s7,a1
   22684:	40cc0733          	sub	a4,s8,a2
   22688:	40a40433          	sub	s0,s0,a0
   2268c:	00169513          	slli	a0,a3,0x1
   22690:	01568ab3          	add	s5,a3,s5
   22694:	01550533          	add	a0,a0,s5
   22698:	feac9f23          	sh	a0,-2(s9)
   2269c:	00269a93          	slli	s5,a3,0x2
   226a0:	01a68d33          	add	s10,a3,s10
   226a4:	01aa8ab3          	add	s5,s5,s10
   226a8:	00369513          	slli	a0,a3,0x3
   226ac:	40d50533          	sub	a0,a0,a3
   226b0:	00171593          	slli	a1,a4,0x1
   226b4:	01470633          	add	a2,a4,s4
   226b8:	00c585b3          	add	a1,a1,a2
   226bc:	00bc9023          	sh	a1,0(s9)
   226c0:	00271593          	slli	a1,a4,0x2
   226c4:	00024023          	regsw_c	zero,0(tp) # 0 <__abi_tag-0x10294>
   226c8:	00470a33          	add	s4,a4,tp
   226cc:	01458a33          	add	s4,a1,s4
   226d0:	00371593          	slli	a1,a4,0x3
   226d4:	40e585b3          	sub	a1,a1,a4
   226d8:	00141613          	slli	a2,s0,0x1
   226dc:	01b407b3          	add	a5,s0,s11
   226e0:	00f60633          	add	a2,a2,a5
   226e4:	00cc9123          	sh	a2,2(s9)
   226e8:	00241613          	slli	a2,s0,0x2
   226ec:	00024023          	regsw_c	zero,0(tp) # 0 <__abi_tag-0x10294>
   226f0:	00340db3          	add	s11,s0,gp
   226f4:	01b60db3          	add	s11,a2,s11
   226f8:	00341613          	slli	a2,s0,0x3
   226fc:	40860633          	sub	a2,a2,s0
   22700:	01f90933          	add	s2,s2,t6
   22704:	01e484b3          	add	s1,s1,t5
   22708:	000b0c93          	mv	s9,s6
   2270c:	00068d13          	mv	s10,a3
   22710:	00294023          	regsw_c	sp,0(s2)
   22714:	00070213          	mv	tp,a4
   22718:	00040193          	mv	gp,s0
   2271c:	e62904e3          	beq	s2,sp,22584 <pass2_fs_dither+0xd8>
   22720:	00024023          	regsw_c	zero,0(tp) # 0 <__abi_tag-0x10294>
   22724:	001c8b33          	add	s6,s9,ra
   22728:	ffeb1683          	lh	a3,-2(s6)
   2272c:	00d50533          	add	a0,a0,a3
   22730:	000b1683          	lh	a3,0(s6)
   22734:	00850513          	addi	a0,a0,8
   22738:	4045551b          	sraiw	a0,a0,0x4
   2273c:	002b1703          	lh	a4,2(s6)
   22740:	00d585b3          	add	a1,a1,a3
   22744:	00858593          	addi	a1,a1,8
   22748:	4045d59b          	sraiw	a1,a1,0x4
   2274c:	00e60633          	add	a2,a2,a4
   22750:	00860613          	addi	a2,a2,8
   22754:	4046561b          	sraiw	a2,a2,0x4
   22758:	00251513          	slli	a0,a0,0x2
   2275c:	00a30533          	add	a0,t1,a0
   22760:	00052503          	lw	a0,0(a0)
   22764:	00259593          	slli	a1,a1,0x2
   22768:	00b305b3          	add	a1,t1,a1
   2276c:	0005a583          	lw	a1,0(a1)
   22770:	00261613          	slli	a2,a2,0x2
   22774:	00c30633          	add	a2,t1,a2
   22778:	00062603          	lw	a2,0(a2)
   2277c:	ffe4c683          	lbu	a3,-2(s1)
   22780:	fff4c703          	lbu	a4,-1(s1)
   22784:	0004c783          	lbu	a5,0(s1)
   22788:	00d5053b          	addw	a0,a0,a3
   2278c:	00e585bb          	addw	a1,a1,a4
   22790:	00f6063b          	addw	a2,a2,a5
   22794:	00a28533          	add	a0,t0,a0
   22798:	00054b83          	lbu	s7,0(a0)
   2279c:	00b285b3          	add	a1,t0,a1
   227a0:	0005cc03          	lbu	s8,0(a1)
   227a4:	00c28633          	add	a2,t0,a2
   227a8:	00064403          	lbu	s0,0(a2)
   227ac:	0f8bf513          	andi	a0,s7,248
   227b0:	00a88533          	add	a0,a7,a0
   227b4:	00053983          	ld	s3,0(a0)
   227b8:	002c5613          	srli	a2,s8,0x2
   227bc:	00345693          	srli	a3,s0,0x3
   227c0:	00661513          	slli	a0,a2,0x6
   227c4:	00169593          	slli	a1,a3,0x1
   227c8:	00b50533          	add	a0,a0,a1
   227cc:	00a989b3          	add	s3,s3,a0
   227d0:	0009d503          	lhu	a0,0(s3)
   227d4:	e80516e3          	bnez	a0,22660 <pass2_fs_dither+0x1b4>
   227d8:	003bd593          	srli	a1,s7,0x3
   227dc:	00080513          	mv	a0,a6
   227e0:	0bb13823          	sd	s11,176(sp)
   227e4:	00088d93          	mv	s11,a7
   227e8:	09a13423          	sd	s10,136(sp)
   227ec:	00030d13          	mv	s10,t1
   227f0:	0b413023          	sd	s4,160(sp)
   227f4:	000e0a13          	mv	s4,t3
   227f8:	0b513423          	sd	s5,168(sp)
   227fc:	000f0a93          	mv	s5,t5
   22800:	13124223          	regsw_c	a7,292(tp) # 124 <__abi_tag-0x10170>
   22804:	08313c23          	sd	gp,152(sp)
   22808:	08413823          	sd	tp,144(sp)
   2280c:	6b4000ef          	jal	22ec0 <fill_inverse_cmap>
   22810:	09013203          	ld	tp,144(sp)
   22814:	09813183          	ld	gp,152(sp)
   22818:	07013103          	ld	sp,112(sp)
   2281c:	07813083          	ld	ra,120(sp)
   22820:	08013f83          	ld	t6,128(sp)
   22824:	000a8f13          	mv	t5,s5
   22828:	0a813a83          	ld	s5,168(sp)
   2282c:	05813e83          	ld	t4,88(sp)
   22830:	000a0e13          	mv	t3,s4
   22834:	0a013a03          	ld	s4,160(sp)
   22838:	06813383          	ld	t2,104(sp)
   2283c:	000d0313          	mv	t1,s10
   22840:	08813d03          	ld	s10,136(sp)
   22844:	06013283          	ld	t0,96(sp)
   22848:	000d8893          	mv	a7,s11
   2284c:	0b013d83          	ld	s11,176(sp)
   22850:	05013803          	ld	a6,80(sp)
   22854:	0009d503          	lhu	a0,0(s3)
   22858:	e09ff06f          	j	22660 <pass2_fs_dither+0x1b4>
   2285c:	0487a583          	lw	a1,72(a5)
   22860:	0407b603          	ld	a2,64(a5)
   22864:	0015b593          	seqz	a1,a1
   22868:	fff58713          	addi	a4,a1,-1
   2286c:	00a77733          	and	a4,a4,a0
   22870:	00171713          	slli	a4,a4,0x1
   22874:	00e60733          	add	a4,a2,a4
   22878:	00071023          	sh	zero,0(a4)
   2287c:	00071123          	sh	zero,2(a4)
   22880:	fff6869b          	addiw	a3,a3,-1
   22884:	00071223          	sh	zero,4(a4)
   22888:	fc069ee3          	bnez	a3,22864 <pass2_fs_dither+0x3b8>
   2288c:	04b7a423          	sw	a1,72(a5)
   22890:	11813083          	ld	ra,280(sp)
   22894:	11013403          	ld	s0,272(sp)
   22898:	10813483          	ld	s1,264(sp)
   2289c:	10013903          	ld	s2,256(sp)
   228a0:	0f813983          	ld	s3,248(sp)
   228a4:	0f013a03          	ld	s4,240(sp)
   228a8:	0e813a83          	ld	s5,232(sp)
   228ac:	0e013b03          	ld	s6,224(sp)
   228b0:	0d813b83          	ld	s7,216(sp)
   228b4:	0d013c03          	ld	s8,208(sp)
   228b8:	0c813c83          	ld	s9,200(sp)
   228bc:	0c013d03          	ld	s10,192(sp)
   228c0:	0b813d83          	ld	s11,184(sp)
   228c4:	12010113          	addi	sp,sp,288
   228c8:	00008067          	ret

00000000000228cc <pass2_no_dither>:
   228cc:	12d05663          	blez	a3,229f8 <pass2_no_dither+0x12c>
   228d0:	fa010113          	addi	sp,sp,-96
   228d4:	04113c23          	sd	ra,88(sp)
   228d8:	04813823          	sd	s0,80(sp)
   228dc:	04913423          	sd	s1,72(sp)
   228e0:	05213023          	sd	s2,64(sp)
   228e4:	03313c23          	sd	s3,56(sp)
   228e8:	03413823          	sd	s4,48(sp)
   228ec:	03513423          	sd	s5,40(sp)
   228f0:	03613023          	sd	s6,32(sp)
   228f4:	01713c23          	sd	s7,24(sp)
   228f8:	01813823          	sd	s8,16(sp)
   228fc:	01913423          	sd	s9,8(sp)
   22900:	01a13023          	sd	s10,0(sp)
   22904:	00050993          	mv	s3,a0
   22908:	08852503          	lw	a0,136(a0)
   2290c:	0a050c63          	beqz	a0,229c4 <pass2_no_dither+0xf8>
   22910:	00068413          	mv	s0,a3
   22914:	00060493          	mv	s1,a2
   22918:	00058913          	mv	s2,a1
   2291c:	2709b583          	ld	a1,624(s3)
   22920:	00000a13          	li	s4,0
   22924:	0305ba83          	ld	s5,48(a1)
   22928:	fff50513          	addi	a0,a0,-1
   2292c:	02051513          	slli	a0,a0,0x20
   22930:	02055513          	srli	a0,a0,0x20
   22934:	00150b13          	addi	s6,a0,1
   22938:	00c0006f          	j	22944 <pass2_no_dither+0x78>
   2293c:	001a0a13          	addi	s4,s4,1
   22940:	088a0263          	beq	s4,s0,229c4 <pass2_no_dither+0xf8>
   22944:	003a1513          	slli	a0,s4,0x3
   22948:	00a905b3          	add	a1,s2,a0
   2294c:	00a48533          	add	a0,s1,a0
   22950:	00053c83          	ld	s9,0(a0)
   22954:	0005bb83          	ld	s7,0(a1)
   22958:	016c8c33          	add	s8,s9,s6
   2295c:	01c0006f          	j	22978 <pass2_no_dither+0xac>
   22960:	fff50513          	addi	a0,a0,-1
   22964:	001c8593          	addi	a1,s9,1
   22968:	00ac8023          	sb	a0,0(s9)
   2296c:	003b8b93          	addi	s7,s7,3
   22970:	00058c93          	mv	s9,a1
   22974:	fd8584e3          	beq	a1,s8,2293c <pass2_no_dither+0x70>
   22978:	001bc603          	lbu	a2,1(s7)
   2297c:	002bc683          	lbu	a3,2(s7)
   22980:	000bc583          	lbu	a1,0(s7)
   22984:	00265613          	srli	a2,a2,0x2
   22988:	0036d693          	srli	a3,a3,0x3
   2298c:	0f85f513          	andi	a0,a1,248
   22990:	00aa8533          	add	a0,s5,a0
   22994:	00053d03          	ld	s10,0(a0)
   22998:	00661513          	slli	a0,a2,0x6
   2299c:	00169713          	slli	a4,a3,0x1
   229a0:	00e50533          	add	a0,a0,a4
   229a4:	00ad0d33          	add	s10,s10,a0
   229a8:	000d5503          	lhu	a0,0(s10)
   229ac:	fa051ae3          	bnez	a0,22960 <pass2_no_dither+0x94>
   229b0:	0035d593          	srli	a1,a1,0x3
   229b4:	00098513          	mv	a0,s3
   229b8:	508000ef          	jal	22ec0 <fill_inverse_cmap>
   229bc:	000d4503          	lbu	a0,0(s10)
   229c0:	fa1ff06f          	j	22960 <pass2_no_dither+0x94>
   229c4:	05813083          	ld	ra,88(sp)
   229c8:	05013403          	ld	s0,80(sp)
   229cc:	04813483          	ld	s1,72(sp)
   229d0:	04013903          	ld	s2,64(sp)
   229d4:	03813983          	ld	s3,56(sp)
   229d8:	03013a03          	ld	s4,48(sp)
   229dc:	02813a83          	ld	s5,40(sp)
   229e0:	02013b03          	ld	s6,32(sp)
   229e4:	01813b83          	ld	s7,24(sp)
   229e8:	01013c03          	ld	s8,16(sp)
   229ec:	00813c83          	ld	s9,8(sp)
   229f0:	00013d03          	ld	s10,0(sp)
   229f4:	06010113          	addi	sp,sp,96
   229f8:	00008067          	ret

00000000000229fc <finish_pass2>:
   229fc:	00008067          	ret

0000000000022a00 <update_box>:
   22a00:	0005a783          	lw	a5,0(a1)
   22a04:	0045a603          	lw	a2,4(a1)
   22a08:	0085a283          	lw	t0,8(a1)
   22a0c:	00c5a703          	lw	a4,12(a1)
   22a10:	0105a803          	lw	a6,16(a1)
   22a14:	0145a683          	lw	a3,20(a1)
   22a18:	00078893          	mv	a7,a5
   22a1c:	08c7da63          	bge	a5,a2,22ab0 <update_box+0xb0>
   22a20:	08574863          	blt	a4,t0,22ab0 <update_box+0xb0>
   22a24:	0906c663          	blt	a3,a6,22ab0 <update_box+0xb0>
   22a28:	00060393          	mv	t2,a2
   22a2c:	00c8c463          	blt	a7,a2,22a34 <update_box+0x34>
   22a30:	00088393          	mv	t2,a7
   22a34:	0017031b          	addiw	t1,a4,1
   22a38:	0013839b          	addiw	t2,t2,1
   22a3c:	41068e3b          	subw	t3,a3,a6
   22a40:	001e0e13          	addi	t3,t3,1
   22a44:	00181e93          	slli	t4,a6,0x1
   22a48:	00379f13          	slli	t5,a5,0x3
   22a4c:	01e50f33          	add	t5,a0,t5
   22a50:	000f3f03          	ld	t5,0(t5)
   22a54:	00028f93          	mv	t6,t0
   22a58:	01d94023          	regsw_c	t4,0(s2)
   22a5c:	006f9093          	slli	ra,t6,0x6
   22a60:	001f00b3          	add	ra,t5,ra
   22a64:	01d080b3          	add	ra,ra,t4
   22a68:	000e0113          	mv	sp,t3
   22a6c:	000cc023          	regsw_c	zero,0(s9)
   22a70:	0000d183          	lhu	gp,0(ra)
   22a74:	02019a63          	bnez	gp,22aa8 <update_box+0xa8>
   22a78:	004dc023          	regsw_c	tp,0(s11)
   22a7c:	fff1011b          	addiw	sp,sp,-1
   22a80:	00208093          	addi	ra,ra,2
   22a84:	fe0114e3          	bnez	sp,22a6c <update_box+0x6c>
   22a88:	00284023          	regsw_c	sp,0(a6)
   22a8c:	001f809b          	addiw	ra,t6,1
   22a90:	001f8f93          	addi	t6,t6,1
   22a94:	fc1312e3          	bne	t1,ra,22a58 <update_box+0x58>
   22a98:	00178f1b          	addiw	t5,a5,1
   22a9c:	00178793          	addi	a5,a5,1
   22aa0:	fbe394e3          	bne	t2,t5,22a48 <update_box+0x48>
   22aa4:	00c0006f          	j	22ab0 <update_box+0xb0>
   22aa8:	00f5a023          	sw	a5,0(a1)
   22aac:	00078893          	mv	a7,a5
   22ab0:	0008879b          	sext.w	a5,a7
   22ab4:	08c7d863          	bge	a5,a2,22b44 <update_box+0x144>
   22ab8:	08574663          	blt	a4,t0,22b44 <update_box+0x144>
   22abc:	0906c463          	blt	a3,a6,22b44 <update_box+0x144>
   22ac0:	0017031b          	addiw	t1,a4,1
   22ac4:	0008839b          	sext.w	t2,a7
   22ac8:	41068e3b          	subw	t3,a3,a6
   22acc:	001e0e13          	addi	t3,t3,1
   22ad0:	00181e93          	slli	t4,a6,0x1
   22ad4:	00060f93          	mv	t6,a2
   22ad8:	000f8f13          	mv	t5,t6
   22adc:	003f9f93          	slli	t6,t6,0x3
   22ae0:	01f50fb3          	add	t6,a0,t6
   22ae4:	000fbf83          	ld	t6,0(t6)
   22ae8:	00084023          	regsw_c	zero,0(a6)
   22aec:	00028093          	mv	ra,t0
   22af0:	01dd4023          	regsw_c	t4,0(s10)
   22af4:	00609113          	slli	sp,ra,0x6
   22af8:	002f8133          	add	sp,t6,sp
   22afc:	01d10133          	add	sp,sp,t4
   22b00:	000e0193          	mv	gp,t3
   22b04:	000cc023          	regsw_c	zero,0(s9)
   22b08:	00015203          	lhu	tp,0(sp)
   22b0c:	02021863          	bnez	tp,22b3c <update_box+0x13c>
   22b10:	004dc023          	regsw_c	tp,0(s11)
   22b14:	fff1819b          	addiw	gp,gp,-1 # 2a8b7 <__BSS_END__+0x77f>
   22b18:	00210113          	addi	sp,sp,2
   22b1c:	fe0194e3          	bnez	gp,22b04 <update_box+0x104>
   22b20:	002dc023          	regsw_c	sp,0(s11)
   22b24:	0010811b          	addiw	sp,ra,1
   22b28:	00108093          	addi	ra,ra,1
   22b2c:	fc2312e3          	bne	t1,sp,22af0 <update_box+0xf0>
   22b30:	ffff0f93          	addi	t6,t5,-1
   22b34:	fbe3c2e3          	blt	t2,t5,22ad8 <update_box+0xd8>
   22b38:	00c0006f          	j	22b44 <update_box+0x144>
   22b3c:	01e5a223          	sw	t5,4(a1)
   22b40:	000f0613          	mv	a2,t5
   22b44:	0006031b          	sext.w	t1,a2
   22b48:	0ae2d463          	bge	t0,a4,22bf0 <update_box+0x1f0>
   22b4c:	0008839b          	sext.w	t2,a7
   22b50:	0a734063          	blt	t1,t2,22bf0 <update_box+0x1f0>
   22b54:	0906ce63          	blt	a3,a6,22bf0 <update_box+0x1f0>
   22b58:	00028e93          	mv	t4,t0
   22b5c:	00574463          	blt	a4,t0,22b64 <update_box+0x164>
   22b60:	00070e93          	mv	t4,a4
   22b64:	00160e1b          	addiw	t3,a2,1
   22b68:	001e8e9b          	addiw	t4,t4,1
   22b6c:	41068fbb          	subw	t6,a3,a6
   22b70:	001f8f93          	addi	t6,t6,1
   22b74:	00084023          	regsw_c	zero,0(a6)
   22b78:	00181093          	slli	ra,a6,0x1
   22b7c:	00028f13          	mv	t5,t0
   22b80:	00094023          	regsw_c	zero,0(s2)
   22b84:	006f1113          	slli	sp,t5,0x6
   22b88:	00038193          	mv	gp,t2
   22b8c:	7fdd4023          	regsw_c	t4,2016(s10)
   22b90:	00319213          	slli	tp,gp,0x3
   22b94:	00450233          	add	tp,a0,tp
   22b98:	00023203          	ld	tp,0(tp) # 0 <__abi_tag-0x10294>
   22b9c:	001102b3          	add	t0,sp,ra
   22ba0:	00520233          	add	tp,tp,t0
   22ba4:	000f8293          	mv	t0,t6
   22ba8:	000cc023          	regsw_c	zero,0(s9)
   22bac:	00025303          	lhu	t1,0(tp) # 0 <__abi_tag-0x10294>
   22bb0:	02031c63          	bnez	t1,22be8 <update_box+0x1e8>
   22bb4:	004dc023          	regsw_c	tp,0(s11)
   22bb8:	fff2829b          	addiw	t0,t0,-1
   22bbc:	00220213          	addi	tp,tp,2 # 2 <__abi_tag-0x10292>
   22bc0:	fe0294e3          	bnez	t0,22ba8 <update_box+0x1a8>
   22bc4:	002dc023          	regsw_c	sp,0(s11)
   22bc8:	0011821b          	addiw	tp,gp,1 # 2a8b9 <__global_pointer$+0x1>
   22bcc:	00118193          	addi	gp,gp,1 # 2a8b9 <__global_pointer$+0x1>
   22bd0:	fa4e1ee3          	bne	t3,tp,22b8c <update_box+0x18c>
   22bd4:	00284023          	regsw_c	sp,0(a6)
   22bd8:	001f011b          	addiw	sp,t5,1
   22bdc:	001f0f13          	addi	t5,t5,1
   22be0:	fa2e90e3          	bne	t4,sp,22b80 <update_box+0x180>
   22be4:	00c0006f          	j	22bf0 <update_box+0x1f0>
   22be8:	01e5a423          	sw	t5,8(a1)
   22bec:	000f0293          	mv	t0,t5
   22bf0:	0002839b          	sext.w	t2,t0
   22bf4:	0ae3d063          	bge	t2,a4,22c94 <update_box+0x294>
   22bf8:	00088e1b          	sext.w	t3,a7
   22bfc:	09c34c63          	blt	t1,t3,22c94 <update_box+0x294>
   22c00:	0906ca63          	blt	a3,a6,22c94 <update_box+0x294>
   22c04:	00160e9b          	addiw	t4,a2,1
   22c08:	00028f1b          	sext.w	t5,t0
   22c0c:	41068fbb          	subw	t6,a3,a6
   22c10:	001f8f93          	addi	t6,t6,1
   22c14:	00094023          	regsw_c	zero,0(s2)
   22c18:	00181093          	slli	ra,a6,0x1
   22c1c:	00070193          	mv	gp,a4
   22c20:	008dc023          	regsw_c	s0,0(s11)
   22c24:	00018113          	mv	sp,gp
   22c28:	00619193          	slli	gp,gp,0x6
   22c2c:	000e0213          	mv	tp,t3
   22c30:	7fdd4023          	regsw_c	t4,2016(s10)
   22c34:	00321293          	slli	t0,tp,0x3
   22c38:	005502b3          	add	t0,a0,t0
   22c3c:	0002b283          	ld	t0,0(t0)
   22c40:	00118333          	add	t1,gp,ra
   22c44:	006282b3          	add	t0,t0,t1
   22c48:	000f8313          	mv	t1,t6
   22c4c:	000cc023          	regsw_c	zero,0(s9)
   22c50:	0002d383          	lhu	t2,0(t0)
   22c54:	02039a63          	bnez	t2,22c88 <update_box+0x288>
   22c58:	004dc023          	regsw_c	tp,0(s11)
   22c5c:	fff3031b          	addiw	t1,t1,-1
   22c60:	00228293          	addi	t0,t0,2
   22c64:	fe0314e3          	bnez	t1,22c4c <update_box+0x24c>
   22c68:	002dc023          	regsw_c	sp,0(s11)
   22c6c:	0012029b          	addiw	t0,tp,1 # 1 <__abi_tag-0x10293>
   22c70:	00120213          	addi	tp,tp,1 # 1 <__abi_tag-0x10293>
   22c74:	fa5e9ee3          	bne	t4,t0,22c30 <update_box+0x230>
   22c78:	010c4023          	regsw_c	a6,0(s8)
   22c7c:	fff10193          	addi	gp,sp,-1
   22c80:	fa2f40e3          	blt	t5,sp,22c20 <update_box+0x220>
   22c84:	0100006f          	j	22c94 <update_box+0x294>
   22c88:	0002c023          	regsw_c	zero,0(t0)
   22c8c:	0025a623          	sw	sp,12(a1)
   22c90:	00010713          	mv	a4,sp
   22c94:	40570ebb          	subw	t4,a4,t0
   22c98:	0ad85a63          	bge	a6,a3,22d4c <update_box+0x34c>
   22c9c:	00088e1b          	sext.w	t3,a7
   22ca0:	0bc34663          	blt	t1,t3,22d4c <update_box+0x34c>
   22ca4:	00284023          	regsw_c	sp,0(a6)
   22ca8:	0002819b          	sext.w	gp,t0
   22cac:	00070f1b          	sext.w	t5,a4
   22cb0:	083f4e63          	blt	t5,gp,22d4c <update_box+0x34c>
   22cb4:	00080f93          	mv	t6,a6
   22cb8:	0106c463          	blt	a3,a6,22cc0 <update_box+0x2c0>
   22cbc:	00068f93          	mv	t6,a3
   22cc0:	00160f1b          	addiw	t5,a2,1
   22cc4:	001f8f9b          	addiw	t6,t6,1
   22cc8:	0089c023          	regsw_c	s0,0(s3)
   22ccc:	001e8113          	addi	sp,t4,1
   22cd0:	00619193          	slli	gp,gp,0x6
   22cd4:	00080093          	mv	ra,a6
   22cd8:	000d4023          	regsw_c	zero,0(s10)
   22cdc:	00109213          	slli	tp,ra,0x1
   22ce0:	000e0293          	mv	t0,t3
   22ce4:	7fdd4823          	regsw_c	t4,2032(s10)
   22ce8:	00329313          	slli	t1,t0,0x3
   22cec:	00650333          	add	t1,a0,t1
   22cf0:	00033303          	ld	t1,0(t1)
   22cf4:	004183b3          	add	t2,gp,tp
   22cf8:	00730333          	add	t1,t1,t2
   22cfc:	00010393          	mv	t2,sp
   22d00:	000cc023          	regsw_c	zero,0(s9)
   22d04:	00035403          	lhu	s0,0(t1)
   22d08:	02041c63          	bnez	s0,22d40 <update_box+0x340>
   22d0c:	004dc023          	regsw_c	tp,0(s11)
   22d10:	fff3839b          	addiw	t2,t2,-1
   22d14:	04030313          	addi	t1,t1,64
   22d18:	fe0394e3          	bnez	t2,22d00 <update_box+0x300>
   22d1c:	002dc023          	regsw_c	sp,0(s11)
   22d20:	0012831b          	addiw	t1,t0,1
   22d24:	00128293          	addi	t0,t0,1
   22d28:	fa6f1ee3          	bne	t5,t1,22ce4 <update_box+0x2e4>
   22d2c:	002dc023          	regsw_c	sp,0(s11)
   22d30:	0010821b          	addiw	tp,ra,1
   22d34:	00108093          	addi	ra,ra,1
   22d38:	fa4f90e3          	bne	t6,tp,22cd8 <update_box+0x2d8>
   22d3c:	0100006f          	j	22d4c <update_box+0x34c>
   22d40:	0002c023          	regsw_c	zero,0(t0)
   22d44:	0015a823          	sw	ra,16(a1)
   22d48:	00008813          	mv	a6,ra
   22d4c:	00080e1b          	sext.w	t3,a6
   22d50:	0ade5263          	bge	t3,a3,22df4 <update_box+0x3f4>
   22d54:	00088f1b          	sext.w	t5,a7
   22d58:	09e34e63          	blt	t1,t5,22df4 <update_box+0x3f4>
   22d5c:	00284023          	regsw_c	sp,0(a6)
   22d60:	0002809b          	sext.w	ra,t0
   22d64:	0007029b          	sext.w	t0,a4
   22d68:	0812c663          	blt	t0,ra,22df4 <update_box+0x3f4>
   22d6c:	0016029b          	addiw	t0,a2,1
   22d70:	001e8f93          	addi	t6,t4,1
   22d74:	000d4023          	regsw_c	zero,0(s10)
   22d78:	00609093          	slli	ra,ra,0x6
   22d7c:	00068193          	mv	gp,a3
   22d80:	008dc023          	regsw_c	s0,0(s11)
   22d84:	00018113          	mv	sp,gp
   22d88:	00119193          	slli	gp,gp,0x1
   22d8c:	000f0213          	mv	tp,t5
   22d90:	7fdd4023          	regsw_c	t4,2016(s10)
   22d94:	00321293          	slli	t0,tp,0x3
   22d98:	005502b3          	add	t0,a0,t0
   22d9c:	0002b283          	ld	t0,0(t0)
   22da0:	00308333          	add	t1,ra,gp
   22da4:	006282b3          	add	t0,t0,t1
   22da8:	000f8313          	mv	t1,t6
   22dac:	000cc023          	regsw_c	zero,0(s9)
   22db0:	0002d383          	lhu	t2,0(t0)
   22db4:	02039a63          	bnez	t2,22de8 <update_box+0x3e8>
   22db8:	004dc023          	regsw_c	tp,0(s11)
   22dbc:	fff3031b          	addiw	t1,t1,-1
   22dc0:	04028293          	addi	t0,t0,64
   22dc4:	fe0314e3          	bnez	t1,22dac <update_box+0x3ac>
   22dc8:	002dc023          	regsw_c	sp,0(s11)
   22dcc:	0012029b          	addiw	t0,tp,1 # 1 <__abi_tag-0x10293>
   22dd0:	00120213          	addi	tp,tp,1 # 1 <__abi_tag-0x10293>
   22dd4:	fa529ee3          	bne	t0,t0,22d90 <update_box+0x390>
   22dd8:	010c4023          	regsw_c	a6,0(s8)
   22ddc:	fff10193          	addi	gp,sp,-1
   22de0:	fa2e40e3          	blt	t3,sp,22d80 <update_box+0x380>
   22de4:	0100006f          	j	22df4 <update_box+0x3f4>
   22de8:	0002c023          	regsw_c	zero,0(t0)
   22dec:	0025aa23          	sw	sp,20(a1)
   22df0:	00010693          	mv	a3,sp
   22df4:	411608bb          	subw	a7,a2,a7
   22df8:	0048929b          	slliw	t0,a7,0x4
   22dfc:	00c00893          	li	a7,12
   22e00:	031e8ebb          	mulw	t4,t4,a7
   22e04:	410688bb          	subw	a7,a3,a6
   22e08:	0038981b          	slliw	a6,a7,0x3
   22e0c:	025282b3          	mul	t0,t0,t0
   22e10:	03de8eb3          	mul	t4,t4,t4
   22e14:	005e82b3          	add	t0,t4,t0
   22e18:	03080833          	mul	a6,a6,a6
   22e1c:	01028833          	add	a6,t0,a6
   22e20:	0105bc23          	sd	a6,24(a1)
   22e24:	00f35663          	bge	t1,a5,22e30 <update_box+0x430>
   22e28:	0205b023          	sd	zero,32(a1)
   22e2c:	00008067          	ret
   22e30:	0007081b          	sext.w	a6,a4
   22e34:	00785663          	bge	a6,t2,22e40 <update_box+0x440>
   22e38:	0205b023          	sd	zero,32(a1)
   22e3c:	00008067          	ret
   22e40:	00000813          	li	a6,0
   22e44:	0017071b          	addiw	a4,a4,1
   22e48:	0016061b          	addiw	a2,a2,1
   22e4c:	00188893          	addi	a7,a7,1
   22e50:	0006869b          	sext.w	a3,a3
   22e54:	001e1293          	slli	t0,t3,0x1
   22e58:	0100006f          	j	22e68 <update_box+0x468>
   22e5c:	0017831b          	addiw	t1,a5,1
   22e60:	00178793          	addi	a5,a5,1
   22e64:	04660a63          	beq	a2,t1,22eb8 <update_box+0x4b8>
   22e68:	ffc6cae3          	blt	a3,t3,22e5c <update_box+0x45c>
   22e6c:	00379313          	slli	t1,a5,0x3
   22e70:	00650333          	add	t1,a0,t1
   22e74:	00033303          	ld	t1,0(t1)
   22e78:	00038e93          	mv	t4,t2
   22e7c:	006e9f13          	slli	t5,t4,0x6
   22e80:	01e30f33          	add	t5,t1,t5
   22e84:	005f0f33          	add	t5,t5,t0
   22e88:	00088f93          	mv	t6,a7
   22e8c:	01294023          	regsw_c	s2,0(s2)
   22e90:	000f5083          	lhu	ra,0(t5)
   22e94:	001030b3          	snez	ra,ra
   22e98:	00180833          	add	a6,a6,ra
   22e9c:	ffff8f9b          	addiw	t6,t6,-1
   22ea0:	002f0f13          	addi	t5,t5,2
   22ea4:	fe0f94e3          	bnez	t6,22e8c <update_box+0x48c>
   22ea8:	001e8f1b          	addiw	t5,t4,1
   22eac:	001e8e93          	addi	t4,t4,1
   22eb0:	fde716e3          	bne	a4,t5,22e7c <update_box+0x47c>
   22eb4:	fa9ff06f          	j	22e5c <update_box+0x45c>
   22eb8:	0305b023          	sd	a6,32(a1)
   22ebc:	00008067          	ret

0000000000022ec0 <fill_inverse_cmap>:
   22ec0:	80010113          	addi	sp,sp,-2048
   22ec4:	e7010113          	addi	sp,sp,-400
   22ec8:	27053703          	ld	a4,624(a0)
   22ecc:	03073703          	ld	a4,48(a4)
   22ed0:	0035929b          	slliw	t0,a1,0x3
   22ed4:	fe02f793          	andi	a5,t0,-32
   22ed8:	00478793          	addi	a5,a5,4
   22edc:	00261e1b          	slliw	t3,a2,0x2
   22ee0:	fe0e7813          	andi	a6,t3,-32
   22ee4:	09c52303          	lw	t1,156(a0)
   22ee8:	00280813          	addi	a6,a6,2
   22eec:	00369f1b          	slliw	t5,a3,0x3
   22ef0:	fe0f7893          	andi	a7,t5,-32
   22ef4:	00488893          	addi	a7,a7,4
   22ef8:	20605063          	blez	t1,230f8 <fill_inverse_cmap+0x238>
   22efc:	01c2e293          	ori	t0,t0,28
   22f00:	005783b3          	add	t2,a5,t0
   22f04:	0013d39b          	srliw	t2,t2,0x1
   22f08:	01ee6e13          	ori	t3,t3,30
   22f0c:	01c80eb3          	add	t4,a6,t3
   22f10:	001ede9b          	srliw	t4,t4,0x1
   22f14:	1a084b23          	regsw_c	zero,438(a6)
   22f18:	0a053183          	ld	gp,160(a0)
   22f1c:	01cf6f13          	ori	t5,t5,28
   22f20:	01e88fb3          	add	t6,a7,t5
   22f24:	001fdf9b          	srliw	t6,t6,0x1
   22f28:	0001b083          	ld	ra,0(gp) # 2a8b8 <__global_pointer$>
   22f2c:	0081b103          	ld	sp,8(gp) # 2a8c0 <__global_pointer$+0x8>
   22f30:	0101b183          	ld	gp,16(gp) # 2a8c8 <__global_pointer$+0x10>
   22f34:	18f94023          	regsw_c	a5,384(s2)
   22f38:	00331293          	slli	t0,t1,0x3
   22f3c:	19010213          	addi	tp,sp,400
   22f40:	005202b3          	add	t0,tp,t0
   22f44:	80000337          	lui	t1,0x80000
   22f48:	fff3031b          	addiw	t1,t1,-1 # 7fffffff <__global_pointer$+0x7ffd5747>
   22f4c:	0200006f          	j	22f6c <fill_inverse_cmap+0xac>
   22f50:	58ddcc23          	regsw_c	a3,1432(s11)
   22f54:	00820213          	addi	tp,tp,8 # 8 <__abi_tag-0x1028c>
   22f58:	00118193          	addi	gp,gp,1 # 2a8b9 <__global_pointer$+0x1>
   22f5c:	00110113          	addi	sp,sp,1
   22f60:	00108093          	addi	ra,ra,1
   22f64:	00040313          	mv	t1,s0
   22f68:	14520a63          	beq	tp,t0,230bc <fill_inverse_cmap+0x1fc>
   22f6c:	000cc023          	regsw_c	zero,0(s9)
   22f70:	0000c403          	lbu	s0,0(ra)
   22f74:	04f45863          	bge	s0,a5,22fc4 <fill_inverse_cmap+0x104>
   22f78:	00edc023          	regsw_c	a4,0(s11)
   22f7c:	40f403bb          	subw	t2,s0,a5
   22f80:	0013939b          	slliw	t2,t2,0x1
   22f84:	027383b3          	mul	t2,t2,t2
   22f88:	48fdc023          	regsw_c	a5,1152(s11)
   22f8c:	4054043b          	subw	s0,s0,t0
   22f90:	0014141b          	slliw	s0,s0,0x1
   22f94:	02840433          	mul	s0,s0,s0
   22f98:	00014483          	lbu	s1,0(sp)
   22f9c:	0704d463          	bge	s1,a6,23004 <fill_inverse_cmap+0x144>
   22fa0:	7cfdc023          	regsw_c	a5,1984(s11)
   22fa4:	4104853b          	subw	a0,s1,a6
   22fa8:	00151593          	slli	a1,a0,0x1
   22fac:	00a5853b          	addw	a0,a1,a0
   22fb0:	02a50533          	mul	a0,a0,a0
   22fb4:	007503b3          	add	t2,a0,t2
   22fb8:	000c4023          	regsw_c	zero,0(s8)
   22fbc:	41c484bb          	subw	s1,s1,t3
   22fc0:	0780006f          	j	23038 <fill_inverse_cmap+0x178>
   22fc4:	00024023          	regsw_c	zero,0(tp) # 0 <__abi_tag-0x10294>
   22fc8:	0082dc63          	bge	t0,s0,22fe0 <fill_inverse_cmap+0x120>
   22fcc:	00edc023          	regsw_c	a4,0(s11)
   22fd0:	405403bb          	subw	t2,s0,t0
   22fd4:	0013939b          	slliw	t2,t2,0x1
   22fd8:	027383b3          	mul	t2,t2,t2
   22fdc:	0100006f          	j	22fec <fill_inverse_cmap+0x12c>
   22fe0:	01084023          	regsw_c	a6,0(a6)
   22fe4:	00000393          	li	t2,0
   22fe8:	fa83f0e3          	bgeu	t2,s0,22f88 <fill_inverse_cmap+0xc8>
   22fec:	48fdc023          	regsw_c	a5,1152(s11)
   22ff0:	40f4043b          	subw	s0,s0,a5
   22ff4:	0014141b          	slliw	s0,s0,0x1
   22ff8:	02840433          	mul	s0,s0,s0
   22ffc:	00014483          	lbu	s1,0(sp)
   23000:	fb04c0e3          	blt	s1,a6,22fa0 <fill_inverse_cmap+0xe0>
   23004:	00024023          	regsw_c	zero,0(tp) # 0 <__abi_tag-0x10294>
   23008:	029e5063          	bge	t3,s1,23028 <fill_inverse_cmap+0x168>
   2300c:	7cfdc023          	regsw_c	a5,1984(s11)
   23010:	41c4853b          	subw	a0,s1,t3
   23014:	00151593          	slli	a1,a0,0x1
   23018:	00a5853b          	addw	a0,a1,a0
   2301c:	02a50533          	mul	a0,a0,a0
   23020:	007503b3          	add	t2,a0,t2
   23024:	00c0006f          	j	23030 <fill_inverse_cmap+0x170>
   23028:	00024023          	regsw_c	zero,0(tp) # 0 <__abi_tag-0x10294>
   2302c:	f89ef6e3          	bgeu	t4,s1,22fb8 <fill_inverse_cmap+0xf8>
   23030:	000c4023          	regsw_c	zero,0(s8)
   23034:	410484bb          	subw	s1,s1,a6
   23038:	49fdc023          	regsw_c	t6,1152(s11)
   2303c:	00149513          	slli	a0,s1,0x1
   23040:	009504bb          	addw	s1,a0,s1
   23044:	029484b3          	mul	s1,s1,s1
   23048:	0001c503          	lbu	a0,0(gp) # 2a8b8 <__global_pointer$>
   2304c:	03155063          	bge	a0,a7,2306c <fill_inverse_cmap+0x1ac>
   23050:	01edc023          	regsw_c	t5,0(s11)
   23054:	411505bb          	subw	a1,a0,a7
   23058:	02b585b3          	mul	a1,a1,a1
   2305c:	007583b3          	add	t2,a1,t2
   23060:	000c4023          	regsw_c	zero,0(s8)
   23064:	41e5053b          	subw	a0,a0,t5
   23068:	0300006f          	j	23098 <fill_inverse_cmap+0x1d8>
   2306c:	00024023          	regsw_c	zero,0(tp) # 0 <__abi_tag-0x10294>
   23070:	00af5c63          	bge	t5,a0,23088 <fill_inverse_cmap+0x1c8>
   23074:	01edc023          	regsw_c	t5,0(s11)
   23078:	41e505bb          	subw	a1,a0,t5
   2307c:	02b585b3          	mul	a1,a1,a1
   23080:	007583b3          	add	t2,a1,t2
   23084:	00c0006f          	j	23090 <fill_inverse_cmap+0x1d0>
   23088:	00024023          	regsw_c	zero,0(tp) # 0 <__abi_tag-0x10294>
   2308c:	fcaffae3          	bgeu	t6,a0,23060 <fill_inverse_cmap+0x1a0>
   23090:	000c4023          	regsw_c	zero,0(s8)
   23094:	4115053b          	subw	a0,a0,a7
   23098:	6defc023          	regsw_c	t5,1728(t6)
   2309c:	02a50533          	mul	a0,a0,a0
   230a0:	00848433          	add	s0,s1,s0
   230a4:	00a40433          	add	s0,s0,a0
   230a8:	00723023          	sd	t2,0(tp) # 0 <__abi_tag-0x10294>
   230ac:	ea6442e3          	blt	s0,t1,22f50 <fill_inverse_cmap+0x90>
   230b0:	000c4023          	regsw_c	zero,0(s8)
   230b4:	00030413          	mv	s0,t1
   230b8:	e99ff06f          	j	22f50 <fill_inverse_cmap+0x90>
   230bc:	00000393          	li	t2,0
   230c0:	00000293          	li	t0,0
   230c4:	19010e13          	addi	t3,sp,400
   230c8:	09010e93          	addi	t4,sp,144
   230cc:	0100006f          	j	230dc <fill_inverse_cmap+0x21c>
   230d0:	00138393          	addi	t2,t2,1
   230d4:	008e0e13          	addi	t3,t3,8
   230d8:	02730263          	beq	t1,t2,230fc <fill_inverse_cmap+0x23c>
   230dc:	000e3f03          	ld	t5,0(t3)
   230e0:	00044023          	regsw_c	zero,0(s0)
   230e4:	ffe446e3          	blt	s0,t5,230d0 <fill_inverse_cmap+0x210>
   230e8:	005e8f33          	add	t5,t4,t0
   230ec:	0012829b          	addiw	t0,t0,1
   230f0:	007f0023          	sb	t2,0(t5)
   230f4:	fddff06f          	j	230d0 <fill_inverse_cmap+0x210>
   230f8:	00000293          	li	t0,0
   230fc:	80000337          	lui	t1,0x80000
   23100:	fff3031b          	addiw	t1,t1,-1 # 7fffffff <__global_pointer$+0x7ffd5747>
   23104:	18613823          	sd	t1,400(sp)
   23108:	18613c23          	sd	t1,408(sp)
   2310c:	1a613023          	sd	t1,416(sp)
   23110:	1a613423          	sd	t1,424(sp)
   23114:	1a613823          	sd	t1,432(sp)
   23118:	1a613c23          	sd	t1,440(sp)
   2311c:	1c613023          	sd	t1,448(sp)
   23120:	1c613423          	sd	t1,456(sp)
   23124:	1c613823          	sd	t1,464(sp)
   23128:	1c613c23          	sd	t1,472(sp)
   2312c:	1e613023          	sd	t1,480(sp)
   23130:	1e613423          	sd	t1,488(sp)
   23134:	1e613823          	sd	t1,496(sp)
   23138:	1e613c23          	sd	t1,504(sp)
   2313c:	20613023          	sd	t1,512(sp)
   23140:	20613423          	sd	t1,520(sp)
   23144:	20613823          	sd	t1,528(sp)
   23148:	20613c23          	sd	t1,536(sp)
   2314c:	22613023          	sd	t1,544(sp)
   23150:	22613423          	sd	t1,552(sp)
   23154:	22613823          	sd	t1,560(sp)
   23158:	22613c23          	sd	t1,568(sp)
   2315c:	24613023          	sd	t1,576(sp)
   23160:	24613423          	sd	t1,584(sp)
   23164:	24613823          	sd	t1,592(sp)
   23168:	24613c23          	sd	t1,600(sp)
   2316c:	26613023          	sd	t1,608(sp)
   23170:	26613423          	sd	t1,616(sp)
   23174:	26613823          	sd	t1,624(sp)
   23178:	26613c23          	sd	t1,632(sp)
   2317c:	28613023          	sd	t1,640(sp)
   23180:	28613423          	sd	t1,648(sp)
   23184:	28613823          	sd	t1,656(sp)
   23188:	28613c23          	sd	t1,664(sp)
   2318c:	2a613023          	sd	t1,672(sp)
   23190:	2a613423          	sd	t1,680(sp)
   23194:	2a613823          	sd	t1,688(sp)
   23198:	2a613c23          	sd	t1,696(sp)
   2319c:	2c613023          	sd	t1,704(sp)
   231a0:	2c613423          	sd	t1,712(sp)
   231a4:	2c613823          	sd	t1,720(sp)
   231a8:	2c613c23          	sd	t1,728(sp)
   231ac:	2e613023          	sd	t1,736(sp)
   231b0:	2e613423          	sd	t1,744(sp)
   231b4:	2e613823          	sd	t1,752(sp)
   231b8:	2e613c23          	sd	t1,760(sp)
   231bc:	30613023          	sd	t1,768(sp)
   231c0:	30613423          	sd	t1,776(sp)
   231c4:	30613823          	sd	t1,784(sp)
   231c8:	30613c23          	sd	t1,792(sp)
   231cc:	32613023          	sd	t1,800(sp)
   231d0:	32613423          	sd	t1,808(sp)
   231d4:	32613823          	sd	t1,816(sp)
   231d8:	32613c23          	sd	t1,824(sp)
   231dc:	34613023          	sd	t1,832(sp)
   231e0:	34613423          	sd	t1,840(sp)
   231e4:	34613823          	sd	t1,848(sp)
   231e8:	34613c23          	sd	t1,856(sp)
   231ec:	36613023          	sd	t1,864(sp)
   231f0:	36613423          	sd	t1,872(sp)
   231f4:	36613823          	sd	t1,880(sp)
   231f8:	36613c23          	sd	t1,888(sp)
   231fc:	38613023          	sd	t1,896(sp)
   23200:	38613423          	sd	t1,904(sp)
   23204:	38613823          	sd	t1,912(sp)
   23208:	38613c23          	sd	t1,920(sp)
   2320c:	3a613023          	sd	t1,928(sp)
   23210:	3a613423          	sd	t1,936(sp)
   23214:	3a613823          	sd	t1,944(sp)
   23218:	3a613c23          	sd	t1,952(sp)
   2321c:	3c613023          	sd	t1,960(sp)
   23220:	3c613423          	sd	t1,968(sp)
   23224:	3c613823          	sd	t1,976(sp)
   23228:	3c613c23          	sd	t1,984(sp)
   2322c:	3e613023          	sd	t1,992(sp)
   23230:	3e613423          	sd	t1,1000(sp)
   23234:	3e613823          	sd	t1,1008(sp)
   23238:	3e613c23          	sd	t1,1016(sp)
   2323c:	40613023          	sd	t1,1024(sp)
   23240:	40613423          	sd	t1,1032(sp)
   23244:	40613823          	sd	t1,1040(sp)
   23248:	40613c23          	sd	t1,1048(sp)
   2324c:	42613023          	sd	t1,1056(sp)
   23250:	42613423          	sd	t1,1064(sp)
   23254:	42613823          	sd	t1,1072(sp)
   23258:	42613c23          	sd	t1,1080(sp)
   2325c:	44613023          	sd	t1,1088(sp)
   23260:	44613423          	sd	t1,1096(sp)
   23264:	44613823          	sd	t1,1104(sp)
   23268:	44613c23          	sd	t1,1112(sp)
   2326c:	46613023          	sd	t1,1120(sp)
   23270:	46613423          	sd	t1,1128(sp)
   23274:	46613823          	sd	t1,1136(sp)
   23278:	46613c23          	sd	t1,1144(sp)
   2327c:	48613023          	sd	t1,1152(sp)
   23280:	48613423          	sd	t1,1160(sp)
   23284:	48613823          	sd	t1,1168(sp)
   23288:	48613c23          	sd	t1,1176(sp)
   2328c:	4a613023          	sd	t1,1184(sp)
   23290:	4a613423          	sd	t1,1192(sp)
   23294:	4a613823          	sd	t1,1200(sp)
   23298:	4a613c23          	sd	t1,1208(sp)
   2329c:	4c613023          	sd	t1,1216(sp)
   232a0:	4c613423          	sd	t1,1224(sp)
   232a4:	4c613823          	sd	t1,1232(sp)
   232a8:	4c613c23          	sd	t1,1240(sp)
   232ac:	4e613023          	sd	t1,1248(sp)
   232b0:	4e613423          	sd	t1,1256(sp)
   232b4:	4e613823          	sd	t1,1264(sp)
   232b8:	4e613c23          	sd	t1,1272(sp)
   232bc:	50613023          	sd	t1,1280(sp)
   232c0:	50613423          	sd	t1,1288(sp)
   232c4:	50613823          	sd	t1,1296(sp)
   232c8:	50613c23          	sd	t1,1304(sp)
   232cc:	52613023          	sd	t1,1312(sp)
   232d0:	52613423          	sd	t1,1320(sp)
   232d4:	52613823          	sd	t1,1328(sp)
   232d8:	52613c23          	sd	t1,1336(sp)
   232dc:	54613023          	sd	t1,1344(sp)
   232e0:	54613423          	sd	t1,1352(sp)
   232e4:	54613823          	sd	t1,1360(sp)
   232e8:	54613c23          	sd	t1,1368(sp)
   232ec:	56613023          	sd	t1,1376(sp)
   232f0:	56613423          	sd	t1,1384(sp)
   232f4:	56613823          	sd	t1,1392(sp)
   232f8:	56613c23          	sd	t1,1400(sp)
   232fc:	58613023          	sd	t1,1408(sp)
   23300:	58613423          	sd	t1,1416(sp)
   23304:	5e505a63          	blez	t0,238f8 <fill_inverse_cmap+0xa38>
   23308:	0a053503          	ld	a0,160(a0)
   2330c:	00000313          	li	t1,0
   23310:	00853383          	ld	t2,8(a0)
   23314:	01053e03          	ld	t3,16(a0)
   23318:	21010e93          	addi	t4,sp,528
   2331c:	01f10f13          	addi	t5,sp,31
   23320:	61010f93          	addi	t6,sp,1552
   23324:	00094023          	regsw_c	zero,0(s2)
   23328:	09010093          	addi	ra,sp,144
   2332c:	01800113          	li	sp,24
   23330:	00c0006f          	j	2333c <fill_inverse_cmap+0x47c>
   23334:	00130313          	addi	t1,t1,1
   23338:	5c530063          	beq	t1,t0,238f8 <fill_inverse_cmap+0xa38>
   2333c:	7a9dc723          	regsw_c	s1,1966(s11)
   23340:	006081b3          	add	gp,ra,t1
   23344:	0001c183          	lbu	gp,0(gp) # 2a8b8 <__global_pointer$>
   23348:	00053203          	ld	tp,0(a0)
   2334c:	00320233          	add	tp,tp,gp
   23350:	00024203          	lbu	tp,0(tp) # 0 <__abi_tag-0x10294>
   23354:	003382b3          	add	t0,t2,gp
   23358:	0002c283          	lbu	t0,0(t0)
   2335c:	36fbcb23          	regsw_c	a5,886(s7)
   23360:	4047823b          	subw	tp,a5,tp
   23364:	0012131b          	slliw	t1,tp,0x1
   23368:	02630233          	mul	tp,t1,t1
   2336c:	405802bb          	subw	t0,a6,t0
   23370:	003e03b3          	add	t2,t3,gp
   23374:	0003c383          	lbu	t2,0(t2)
   23378:	00129413          	slli	s0,t0,0x1
   2337c:	7fbfcf23          	regsw_c	s11,2046(t6)
   23380:	0054043b          	addw	s0,s0,t0
   23384:	028402b3          	mul	t0,s0,s0
   23388:	407883bb          	subw	t2,a7,t2
   2338c:	027384b3          	mul	s1,t2,t2
   23390:	00920233          	add	tp,tp,s1
   23394:	00428233          	add	tp,t0,tp
   23398:	00531313          	slli	t1,t1,0x5
   2339c:	5bddcb23          	regsw_c	t4,1462(s11)
   233a0:	10030293          	addi	t0,t1,256
   233a4:	022407b3          	mul	a5,s0,sp
   233a8:	09078313          	addi	t1,a5,144
   233ac:	00439493          	slli	s1,t2,0x4
   233b0:	04048393          	addi	t2,s1,64
   233b4:	0c048413          	addi	s0,s1,192
   233b8:	14048493          	addi	s1,s1,320
   233bc:	5addca23          	regsw_c	a3,1460(s11)
   233c0:	1b078513          	addi	a0,a5,432
   233c4:	2d078593          	addi	a1,a5,720
   233c8:	3f078613          	addi	a2,a5,1008
   233cc:	51078693          	addi	a3,a5,1296
   233d0:	63078713          	addi	a4,a5,1584
   233d4:	75078793          	addi	a5,a5,1872
   233d8:	000f0813          	mv	a6,t5
   233dc:	00084023          	regsw_c	zero,0(a6)
   233e0:	000e8893          	mv	a7,t4
   233e4:	01c0006f          	j	23400 <fill_inverse_cmap+0x540>
   233e8:	48dfc023          	regsw_c	a3,1152(t6)
   233ec:	00520233          	add	tp,tp,t0
   233f0:	20028293          	addi	t0,t0,512
   233f4:	10088893          	addi	a7,a7,256
   233f8:	02080813          	addi	a6,a6,32
   233fc:	f3f88ce3          	beq	a7,t6,23334 <fill_inverse_cmap+0x474>
   23400:	010cc023          	regsw_c	a6,0(s9)
   23404:	f808b903          	ld	s2,-128(a7)
   23408:	1f224c63          	blt	tp,s2,23600 <fill_inverse_cmap+0x740>
   2340c:	016dc023          	regsw_c	s6,0(s11)
   23410:	f888b983          	ld	s3,-120(a7)
   23414:	00720933          	add	s2,tp,t2
   23418:	21394063          	blt	s2,s3,23618 <fill_inverse_cmap+0x758>
   2341c:	016dc023          	regsw_c	s6,0(s11)
   23420:	f908b983          	ld	s3,-112(a7)
   23424:	00890933          	add	s2,s2,s0
   23428:	21394463          	blt	s2,s3,23630 <fill_inverse_cmap+0x770>
   2342c:	016dc023          	regsw_c	s6,0(s11)
   23430:	f988b983          	ld	s3,-104(a7)
   23434:	00990933          	add	s2,s2,s1
   23438:	21394863          	blt	s2,s3,23648 <fill_inverse_cmap+0x788>
   2343c:	016dc023          	regsw_c	s6,0(s11)
   23440:	fa08b983          	ld	s3,-96(a7)
   23444:	00430933          	add	s2,t1,tp
   23448:	21394c63          	blt	s2,s3,23660 <fill_inverse_cmap+0x7a0>
   2344c:	016dc023          	regsw_c	s6,0(s11)
   23450:	fa88ba03          	ld	s4,-88(a7)
   23454:	007909b3          	add	s3,s2,t2
   23458:	2349c063          	blt	s3,s4,23678 <fill_inverse_cmap+0x7b8>
   2345c:	016dc023          	regsw_c	s6,0(s11)
   23460:	fb08ba03          	ld	s4,-80(a7)
   23464:	008989b3          	add	s3,s3,s0
   23468:	2349c463          	blt	s3,s4,23690 <fill_inverse_cmap+0x7d0>
   2346c:	016dc023          	regsw_c	s6,0(s11)
   23470:	fb88ba03          	ld	s4,-72(a7)
   23474:	009989b3          	add	s3,s3,s1
   23478:	2349c863          	blt	s3,s4,236a8 <fill_inverse_cmap+0x7e8>
   2347c:	016dc023          	regsw_c	s6,0(s11)
   23480:	fc08b983          	ld	s3,-64(a7)
   23484:	01250933          	add	s2,a0,s2
   23488:	23394c63          	blt	s2,s3,236c0 <fill_inverse_cmap+0x800>
   2348c:	016dc023          	regsw_c	s6,0(s11)
   23490:	fc88ba03          	ld	s4,-56(a7)
   23494:	007909b3          	add	s3,s2,t2
   23498:	2549c063          	blt	s3,s4,236d8 <fill_inverse_cmap+0x818>
   2349c:	016dc023          	regsw_c	s6,0(s11)
   234a0:	fd08ba03          	ld	s4,-48(a7)
   234a4:	008989b3          	add	s3,s3,s0
   234a8:	2549c463          	blt	s3,s4,236f0 <fill_inverse_cmap+0x830>
   234ac:	016dc023          	regsw_c	s6,0(s11)
   234b0:	fd88ba03          	ld	s4,-40(a7)
   234b4:	009989b3          	add	s3,s3,s1
   234b8:	2549c863          	blt	s3,s4,23708 <fill_inverse_cmap+0x848>
   234bc:	016dc023          	regsw_c	s6,0(s11)
   234c0:	fe08b983          	ld	s3,-32(a7)
   234c4:	01258933          	add	s2,a1,s2
   234c8:	25394c63          	blt	s2,s3,23720 <fill_inverse_cmap+0x860>
   234cc:	016dc023          	regsw_c	s6,0(s11)
   234d0:	fe88ba03          	ld	s4,-24(a7)
   234d4:	007909b3          	add	s3,s2,t2
   234d8:	2749c063          	blt	s3,s4,23738 <fill_inverse_cmap+0x878>
   234dc:	016dc023          	regsw_c	s6,0(s11)
   234e0:	ff08ba03          	ld	s4,-16(a7)
   234e4:	008989b3          	add	s3,s3,s0
   234e8:	2749c463          	blt	s3,s4,23750 <fill_inverse_cmap+0x890>
   234ec:	016dc023          	regsw_c	s6,0(s11)
   234f0:	ff88ba03          	ld	s4,-8(a7)
   234f4:	009989b3          	add	s3,s3,s1
   234f8:	2749c863          	blt	s3,s4,23768 <fill_inverse_cmap+0x8a8>
   234fc:	016dc023          	regsw_c	s6,0(s11)
   23500:	0008b983          	ld	s3,0(a7)
   23504:	01260933          	add	s2,a2,s2
   23508:	27394c63          	blt	s2,s3,23780 <fill_inverse_cmap+0x8c0>
   2350c:	016dc023          	regsw_c	s6,0(s11)
   23510:	0088ba03          	ld	s4,8(a7)
   23514:	007909b3          	add	s3,s2,t2
   23518:	2949c063          	blt	s3,s4,23798 <fill_inverse_cmap+0x8d8>
   2351c:	016dc023          	regsw_c	s6,0(s11)
   23520:	0108ba03          	ld	s4,16(a7)
   23524:	008989b3          	add	s3,s3,s0
   23528:	2949c463          	blt	s3,s4,237b0 <fill_inverse_cmap+0x8f0>
   2352c:	016dc023          	regsw_c	s6,0(s11)
   23530:	0188ba03          	ld	s4,24(a7)
   23534:	009989b3          	add	s3,s3,s1
   23538:	2949c863          	blt	s3,s4,237c8 <fill_inverse_cmap+0x908>
   2353c:	016dc023          	regsw_c	s6,0(s11)
   23540:	0208b983          	ld	s3,32(a7)
   23544:	01268933          	add	s2,a3,s2
   23548:	29394c63          	blt	s2,s3,237e0 <fill_inverse_cmap+0x920>
   2354c:	016dc023          	regsw_c	s6,0(s11)
   23550:	0288ba03          	ld	s4,40(a7)
   23554:	007909b3          	add	s3,s2,t2
   23558:	2b49c063          	blt	s3,s4,237f8 <fill_inverse_cmap+0x938>
   2355c:	016dc023          	regsw_c	s6,0(s11)
   23560:	0308ba03          	ld	s4,48(a7)
   23564:	008989b3          	add	s3,s3,s0
   23568:	2b49c463          	blt	s3,s4,23810 <fill_inverse_cmap+0x950>
   2356c:	016dc023          	regsw_c	s6,0(s11)
   23570:	0388ba03          	ld	s4,56(a7)
   23574:	009989b3          	add	s3,s3,s1
   23578:	2b49c863          	blt	s3,s4,23828 <fill_inverse_cmap+0x968>
   2357c:	016dc023          	regsw_c	s6,0(s11)
   23580:	0408b983          	ld	s3,64(a7)
   23584:	01270933          	add	s2,a4,s2
   23588:	2b394c63          	blt	s2,s3,23840 <fill_inverse_cmap+0x980>
   2358c:	016dc023          	regsw_c	s6,0(s11)
   23590:	0488ba03          	ld	s4,72(a7)
   23594:	007909b3          	add	s3,s2,t2
   23598:	2d49c063          	blt	s3,s4,23858 <fill_inverse_cmap+0x998>
   2359c:	016dc023          	regsw_c	s6,0(s11)
   235a0:	0508ba03          	ld	s4,80(a7)
   235a4:	008989b3          	add	s3,s3,s0
   235a8:	2d49c463          	blt	s3,s4,23870 <fill_inverse_cmap+0x9b0>
   235ac:	016dc023          	regsw_c	s6,0(s11)
   235b0:	0588ba03          	ld	s4,88(a7)
   235b4:	009989b3          	add	s3,s3,s1
   235b8:	2d49c863          	blt	s3,s4,23888 <fill_inverse_cmap+0x9c8>
   235bc:	016dc023          	regsw_c	s6,0(s11)
   235c0:	0608b983          	ld	s3,96(a7)
   235c4:	01278933          	add	s2,a5,s2
   235c8:	2d394c63          	blt	s2,s3,238a0 <fill_inverse_cmap+0x9e0>
   235cc:	016dc023          	regsw_c	s6,0(s11)
   235d0:	0688b983          	ld	s3,104(a7)
   235d4:	00790933          	add	s2,s2,t2
   235d8:	2f394063          	blt	s2,s3,238b8 <fill_inverse_cmap+0x9f8>
   235dc:	016dc023          	regsw_c	s6,0(s11)
   235e0:	0708b983          	ld	s3,112(a7)
   235e4:	00890933          	add	s2,s2,s0
   235e8:	2f394463          	blt	s2,s3,238d0 <fill_inverse_cmap+0xa10>
   235ec:	016dc023          	regsw_c	s6,0(s11)
   235f0:	0788b983          	ld	s3,120(a7)
   235f4:	00990933          	add	s2,s2,s1
   235f8:	df3958e3          	bge	s2,s3,233e8 <fill_inverse_cmap+0x528>
   235fc:	2ec0006f          	j	238e8 <fill_inverse_cmap+0xa28>
   23600:	6dd6c023          	regsw_c	t4,1728(a3)
   23604:	f848b023          	sd	tp,-128(a7)
   23608:	fe3808a3          	sb	gp,-15(a6)
   2360c:	f888b983          	ld	s3,-120(a7)
   23610:	00720933          	add	s2,tp,t2
   23614:	e13954e3          	bge	s2,s3,2341c <fill_inverse_cmap+0x55c>
   23618:	6dd6c023          	regsw_c	t4,1728(a3)
   2361c:	f928b423          	sd	s2,-120(a7)
   23620:	fe380923          	sb	gp,-14(a6)
   23624:	f908b983          	ld	s3,-112(a7)
   23628:	00890933          	add	s2,s2,s0
   2362c:	e13950e3          	bge	s2,s3,2342c <fill_inverse_cmap+0x56c>
   23630:	6dd6c023          	regsw_c	t4,1728(a3)
   23634:	f928b823          	sd	s2,-112(a7)
   23638:	fe3809a3          	sb	gp,-13(a6)
   2363c:	f988b983          	ld	s3,-104(a7)
   23640:	00990933          	add	s2,s2,s1
   23644:	df395ce3          	bge	s2,s3,2343c <fill_inverse_cmap+0x57c>
   23648:	6dd6c023          	regsw_c	t4,1728(a3)
   2364c:	f928bc23          	sd	s2,-104(a7)
   23650:	fe380a23          	sb	gp,-12(a6)
   23654:	fa08b983          	ld	s3,-96(a7)
   23658:	00430933          	add	s2,t1,tp
   2365c:	df3958e3          	bge	s2,s3,2344c <fill_inverse_cmap+0x58c>
   23660:	6dd6c023          	regsw_c	t4,1728(a3)
   23664:	fb28b023          	sd	s2,-96(a7)
   23668:	fe380aa3          	sb	gp,-11(a6)
   2366c:	fa88ba03          	ld	s4,-88(a7)
   23670:	007909b3          	add	s3,s2,t2
   23674:	df49d4e3          	bge	s3,s4,2345c <fill_inverse_cmap+0x59c>
   23678:	6dd6c023          	regsw_c	t4,1728(a3)
   2367c:	fb38b423          	sd	s3,-88(a7)
   23680:	fe380b23          	sb	gp,-10(a6)
   23684:	fb08ba03          	ld	s4,-80(a7)
   23688:	008989b3          	add	s3,s3,s0
   2368c:	df49d0e3          	bge	s3,s4,2346c <fill_inverse_cmap+0x5ac>
   23690:	6dd6c023          	regsw_c	t4,1728(a3)
   23694:	fb38b823          	sd	s3,-80(a7)
   23698:	fe380ba3          	sb	gp,-9(a6)
   2369c:	fb88ba03          	ld	s4,-72(a7)
   236a0:	009989b3          	add	s3,s3,s1
   236a4:	dd49dce3          	bge	s3,s4,2347c <fill_inverse_cmap+0x5bc>
   236a8:	6dd6c023          	regsw_c	t4,1728(a3)
   236ac:	fb38bc23          	sd	s3,-72(a7)
   236b0:	fe380c23          	sb	gp,-8(a6)
   236b4:	fc08b983          	ld	s3,-64(a7)
   236b8:	01250933          	add	s2,a0,s2
   236bc:	dd3958e3          	bge	s2,s3,2348c <fill_inverse_cmap+0x5cc>
   236c0:	6dd6c023          	regsw_c	t4,1728(a3)
   236c4:	fd28b023          	sd	s2,-64(a7)
   236c8:	fe380ca3          	sb	gp,-7(a6)
   236cc:	fc88ba03          	ld	s4,-56(a7)
   236d0:	007909b3          	add	s3,s2,t2
   236d4:	dd49d4e3          	bge	s3,s4,2349c <fill_inverse_cmap+0x5dc>
   236d8:	6dd6c023          	regsw_c	t4,1728(a3)
   236dc:	fd38b423          	sd	s3,-56(a7)
   236e0:	fe380d23          	sb	gp,-6(a6)
   236e4:	fd08ba03          	ld	s4,-48(a7)
   236e8:	008989b3          	add	s3,s3,s0
   236ec:	dd49d0e3          	bge	s3,s4,234ac <fill_inverse_cmap+0x5ec>
   236f0:	6dd6c023          	regsw_c	t4,1728(a3)
   236f4:	fd38b823          	sd	s3,-48(a7)
   236f8:	fe380da3          	sb	gp,-5(a6)
   236fc:	fd88ba03          	ld	s4,-40(a7)
   23700:	009989b3          	add	s3,s3,s1
   23704:	db49dce3          	bge	s3,s4,234bc <fill_inverse_cmap+0x5fc>
   23708:	6dd6c023          	regsw_c	t4,1728(a3)
   2370c:	fd38bc23          	sd	s3,-40(a7)
   23710:	fe380e23          	sb	gp,-4(a6)
   23714:	fe08b983          	ld	s3,-32(a7)
   23718:	01258933          	add	s2,a1,s2
   2371c:	db3958e3          	bge	s2,s3,234cc <fill_inverse_cmap+0x60c>
   23720:	6dd6c023          	regsw_c	t4,1728(a3)
   23724:	ff28b023          	sd	s2,-32(a7)
   23728:	fe380ea3          	sb	gp,-3(a6)
   2372c:	fe88ba03          	ld	s4,-24(a7)
   23730:	007909b3          	add	s3,s2,t2
   23734:	db49d4e3          	bge	s3,s4,234dc <fill_inverse_cmap+0x61c>
   23738:	6dd6c023          	regsw_c	t4,1728(a3)
   2373c:	ff38b423          	sd	s3,-24(a7)
   23740:	fe380f23          	sb	gp,-2(a6)
   23744:	ff08ba03          	ld	s4,-16(a7)
   23748:	008989b3          	add	s3,s3,s0
   2374c:	db49d0e3          	bge	s3,s4,234ec <fill_inverse_cmap+0x62c>
   23750:	6dd6c023          	regsw_c	t4,1728(a3)
   23754:	ff38b823          	sd	s3,-16(a7)
   23758:	fe380fa3          	sb	gp,-1(a6)
   2375c:	ff88ba03          	ld	s4,-8(a7)
   23760:	009989b3          	add	s3,s3,s1
   23764:	d949dce3          	bge	s3,s4,234fc <fill_inverse_cmap+0x63c>
   23768:	6dd6c023          	regsw_c	t4,1728(a3)
   2376c:	ff38bc23          	sd	s3,-8(a7)
   23770:	00380023          	sb	gp,0(a6)
   23774:	0008b983          	ld	s3,0(a7)
   23778:	01260933          	add	s2,a2,s2
   2377c:	d93958e3          	bge	s2,s3,2350c <fill_inverse_cmap+0x64c>
   23780:	6dd6c023          	regsw_c	t4,1728(a3)
   23784:	0128b023          	sd	s2,0(a7)
   23788:	003800a3          	sb	gp,1(a6)
   2378c:	0088ba03          	ld	s4,8(a7)
   23790:	007909b3          	add	s3,s2,t2
   23794:	d949d4e3          	bge	s3,s4,2351c <fill_inverse_cmap+0x65c>
   23798:	6dd6c023          	regsw_c	t4,1728(a3)
   2379c:	0138b423          	sd	s3,8(a7)
   237a0:	00380123          	sb	gp,2(a6)
   237a4:	0108ba03          	ld	s4,16(a7)
   237a8:	008989b3          	add	s3,s3,s0
   237ac:	d949d0e3          	bge	s3,s4,2352c <fill_inverse_cmap+0x66c>
   237b0:	6dd6c023          	regsw_c	t4,1728(a3)
   237b4:	0138b823          	sd	s3,16(a7)
   237b8:	003801a3          	sb	gp,3(a6)
   237bc:	0188ba03          	ld	s4,24(a7)
   237c0:	009989b3          	add	s3,s3,s1
   237c4:	d749dce3          	bge	s3,s4,2353c <fill_inverse_cmap+0x67c>
   237c8:	6dd6c023          	regsw_c	t4,1728(a3)
   237cc:	0138bc23          	sd	s3,24(a7)
   237d0:	00380223          	sb	gp,4(a6)
   237d4:	0208b983          	ld	s3,32(a7)
   237d8:	01268933          	add	s2,a3,s2
   237dc:	d73958e3          	bge	s2,s3,2354c <fill_inverse_cmap+0x68c>
   237e0:	6dd6c023          	regsw_c	t4,1728(a3)
   237e4:	0328b023          	sd	s2,32(a7)
   237e8:	003802a3          	sb	gp,5(a6)
   237ec:	0288ba03          	ld	s4,40(a7)
   237f0:	007909b3          	add	s3,s2,t2
   237f4:	d749d4e3          	bge	s3,s4,2355c <fill_inverse_cmap+0x69c>
   237f8:	6dd6c023          	regsw_c	t4,1728(a3)
   237fc:	0338b423          	sd	s3,40(a7)
   23800:	00380323          	sb	gp,6(a6)
   23804:	0308ba03          	ld	s4,48(a7)
   23808:	008989b3          	add	s3,s3,s0
   2380c:	d749d0e3          	bge	s3,s4,2356c <fill_inverse_cmap+0x6ac>
   23810:	6dd6c023          	regsw_c	t4,1728(a3)
   23814:	0338b823          	sd	s3,48(a7)
   23818:	003803a3          	sb	gp,7(a6)
   2381c:	0388ba03          	ld	s4,56(a7)
   23820:	009989b3          	add	s3,s3,s1
   23824:	d549dce3          	bge	s3,s4,2357c <fill_inverse_cmap+0x6bc>
   23828:	6dd6c023          	regsw_c	t4,1728(a3)
   2382c:	0338bc23          	sd	s3,56(a7)
   23830:	00380423          	sb	gp,8(a6)
   23834:	0408b983          	ld	s3,64(a7)
   23838:	01270933          	add	s2,a4,s2
   2383c:	d53958e3          	bge	s2,s3,2358c <fill_inverse_cmap+0x6cc>
   23840:	6dd6c023          	regsw_c	t4,1728(a3)
   23844:	0528b023          	sd	s2,64(a7)
   23848:	003804a3          	sb	gp,9(a6)
   2384c:	0488ba03          	ld	s4,72(a7)
   23850:	007909b3          	add	s3,s2,t2
   23854:	d549d4e3          	bge	s3,s4,2359c <fill_inverse_cmap+0x6dc>
   23858:	6dd6c023          	regsw_c	t4,1728(a3)
   2385c:	0538b423          	sd	s3,72(a7)
   23860:	00380523          	sb	gp,10(a6)
   23864:	0508ba03          	ld	s4,80(a7)
   23868:	008989b3          	add	s3,s3,s0
   2386c:	d549d0e3          	bge	s3,s4,235ac <fill_inverse_cmap+0x6ec>
   23870:	6dd6c023          	regsw_c	t4,1728(a3)
   23874:	0538b823          	sd	s3,80(a7)
   23878:	003805a3          	sb	gp,11(a6)
   2387c:	0588ba03          	ld	s4,88(a7)
   23880:	009989b3          	add	s3,s3,s1
   23884:	d349dce3          	bge	s3,s4,235bc <fill_inverse_cmap+0x6fc>
   23888:	6dd6c023          	regsw_c	t4,1728(a3)
   2388c:	0538bc23          	sd	s3,88(a7)
   23890:	00380623          	sb	gp,12(a6)
   23894:	0608b983          	ld	s3,96(a7)
   23898:	01278933          	add	s2,a5,s2
   2389c:	d33958e3          	bge	s2,s3,235cc <fill_inverse_cmap+0x70c>
   238a0:	6dd6c023          	regsw_c	t4,1728(a3)
   238a4:	0728b023          	sd	s2,96(a7)
   238a8:	003806a3          	sb	gp,13(a6)
   238ac:	0688b983          	ld	s3,104(a7)
   238b0:	00790933          	add	s2,s2,t2
   238b4:	d33954e3          	bge	s2,s3,235dc <fill_inverse_cmap+0x71c>
   238b8:	6dd6c023          	regsw_c	t4,1728(a3)
   238bc:	0728b423          	sd	s2,104(a7)
   238c0:	00380723          	sb	gp,14(a6)
   238c4:	0708b983          	ld	s3,112(a7)
   238c8:	00890933          	add	s2,s2,s0
   238cc:	d33950e3          	bge	s2,s3,235ec <fill_inverse_cmap+0x72c>
   238d0:	6dd6c023          	regsw_c	t4,1728(a3)
   238d4:	0728b823          	sd	s2,112(a7)
   238d8:	003807a3          	sb	gp,15(a6)
   238dc:	0788b983          	ld	s3,120(a7)
   238e0:	00990933          	add	s2,s2,s1
   238e4:	b13952e3          	bge	s2,s3,233e8 <fill_inverse_cmap+0x528>
   238e8:	0106c023          	regsw_c	a6,0(a3)
   238ec:	0728bc23          	sd	s2,120(a7)
   238f0:	00380823          	sb	gp,16(a6)
   238f4:	af5ff06f          	j	233e8 <fill_inverse_cmap+0x528>
   238f8:	ffc5f593          	andi	a1,a1,-4
   238fc:	ff867613          	andi	a2,a2,-8
   23900:	ffc6f693          	andi	a3,a3,-4
   23904:	00160793          	addi	a5,a2,1
   23908:	00260813          	addi	a6,a2,2
   2390c:	00360893          	addi	a7,a2,3
   23910:	00460293          	addi	t0,a2,4
   23914:	00560313          	addi	t1,a2,5
   23918:	00660393          	addi	t2,a2,6
   2391c:	00760e13          	addi	t3,a2,7
   23920:	00359593          	slli	a1,a1,0x3
   23924:	00b70733          	add	a4,a4,a1
   23928:	01010513          	addi	a0,sp,16
   2392c:	09010593          	addi	a1,sp,144
   23930:	00661613          	slli	a2,a2,0x6
   23934:	00169693          	slli	a3,a3,0x1
   23938:	00679793          	slli	a5,a5,0x6
   2393c:	00681813          	slli	a6,a6,0x6
   23940:	00689893          	slli	a7,a7,0x6
   23944:	00629293          	slli	t0,t0,0x6
   23948:	00631313          	slli	t1,t1,0x6
   2394c:	00639393          	slli	t2,t2,0x6
   23950:	006e1e13          	slli	t3,t3,0x6
   23954:	00073e83          	ld	t4,0(a4)
   23958:	00054f03          	lbu	t5,0(a0)
   2395c:	00d60fb3          	add	t6,a2,a3
   23960:	01fe8fb3          	add	t6,t4,t6
   23964:	001f0f13          	addi	t5,t5,1
   23968:	01ef9023          	sh	t5,0(t6)
   2396c:	00154f03          	lbu	t5,1(a0)
   23970:	001f0f13          	addi	t5,t5,1
   23974:	01ef9123          	sh	t5,2(t6)
   23978:	00254f03          	lbu	t5,2(a0)
   2397c:	001f0f13          	addi	t5,t5,1
   23980:	01ef9223          	sh	t5,4(t6)
   23984:	00354f03          	lbu	t5,3(a0)
   23988:	001f0f13          	addi	t5,t5,1
   2398c:	01ef9323          	sh	t5,6(t6)
   23990:	00454f03          	lbu	t5,4(a0)
   23994:	00d78fb3          	add	t6,a5,a3
   23998:	01fe8fb3          	add	t6,t4,t6
   2399c:	001f0f13          	addi	t5,t5,1
   239a0:	01ef9023          	sh	t5,0(t6)
   239a4:	00554f03          	lbu	t5,5(a0)
   239a8:	001f0f13          	addi	t5,t5,1
   239ac:	01ef9123          	sh	t5,2(t6)
   239b0:	00654f03          	lbu	t5,6(a0)
   239b4:	001f0f13          	addi	t5,t5,1
   239b8:	01ef9223          	sh	t5,4(t6)
   239bc:	00754f03          	lbu	t5,7(a0)
   239c0:	001f0f13          	addi	t5,t5,1
   239c4:	01ef9323          	sh	t5,6(t6)
   239c8:	00854f03          	lbu	t5,8(a0)
   239cc:	00d80fb3          	add	t6,a6,a3
   239d0:	01fe8fb3          	add	t6,t4,t6
   239d4:	001f0f13          	addi	t5,t5,1
   239d8:	01ef9023          	sh	t5,0(t6)
   239dc:	00954f03          	lbu	t5,9(a0)
   239e0:	001f0f13          	addi	t5,t5,1
   239e4:	01ef9123          	sh	t5,2(t6)
   239e8:	00a54f03          	lbu	t5,10(a0)
   239ec:	001f0f13          	addi	t5,t5,1
   239f0:	01ef9223          	sh	t5,4(t6)
   239f4:	00b54f03          	lbu	t5,11(a0)
   239f8:	001f0f13          	addi	t5,t5,1
   239fc:	01ef9323          	sh	t5,6(t6)
   23a00:	00c54f03          	lbu	t5,12(a0)
   23a04:	00d88fb3          	add	t6,a7,a3
   23a08:	01fe8fb3          	add	t6,t4,t6
   23a0c:	001f0f13          	addi	t5,t5,1
   23a10:	01ef9023          	sh	t5,0(t6)
   23a14:	00d54f03          	lbu	t5,13(a0)
   23a18:	001f0f13          	addi	t5,t5,1
   23a1c:	01ef9123          	sh	t5,2(t6)
   23a20:	00e54f03          	lbu	t5,14(a0)
   23a24:	001f0f13          	addi	t5,t5,1
   23a28:	01ef9223          	sh	t5,4(t6)
   23a2c:	00f54f03          	lbu	t5,15(a0)
   23a30:	001f0f13          	addi	t5,t5,1
   23a34:	01ef9323          	sh	t5,6(t6)
   23a38:	01054f03          	lbu	t5,16(a0)
   23a3c:	00d28fb3          	add	t6,t0,a3
   23a40:	01fe8fb3          	add	t6,t4,t6
   23a44:	001f0f13          	addi	t5,t5,1
   23a48:	01ef9023          	sh	t5,0(t6)
   23a4c:	01154f03          	lbu	t5,17(a0)
   23a50:	001f0f13          	addi	t5,t5,1
   23a54:	01ef9123          	sh	t5,2(t6)
   23a58:	01254f03          	lbu	t5,18(a0)
   23a5c:	001f0f13          	addi	t5,t5,1
   23a60:	01ef9223          	sh	t5,4(t6)
   23a64:	01354f03          	lbu	t5,19(a0)
   23a68:	001f0f13          	addi	t5,t5,1
   23a6c:	01ef9323          	sh	t5,6(t6)
   23a70:	01454f03          	lbu	t5,20(a0)
   23a74:	00d30fb3          	add	t6,t1,a3
   23a78:	01fe8fb3          	add	t6,t4,t6
   23a7c:	001f0f13          	addi	t5,t5,1
   23a80:	01ef9023          	sh	t5,0(t6)
   23a84:	01554f03          	lbu	t5,21(a0)
   23a88:	001f0f13          	addi	t5,t5,1
   23a8c:	01ef9123          	sh	t5,2(t6)
   23a90:	01654f03          	lbu	t5,22(a0)
   23a94:	001f0f13          	addi	t5,t5,1
   23a98:	01ef9223          	sh	t5,4(t6)
   23a9c:	01754f03          	lbu	t5,23(a0)
   23aa0:	001f0f13          	addi	t5,t5,1
   23aa4:	01ef9323          	sh	t5,6(t6)
   23aa8:	01854f03          	lbu	t5,24(a0)
   23aac:	00d38fb3          	add	t6,t2,a3
   23ab0:	01fe8fb3          	add	t6,t4,t6
   23ab4:	001f0f13          	addi	t5,t5,1
   23ab8:	01ef9023          	sh	t5,0(t6)
   23abc:	01954f03          	lbu	t5,25(a0)
   23ac0:	001f0f13          	addi	t5,t5,1
   23ac4:	01ef9123          	sh	t5,2(t6)
   23ac8:	01a54f03          	lbu	t5,26(a0)
   23acc:	001f0f13          	addi	t5,t5,1
   23ad0:	01ef9223          	sh	t5,4(t6)
   23ad4:	01b54f03          	lbu	t5,27(a0)
   23ad8:	001f0f13          	addi	t5,t5,1
   23adc:	01ef9323          	sh	t5,6(t6)
   23ae0:	01c54f03          	lbu	t5,28(a0)
   23ae4:	00de0fb3          	add	t6,t3,a3
   23ae8:	01fe8eb3          	add	t4,t4,t6
   23aec:	001f0f13          	addi	t5,t5,1
   23af0:	01ee9023          	sh	t5,0(t4)
   23af4:	01d54f03          	lbu	t5,29(a0)
   23af8:	001f0f13          	addi	t5,t5,1
   23afc:	01ee9123          	sh	t5,2(t4)
   23b00:	01e54f03          	lbu	t5,30(a0)
   23b04:	001f0f13          	addi	t5,t5,1
   23b08:	01ee9223          	sh	t5,4(t4)
   23b0c:	01f54f03          	lbu	t5,31(a0)
   23b10:	001f0f13          	addi	t5,t5,1
   23b14:	01ee9323          	sh	t5,6(t4)
   23b18:	02050513          	addi	a0,a0,32
   23b1c:	00870713          	addi	a4,a4,8
   23b20:	e2b51ae3          	bne	a0,a1,23954 <fill_inverse_cmap+0xa94>
   23b24:	7f010113          	addi	sp,sp,2032
   23b28:	1a010113          	addi	sp,sp,416
   23b2c:	00008067          	ret

0000000000023b30 <jinit_merged_upsampler>:
   23b30:	fe010113          	addi	sp,sp,-32
   23b34:	00113c23          	sd	ra,24(sp)
   23b38:	00813823          	sd	s0,16(sp)
   23b3c:	00913423          	sd	s1,8(sp)
   23b40:	01213023          	sd	s2,0(sp)
   23b44:	00050413          	mv	s0,a0
   23b48:	00853503          	ld	a0,8(a0)
   23b4c:	00053683          	ld	a3,0(a0)
   23b50:	00100593          	li	a1,1
   23b54:	05800613          	li	a2,88
   23b58:	00040513          	mv	a0,s0
   23b5c:	000680e7          	jalr	a3
   23b60:	00050493          	mv	s1,a0
   23b64:	26a43023          	sd	a0,608(s0)
   23b68:	00024537          	lui	a0,0x24
   23b6c:	d0c50513          	addi	a0,a0,-756 # 23d0c <start_pass_merged_upsample>
   23b70:	08842583          	lw	a1,136(s0)
   23b74:	09042603          	lw	a2,144(s0)
   23b78:	00a4b023          	sd	a0,0(s1)
   23b7c:	19c42683          	lw	a3,412(s0)
   23b80:	0004a823          	sw	zero,16(s1)
   23b84:	02b60533          	mul	a0,a2,a1
   23b88:	00200593          	li	a1,2
   23b8c:	04a4a623          	sw	a0,76(s1)
   23b90:	02b69e63          	bne	a3,a1,23bcc <jinit_merged_upsampler+0x9c>
   23b94:	00843583          	ld	a1,8(s0)
   23b98:	00024637          	lui	a2,0x24
   23b9c:	d2060613          	addi	a2,a2,-736 # 23d20 <merged_2v_upsample>
   23ba0:	00c4b423          	sd	a2,8(s1)
   23ba4:	00024637          	lui	a2,0x24
   23ba8:	e3460613          	addi	a2,a2,-460 # 23e34 <h2v2_merged_upsample>
   23bac:	0085b683          	ld	a3,8(a1)
   23bb0:	00c4bc23          	sd	a2,24(s1)
   23bb4:	02051513          	slli	a0,a0,0x20
   23bb8:	02055613          	srli	a2,a0,0x20
   23bbc:	00100593          	li	a1,1
   23bc0:	00040513          	mv	a0,s0
   23bc4:	000680e7          	jalr	a3
   23bc8:	0200006f          	j	23be8 <jinit_merged_upsampler+0xb8>
   23bcc:	00000513          	li	a0,0
   23bd0:	000245b7          	lui	a1,0x24
   23bd4:	0d058593          	addi	a1,a1,208 # 240d0 <merged_1v_upsample>
   23bd8:	00b4b423          	sd	a1,8(s1)
   23bdc:	000245b7          	lui	a1,0x24
   23be0:	13058593          	addi	a1,a1,304 # 24130 <h2v1_merged_upsample>
   23be4:	00b4bc23          	sd	a1,24(s1)
   23be8:	04a4b023          	sd	a0,64(s1)
   23bec:	00843503          	ld	a0,8(s0)
   23bf0:	26043903          	ld	s2,608(s0)
   23bf4:	00053683          	ld	a3,0(a0)
   23bf8:	00100593          	li	a1,1
   23bfc:	40000613          	li	a2,1024
   23c00:	00100493          	li	s1,1
   23c04:	00040513          	mv	a0,s0
   23c08:	000680e7          	jalr	a3
   23c0c:	00843583          	ld	a1,8(s0)
   23c10:	0005b683          	ld	a3,0(a1)
   23c14:	02a93023          	sd	a0,32(s2)
   23c18:	00100593          	li	a1,1
   23c1c:	40000613          	li	a2,1024
   23c20:	00040513          	mv	a0,s0
   23c24:	000680e7          	jalr	a3
   23c28:	00843583          	ld	a1,8(s0)
   23c2c:	0005b683          	ld	a3,0(a1)
   23c30:	02a93423          	sd	a0,40(s2)
   23c34:	00b49493          	slli	s1,s1,0xb
   23c38:	00100593          	li	a1,1
   23c3c:	00040513          	mv	a0,s0
   23c40:	00048613          	mv	a2,s1
   23c44:	000680e7          	jalr	a3
   23c48:	00843583          	ld	a1,8(s0)
   23c4c:	0005b683          	ld	a3,0(a1)
   23c50:	02a93823          	sd	a0,48(s2)
   23c54:	00100593          	li	a1,1
   23c58:	00040513          	mv	a0,s0
   23c5c:	00048613          	mv	a2,s1
   23c60:	000680e7          	jalr	a3
   23c64:	02a93c23          	sd	a0,56(s2)
   23c68:	02093583          	ld	a1,32(s2)
   23c6c:	02893603          	ld	a2,40(s2)
   23c70:	03093683          	ld	a3,48(s2)
   23c74:	009504b3          	add	s1,a0,s1
   23c78:	002c9737          	lui	a4,0x2c9
   23c7c:	d007071b          	addiw	a4,a4,-768 # 2c8d00 <__global_pointer$+0x29e448>
   23c80:	005b77b7          	lui	a5,0x5b7
   23c84:	9007879b          	addiw	a5,a5,-1792 # 5b6900 <__global_pointer$+0x58c048>
   23c88:	ff1db837          	lui	a6,0xff1db
   23c8c:	f008081b          	addiw	a6,a6,-256 # ffffffffff1daf00 <__global_pointer$+0xffffffffff1b0648>
   23c90:	ff4d18b7          	lui	a7,0xff4d1
   23c94:	b808889b          	addiw	a7,a7,-1152 # ffffffffff4d0b80 <__global_pointer$+0xffffffffff4a62c8>
   23c98:	ffffa2b7          	lui	t0,0xffffa
   23c9c:	7e62829b          	addiw	t0,t0,2022 # ffffffffffffa7e6 <__global_pointer$+0xfffffffffffcff2e>
   23ca0:	ffff5337          	lui	t1,0xffff5
   23ca4:	92e3031b          	addiw	t1,t1,-1746 # ffffffffffff492e <__global_pointer$+0xfffffffffffca076>
   23ca8:	0001c3b7          	lui	t2,0x1c
   23cac:	5a23839b          	addiw	t2,t2,1442 # 1c5a2 <decompress_onepass+0x16>
   23cb0:	00016e37          	lui	t3,0x16
   23cb4:	6e9e0e1b          	addiw	t3,t3,1769 # 166e9 <next_marker+0x11>
   23cb8:	0108de93          	srli	t4,a7,0x10
   23cbc:	01d5a023          	sw	t4,0(a1)
   23cc0:	01085e93          	srli	t4,a6,0x10
   23cc4:	01d62023          	sw	t4,0(a2)
   23cc8:	00f6b023          	sd	a5,0(a3)
   23ccc:	00e53023          	sd	a4,0(a0)
   23cd0:	00850513          	addi	a0,a0,8
   23cd4:	00868693          	addi	a3,a3,8
   23cd8:	00460613          	addi	a2,a2,4
   23cdc:	00458593          	addi	a1,a1,4
   23ce0:	00570733          	add	a4,a4,t0
   23ce4:	006787b3          	add	a5,a5,t1
   23ce8:	00780833          	add	a6,a6,t2
   23cec:	01c888b3          	add	a7,a7,t3
   23cf0:	fc9514e3          	bne	a0,s1,23cb8 <jinit_merged_upsampler+0x188>
   23cf4:	01813083          	ld	ra,24(sp)
   23cf8:	01013403          	ld	s0,16(sp)
   23cfc:	00813483          	ld	s1,8(sp)
   23d00:	00013903          	ld	s2,0(sp)
   23d04:	02010113          	addi	sp,sp,32
   23d08:	00008067          	ret

0000000000023d0c <start_pass_merged_upsample>:
   23d0c:	26053583          	ld	a1,608(a0)
   23d10:	08c52503          	lw	a0,140(a0)
   23d14:	0405a423          	sw	zero,72(a1)
   23d18:	04a5a823          	sw	a0,80(a1)
   23d1c:	00008067          	ret

0000000000023d20 <merged_2v_upsample>:
   23d20:	fc010113          	addi	sp,sp,-64
   23d24:	02113c23          	sd	ra,56(sp)
   23d28:	02813823          	sd	s0,48(sp)
   23d2c:	02913423          	sd	s1,40(sp)
   23d30:	03213023          	sd	s2,32(sp)
   23d34:	01313c23          	sd	s3,24(sp)
   23d38:	26053903          	ld	s2,608(a0)
   23d3c:	04892683          	lw	a3,72(s2)
   23d40:	00078493          	mv	s1,a5
   23d44:	00060413          	mv	s0,a2
   23d48:	02068a63          	beqz	a3,23d7c <merged_2v_upsample+0x5c>
   23d4c:	0004e583          	lwu	a1,0(s1)
   23d50:	04c92783          	lw	a5,76(s2)
   23d54:	04090513          	addi	a0,s2,64
   23d58:	00359593          	slli	a1,a1,0x3
   23d5c:	00b70633          	add	a2,a4,a1
   23d60:	00100713          	li	a4,1
   23d64:	00100993          	li	s3,1
   23d68:	00000593          	li	a1,0
   23d6c:	00000693          	li	a3,0
   23d70:	694000ef          	jal	24404 <jcopy_sample_rows>
   23d74:	04092423          	sw	zero,72(s2)
   23d78:	0740006f          	j	23dec <merged_2v_upsample+0xcc>
   23d7c:	0004e603          	lwu	a2,0(s1)
   23d80:	05092683          	lw	a3,80(s2)
   23d84:	40c807bb          	subw	a5,a6,a2
   23d88:	00f6e463          	bltu	a3,a5,23d90 <merged_2v_upsample+0x70>
   23d8c:	00078693          	mv	a3,a5
   23d90:	00200793          	li	a5,2
   23d94:	00068993          	mv	s3,a3
   23d98:	00f6e463          	bltu	a3,a5,23da0 <merged_2v_upsample+0x80>
   23d9c:	00200993          	li	s3,2
   23da0:	00361813          	slli	a6,a2,0x3
   23da4:	01070833          	add	a6,a4,a6
   23da8:	00083803          	ld	a6,0(a6)
   23dac:	01013423          	sd	a6,8(sp)
   23db0:	00f6ee63          	bltu	a3,a5,23dcc <merged_2v_upsample+0xac>
   23db4:	00160613          	addi	a2,a2,1
   23db8:	02061613          	slli	a2,a2,0x20
   23dbc:	01d65613          	srli	a2,a2,0x1d
   23dc0:	00c70633          	add	a2,a4,a2
   23dc4:	00063683          	ld	a3,0(a2)
   23dc8:	0100006f          	j	23dd8 <merged_2v_upsample+0xb8>
   23dcc:	04093683          	ld	a3,64(s2)
   23dd0:	00100613          	li	a2,1
   23dd4:	04c92423          	sw	a2,72(s2)
   23dd8:	01893703          	ld	a4,24(s2)
   23ddc:	00042603          	lw	a2,0(s0)
   23de0:	00d13823          	sd	a3,16(sp)
   23de4:	00810693          	addi	a3,sp,8
   23de8:	000700e7          	jalr	a4
   23dec:	0004a503          	lw	a0,0(s1)
   23df0:	01350533          	add	a0,a0,s3
   23df4:	00a4a023          	sw	a0,0(s1)
   23df8:	05092503          	lw	a0,80(s2)
   23dfc:	04892583          	lw	a1,72(s2)
   23e00:	4135053b          	subw	a0,a0,s3
   23e04:	04a92823          	sw	a0,80(s2)
   23e08:	00059863          	bnez	a1,23e18 <merged_2v_upsample+0xf8>
   23e0c:	00042503          	lw	a0,0(s0)
   23e10:	00150513          	addi	a0,a0,1
   23e14:	00a42023          	sw	a0,0(s0)
   23e18:	03813083          	ld	ra,56(sp)
   23e1c:	03013403          	ld	s0,48(sp)
   23e20:	02813483          	ld	s1,40(sp)
   23e24:	02013903          	ld	s2,32(sp)
   23e28:	01813983          	ld	s3,24(sp)
   23e2c:	04010113          	addi	sp,sp,64
   23e30:	00008067          	ret

0000000000023e34 <h2v2_merged_upsample>:
   23e34:	26053283          	ld	t0,608(a0)
   23e38:	1a853703          	ld	a4,424(a0)
   23e3c:	0202b883          	ld	a7,32(t0)
   23e40:	0282b783          	ld	a5,40(t0)
   23e44:	0302b803          	ld	a6,48(t0)
   23e48:	0382b283          	ld	t0,56(t0)
   23e4c:	0005b303          	ld	t1,0(a1)
   23e50:	00161e13          	slli	t3,a2,0x1
   23e54:	02161393          	slli	t2,a2,0x21
   23e58:	01d3d393          	srli	t2,t2,0x1d
   23e5c:	007303b3          	add	t2,t1,t2
   23e60:	0003b383          	ld	t2,0(t2)
   23e64:	001e0e13          	addi	t3,t3,1
   23e68:	020e1e13          	slli	t3,t3,0x20
   23e6c:	01de5e13          	srli	t3,t3,0x1d
   23e70:	01c30333          	add	t1,t1,t3
   23e74:	00033303          	ld	t1,0(t1)
   23e78:	0085be03          	ld	t3,8(a1)
   23e7c:	02061613          	slli	a2,a2,0x20
   23e80:	0105b583          	ld	a1,16(a1)
   23e84:	01d65613          	srli	a2,a2,0x1d
   23e88:	00ce0e33          	add	t3,t3,a2
   23e8c:	000e3e03          	ld	t3,0(t3)
   23e90:	00c585b3          	add	a1,a1,a2
   23e94:	0005be83          	ld	t4,0(a1)
   23e98:	08856f03          	lwu	t5,136(a0)
   23e9c:	0006b603          	ld	a2,0(a3)
   23ea0:	0086b583          	ld	a1,8(a3)
   23ea4:	001f5693          	srli	a3,t5,0x1
   23ea8:	16068a63          	beqz	a3,2401c <h2v2_merged_upsample+0x1e8>
   23eac:	fff68693          	addi	a3,a3,-1
   23eb0:	00300f13          	li	t5,3
   23eb4:	021f1f13          	slli	t5,t5,0x21
   23eb8:	02069693          	slli	a3,a3,0x20
   23ebc:	03e6b6b3          	mulhu	a3,a3,t5
   23ec0:	00c686b3          	add	a3,a3,a2
   23ec4:	00668693          	addi	a3,a3,6
   23ec8:	000ecf03          	lbu	t5,0(t4)
   23ecc:	000e4f83          	lbu	t6,0(t3)
   23ed0:	39994023          	regsw_c	s9,896(s2)
   23ed4:	002f1093          	slli	ra,t5,0x2
   23ed8:	001880b3          	add	ra,a7,ra
   23edc:	003f9113          	slli	sp,t6,0x3
   23ee0:	00228133          	add	sp,t0,sp
   23ee4:	00013103          	ld	sp,0(sp)
   23ee8:	003f1f13          	slli	t5,t5,0x3
   23eec:	01e80f33          	add	t5,a6,t5
   23ef0:	000f3f03          	ld	t5,0(t5)
   23ef4:	1e2d4723          	regsw_c	sp,494(s10)
   23ef8:	0000a083          	lw	ra,0(ra)
   23efc:	0003c183          	lbu	gp,0(t2)
   23f00:	002f0f33          	add	t5,t5,sp
   23f04:	010f5f13          	srli	t5,t5,0x10
   23f08:	0030813b          	addw	sp,ra,gp
   23f0c:	00270133          	add	sp,a4,sp
   23f10:	00014103          	lbu	sp,0(sp)
   23f14:	002f9f93          	slli	t6,t6,0x2
   23f18:	01f78fb3          	add	t6,a5,t6
   23f1c:	000faf83          	lw	t6,0(t6)
   23f20:	46b3c6a3          	regsw_c	a1,1133(t2)
   23f24:	00260023          	sb	sp,0(a2)
   23f28:	01e1813b          	addw	sp,gp,t5
   23f2c:	00270133          	add	sp,a4,sp
   23f30:	00014103          	lbu	sp,0(sp)
   23f34:	002600a3          	sb	sp,1(a2)
   23f38:	003f813b          	addw	sp,t6,gp
   23f3c:	00270133          	add	sp,a4,sp
   23f40:	779c48a3          	regsw_c	s9,1905(s8)
   23f44:	00014103          	lbu	sp,0(sp)
   23f48:	00260123          	sb	sp,2(a2)
   23f4c:	0013c103          	lbu	sp,1(t2)
   23f50:	002081bb          	addw	gp,ra,sp
   23f54:	003701b3          	add	gp,a4,gp
   23f58:	0001c183          	lbu	gp,0(gp) # 2a8b8 <__global_pointer$>
   23f5c:	003601a3          	sb	gp,3(a2)
   23f60:	37cd4723          	regsw_c	t3,878(s10)
   23f64:	01e101bb          	addw	gp,sp,t5
   23f68:	003701b3          	add	gp,a4,gp
   23f6c:	0001c183          	lbu	gp,0(gp) # 2a8b8 <__global_pointer$>
   23f70:	00360223          	sb	gp,4(a2)
   23f74:	002f813b          	addw	sp,t6,sp
   23f78:	00270133          	add	sp,a4,sp
   23f7c:	00014103          	lbu	sp,0(sp)
   23f80:	38f34723          	regsw_c	a5,910(t1)
   23f84:	002602a3          	sb	sp,5(a2)
   23f88:	00034103          	lbu	sp,0(t1)
   23f8c:	002081bb          	addw	gp,ra,sp
   23f90:	003701b3          	add	gp,a4,gp
   23f94:	0001c183          	lbu	gp,0(gp) # 2a8b8 <__global_pointer$>
   23f98:	00358023          	sb	gp,0(a1)
   23f9c:	01e101bb          	addw	gp,sp,t5
   23fa0:	363bc8a3          	regsw_c	gp,881(s7)
   23fa4:	003701b3          	add	gp,a4,gp
   23fa8:	0001c183          	lbu	gp,0(gp) # 2a8b8 <__global_pointer$>
   23fac:	003580a3          	sb	gp,1(a1)
   23fb0:	002f813b          	addw	sp,t6,sp
   23fb4:	00270133          	add	sp,a4,sp
   23fb8:	00014103          	lbu	sp,0(sp)
   23fbc:	00258123          	sb	sp,2(a1)
   23fc0:	45b9c823          	regsw_c	s11,1104(s3)
   23fc4:	00134103          	lbu	sp,1(t1)
   23fc8:	002080bb          	addw	ra,ra,sp
   23fcc:	001700b3          	add	ra,a4,ra
   23fd0:	0000c083          	lbu	ra,0(ra)
   23fd4:	001581a3          	sb	ra,3(a1)
   23fd8:	01e10f3b          	addw	t5,sp,t5
   23fdc:	01e70f33          	add	t5,a4,t5
   23fe0:	000f4f03          	lbu	t5,0(t5)
   23fe4:	001e0e13          	addi	t3,t3,1
   23fe8:	001e8e93          	addi	t4,t4,1
   23fec:	01e58223          	sb	t5,4(a1)
   23ff0:	00024023          	regsw_c	zero,0(tp) # 0 <__abi_tag-0x10294>
   23ff4:	002f8f3b          	addw	t5,t6,sp
   23ff8:	01e70f33          	add	t5,a4,t5
   23ffc:	000f4f03          	lbu	t5,0(t5)
   24000:	00238393          	addi	t2,t2,2
   24004:	00660613          	addi	a2,a2,6
   24008:	00230313          	addi	t1,t1,2
   2400c:	01e582a3          	sb	t5,5(a1)
   24010:	00658593          	addi	a1,a1,6
   24014:	ead61ae3          	bne	a2,a3,23ec8 <h2v2_merged_upsample+0x94>
   24018:	08852f03          	lw	t5,136(a0)
   2401c:	001f7f13          	andi	t5,t5,1
   24020:	0a0f0663          	beqz	t5,240cc <h2v2_merged_upsample+0x298>
   24024:	000ec503          	lbu	a0,0(t4)
   24028:	000e4683          	lbu	a3,0(t3)
   2402c:	00251e13          	slli	t3,a0,0x2
   24030:	01c888b3          	add	a7,a7,t3
   24034:	00369e13          	slli	t3,a3,0x3
   24038:	01c282b3          	add	t0,t0,t3
   2403c:	0002b283          	ld	t0,0(t0)
   24040:	00351513          	slli	a0,a0,0x3
   24044:	00a80533          	add	a0,a6,a0
   24048:	00053503          	ld	a0,0(a0)
   2404c:	0008a803          	lw	a6,0(a7)
   24050:	0003c883          	lbu	a7,0(t2)
   24054:	00550533          	add	a0,a0,t0
   24058:	01055513          	srli	a0,a0,0x10
   2405c:	011802bb          	addw	t0,a6,a7
   24060:	005702b3          	add	t0,a4,t0
   24064:	0002c283          	lbu	t0,0(t0)
   24068:	00269693          	slli	a3,a3,0x2
   2406c:	00d786b3          	add	a3,a5,a3
   24070:	0006a683          	lw	a3,0(a3)
   24074:	00560023          	sb	t0,0(a2)
   24078:	00a887bb          	addw	a5,a7,a0
   2407c:	00f707b3          	add	a5,a4,a5
   24080:	0007c783          	lbu	a5,0(a5)
   24084:	00f600a3          	sb	a5,1(a2)
   24088:	011687bb          	addw	a5,a3,a7
   2408c:	00f707b3          	add	a5,a4,a5
   24090:	0007c783          	lbu	a5,0(a5)
   24094:	00f60123          	sb	a5,2(a2)
   24098:	00034603          	lbu	a2,0(t1)
   2409c:	00c807bb          	addw	a5,a6,a2
   240a0:	00f707b3          	add	a5,a4,a5
   240a4:	0007c783          	lbu	a5,0(a5)
   240a8:	00f58023          	sb	a5,0(a1)
   240ac:	00a6053b          	addw	a0,a2,a0
   240b0:	00a70533          	add	a0,a4,a0
   240b4:	00054503          	lbu	a0,0(a0)
   240b8:	00a580a3          	sb	a0,1(a1)
   240bc:	00c6863b          	addw	a2,a3,a2
   240c0:	00c70633          	add	a2,a4,a2
   240c4:	00064503          	lbu	a0,0(a2)
   240c8:	00a58123          	sb	a0,2(a1)
   240cc:	00008067          	ret

00000000000240d0 <merged_1v_upsample>:
   240d0:	fe010113          	addi	sp,sp,-32
   240d4:	00113c23          	sd	ra,24(sp)
   240d8:	00813823          	sd	s0,16(sp)
   240dc:	00913423          	sd	s1,8(sp)
   240e0:	26053683          	ld	a3,608(a0)
   240e4:	00078413          	mv	s0,a5
   240e8:	00060493          	mv	s1,a2
   240ec:	0007e783          	lwu	a5,0(a5)
   240f0:	0186b803          	ld	a6,24(a3)
   240f4:	00062603          	lw	a2,0(a2)
   240f8:	00379693          	slli	a3,a5,0x3
   240fc:	00d706b3          	add	a3,a4,a3
   24100:	000800e7          	jalr	a6
   24104:	00042503          	lw	a0,0(s0)
   24108:	00150513          	addi	a0,a0,1
   2410c:	00a42023          	sw	a0,0(s0)
   24110:	0004a503          	lw	a0,0(s1)
   24114:	00150513          	addi	a0,a0,1
   24118:	00a4a023          	sw	a0,0(s1)
   2411c:	01813083          	ld	ra,24(sp)
   24120:	01013403          	ld	s0,16(sp)
   24124:	00813483          	ld	s1,8(sp)
   24128:	02010113          	addi	sp,sp,32
   2412c:	00008067          	ret

0000000000024130 <h2v1_merged_upsample>:
   24130:	26053283          	ld	t0,608(a0)
   24134:	1a853703          	ld	a4,424(a0)
   24138:	0202b883          	ld	a7,32(t0)
   2413c:	0282b783          	ld	a5,40(t0)
   24140:	0302b803          	ld	a6,48(t0)
   24144:	0382b283          	ld	t0,56(t0)
   24148:	0005b303          	ld	t1,0(a1)
   2414c:	02061613          	slli	a2,a2,0x20
   24150:	01d65393          	srli	t2,a2,0x1d
   24154:	0085be03          	ld	t3,8(a1)
   24158:	00730333          	add	t1,t1,t2
   2415c:	0105b583          	ld	a1,16(a1)
   24160:	00033603          	ld	a2,0(t1)
   24164:	007e0e33          	add	t3,t3,t2
   24168:	000e3303          	ld	t1,0(t3)
   2416c:	007585b3          	add	a1,a1,t2
   24170:	08856e03          	lwu	t3,136(a0)
   24174:	0005b383          	ld	t2,0(a1)
   24178:	0006b583          	ld	a1,0(a3)
   2417c:	001e5693          	srli	a3,t3,0x1
   24180:	0e068463          	beqz	a3,24268 <h2v1_merged_upsample+0x138>
   24184:	fff68693          	addi	a3,a3,-1
   24188:	00300e13          	li	t3,3
   2418c:	021e1e13          	slli	t3,t3,0x21
   24190:	02069693          	slli	a3,a3,0x20
   24194:	03c6b6b3          	mulhu	a3,a3,t3
   24198:	00b686b3          	add	a3,a3,a1
   2419c:	00668693          	addi	a3,a3,6
   241a0:	0003ce03          	lbu	t3,0(t2)
   241a4:	00034e83          	lbu	t4,0(t1)
   241a8:	002e1f13          	slli	t5,t3,0x2
   241ac:	01e88f33          	add	t5,a7,t5
   241b0:	003e9f93          	slli	t6,t4,0x3
   241b4:	01f28fb3          	add	t6,t0,t6
   241b8:	000fbf83          	ld	t6,0(t6)
   241bc:	003e1e13          	slli	t3,t3,0x3
   241c0:	01c80e33          	add	t3,a6,t3
   241c4:	000e3e03          	ld	t3,0(t3)
   241c8:	000f2f03          	lw	t5,0(t5)
   241cc:	20084023          	regsw_c	zero,512(a6)
   241d0:	00064083          	lbu	ra,0(a2)
   241d4:	01fe0e33          	add	t3,t3,t6
   241d8:	010e5e13          	srli	t3,t3,0x10
   241dc:	001f0fbb          	addw	t6,t5,ra
   241e0:	01f70fb3          	add	t6,a4,t6
   241e4:	000fcf83          	lbu	t6,0(t6)
   241e8:	002e9e93          	slli	t4,t4,0x2
   241ec:	01d78eb3          	add	t4,a5,t4
   241f0:	000eae83          	lw	t4,0(t4)
   241f4:	01f58023          	sb	t6,0(a1)
   241f8:	04044023          	regsw_c	zero,64(s0)
   241fc:	01c08fbb          	addw	t6,ra,t3
   24200:	01f70fb3          	add	t6,a4,t6
   24204:	000fcf83          	lbu	t6,0(t6)
   24208:	01f580a3          	sb	t6,1(a1)
   2420c:	001e8fbb          	addw	t6,t4,ra
   24210:	01f70fb3          	add	t6,a4,t6
   24214:	000fcf83          	lbu	t6,0(t6)
   24218:	01f58123          	sb	t6,2(a1)
   2421c:	00164f83          	lbu	t6,1(a2)
   24220:	01ff0f3b          	addw	t5,t5,t6
   24224:	01e70f33          	add	t5,a4,t5
   24228:	000f4f03          	lbu	t5,0(t5)
   2422c:	01e581a3          	sb	t5,3(a1)
   24230:	01cf8e3b          	addw	t3,t6,t3
   24234:	01c70e33          	add	t3,a4,t3
   24238:	000e4e03          	lbu	t3,0(t3)
   2423c:	01c58223          	sb	t3,4(a1)
   24240:	01fe8ebb          	addw	t4,t4,t6
   24244:	01d70eb3          	add	t4,a4,t4
   24248:	000ece03          	lbu	t3,0(t4)
   2424c:	00130313          	addi	t1,t1,1
   24250:	00138393          	addi	t2,t2,1
   24254:	01c582a3          	sb	t3,5(a1)
   24258:	00658593          	addi	a1,a1,6
   2425c:	00260613          	addi	a2,a2,2
   24260:	f4d590e3          	bne	a1,a3,241a0 <h2v1_merged_upsample+0x70>
   24264:	08852e03          	lw	t3,136(a0)
   24268:	001e7e13          	andi	t3,t3,1
   2426c:	060e0c63          	beqz	t3,242e4 <h2v1_merged_upsample+0x1b4>
   24270:	0003c503          	lbu	a0,0(t2)
   24274:	00034683          	lbu	a3,0(t1)
   24278:	00251313          	slli	t1,a0,0x2
   2427c:	006888b3          	add	a7,a7,t1
   24280:	00369313          	slli	t1,a3,0x3
   24284:	006282b3          	add	t0,t0,t1
   24288:	0002b283          	ld	t0,0(t0)
   2428c:	00351513          	slli	a0,a0,0x3
   24290:	00a80533          	add	a0,a6,a0
   24294:	00053503          	ld	a0,0(a0)
   24298:	0008a803          	lw	a6,0(a7)
   2429c:	00064603          	lbu	a2,0(a2)
   242a0:	00550533          	add	a0,a0,t0
   242a4:	01055513          	srli	a0,a0,0x10
   242a8:	00c8083b          	addw	a6,a6,a2
   242ac:	01070833          	add	a6,a4,a6
   242b0:	00084803          	lbu	a6,0(a6)
   242b4:	00269693          	slli	a3,a3,0x2
   242b8:	00d786b3          	add	a3,a5,a3
   242bc:	0006a683          	lw	a3,0(a3)
   242c0:	01058023          	sb	a6,0(a1)
   242c4:	00a6053b          	addw	a0,a2,a0
   242c8:	00a70533          	add	a0,a4,a0
   242cc:	00054503          	lbu	a0,0(a0)
   242d0:	00a580a3          	sb	a0,1(a1)
   242d4:	00c6863b          	addw	a2,a3,a2
   242d8:	00c70633          	add	a2,a4,a2
   242dc:	00064503          	lbu	a0,0(a2)
   242e0:	00a58123          	sb	a0,2(a1)
   242e4:	00008067          	ret

00000000000242e8 <jpeg_abort>:
   242e8:	ff010113          	addi	sp,sp,-16
   242ec:	00113423          	sd	ra,8(sp)
   242f0:	00813023          	sd	s0,0(sp)
   242f4:	00050413          	mv	s0,a0
   242f8:	00853503          	ld	a0,8(a0)
   242fc:	02050463          	beqz	a0,24324 <jpeg_abort+0x3c>
   24300:	04853603          	ld	a2,72(a0)
   24304:	00100593          	li	a1,1
   24308:	00040513          	mv	a0,s0
   2430c:	000600e7          	jalr	a2
   24310:	02042503          	lw	a0,32(s0)
   24314:	02050063          	beqz	a0,24334 <jpeg_abort+0x4c>
   24318:	0c800513          	li	a0,200
   2431c:	02a42223          	sw	a0,36(s0)
   24320:	18043823          	sd	zero,400(s0)
   24324:	00813083          	ld	ra,8(sp)
   24328:	00013403          	ld	s0,0(sp)
   2432c:	01010113          	addi	sp,sp,16
   24330:	00008067          	ret
   24334:	06400513          	li	a0,100
   24338:	02a42223          	sw	a0,36(s0)
   2433c:	00813083          	ld	ra,8(sp)
   24340:	00013403          	ld	s0,0(sp)
   24344:	01010113          	addi	sp,sp,16
   24348:	00008067          	ret

000000000002434c <jpeg_destroy>:
   2434c:	ff010113          	addi	sp,sp,-16
   24350:	00113423          	sd	ra,8(sp)
   24354:	00813023          	sd	s0,0(sp)
   24358:	00050413          	mv	s0,a0
   2435c:	00853503          	ld	a0,8(a0)
   24360:	00050863          	beqz	a0,24370 <jpeg_destroy+0x24>
   24364:	05053583          	ld	a1,80(a0)
   24368:	00040513          	mv	a0,s0
   2436c:	000580e7          	jalr	a1
   24370:	00043423          	sd	zero,8(s0)
   24374:	02042223          	sw	zero,36(s0)
   24378:	00813083          	ld	ra,8(sp)
   2437c:	00013403          	ld	s0,0(sp)
   24380:	01010113          	addi	sp,sp,16
   24384:	00008067          	ret

0000000000024388 <jpeg_alloc_quant_table>:
   24388:	ff010113          	addi	sp,sp,-16
   2438c:	00113423          	sd	ra,8(sp)
   24390:	00853583          	ld	a1,8(a0)
   24394:	0005b683          	ld	a3,0(a1)
   24398:	08400613          	li	a2,132
   2439c:	00000593          	li	a1,0
   243a0:	000680e7          	jalr	a3
   243a4:	08052023          	sw	zero,128(a0)
   243a8:	00813083          	ld	ra,8(sp)
   243ac:	01010113          	addi	sp,sp,16
   243b0:	00008067          	ret

00000000000243b4 <jpeg_alloc_huff_table>:
   243b4:	ff010113          	addi	sp,sp,-16
   243b8:	00113423          	sd	ra,8(sp)
   243bc:	00853583          	ld	a1,8(a0)
   243c0:	0005b683          	ld	a3,0(a1)
   243c4:	11800613          	li	a2,280
   243c8:	00000593          	li	a1,0
   243cc:	000680e7          	jalr	a3
   243d0:	10052a23          	sw	zero,276(a0)
   243d4:	00813083          	ld	ra,8(sp)
   243d8:	01010113          	addi	sp,sp,16
   243dc:	00008067          	ret

00000000000243e0 <jdiv_round_up>:
   243e0:	00b50533          	add	a0,a0,a1
   243e4:	fff50513          	addi	a0,a0,-1
   243e8:	02b54533          	div	a0,a0,a1
   243ec:	00008067          	ret

00000000000243f0 <jround_up>:
   243f0:	00b50533          	add	a0,a0,a1
   243f4:	fff50513          	addi	a0,a0,-1
   243f8:	02b565b3          	rem	a1,a0,a1
   243fc:	40b50533          	sub	a0,a0,a1
   24400:	00008067          	ret

0000000000024404 <jcopy_sample_rows>:
   24404:	08e05463          	blez	a4,2448c <jcopy_sample_rows+0x88>
   24408:	fd010113          	addi	sp,sp,-48
   2440c:	02113423          	sd	ra,40(sp)
   24410:	02813023          	sd	s0,32(sp)
   24414:	00913c23          	sd	s1,24(sp)
   24418:	01213823          	sd	s2,16(sp)
   2441c:	01313423          	sd	s3,8(sp)
   24420:	02079793          	slli	a5,a5,0x20
   24424:	0207d413          	srli	s0,a5,0x20
   24428:	00369813          	slli	a6,a3,0x3
   2442c:	010606b3          	add	a3,a2,a6
   24430:	00359593          	slli	a1,a1,0x3
   24434:	00b507b3          	add	a5,a0,a1
   24438:	fff70713          	addi	a4,a4,-1
   2443c:	02071713          	slli	a4,a4,0x20
   24440:	01d75713          	srli	a4,a4,0x1d
   24444:	00c80633          	add	a2,a6,a2
   24448:	00e60633          	add	a2,a2,a4
   2444c:	00860493          	addi	s1,a2,8
   24450:	0007b583          	ld	a1,0(a5)
   24454:	0006b503          	ld	a0,0(a3)
   24458:	00878913          	addi	s2,a5,8
   2445c:	00868993          	addi	s3,a3,8
   24460:	00040613          	mv	a2,s0
   24464:	f2cec0ef          	jal	10b90 <memcpy@plt>
   24468:	00090793          	mv	a5,s2
   2446c:	00098693          	mv	a3,s3
   24470:	fe9990e3          	bne	s3,s1,24450 <jcopy_sample_rows+0x4c>
   24474:	02813083          	ld	ra,40(sp)
   24478:	02013403          	ld	s0,32(sp)
   2447c:	01813483          	ld	s1,24(sp)
   24480:	01013903          	ld	s2,16(sp)
   24484:	00813983          	ld	s3,8(sp)
   24488:	03010113          	addi	sp,sp,48
   2448c:	00008067          	ret

0000000000024490 <jcopy_block_row>:
   24490:	02061613          	slli	a2,a2,0x20
   24494:	01965613          	srli	a2,a2,0x19
   24498:	00050693          	mv	a3,a0
   2449c:	00058513          	mv	a0,a1
   244a0:	00068593          	mv	a1,a3
   244a4:	eecec06f          	j	10b90 <memcpy@plt>

00000000000244a8 <jzero_far>:
   244a8:	00058613          	mv	a2,a1
   244ac:	00000593          	li	a1,0
   244b0:	fa0ec06f          	j	10c50 <memset@plt>

00000000000244b4 <jpeg_std_error>:
   244b4:	000245b7          	lui	a1,0x24
   244b8:	51c58593          	addi	a1,a1,1308 # 2451c <error_exit>
   244bc:	00b53023          	sd	a1,0(a0)
   244c0:	000245b7          	lui	a1,0x24
   244c4:	54c58593          	addi	a1,a1,1356 # 2454c <emit_message>
   244c8:	00b53423          	sd	a1,8(a0)
   244cc:	000245b7          	lui	a1,0x24
   244d0:	5b458593          	addi	a1,a1,1460 # 245b4 <output_message>
   244d4:	00b53823          	sd	a1,16(a0)
   244d8:	000245b7          	lui	a1,0x24
   244dc:	5ec58593          	addi	a1,a1,1516 # 245ec <format_message>
   244e0:	00b53c23          	sd	a1,24(a0)
   244e4:	000245b7          	lui	a1,0x24
   244e8:	6c858593          	addi	a1,a1,1736 # 246c8 <reset_error_mgr>
   244ec:	02b53023          	sd	a1,32(a0)
   244f0:	06052e23          	sw	zero,124(a0)
   244f4:	08053023          	sd	zero,128(a0)
   244f8:	02052423          	sw	zero,40(a0)
   244fc:	000285b7          	lui	a1,0x28
   24500:	42058593          	addi	a1,a1,1056 # 28420 <jpeg_std_message_table>
   24504:	08b53423          	sd	a1,136(a0)
   24508:	07b00593          	li	a1,123
   2450c:	08b52823          	sw	a1,144(a0)
   24510:	08053c23          	sd	zero,152(a0)
   24514:	0a053023          	sd	zero,160(a0)
   24518:	00008067          	ret

000000000002451c <error_exit>:
   2451c:	ff010113          	addi	sp,sp,-16
   24520:	00113423          	sd	ra,8(sp)
   24524:	00813023          	sd	s0,0(sp)
   24528:	00050413          	mv	s0,a0
   2452c:	00053503          	ld	a0,0(a0)
   24530:	01053583          	ld	a1,16(a0)
   24534:	00040513          	mv	a0,s0
   24538:	000580e7          	jalr	a1
   2453c:	00040513          	mv	a0,s0
   24540:	e0dff0ef          	jal	2434c <jpeg_destroy>
   24544:	00100513          	li	a0,1
   24548:	ea8ec0ef          	jal	10bf0 <exit@plt>

000000000002454c <emit_message>:
   2454c:	ff010113          	addi	sp,sp,-16
   24550:	00113423          	sd	ra,8(sp)
   24554:	00813023          	sd	s0,0(sp)
   24558:	00053403          	ld	s0,0(a0)
   2455c:	0205c063          	bltz	a1,2457c <emit_message+0x30>
   24560:	07c42603          	lw	a2,124(s0)
   24564:	04b64063          	blt	a2,a1,245a4 <emit_message+0x58>
   24568:	01043303          	ld	t1,16(s0)
   2456c:	00813083          	ld	ra,8(sp)
   24570:	00013403          	ld	s0,0(sp)
   24574:	01010113          	addi	sp,sp,16
   24578:	00030067          	jr	t1
   2457c:	08043583          	ld	a1,128(s0)
   24580:	00058863          	beqz	a1,24590 <emit_message+0x44>
   24584:	07c42603          	lw	a2,124(s0)
   24588:	00300693          	li	a3,3
   2458c:	00d64863          	blt	a2,a3,2459c <emit_message+0x50>
   24590:	01043583          	ld	a1,16(s0)
   24594:	000580e7          	jalr	a1
   24598:	08043583          	ld	a1,128(s0)
   2459c:	00158593          	addi	a1,a1,1
   245a0:	08b43023          	sd	a1,128(s0)
   245a4:	00813083          	ld	ra,8(sp)
   245a8:	00013403          	ld	s0,0(sp)
   245ac:	01010113          	addi	sp,sp,16
   245b0:	00008067          	ret

00000000000245b4 <output_message>:
   245b4:	f3010113          	addi	sp,sp,-208
   245b8:	0c113423          	sd	ra,200(sp)
   245bc:	00053583          	ld	a1,0(a0)
   245c0:	0185b603          	ld	a2,24(a1)
   245c4:	00010593          	mv	a1,sp
   245c8:	000600e7          	jalr	a2
   245cc:	8681b503          	ld	a0,-1944(gp) # 2a120 <stderr@GLIBC_2.27>
   245d0:	000265b7          	lui	a1,0x26
   245d4:	4e658593          	addi	a1,a1,1254 # 264e6 <cdjpeg_message_table+0x7be>
   245d8:	00010613          	mv	a2,sp
   245dc:	d34ec0ef          	jal	10b10 <fprintf@plt>
   245e0:	0c813083          	ld	ra,200(sp)
   245e4:	0d010113          	addi	sp,sp,208
   245e8:	00008067          	ret

00000000000245ec <format_message>:
   245ec:	fe010113          	addi	sp,sp,-32
   245f0:	00113c23          	sd	ra,24(sp)
   245f4:	00053283          	ld	t0,0(a0)
   245f8:	0282a603          	lw	a2,40(t0)
   245fc:	00058513          	mv	a0,a1
   24600:	00c05663          	blez	a2,2460c <format_message+0x20>
   24604:	0902a583          	lw	a1,144(t0)
   24608:	02c5da63          	bge	a1,a2,2463c <format_message+0x50>
   2460c:	0982b583          	ld	a1,152(t0)
   24610:	04058063          	beqz	a1,24650 <format_message+0x64>
   24614:	0a02a683          	lw	a3,160(t0)
   24618:	02d64c63          	blt	a2,a3,24650 <format_message+0x64>
   2461c:	0a42a703          	lw	a4,164(t0)
   24620:	02c74863          	blt	a4,a2,24650 <format_message+0x64>
   24624:	40d606bb          	subw	a3,a2,a3
   24628:	00369693          	slli	a3,a3,0x3
   2462c:	00d585b3          	add	a1,a1,a3
   24630:	0005b583          	ld	a1,0(a1)
   24634:	02059463          	bnez	a1,2465c <format_message+0x70>
   24638:	0180006f          	j	24650 <format_message+0x64>
   2463c:	0882b583          	ld	a1,136(t0)
   24640:	00361693          	slli	a3,a2,0x3
   24644:	00d585b3          	add	a1,a1,a3
   24648:	0005b583          	ld	a1,0(a1)
   2464c:	00059863          	bnez	a1,2465c <format_message+0x70>
   24650:	0882b583          	ld	a1,136(t0)
   24654:	02c2a623          	sw	a2,44(t0)
   24658:	0005b583          	ld	a1,0(a1)
   2465c:	02500693          	li	a3,37
   24660:	00058613          	mv	a2,a1
   24664:	00064703          	lbu	a4,0(a2)
   24668:	02070463          	beqz	a4,24690 <format_message+0xa4>
   2466c:	00160613          	addi	a2,a2,1
   24670:	fed71ae3          	bne	a4,a3,24664 <format_message+0x78>
   24674:	00064603          	lbu	a2,0(a2)
   24678:	07300693          	li	a3,115
   2467c:	00d61a63          	bne	a2,a3,24690 <format_message+0xa4>
   24680:	02c28613          	addi	a2,t0,44
   24684:	01813083          	ld	ra,24(sp)
   24688:	02010113          	addi	sp,sp,32
   2468c:	d54ec06f          	j	10be0 <sprintf@plt>
   24690:	02c2a603          	lw	a2,44(t0)
   24694:	0302a683          	lw	a3,48(t0)
   24698:	0342a703          	lw	a4,52(t0)
   2469c:	0382a783          	lw	a5,56(t0)
   246a0:	03c2a803          	lw	a6,60(t0)
   246a4:	0402a883          	lw	a7,64(t0)
   246a8:	0442a303          	lw	t1,68(t0)
   246ac:	0482a283          	lw	t0,72(t0)
   246b0:	00513423          	sd	t0,8(sp)
   246b4:	00613023          	sd	t1,0(sp)
   246b8:	d28ec0ef          	jal	10be0 <sprintf@plt>
   246bc:	01813083          	ld	ra,24(sp)
   246c0:	02010113          	addi	sp,sp,32
   246c4:	00008067          	ret

00000000000246c8 <reset_error_mgr>:
   246c8:	00053503          	ld	a0,0(a0)
   246cc:	08053023          	sd	zero,128(a0)
   246d0:	02052423          	sw	zero,40(a0)
   246d4:	00008067          	ret

00000000000246d8 <jinit_memory_mgr>:
   246d8:	fc010113          	addi	sp,sp,-64
   246dc:	02113c23          	sd	ra,56(sp)
   246e0:	02813823          	sd	s0,48(sp)
   246e4:	02913423          	sd	s1,40(sp)
   246e8:	03213023          	sd	s2,32(sp)
   246ec:	01313c23          	sd	s3,24(sp)
   246f0:	00050493          	mv	s1,a0
   246f4:	00053423          	sd	zero,8(a0)
   246f8:	5a4010ef          	jal	25c9c <jpeg_mem_init>
   246fc:	00050913          	mv	s2,a0
   24700:	00a13823          	sd	a0,16(sp)
   24704:	0a800593          	li	a1,168
   24708:	0a800993          	li	s3,168
   2470c:	00048513          	mv	a0,s1
   24710:	550010ef          	jal	25c60 <jpeg_get_small>
   24714:	00050413          	mv	s0,a0
   24718:	02051463          	bnez	a0,24740 <jinit_memory_mgr+0x68>
   2471c:	00048513          	mv	a0,s1
   24720:	584010ef          	jal	25ca4 <jpeg_mem_term>
   24724:	0004b503          	ld	a0,0(s1)
   24728:	03600593          	li	a1,54
   2472c:	02b53423          	sd	a1,40(a0)
   24730:	0004b503          	ld	a0,0(s1)
   24734:	00053583          	ld	a1,0(a0)
   24738:	00048513          	mv	a0,s1
   2473c:	000580e7          	jalr	a1
   24740:	00025537          	lui	a0,0x25
   24744:	86450513          	addi	a0,a0,-1948 # 24864 <alloc_small>
   24748:	00a43023          	sd	a0,0(s0)
   2474c:	00025537          	lui	a0,0x25
   24750:	a5450513          	addi	a0,a0,-1452 # 24a54 <alloc_large>
   24754:	00a43423          	sd	a0,8(s0)
   24758:	00025537          	lui	a0,0x25
   2475c:	b7050513          	addi	a0,a0,-1168 # 24b70 <alloc_sarray>
   24760:	00a43823          	sd	a0,16(s0)
   24764:	00025537          	lui	a0,0x25
   24768:	dbc50513          	addi	a0,a0,-580 # 24dbc <alloc_barray>
   2476c:	00a43c23          	sd	a0,24(s0)
   24770:	00025537          	lui	a0,0x25
   24774:	ff450513          	addi	a0,a0,-12 # 24ff4 <request_virt_sarray>
   24778:	02a43023          	sd	a0,32(s0)
   2477c:	00025537          	lui	a0,0x25
   24780:	0b850513          	addi	a0,a0,184 # 250b8 <request_virt_barray>
   24784:	02a43423          	sd	a0,40(s0)
   24788:	00025537          	lui	a0,0x25
   2478c:	17c50513          	addi	a0,a0,380 # 2517c <realize_virt_arrays>
   24790:	02a43823          	sd	a0,48(s0)
   24794:	00025537          	lui	a0,0x25
   24798:	39c50513          	addi	a0,a0,924 # 2539c <access_virt_sarray>
   2479c:	02a43c23          	sd	a0,56(s0)
   247a0:	00025537          	lui	a0,0x25
   247a4:	71850513          	addi	a0,a0,1816 # 25718 <access_virt_barray>
   247a8:	04a43023          	sd	a0,64(s0)
   247ac:	00026537          	lui	a0,0x26
   247b0:	aa050513          	addi	a0,a0,-1376 # 25aa0 <free_pool>
   247b4:	04a43423          	sd	a0,72(s0)
   247b8:	00026537          	lui	a0,0x26
   247bc:	c1450513          	addi	a0,a0,-1004 # 25c14 <self_destruct>
   247c0:	04a43823          	sd	a0,80(s0)
   247c4:	3b9ad537          	lui	a0,0x3b9ad
   247c8:	a005051b          	addiw	a0,a0,-1536 # 3b9aca00 <__global_pointer$+0x3b982148>
   247cc:	06a43023          	sd	a0,96(s0)
   247d0:	05243c23          	sd	s2,88(s0)
   247d4:	06043423          	sd	zero,104(s0)
   247d8:	06043823          	sd	zero,112(s0)
   247dc:	06043c23          	sd	zero,120(s0)
   247e0:	08043023          	sd	zero,128(s0)
   247e4:	08043423          	sd	zero,136(s0)
   247e8:	08043823          	sd	zero,144(s0)
   247ec:	09343c23          	sd	s3,152(s0)
   247f0:	0084b423          	sd	s0,8(s1)
   247f4:	00028537          	lui	a0,0x28
   247f8:	bf450513          	addi	a0,a0,-1036 # 27bf4 <cdjpeg_message_table+0x1ecc>
   247fc:	b24ec0ef          	jal	10b20 <getenv@plt>
   24800:	04050463          	beqz	a0,24848 <jinit_memory_mgr+0x170>
   24804:	07800593          	li	a1,120
   24808:	00b107a3          	sb	a1,15(sp)
   2480c:	000265b7          	lui	a1,0x26
   24810:	54358593          	addi	a1,a1,1347 # 26543 <cdjpeg_message_table+0x81b>
   24814:	01010613          	addi	a2,sp,16
   24818:	00f10693          	addi	a3,sp,15
   2481c:	b44ec0ef          	jal	10b60 <__isoc99_sscanf@plt>
   24820:	02a05463          	blez	a0,24848 <jinit_memory_mgr+0x170>
   24824:	00f14583          	lbu	a1,15(sp)
   24828:	01013503          	ld	a0,16(sp)
   2482c:	0df5f613          	andi	a2,a1,223
   24830:	04d00693          	li	a3,77
   24834:	3e800593          	li	a1,1000
   24838:	00d61463          	bne	a2,a3,24840 <jinit_memory_mgr+0x168>
   2483c:	02b50533          	mul	a0,a0,a1
   24840:	02b50533          	mul	a0,a0,a1
   24844:	04a43c23          	sd	a0,88(s0)
   24848:	03813083          	ld	ra,56(sp)
   2484c:	03013403          	ld	s0,48(sp)
   24850:	02813483          	ld	s1,40(sp)
   24854:	02013903          	ld	s2,32(sp)
   24858:	01813983          	ld	s3,24(sp)
   2485c:	04010113          	addi	sp,sp,64
   24860:	00008067          	ret

0000000000024864 <alloc_small>:
   24864:	fa010113          	addi	sp,sp,-96
   24868:	04113c23          	sd	ra,88(sp)
   2486c:	04813823          	sd	s0,80(sp)
   24870:	04913423          	sd	s1,72(sp)
   24874:	05213023          	sd	s2,64(sp)
   24878:	03313c23          	sd	s3,56(sp)
   2487c:	03413823          	sd	s4,48(sp)
   24880:	03513423          	sd	s5,40(sp)
   24884:	03613023          	sd	s6,32(sp)
   24888:	01713c23          	sd	s7,24(sp)
   2488c:	01813823          	sd	s8,16(sp)
   24890:	01913423          	sd	s9,8(sp)
   24894:	00050413          	mv	s0,a0
   24898:	00853983          	ld	s3,8(a0)
   2489c:	3b9ad537          	lui	a0,0x3b9ad
   248a0:	9e95051b          	addiw	a0,a0,-1559 # 3b9ac9e9 <__global_pointer$+0x3b982131>
   248a4:	00060913          	mv	s2,a2
   248a8:	00058493          	mv	s1,a1
   248ac:	02a66463          	bltu	a2,a0,248d4 <alloc_small+0x70>
   248b0:	00043503          	ld	a0,0(s0)
   248b4:	00100593          	li	a1,1
   248b8:	02059593          	slli	a1,a1,0x20
   248bc:	03658593          	addi	a1,a1,54
   248c0:	02b53423          	sd	a1,40(a0)
   248c4:	00043503          	ld	a0,0(s0)
   248c8:	00053583          	ld	a1,0(a0)
   248cc:	00040513          	mv	a0,s0
   248d0:	000580e7          	jalr	a1
   248d4:	00200513          	li	a0,2
   248d8:	00790913          	addi	s2,s2,7
   248dc:	02a4e263          	bltu	s1,a0,24900 <alloc_small+0x9c>
   248e0:	00043503          	ld	a0,0(s0)
   248e4:	02952623          	sw	s1,44(a0)
   248e8:	00043583          	ld	a1,0(s0)
   248ec:	0005b583          	ld	a1,0(a1)
   248f0:	00e00613          	li	a2,14
   248f4:	02c52423          	sw	a2,40(a0)
   248f8:	00040513          	mv	a0,s0
   248fc:	000580e7          	jalr	a1
   24900:	00349a13          	slli	s4,s1,0x3
   24904:	01498a33          	add	s4,s3,s4
   24908:	068a3503          	ld	a0,104(s4)
   2490c:	ff897913          	andi	s2,s2,-8
   24910:	02050463          	beqz	a0,24938 <alloc_small+0xd4>
   24914:	00050a93          	mv	s5,a0
   24918:	01053503          	ld	a0,16(a0)
   2491c:	09257863          	bgeu	a0,s2,249ac <alloc_small+0x148>
   24920:	000ab503          	ld	a0,0(s5)
   24924:	fe0518e3          	bnez	a0,24914 <alloc_small+0xb0>
   24928:	000a8c63          	beqz	s5,24940 <alloc_small+0xdc>
   2492c:	00029537          	lui	a0,0x29
   24930:	81850513          	addi	a0,a0,-2024 # 28818 <extra_pool_slop>
   24934:	0140006f          	j	24948 <alloc_small+0xe4>
   24938:	00000a93          	li	s5,0
   2493c:	fe0018e3          	bnez	zero,2492c <alloc_small+0xc8>
   24940:	00029537          	lui	a0,0x29
   24944:	80850513          	addi	a0,a0,-2040 # 28808 <first_pool_slop>
   24948:	00349493          	slli	s1,s1,0x3
   2494c:	00950533          	add	a0,a0,s1
   24950:	00053b03          	ld	s6,0(a0)
   24954:	3b9ad537          	lui	a0,0x3b9ad
   24958:	9e85051b          	addiw	a0,a0,-1560 # 3b9ac9e8 <__global_pointer$+0x3b982130>
   2495c:	41250533          	sub	a0,a0,s2
   24960:	01890b93          	addi	s7,s2,24
   24964:	00ab6463          	bltu	s6,a0,2496c <alloc_small+0x108>
   24968:	00050b13          	mv	s6,a0
   2496c:	016b84b3          	add	s1,s7,s6
   24970:	00040513          	mv	a0,s0
   24974:	00048593          	mv	a1,s1
   24978:	2e8010ef          	jal	25c60 <jpeg_get_small>
   2497c:	08050663          	beqz	a0,24a08 <alloc_small+0x1a4>
   24980:	0989b583          	ld	a1,152(s3)
   24984:	009585b3          	add	a1,a1,s1
   24988:	08b9bc23          	sd	a1,152(s3)
   2498c:	012b0b33          	add	s6,s6,s2
   24990:	00053423          	sd	zero,8(a0)
   24994:	00053023          	sd	zero,0(a0)
   24998:	01653823          	sd	s6,16(a0)
   2499c:	000a9463          	bnez	s5,249a4 <alloc_small+0x140>
   249a0:	068a0a93          	addi	s5,s4,104
   249a4:	00aab023          	sd	a0,0(s5)
   249a8:	0080006f          	j	249b0 <alloc_small+0x14c>
   249ac:	000a8513          	mv	a0,s5
   249b0:	00853603          	ld	a2,8(a0)
   249b4:	00c505b3          	add	a1,a0,a2
   249b8:	01053683          	ld	a3,16(a0)
   249bc:	01858593          	addi	a1,a1,24
   249c0:	01260633          	add	a2,a2,s2
   249c4:	00c53423          	sd	a2,8(a0)
   249c8:	41268633          	sub	a2,a3,s2
   249cc:	00c53823          	sd	a2,16(a0)
   249d0:	00058513          	mv	a0,a1
   249d4:	05813083          	ld	ra,88(sp)
   249d8:	05013403          	ld	s0,80(sp)
   249dc:	04813483          	ld	s1,72(sp)
   249e0:	04013903          	ld	s2,64(sp)
   249e4:	03813983          	ld	s3,56(sp)
   249e8:	03013a03          	ld	s4,48(sp)
   249ec:	02813a83          	ld	s5,40(sp)
   249f0:	02013b03          	ld	s6,32(sp)
   249f4:	01813b83          	ld	s7,24(sp)
   249f8:	01013c03          	ld	s8,16(sp)
   249fc:	00813c83          	ld	s9,8(sp)
   24a00:	06010113          	addi	sp,sp,96
   24a04:	00008067          	ret
   24a08:	06300c13          	li	s8,99
   24a0c:	00100513          	li	a0,1
   24a10:	02151513          	slli	a0,a0,0x21
   24a14:	03650c93          	addi	s9,a0,54
   24a18:	01c0006f          	j	24a34 <alloc_small+0x1d0>
   24a1c:	001b5b13          	srli	s6,s6,0x1
   24a20:	016b84b3          	add	s1,s7,s6
   24a24:	00040513          	mv	a0,s0
   24a28:	00048593          	mv	a1,s1
   24a2c:	234010ef          	jal	25c60 <jpeg_get_small>
   24a30:	f40518e3          	bnez	a0,24980 <alloc_small+0x11c>
   24a34:	ff6c64e3          	bltu	s8,s6,24a1c <alloc_small+0x1b8>
   24a38:	00043503          	ld	a0,0(s0)
   24a3c:	03953423          	sd	s9,40(a0)
   24a40:	00043503          	ld	a0,0(s0)
   24a44:	00053583          	ld	a1,0(a0)
   24a48:	00040513          	mv	a0,s0
   24a4c:	000580e7          	jalr	a1
   24a50:	fcdff06f          	j	24a1c <alloc_small+0x1b8>

0000000000024a54 <alloc_large>:
   24a54:	fc010113          	addi	sp,sp,-64
   24a58:	02113c23          	sd	ra,56(sp)
   24a5c:	02813823          	sd	s0,48(sp)
   24a60:	02913423          	sd	s1,40(sp)
   24a64:	03213023          	sd	s2,32(sp)
   24a68:	01313c23          	sd	s3,24(sp)
   24a6c:	01413823          	sd	s4,16(sp)
   24a70:	01513423          	sd	s5,8(sp)
   24a74:	00050493          	mv	s1,a0
   24a78:	00853a03          	ld	s4,8(a0)
   24a7c:	3b9ad537          	lui	a0,0x3b9ad
   24a80:	9e95051b          	addiw	a0,a0,-1559 # 3b9ac9e9 <__global_pointer$+0x3b982131>
   24a84:	00060913          	mv	s2,a2
   24a88:	00058413          	mv	s0,a1
   24a8c:	02a66463          	bltu	a2,a0,24ab4 <alloc_large+0x60>
   24a90:	0004b503          	ld	a0,0(s1)
   24a94:	00300593          	li	a1,3
   24a98:	02059593          	slli	a1,a1,0x20
   24a9c:	03658593          	addi	a1,a1,54
   24aa0:	02b53423          	sd	a1,40(a0)
   24aa4:	0004b503          	ld	a0,0(s1)
   24aa8:	00053583          	ld	a1,0(a0)
   24aac:	00048513          	mv	a0,s1
   24ab0:	000580e7          	jalr	a1
   24ab4:	00790913          	addi	s2,s2,7
   24ab8:	00200513          	li	a0,2
   24abc:	ff897a93          	andi	s5,s2,-8
   24ac0:	02a46263          	bltu	s0,a0,24ae4 <alloc_large+0x90>
   24ac4:	0004b503          	ld	a0,0(s1)
   24ac8:	02852623          	sw	s0,44(a0)
   24acc:	0004b583          	ld	a1,0(s1)
   24ad0:	0005b583          	ld	a1,0(a1)
   24ad4:	00e00613          	li	a2,14
   24ad8:	02c52423          	sw	a2,40(a0)
   24adc:	00048513          	mv	a0,s1
   24ae0:	000580e7          	jalr	a1
   24ae4:	018a8993          	addi	s3,s5,24
   24ae8:	00048513          	mv	a0,s1
   24aec:	00098593          	mv	a1,s3
   24af0:	180010ef          	jal	25c70 <jpeg_get_large>
   24af4:	00050913          	mv	s2,a0
   24af8:	02051463          	bnez	a0,24b20 <alloc_large+0xcc>
   24afc:	0004b503          	ld	a0,0(s1)
   24b00:	00100593          	li	a1,1
   24b04:	02259593          	slli	a1,a1,0x22
   24b08:	03658593          	addi	a1,a1,54
   24b0c:	02b53423          	sd	a1,40(a0)
   24b10:	0004b503          	ld	a0,0(s1)
   24b14:	00053583          	ld	a1,0(a0)
   24b18:	00048513          	mv	a0,s1
   24b1c:	000580e7          	jalr	a1
   24b20:	098a3503          	ld	a0,152(s4)
   24b24:	00341413          	slli	s0,s0,0x3
   24b28:	008a0433          	add	s0,s4,s0
   24b2c:	07843583          	ld	a1,120(s0)
   24b30:	01350533          	add	a0,a0,s3
   24b34:	08aa3c23          	sd	a0,152(s4)
   24b38:	00b93023          	sd	a1,0(s2)
   24b3c:	01593423          	sd	s5,8(s2)
   24b40:	00093823          	sd	zero,16(s2)
   24b44:	01890513          	addi	a0,s2,24
   24b48:	07243c23          	sd	s2,120(s0)
   24b4c:	03813083          	ld	ra,56(sp)
   24b50:	03013403          	ld	s0,48(sp)
   24b54:	02813483          	ld	s1,40(sp)
   24b58:	02013903          	ld	s2,32(sp)
   24b5c:	01813983          	ld	s3,24(sp)
   24b60:	01013a03          	ld	s4,16(sp)
   24b64:	00813a83          	ld	s5,8(sp)
   24b68:	04010113          	addi	sp,sp,64
   24b6c:	00008067          	ret

0000000000024b70 <alloc_sarray>:
   24b70:	f7010113          	addi	sp,sp,-144
   24b74:	08113423          	sd	ra,136(sp)
   24b78:	08813023          	sd	s0,128(sp)
   24b7c:	06913c23          	sd	s1,120(sp)
   24b80:	07213823          	sd	s2,112(sp)
   24b84:	07313423          	sd	s3,104(sp)
   24b88:	07413023          	sd	s4,96(sp)
   24b8c:	05513c23          	sd	s5,88(sp)
   24b90:	05613823          	sd	s6,80(sp)
   24b94:	05713423          	sd	s7,72(sp)
   24b98:	05813023          	sd	s8,64(sp)
   24b9c:	03913c23          	sd	s9,56(sp)
   24ba0:	03a13823          	sd	s10,48(sp)
   24ba4:	03b13423          	sd	s11,40(sp)
   24ba8:	00068413          	mv	s0,a3
   24bac:	00060a13          	mv	s4,a2
   24bb0:	00058493          	mv	s1,a1
   24bb4:	00050913          	mv	s2,a0
   24bb8:	00853983          	ld	s3,8(a0)
   24bbc:	3b9ad537          	lui	a0,0x3b9ad
   24bc0:	9e850593          	addi	a1,a0,-1560 # 3b9ac9e8 <__global_pointer$+0x3b982130>
   24bc4:	9e95051b          	addiw	a0,a0,-1559
   24bc8:	02c5db3b          	divuw	s6,a1,a2
   24bcc:	00a66e63          	bltu	a2,a0,24be8 <alloc_sarray+0x78>
   24bd0:	00093503          	ld	a0,0(s2)
   24bd4:	00053583          	ld	a1,0(a0)
   24bd8:	04600613          	li	a2,70
   24bdc:	02c52423          	sw	a2,40(a0)
   24be0:	00090513          	mv	a0,s2
   24be4:	000580e7          	jalr	a1
   24be8:	008b6463          	bltu	s6,s0,24bf0 <alloc_sarray+0x80>
   24bec:	00040b13          	mv	s6,s0
   24bf0:	0b69a023          	sw	s6,160(s3)
   24bf4:	02041613          	slli	a2,s0,0x20
   24bf8:	01d65613          	srli	a2,a2,0x1d
   24bfc:	00090513          	mv	a0,s2
   24c00:	00048593          	mv	a1,s1
   24c04:	c61ff0ef          	jal	24864 <alloc_small>
   24c08:	00050993          	mv	s3,a0
   24c0c:	16040863          	beqz	s0,24d7c <alloc_sarray+0x20c>
   24c10:	00000d93          	li	s11,0
   24c14:	020a1a13          	slli	s4,s4,0x20
   24c18:	020a5b93          	srli	s7,s4,0x20
   24c1c:	3b9ad537          	lui	a0,0x3b9ad
   24c20:	9e95051b          	addiw	a0,a0,-1559 # 3b9ac9e9 <__global_pointer$+0x3b982131>
   24c24:	02a13023          	sd	a0,32(sp)
   24c28:	00300513          	li	a0,3
   24c2c:	02051513          	slli	a0,a0,0x20
   24c30:	03650513          	addi	a0,a0,54
   24c34:	00a13823          	sd	a0,16(sp)
   24c38:	ff100513          	li	a0,-15
   24c3c:	00155513          	srli	a0,a0,0x1
   24c40:	00a13c23          	sd	a0,24(sp)
   24c44:	00100513          	li	a0,1
   24c48:	02251513          	slli	a0,a0,0x22
   24c4c:	03650513          	addi	a0,a0,54
   24c50:	00a13423          	sd	a0,8(sp)
   24c54:	00349c93          	slli	s9,s1,0x3
   24c58:	0100006f          	j	24c68 <alloc_sarray+0xf8>
   24c5c:	000d8513          	mv	a0,s11
   24c60:	00050d93          	mv	s11,a0
   24c64:	10857c63          	bgeu	a0,s0,24d7c <alloc_sarray+0x20c>
   24c68:	41b4053b          	subw	a0,s0,s11
   24c6c:	0cab7a63          	bgeu	s6,a0,24d40 <alloc_sarray+0x1d0>
   24c70:	00893c03          	ld	s8,8(s2)
   24c74:	037b0a33          	mul	s4,s6,s7
   24c78:	02013503          	ld	a0,32(sp)
   24c7c:	0caa7c63          	bgeu	s4,a0,24d54 <alloc_sarray+0x1e4>
   24c80:	00200513          	li	a0,2
   24c84:	02a4e263          	bltu	s1,a0,24ca8 <alloc_sarray+0x138>
   24c88:	00093503          	ld	a0,0(s2)
   24c8c:	02952623          	sw	s1,44(a0)
   24c90:	00093583          	ld	a1,0(s2)
   24c94:	0005b583          	ld	a1,0(a1)
   24c98:	00e00613          	li	a2,14
   24c9c:	02c52423          	sw	a2,40(a0)
   24ca0:	00090513          	mv	a0,s2
   24ca4:	000580e7          	jalr	a1
   24ca8:	007a0a13          	addi	s4,s4,7
   24cac:	01813503          	ld	a0,24(sp)
   24cb0:	00aa7d33          	and	s10,s4,a0
   24cb4:	018d0a93          	addi	s5,s10,24
   24cb8:	00090513          	mv	a0,s2
   24cbc:	000a8593          	mv	a1,s5
   24cc0:	7b1000ef          	jal	25c70 <jpeg_get_large>
   24cc4:	00050a13          	mv	s4,a0
   24cc8:	02051063          	bnez	a0,24ce8 <alloc_sarray+0x178>
   24ccc:	00093503          	ld	a0,0(s2)
   24cd0:	00813583          	ld	a1,8(sp)
   24cd4:	02b53423          	sd	a1,40(a0)
   24cd8:	00093503          	ld	a0,0(s2)
   24cdc:	00053583          	ld	a1,0(a0)
   24ce0:	00090513          	mv	a0,s2
   24ce4:	000580e7          	jalr	a1
   24ce8:	098c3503          	ld	a0,152(s8)
   24cec:	019c05b3          	add	a1,s8,s9
   24cf0:	0785b603          	ld	a2,120(a1)
   24cf4:	01550533          	add	a0,a0,s5
   24cf8:	08ac3c23          	sd	a0,152(s8)
   24cfc:	00ca3023          	sd	a2,0(s4)
   24d00:	01aa3423          	sd	s10,8(s4)
   24d04:	000a3823          	sd	zero,16(s4)
   24d08:	0745bc23          	sd	s4,120(a1)
   24d0c:	f40b08e3          	beqz	s6,24c5c <alloc_sarray+0xec>
   24d10:	018a0a13          	addi	s4,s4,24
   24d14:	000b0593          	mv	a1,s6
   24d18:	001d851b          	addiw	a0,s11,1
   24d1c:	020d9d93          	slli	s11,s11,0x20
   24d20:	01ddd613          	srli	a2,s11,0x1d
   24d24:	00c98633          	add	a2,s3,a2
   24d28:	01463023          	sd	s4,0(a2)
   24d2c:	fff5859b          	addiw	a1,a1,-1
   24d30:	017a0a33          	add	s4,s4,s7
   24d34:	00050d93          	mv	s11,a0
   24d38:	fe0590e3          	bnez	a1,24d18 <alloc_sarray+0x1a8>
   24d3c:	f25ff06f          	j	24c60 <alloc_sarray+0xf0>
   24d40:	00050b13          	mv	s6,a0
   24d44:	00893c03          	ld	s8,8(s2)
   24d48:	03750a33          	mul	s4,a0,s7
   24d4c:	02013503          	ld	a0,32(sp)
   24d50:	f2aa68e3          	bltu	s4,a0,24c80 <alloc_sarray+0x110>
   24d54:	00093503          	ld	a0,0(s2)
   24d58:	01013583          	ld	a1,16(sp)
   24d5c:	02b53423          	sd	a1,40(a0)
   24d60:	00093503          	ld	a0,0(s2)
   24d64:	00053583          	ld	a1,0(a0)
   24d68:	00090513          	mv	a0,s2
   24d6c:	000580e7          	jalr	a1
   24d70:	00200513          	li	a0,2
   24d74:	f0a4fae3          	bgeu	s1,a0,24c88 <alloc_sarray+0x118>
   24d78:	f31ff06f          	j	24ca8 <alloc_sarray+0x138>
   24d7c:	00098513          	mv	a0,s3
   24d80:	08813083          	ld	ra,136(sp)
   24d84:	08013403          	ld	s0,128(sp)
   24d88:	07813483          	ld	s1,120(sp)
   24d8c:	07013903          	ld	s2,112(sp)
   24d90:	06813983          	ld	s3,104(sp)
   24d94:	06013a03          	ld	s4,96(sp)
   24d98:	05813a83          	ld	s5,88(sp)
   24d9c:	05013b03          	ld	s6,80(sp)
   24da0:	04813b83          	ld	s7,72(sp)
   24da4:	04013c03          	ld	s8,64(sp)
   24da8:	03813c83          	ld	s9,56(sp)
   24dac:	03013d03          	ld	s10,48(sp)
   24db0:	02813d83          	ld	s11,40(sp)
   24db4:	09010113          	addi	sp,sp,144
   24db8:	00008067          	ret

0000000000024dbc <alloc_barray>:
   24dbc:	f7010113          	addi	sp,sp,-144
   24dc0:	08113423          	sd	ra,136(sp)
   24dc4:	08813023          	sd	s0,128(sp)
   24dc8:	06913c23          	sd	s1,120(sp)
   24dcc:	07213823          	sd	s2,112(sp)
   24dd0:	07313423          	sd	s3,104(sp)
   24dd4:	07413023          	sd	s4,96(sp)
   24dd8:	05513c23          	sd	s5,88(sp)
   24ddc:	05613823          	sd	s6,80(sp)
   24de0:	05713423          	sd	s7,72(sp)
   24de4:	05813023          	sd	s8,64(sp)
   24de8:	03913c23          	sd	s9,56(sp)
   24dec:	03a13823          	sd	s10,48(sp)
   24df0:	03b13423          	sd	s11,40(sp)
   24df4:	00068413          	mv	s0,a3
   24df8:	00058493          	mv	s1,a1
   24dfc:	00050913          	mv	s2,a0
   24e00:	00853983          	ld	s3,8(a0)
   24e04:	02061a13          	slli	s4,a2,0x20
   24e08:	019a5693          	srli	a3,s4,0x19
   24e0c:	3b9ad537          	lui	a0,0x3b9ad
   24e10:	9e85051b          	addiw	a0,a0,-1560 # 3b9ac9e8 <__global_pointer$+0x3b982130>
   24e14:	007735b7          	lui	a1,0x773
   24e18:	5945859b          	addiw	a1,a1,1428 # 773594 <__global_pointer$+0x748cdc>
   24e1c:	02d13023          	sd	a3,32(sp)
   24e20:	02d55bb3          	divu	s7,a0,a3
   24e24:	00b66e63          	bltu	a2,a1,24e40 <alloc_barray+0x84>
   24e28:	00093503          	ld	a0,0(s2)
   24e2c:	00053583          	ld	a1,0(a0)
   24e30:	04600613          	li	a2,70
   24e34:	02c52423          	sw	a2,40(a0)
   24e38:	00090513          	mv	a0,s2
   24e3c:	000580e7          	jalr	a1
   24e40:	02041613          	slli	a2,s0,0x20
   24e44:	02065513          	srli	a0,a2,0x20
   24e48:	00abe463          	bltu	s7,a0,24e50 <alloc_barray+0x94>
   24e4c:	00040b93          	mv	s7,s0
   24e50:	0b79a023          	sw	s7,160(s3)
   24e54:	01d65613          	srli	a2,a2,0x1d
   24e58:	00090513          	mv	a0,s2
   24e5c:	00048593          	mv	a1,s1
   24e60:	a05ff0ef          	jal	24864 <alloc_small>
   24e64:	00050993          	mv	s3,a0
   24e68:	14040663          	beqz	s0,24fb4 <alloc_barray+0x1f8>
   24e6c:	00000d13          	li	s10,0
   24e70:	020a5c13          	srli	s8,s4,0x20
   24e74:	007c1c13          	slli	s8,s8,0x7
   24e78:	3b9ad537          	lui	a0,0x3b9ad
   24e7c:	9e95051b          	addiw	a0,a0,-1559 # 3b9ac9e9 <__global_pointer$+0x3b982131>
   24e80:	00a13c23          	sd	a0,24(sp)
   24e84:	00300513          	li	a0,3
   24e88:	02051513          	slli	a0,a0,0x20
   24e8c:	03650513          	addi	a0,a0,54
   24e90:	00a13823          	sd	a0,16(sp)
   24e94:	00100513          	li	a0,1
   24e98:	02251513          	slli	a0,a0,0x22
   24e9c:	03650513          	addi	a0,a0,54
   24ea0:	00a13423          	sd	a0,8(sp)
   24ea4:	00349d93          	slli	s11,s1,0x3
   24ea8:	0100006f          	j	24eb8 <alloc_barray+0xfc>
   24eac:	000d0513          	mv	a0,s10
   24eb0:	00050d13          	mv	s10,a0
   24eb4:	10857063          	bgeu	a0,s0,24fb4 <alloc_barray+0x1f8>
   24eb8:	41a4053b          	subw	a0,s0,s10
   24ebc:	000b8b9b          	sext.w	s7,s7
   24ec0:	00abe463          	bltu	s7,a0,24ec8 <alloc_barray+0x10c>
   24ec4:	00050b93          	mv	s7,a0
   24ec8:	020b9513          	slli	a0,s7,0x20
   24ecc:	00893c83          	ld	s9,8(s2)
   24ed0:	02055513          	srli	a0,a0,0x20
   24ed4:	02013583          	ld	a1,32(sp)
   24ed8:	02a58b33          	mul	s6,a1,a0
   24edc:	01813503          	ld	a0,24(sp)
   24ee0:	02ab6063          	bltu	s6,a0,24f00 <alloc_barray+0x144>
   24ee4:	00093503          	ld	a0,0(s2)
   24ee8:	01013583          	ld	a1,16(sp)
   24eec:	02b53423          	sd	a1,40(a0)
   24ef0:	00093503          	ld	a0,0(s2)
   24ef4:	00053583          	ld	a1,0(a0)
   24ef8:	00090513          	mv	a0,s2
   24efc:	000580e7          	jalr	a1
   24f00:	00200513          	li	a0,2
   24f04:	02a4e263          	bltu	s1,a0,24f28 <alloc_barray+0x16c>
   24f08:	00093503          	ld	a0,0(s2)
   24f0c:	02952623          	sw	s1,44(a0)
   24f10:	00093583          	ld	a1,0(s2)
   24f14:	0005b583          	ld	a1,0(a1)
   24f18:	00e00613          	li	a2,14
   24f1c:	02c52423          	sw	a2,40(a0)
   24f20:	00090513          	mv	a0,s2
   24f24:	000580e7          	jalr	a1
   24f28:	018b0a93          	addi	s5,s6,24
   24f2c:	00090513          	mv	a0,s2
   24f30:	000a8593          	mv	a1,s5
   24f34:	53d000ef          	jal	25c70 <jpeg_get_large>
   24f38:	00050a13          	mv	s4,a0
   24f3c:	02051063          	bnez	a0,24f5c <alloc_barray+0x1a0>
   24f40:	00093503          	ld	a0,0(s2)
   24f44:	00813583          	ld	a1,8(sp)
   24f48:	02b53423          	sd	a1,40(a0)
   24f4c:	00093503          	ld	a0,0(s2)
   24f50:	00053583          	ld	a1,0(a0)
   24f54:	00090513          	mv	a0,s2
   24f58:	000580e7          	jalr	a1
   24f5c:	098cb503          	ld	a0,152(s9)
   24f60:	01bc85b3          	add	a1,s9,s11
   24f64:	0785b603          	ld	a2,120(a1)
   24f68:	01550533          	add	a0,a0,s5
   24f6c:	08acbc23          	sd	a0,152(s9)
   24f70:	00ca3023          	sd	a2,0(s4)
   24f74:	016a3423          	sd	s6,8(s4)
   24f78:	000a3823          	sd	zero,16(s4)
   24f7c:	0745bc23          	sd	s4,120(a1)
   24f80:	f20b86e3          	beqz	s7,24eac <alloc_barray+0xf0>
   24f84:	018a0a13          	addi	s4,s4,24
   24f88:	000b8593          	mv	a1,s7
   24f8c:	001d051b          	addiw	a0,s10,1
   24f90:	020d1d13          	slli	s10,s10,0x20
   24f94:	01dd5613          	srli	a2,s10,0x1d
   24f98:	00c98633          	add	a2,s3,a2
   24f9c:	01463023          	sd	s4,0(a2)
   24fa0:	fff5859b          	addiw	a1,a1,-1
   24fa4:	018a0a33          	add	s4,s4,s8
   24fa8:	00050d13          	mv	s10,a0
   24fac:	fe0590e3          	bnez	a1,24f8c <alloc_barray+0x1d0>
   24fb0:	f01ff06f          	j	24eb0 <alloc_barray+0xf4>
   24fb4:	00098513          	mv	a0,s3
   24fb8:	08813083          	ld	ra,136(sp)
   24fbc:	08013403          	ld	s0,128(sp)
   24fc0:	07813483          	ld	s1,120(sp)
   24fc4:	07013903          	ld	s2,112(sp)
   24fc8:	06813983          	ld	s3,104(sp)
   24fcc:	06013a03          	ld	s4,96(sp)
   24fd0:	05813a83          	ld	s5,88(sp)
   24fd4:	05013b03          	ld	s6,80(sp)
   24fd8:	04813b83          	ld	s7,72(sp)
   24fdc:	04013c03          	ld	s8,64(sp)
   24fe0:	03813c83          	ld	s9,56(sp)
   24fe4:	03013d03          	ld	s10,48(sp)
   24fe8:	02813d83          	ld	s11,40(sp)
   24fec:	09010113          	addi	sp,sp,144
   24ff0:	00008067          	ret

0000000000024ff4 <request_virt_sarray>:
   24ff4:	fc010113          	addi	sp,sp,-64
   24ff8:	02113c23          	sd	ra,56(sp)
   24ffc:	02813823          	sd	s0,48(sp)
   25000:	02913423          	sd	s1,40(sp)
   25004:	03213023          	sd	s2,32(sp)
   25008:	01313c23          	sd	s3,24(sp)
   2500c:	01413823          	sd	s4,16(sp)
   25010:	01513423          	sd	s5,8(sp)
   25014:	01613023          	sd	s6,0(sp)
   25018:	00853a83          	ld	s5,8(a0)
   2501c:	00100813          	li	a6,1
   25020:	00078413          	mv	s0,a5
   25024:	00070993          	mv	s3,a4
   25028:	00068913          	mv	s2,a3
   2502c:	00060493          	mv	s1,a2
   25030:	03058863          	beq	a1,a6,25060 <request_virt_sarray+0x6c>
   25034:	00053603          	ld	a2,0(a0)
   25038:	02b62623          	sw	a1,44(a2)
   2503c:	00053683          	ld	a3,0(a0)
   25040:	0006b683          	ld	a3,0(a3)
   25044:	00e00713          	li	a4,14
   25048:	02e62423          	sw	a4,40(a2)
   2504c:	00050a13          	mv	s4,a0
   25050:	00058b13          	mv	s6,a1
   25054:	000680e7          	jalr	a3
   25058:	000a0513          	mv	a0,s4
   2505c:	000b0813          	mv	a6,s6
   25060:	09800613          	li	a2,152
   25064:	00080593          	mv	a1,a6
   25068:	ffcff0ef          	jal	24864 <alloc_small>
   2506c:	00053023          	sd	zero,0(a0)
   25070:	01352423          	sw	s3,8(a0)
   25074:	01252623          	sw	s2,12(a0)
   25078:	088ab583          	ld	a1,136(s5)
   2507c:	00852823          	sw	s0,16(a0)
   25080:	02952223          	sw	s1,36(a0)
   25084:	02052623          	sw	zero,44(a0)
   25088:	02b53823          	sd	a1,48(a0)
   2508c:	08aab423          	sd	a0,136(s5)
   25090:	03813083          	ld	ra,56(sp)
   25094:	03013403          	ld	s0,48(sp)
   25098:	02813483          	ld	s1,40(sp)
   2509c:	02013903          	ld	s2,32(sp)
   250a0:	01813983          	ld	s3,24(sp)
   250a4:	01013a03          	ld	s4,16(sp)
   250a8:	00813a83          	ld	s5,8(sp)
   250ac:	00013b03          	ld	s6,0(sp)
   250b0:	04010113          	addi	sp,sp,64
   250b4:	00008067          	ret

00000000000250b8 <request_virt_barray>:
   250b8:	fc010113          	addi	sp,sp,-64
   250bc:	02113c23          	sd	ra,56(sp)
   250c0:	02813823          	sd	s0,48(sp)
   250c4:	02913423          	sd	s1,40(sp)
   250c8:	03213023          	sd	s2,32(sp)
   250cc:	01313c23          	sd	s3,24(sp)
   250d0:	01413823          	sd	s4,16(sp)
   250d4:	01513423          	sd	s5,8(sp)
   250d8:	01613023          	sd	s6,0(sp)
   250dc:	00853a83          	ld	s5,8(a0)
   250e0:	00100813          	li	a6,1
   250e4:	00078413          	mv	s0,a5
   250e8:	00070993          	mv	s3,a4
   250ec:	00068913          	mv	s2,a3
   250f0:	00060493          	mv	s1,a2
   250f4:	03058863          	beq	a1,a6,25124 <request_virt_barray+0x6c>
   250f8:	00053603          	ld	a2,0(a0)
   250fc:	02b62623          	sw	a1,44(a2)
   25100:	00053683          	ld	a3,0(a0)
   25104:	0006b683          	ld	a3,0(a3)
   25108:	00e00713          	li	a4,14
   2510c:	02e62423          	sw	a4,40(a2)
   25110:	00050a13          	mv	s4,a0
   25114:	00058b13          	mv	s6,a1
   25118:	000680e7          	jalr	a3
   2511c:	000a0513          	mv	a0,s4
   25120:	000b0813          	mv	a6,s6
   25124:	09800613          	li	a2,152
   25128:	00080593          	mv	a1,a6
   2512c:	f38ff0ef          	jal	24864 <alloc_small>
   25130:	00053023          	sd	zero,0(a0)
   25134:	01352423          	sw	s3,8(a0)
   25138:	01252623          	sw	s2,12(a0)
   2513c:	090ab583          	ld	a1,144(s5)
   25140:	00852823          	sw	s0,16(a0)
   25144:	02952223          	sw	s1,36(a0)
   25148:	02052623          	sw	zero,44(a0)
   2514c:	02b53823          	sd	a1,48(a0)
   25150:	08aab823          	sd	a0,144(s5)
   25154:	03813083          	ld	ra,56(sp)
   25158:	03013403          	ld	s0,48(sp)
   2515c:	02813483          	ld	s1,40(sp)
   25160:	02013903          	ld	s2,32(sp)
   25164:	01813983          	ld	s3,24(sp)
   25168:	01013a03          	ld	s4,16(sp)
   2516c:	00813a83          	ld	s5,8(sp)
   25170:	00013b03          	ld	s6,0(sp)
   25174:	04010113          	addi	sp,sp,64
   25178:	00008067          	ret

000000000002517c <realize_virt_arrays>:
   2517c:	fd010113          	addi	sp,sp,-48
   25180:	02113423          	sd	ra,40(sp)
   25184:	02813023          	sd	s0,32(sp)
   25188:	00913c23          	sd	s1,24(sp)
   2518c:	01213823          	sd	s2,16(sp)
   25190:	01313423          	sd	s3,8(sp)
   25194:	01413023          	sd	s4,0(sp)
   25198:	00050413          	mv	s0,a0
   2519c:	00853983          	ld	s3,8(a0)
   251a0:	0889b503          	ld	a0,136(s3)
   251a4:	04050063          	beqz	a0,251e4 <realize_virt_arrays+0x68>
   251a8:	00000493          	li	s1,0
   251ac:	00000913          	li	s2,0
   251b0:	00c0006f          	j	251bc <realize_virt_arrays+0x40>
   251b4:	03053503          	ld	a0,48(a0)
   251b8:	02050a63          	beqz	a0,251ec <realize_virt_arrays+0x70>
   251bc:	00053583          	ld	a1,0(a0)
   251c0:	fe059ae3          	bnez	a1,251b4 <realize_virt_arrays+0x38>
   251c4:	01056583          	lwu	a1,16(a0)
   251c8:	00c56603          	lwu	a2,12(a0)
   251cc:	00856683          	lwu	a3,8(a0)
   251d0:	02b605b3          	mul	a1,a2,a1
   251d4:	009584b3          	add	s1,a1,s1
   251d8:	02c685b3          	mul	a1,a3,a2
   251dc:	01258933          	add	s2,a1,s2
   251e0:	fd5ff06f          	j	251b4 <realize_virt_arrays+0x38>
   251e4:	00000913          	li	s2,0
   251e8:	00000493          	li	s1,0
   251ec:	0909b503          	ld	a0,144(s3)
   251f0:	02051c63          	bnez	a0,25228 <realize_virt_arrays+0xac>
   251f4:	18905463          	blez	s1,2537c <realize_virt_arrays+0x200>
   251f8:	0989b683          	ld	a3,152(s3)
   251fc:	00040513          	mv	a0,s0
   25200:	00048593          	mv	a1,s1
   25204:	00090613          	mv	a2,s2
   25208:	279000ef          	jal	25c80 <jpeg_mem_available>
   2520c:	05255663          	bge	a0,s2,25258 <realize_virt_arrays+0xdc>
   25210:	029544b3          	div	s1,a0,s1
   25214:	04904663          	bgtz	s1,25260 <realize_virt_arrays+0xe4>
   25218:	00100493          	li	s1,1
   2521c:	0440006f          	j	25260 <realize_virt_arrays+0xe4>
   25220:	03053503          	ld	a0,48(a0)
   25224:	fc0508e3          	beqz	a0,251f4 <realize_virt_arrays+0x78>
   25228:	00053583          	ld	a1,0(a0)
   2522c:	fe059ae3          	bnez	a1,25220 <realize_virt_arrays+0xa4>
   25230:	01056583          	lwu	a1,16(a0)
   25234:	00c56603          	lwu	a2,12(a0)
   25238:	00856683          	lwu	a3,8(a0)
   2523c:	02c585b3          	mul	a1,a1,a2
   25240:	00759593          	slli	a1,a1,0x7
   25244:	009584b3          	add	s1,a1,s1
   25248:	02d605b3          	mul	a1,a2,a3
   2524c:	00759593          	slli	a1,a1,0x7
   25250:	01258933          	add	s2,a1,s2
   25254:	fcdff06f          	j	25220 <realize_virt_arrays+0xa4>
   25258:	3b9ad537          	lui	a0,0x3b9ad
   2525c:	a005049b          	addiw	s1,a0,-1536 # 3b9aca00 <__global_pointer$+0x3b982148>
   25260:	0889b903          	ld	s2,136(s3)
   25264:	08090463          	beqz	s2,252ec <realize_virt_arrays+0x170>
   25268:	00100a13          	li	s4,1
   2526c:	03c0006f          	j	252a8 <realize_virt_arrays+0x12c>
   25270:	00d92a23          	sw	a3,20(s2)
   25274:	00c92603          	lw	a2,12(s2)
   25278:	0006869b          	sext.w	a3,a3
   2527c:	00100593          	li	a1,1
   25280:	00040513          	mv	a0,s0
   25284:	8edff0ef          	jal	24b70 <alloc_sarray>
   25288:	0a09a583          	lw	a1,160(s3)
   2528c:	00a93023          	sd	a0,0(s2)
   25290:	00b92c23          	sw	a1,24(s2)
   25294:	00092e23          	sw	zero,28(s2)
   25298:	02092023          	sw	zero,32(s2)
   2529c:	02092423          	sw	zero,40(s2)
   252a0:	03093903          	ld	s2,48(s2)
   252a4:	04090463          	beqz	s2,252ec <realize_virt_arrays+0x170>
   252a8:	00093503          	ld	a0,0(s2)
   252ac:	fe051ae3          	bnez	a0,252a0 <realize_virt_arrays+0x124>
   252b0:	00896683          	lwu	a3,8(s2)
   252b4:	01096503          	lwu	a0,16(s2)
   252b8:	fff68593          	addi	a1,a3,-1
   252bc:	02a5c5b3          	div	a1,a1,a0
   252c0:	fa95c8e3          	blt	a1,s1,25270 <realize_virt_arrays+0xf4>
   252c4:	00c96603          	lwu	a2,12(s2)
   252c8:	02950533          	mul	a0,a0,s1
   252cc:	00a92a23          	sw	a0,20(s2)
   252d0:	03890593          	addi	a1,s2,56
   252d4:	02d60633          	mul	a2,a2,a3
   252d8:	00040513          	mv	a0,s0
   252dc:	1ad000ef          	jal	25c88 <jpeg_open_backing_store>
   252e0:	01492683          	lw	a3,20(s2)
   252e4:	03492623          	sw	s4,44(s2)
   252e8:	f8dff06f          	j	25274 <realize_virt_arrays+0xf8>
   252ec:	0909b903          	ld	s2,144(s3)
   252f0:	08090663          	beqz	s2,2537c <realize_virt_arrays+0x200>
   252f4:	00100a13          	li	s4,1
   252f8:	03c0006f          	j	25334 <realize_virt_arrays+0x1b8>
   252fc:	00d92a23          	sw	a3,20(s2)
   25300:	00c92603          	lw	a2,12(s2)
   25304:	0006869b          	sext.w	a3,a3
   25308:	00100593          	li	a1,1
   2530c:	00040513          	mv	a0,s0
   25310:	aadff0ef          	jal	24dbc <alloc_barray>
   25314:	0a09a583          	lw	a1,160(s3)
   25318:	00a93023          	sd	a0,0(s2)
   2531c:	00b92c23          	sw	a1,24(s2)
   25320:	00092e23          	sw	zero,28(s2)
   25324:	02092023          	sw	zero,32(s2)
   25328:	02092423          	sw	zero,40(s2)
   2532c:	03093903          	ld	s2,48(s2)
   25330:	04090663          	beqz	s2,2537c <realize_virt_arrays+0x200>
   25334:	00093503          	ld	a0,0(s2)
   25338:	fe051ae3          	bnez	a0,2532c <realize_virt_arrays+0x1b0>
   2533c:	00896683          	lwu	a3,8(s2)
   25340:	01096503          	lwu	a0,16(s2)
   25344:	fff68593          	addi	a1,a3,-1
   25348:	02a5c5b3          	div	a1,a1,a0
   2534c:	fa95c8e3          	blt	a1,s1,252fc <realize_virt_arrays+0x180>
   25350:	00c96603          	lwu	a2,12(s2)
   25354:	02950533          	mul	a0,a0,s1
   25358:	00a92a23          	sw	a0,20(s2)
   2535c:	03890593          	addi	a1,s2,56
   25360:	02c68633          	mul	a2,a3,a2
   25364:	00761613          	slli	a2,a2,0x7
   25368:	00040513          	mv	a0,s0
   2536c:	11d000ef          	jal	25c88 <jpeg_open_backing_store>
   25370:	01492683          	lw	a3,20(s2)
   25374:	03492623          	sw	s4,44(s2)
   25378:	f89ff06f          	j	25300 <realize_virt_arrays+0x184>
   2537c:	02813083          	ld	ra,40(sp)
   25380:	02013403          	ld	s0,32(sp)
   25384:	01813483          	ld	s1,24(sp)
   25388:	01013903          	ld	s2,16(sp)
   2538c:	00813983          	ld	s3,8(sp)
   25390:	00013a03          	ld	s4,0(sp)
   25394:	03010113          	addi	sp,sp,48
   25398:	00008067          	ret

000000000002539c <access_virt_sarray>:
   2539c:	fa010113          	addi	sp,sp,-96
   253a0:	04113c23          	sd	ra,88(sp)
   253a4:	04813823          	sd	s0,80(sp)
   253a8:	04913423          	sd	s1,72(sp)
   253ac:	05213023          	sd	s2,64(sp)
   253b0:	03313c23          	sd	s3,56(sp)
   253b4:	03413823          	sd	s4,48(sp)
   253b8:	03513423          	sd	s5,40(sp)
   253bc:	03613023          	sd	s6,32(sp)
   253c0:	01713c23          	sd	s7,24(sp)
   253c4:	01813823          	sd	s8,16(sp)
   253c8:	01913423          	sd	s9,8(sp)
   253cc:	00058413          	mv	s0,a1
   253d0:	0085a583          	lw	a1,8(a1)
   253d4:	00060493          	mv	s1,a2
   253d8:	00c68bbb          	addw	s7,a3,a2
   253dc:	00070913          	mv	s2,a4
   253e0:	00050993          	mv	s3,a0
   253e4:	0375e063          	bltu	a1,s7,25404 <access_virt_sarray+0x68>
   253e8:	01042503          	lw	a0,16(s0)
   253ec:	00d56c63          	bltu	a0,a3,25404 <access_virt_sarray+0x68>
   253f0:	00043503          	ld	a0,0(s0)
   253f4:	00050863          	beqz	a0,25404 <access_virt_sarray+0x68>
   253f8:	01c42503          	lw	a0,28(s0)
   253fc:	02a4f463          	bgeu	s1,a0,25424 <access_virt_sarray+0x88>
   25400:	0300006f          	j	25430 <access_virt_sarray+0x94>
   25404:	0009b503          	ld	a0,0(s3)
   25408:	00053583          	ld	a1,0(a0)
   2540c:	01600613          	li	a2,22
   25410:	02c52423          	sw	a2,40(a0)
   25414:	00098513          	mv	a0,s3
   25418:	000580e7          	jalr	a1
   2541c:	01c42503          	lw	a0,28(s0)
   25420:	00a4e863          	bltu	s1,a0,25430 <access_virt_sarray+0x94>
   25424:	01442583          	lw	a1,20(s0)
   25428:	00a5853b          	addw	a0,a1,a0
   2542c:	1d757863          	bgeu	a0,s7,255fc <access_virt_sarray+0x260>
   25430:	02c42503          	lw	a0,44(s0)
   25434:	00051e63          	bnez	a0,25450 <access_virt_sarray+0xb4>
   25438:	0009b503          	ld	a0,0(s3)
   2543c:	00053583          	ld	a1,0(a0)
   25440:	04500613          	li	a2,69
   25444:	02c52423          	sw	a2,40(a0)
   25448:	00098513          	mv	a0,s3
   2544c:	000580e7          	jalr	a1
   25450:	02842503          	lw	a0,40(s0)
   25454:	03840a13          	addi	s4,s0,56
   25458:	0a050863          	beqz	a0,25508 <access_virt_sarray+0x16c>
   2545c:	01446503          	lwu	a0,20(s0)
   25460:	0a050263          	beqz	a0,25504 <access_virt_sarray+0x168>
   25464:	00c46c03          	lwu	s8,12(s0)
   25468:	01c46603          	lwu	a2,28(s0)
   2546c:	01846583          	lwu	a1,24(s0)
   25470:	00000c93          	li	s9,0
   25474:	03860ab3          	mul	s5,a2,s8
   25478:	41950533          	sub	a0,a0,s9
   2547c:	00b54463          	blt	a0,a1,25484 <access_virt_sarray+0xe8>
   25480:	00058513          	mv	a0,a1
   25484:	01c46583          	lwu	a1,28(s0)
   25488:	02046603          	lwu	a2,32(s0)
   2548c:	00bc85b3          	add	a1,s9,a1
   25490:	40b60633          	sub	a2,a2,a1
   25494:	00c55c63          	bge	a0,a2,254ac <access_virt_sarray+0x110>
   25498:	00846603          	lwu	a2,8(s0)
   2549c:	40b605b3          	sub	a1,a2,a1
   254a0:	00b55e63          	bge	a0,a1,254bc <access_virt_sarray+0x120>
   254a4:	02a04063          	bgtz	a0,254c4 <access_virt_sarray+0x128>
   254a8:	05c0006f          	j	25504 <access_virt_sarray+0x168>
   254ac:	00060513          	mv	a0,a2
   254b0:	00846603          	lwu	a2,8(s0)
   254b4:	40b605b3          	sub	a1,a2,a1
   254b8:	feb546e3          	blt	a0,a1,254a4 <access_virt_sarray+0x108>
   254bc:	00058513          	mv	a0,a1
   254c0:	04b05263          	blez	a1,25504 <access_virt_sarray+0x168>
   254c4:	00043583          	ld	a1,0(s0)
   254c8:	04043783          	ld	a5,64(s0)
   254cc:	003c9613          	slli	a2,s9,0x3
   254d0:	00c585b3          	add	a1,a1,a2
   254d4:	0005b603          	ld	a2,0(a1)
   254d8:	03850b33          	mul	s6,a0,s8
   254dc:	00098513          	mv	a0,s3
   254e0:	000a0593          	mv	a1,s4
   254e4:	000a8693          	mv	a3,s5
   254e8:	000b0713          	mv	a4,s6
   254ec:	000780e7          	jalr	a5
   254f0:	01846583          	lwu	a1,24(s0)
   254f4:	01446503          	lwu	a0,20(s0)
   254f8:	00bc8cb3          	add	s9,s9,a1
   254fc:	015b0ab3          	add	s5,s6,s5
   25500:	f6acece3          	bltu	s9,a0,25478 <access_virt_sarray+0xdc>
   25504:	02042423          	sw	zero,40(s0)
   25508:	01c42503          	lw	a0,28(s0)
   2550c:	00957e63          	bgeu	a0,s1,25528 <access_virt_sarray+0x18c>
   25510:	01442503          	lw	a0,20(s0)
   25514:	00048593          	mv	a1,s1
   25518:	0005061b          	sext.w	a2,a0
   2551c:	00942e23          	sw	s1,28(s0)
   25520:	02061863          	bnez	a2,25550 <access_virt_sarray+0x1b4>
   25524:	0d80006f          	j	255fc <access_virt_sarray+0x260>
   25528:	01446503          	lwu	a0,20(s0)
   2552c:	020b9593          	slli	a1,s7,0x20
   25530:	0205d593          	srli	a1,a1,0x20
   25534:	40a585b3          	sub	a1,a1,a0
   25538:	00b02633          	sgtz	a2,a1
   2553c:	40c00633          	neg	a2,a2
   25540:	00b675b3          	and	a1,a2,a1
   25544:	0005061b          	sext.w	a2,a0
   25548:	00b42e23          	sw	a1,28(s0)
   2554c:	0a060863          	beqz	a2,255fc <access_virt_sarray+0x260>
   25550:	00000c13          	li	s8,0
   25554:	00c46c83          	lwu	s9,12(s0)
   25558:	02051513          	slli	a0,a0,0x20
   2555c:	02055513          	srli	a0,a0,0x20
   25560:	01846603          	lwu	a2,24(s0)
   25564:	02059593          	slli	a1,a1,0x20
   25568:	0205d593          	srli	a1,a1,0x20
   2556c:	02bc8ab3          	mul	s5,s9,a1
   25570:	41850533          	sub	a0,a0,s8
   25574:	00c54463          	blt	a0,a2,2557c <access_virt_sarray+0x1e0>
   25578:	00060513          	mv	a0,a2
   2557c:	01c46583          	lwu	a1,28(s0)
   25580:	02046603          	lwu	a2,32(s0)
   25584:	00bc05b3          	add	a1,s8,a1
   25588:	40b60633          	sub	a2,a2,a1
   2558c:	00c55c63          	bge	a0,a2,255a4 <access_virt_sarray+0x208>
   25590:	00846603          	lwu	a2,8(s0)
   25594:	40b605b3          	sub	a1,a2,a1
   25598:	00b55e63          	bge	a0,a1,255b4 <access_virt_sarray+0x218>
   2559c:	02a04063          	bgtz	a0,255bc <access_virt_sarray+0x220>
   255a0:	05c0006f          	j	255fc <access_virt_sarray+0x260>
   255a4:	00060513          	mv	a0,a2
   255a8:	00846603          	lwu	a2,8(s0)
   255ac:	40b605b3          	sub	a1,a2,a1
   255b0:	feb546e3          	blt	a0,a1,2559c <access_virt_sarray+0x200>
   255b4:	00058513          	mv	a0,a1
   255b8:	04b05263          	blez	a1,255fc <access_virt_sarray+0x260>
   255bc:	00043583          	ld	a1,0(s0)
   255c0:	03843783          	ld	a5,56(s0)
   255c4:	003c1613          	slli	a2,s8,0x3
   255c8:	00c585b3          	add	a1,a1,a2
   255cc:	0005b603          	ld	a2,0(a1)
   255d0:	03950b33          	mul	s6,a0,s9
   255d4:	00098513          	mv	a0,s3
   255d8:	000a0593          	mv	a1,s4
   255dc:	000a8693          	mv	a3,s5
   255e0:	000b0713          	mv	a4,s6
   255e4:	000780e7          	jalr	a5
   255e8:	01846603          	lwu	a2,24(s0)
   255ec:	01446503          	lwu	a0,20(s0)
   255f0:	00cc0c33          	add	s8,s8,a2
   255f4:	015b0ab3          	add	s5,s6,s5
   255f8:	f6ac6ce3          	bltu	s8,a0,25570 <access_virt_sarray+0x1d4>
   255fc:	02042503          	lw	a0,32(s0)
   25600:	09757e63          	bgeu	a0,s7,2569c <access_virt_sarray+0x300>
   25604:	02957463          	bgeu	a0,s1,2562c <access_virt_sarray+0x290>
   25608:	02090c63          	beqz	s2,25640 <access_virt_sarray+0x2a4>
   2560c:	0009b503          	ld	a0,0(s3)
   25610:	00053583          	ld	a1,0(a0)
   25614:	01600613          	li	a2,22
   25618:	02c52423          	sw	a2,40(a0)
   2561c:	00098513          	mv	a0,s3
   25620:	000580e7          	jalr	a1
   25624:	00048513          	mv	a0,s1
   25628:	0080006f          	j	25630 <access_virt_sarray+0x294>
   2562c:	0c090463          	beqz	s2,256f4 <access_virt_sarray+0x358>
   25630:	02442583          	lw	a1,36(s0)
   25634:	03742023          	sw	s7,32(s0)
   25638:	00059a63          	bnez	a1,2564c <access_virt_sarray+0x2b0>
   2563c:	0640006f          	j	256a0 <access_virt_sarray+0x304>
   25640:	02442583          	lw	a1,36(s0)
   25644:	00048513          	mv	a0,s1
   25648:	0a058a63          	beqz	a1,256fc <access_virt_sarray+0x360>
   2564c:	01c42603          	lw	a2,28(s0)
   25650:	40c505bb          	subw	a1,a0,a2
   25654:	40cb863b          	subw	a2,s7,a2
   25658:	04c5f263          	bgeu	a1,a2,2569c <access_virt_sarray+0x300>
   2565c:	00c46983          	lwu	s3,12(s0)
   25660:	02059593          	slli	a1,a1,0x20
   25664:	01d5da13          	srli	s4,a1,0x1d
   25668:	fff54513          	not	a0,a0
   2566c:	01750533          	add	a0,a0,s7
   25670:	02051513          	slli	a0,a0,0x20
   25674:	01d55513          	srli	a0,a0,0x1d
   25678:	01450533          	add	a0,a0,s4
   2567c:	00850a93          	addi	s5,a0,8
   25680:	00043503          	ld	a0,0(s0)
   25684:	01450533          	add	a0,a0,s4
   25688:	00053503          	ld	a0,0(a0)
   2568c:	00098593          	mv	a1,s3
   25690:	e19fe0ef          	jal	244a8 <jzero_far>
   25694:	008a0a13          	addi	s4,s4,8
   25698:	ff5a14e3          	bne	s4,s5,25680 <access_virt_sarray+0x2e4>
   2569c:	00090663          	beqz	s2,256a8 <access_virt_sarray+0x30c>
   256a0:	00100513          	li	a0,1
   256a4:	02a42423          	sw	a0,40(s0)
   256a8:	01c42503          	lw	a0,28(s0)
   256ac:	00043583          	ld	a1,0(s0)
   256b0:	40a484bb          	subw	s1,s1,a0
   256b4:	02049493          	slli	s1,s1,0x20
   256b8:	01d4d513          	srli	a0,s1,0x1d
   256bc:	00a58533          	add	a0,a1,a0
   256c0:	05813083          	ld	ra,88(sp)
   256c4:	05013403          	ld	s0,80(sp)
   256c8:	04813483          	ld	s1,72(sp)
   256cc:	04013903          	ld	s2,64(sp)
   256d0:	03813983          	ld	s3,56(sp)
   256d4:	03013a03          	ld	s4,48(sp)
   256d8:	02813a83          	ld	s5,40(sp)
   256dc:	02013b03          	ld	s6,32(sp)
   256e0:	01813b83          	ld	s7,24(sp)
   256e4:	01013c03          	ld	s8,16(sp)
   256e8:	00813c83          	ld	s9,8(sp)
   256ec:	06010113          	addi	sp,sp,96
   256f0:	00008067          	ret
   256f4:	02442583          	lw	a1,36(s0)
   256f8:	f4059ae3          	bnez	a1,2564c <access_virt_sarray+0x2b0>
   256fc:	0009b503          	ld	a0,0(s3)
   25700:	00053583          	ld	a1,0(a0)
   25704:	01600613          	li	a2,22
   25708:	02c52423          	sw	a2,40(a0)
   2570c:	00098513          	mv	a0,s3
   25710:	000580e7          	jalr	a1
   25714:	f95ff06f          	j	256a8 <access_virt_sarray+0x30c>

0000000000025718 <access_virt_barray>:
   25718:	fa010113          	addi	sp,sp,-96
   2571c:	04113c23          	sd	ra,88(sp)
   25720:	04813823          	sd	s0,80(sp)
   25724:	04913423          	sd	s1,72(sp)
   25728:	05213023          	sd	s2,64(sp)
   2572c:	03313c23          	sd	s3,56(sp)
   25730:	03413823          	sd	s4,48(sp)
   25734:	03513423          	sd	s5,40(sp)
   25738:	03613023          	sd	s6,32(sp)
   2573c:	01713c23          	sd	s7,24(sp)
   25740:	01813823          	sd	s8,16(sp)
   25744:	01913423          	sd	s9,8(sp)
   25748:	00058413          	mv	s0,a1
   2574c:	0085a583          	lw	a1,8(a1)
   25750:	00060493          	mv	s1,a2
   25754:	00c68bbb          	addw	s7,a3,a2
   25758:	00070913          	mv	s2,a4
   2575c:	00050993          	mv	s3,a0
   25760:	0375e063          	bltu	a1,s7,25780 <access_virt_barray+0x68>
   25764:	01042503          	lw	a0,16(s0)
   25768:	00d56c63          	bltu	a0,a3,25780 <access_virt_barray+0x68>
   2576c:	00043503          	ld	a0,0(s0)
   25770:	00050863          	beqz	a0,25780 <access_virt_barray+0x68>
   25774:	01c42503          	lw	a0,28(s0)
   25778:	02a4f463          	bgeu	s1,a0,257a0 <access_virt_barray+0x88>
   2577c:	0300006f          	j	257ac <access_virt_barray+0x94>
   25780:	0009b503          	ld	a0,0(s3)
   25784:	00053583          	ld	a1,0(a0)
   25788:	01600613          	li	a2,22
   2578c:	02c52423          	sw	a2,40(a0)
   25790:	00098513          	mv	a0,s3
   25794:	000580e7          	jalr	a1
   25798:	01c42503          	lw	a0,28(s0)
   2579c:	00a4e863          	bltu	s1,a0,257ac <access_virt_barray+0x94>
   257a0:	01442583          	lw	a1,20(s0)
   257a4:	00a5853b          	addw	a0,a1,a0
   257a8:	1d757c63          	bgeu	a0,s7,25980 <access_virt_barray+0x268>
   257ac:	02c42503          	lw	a0,44(s0)
   257b0:	00051e63          	bnez	a0,257cc <access_virt_barray+0xb4>
   257b4:	0009b503          	ld	a0,0(s3)
   257b8:	00053583          	ld	a1,0(a0)
   257bc:	04500613          	li	a2,69
   257c0:	02c52423          	sw	a2,40(a0)
   257c4:	00098513          	mv	a0,s3
   257c8:	000580e7          	jalr	a1
   257cc:	02842503          	lw	a0,40(s0)
   257d0:	03840a13          	addi	s4,s0,56
   257d4:	0a050a63          	beqz	a0,25888 <access_virt_barray+0x170>
   257d8:	01446503          	lwu	a0,20(s0)
   257dc:	0a050463          	beqz	a0,25884 <access_virt_barray+0x16c>
   257e0:	00c46c83          	lwu	s9,12(s0)
   257e4:	01c46603          	lwu	a2,28(s0)
   257e8:	01846583          	lwu	a1,24(s0)
   257ec:	00000c13          	li	s8,0
   257f0:	007c9c93          	slli	s9,s9,0x7
   257f4:	02cc8ab3          	mul	s5,s9,a2
   257f8:	41850533          	sub	a0,a0,s8
   257fc:	00b54463          	blt	a0,a1,25804 <access_virt_barray+0xec>
   25800:	00058513          	mv	a0,a1
   25804:	01c46583          	lwu	a1,28(s0)
   25808:	02046603          	lwu	a2,32(s0)
   2580c:	00bc05b3          	add	a1,s8,a1
   25810:	40b60633          	sub	a2,a2,a1
   25814:	00c55c63          	bge	a0,a2,2582c <access_virt_barray+0x114>
   25818:	00846603          	lwu	a2,8(s0)
   2581c:	40b605b3          	sub	a1,a2,a1
   25820:	00b55e63          	bge	a0,a1,2583c <access_virt_barray+0x124>
   25824:	02a04063          	bgtz	a0,25844 <access_virt_barray+0x12c>
   25828:	05c0006f          	j	25884 <access_virt_barray+0x16c>
   2582c:	00060513          	mv	a0,a2
   25830:	00846603          	lwu	a2,8(s0)
   25834:	40b605b3          	sub	a1,a2,a1
   25838:	feb546e3          	blt	a0,a1,25824 <access_virt_barray+0x10c>
   2583c:	00058513          	mv	a0,a1
   25840:	04b05263          	blez	a1,25884 <access_virt_barray+0x16c>
   25844:	00043583          	ld	a1,0(s0)
   25848:	04043783          	ld	a5,64(s0)
   2584c:	003c1613          	slli	a2,s8,0x3
   25850:	00c585b3          	add	a1,a1,a2
   25854:	0005b603          	ld	a2,0(a1)
   25858:	03950b33          	mul	s6,a0,s9
   2585c:	00098513          	mv	a0,s3
   25860:	000a0593          	mv	a1,s4
   25864:	000a8693          	mv	a3,s5
   25868:	000b0713          	mv	a4,s6
   2586c:	000780e7          	jalr	a5
   25870:	01846583          	lwu	a1,24(s0)
   25874:	01446503          	lwu	a0,20(s0)
   25878:	00bc0c33          	add	s8,s8,a1
   2587c:	015b0ab3          	add	s5,s6,s5
   25880:	f6ac6ce3          	bltu	s8,a0,257f8 <access_virt_barray+0xe0>
   25884:	02042423          	sw	zero,40(s0)
   25888:	01c42503          	lw	a0,28(s0)
   2588c:	00957e63          	bgeu	a0,s1,258a8 <access_virt_barray+0x190>
   25890:	01442503          	lw	a0,20(s0)
   25894:	00048593          	mv	a1,s1
   25898:	0005061b          	sext.w	a2,a0
   2589c:	00942e23          	sw	s1,28(s0)
   258a0:	02061863          	bnez	a2,258d0 <access_virt_barray+0x1b8>
   258a4:	0dc0006f          	j	25980 <access_virt_barray+0x268>
   258a8:	01446503          	lwu	a0,20(s0)
   258ac:	020b9593          	slli	a1,s7,0x20
   258b0:	0205d593          	srli	a1,a1,0x20
   258b4:	40a585b3          	sub	a1,a1,a0
   258b8:	00b02633          	sgtz	a2,a1
   258bc:	40c00633          	neg	a2,a2
   258c0:	00b675b3          	and	a1,a2,a1
   258c4:	0005061b          	sext.w	a2,a0
   258c8:	00b42e23          	sw	a1,28(s0)
   258cc:	0a060a63          	beqz	a2,25980 <access_virt_barray+0x268>
   258d0:	00c46c83          	lwu	s9,12(s0)
   258d4:	00000c13          	li	s8,0
   258d8:	007c9c93          	slli	s9,s9,0x7
   258dc:	02051513          	slli	a0,a0,0x20
   258e0:	02055513          	srli	a0,a0,0x20
   258e4:	01846603          	lwu	a2,24(s0)
   258e8:	02059593          	slli	a1,a1,0x20
   258ec:	0205d593          	srli	a1,a1,0x20
   258f0:	02bc8ab3          	mul	s5,s9,a1
   258f4:	41850533          	sub	a0,a0,s8
   258f8:	00c54463          	blt	a0,a2,25900 <access_virt_barray+0x1e8>
   258fc:	00060513          	mv	a0,a2
   25900:	01c46583          	lwu	a1,28(s0)
   25904:	02046603          	lwu	a2,32(s0)
   25908:	00bc05b3          	add	a1,s8,a1
   2590c:	40b60633          	sub	a2,a2,a1
   25910:	00c55c63          	bge	a0,a2,25928 <access_virt_barray+0x210>
   25914:	00846603          	lwu	a2,8(s0)
   25918:	40b605b3          	sub	a1,a2,a1
   2591c:	00b55e63          	bge	a0,a1,25938 <access_virt_barray+0x220>
   25920:	02a04063          	bgtz	a0,25940 <access_virt_barray+0x228>
   25924:	05c0006f          	j	25980 <access_virt_barray+0x268>
   25928:	00060513          	mv	a0,a2
   2592c:	00846603          	lwu	a2,8(s0)
   25930:	40b605b3          	sub	a1,a2,a1
   25934:	feb546e3          	blt	a0,a1,25920 <access_virt_barray+0x208>
   25938:	00058513          	mv	a0,a1
   2593c:	04b05263          	blez	a1,25980 <access_virt_barray+0x268>
   25940:	00043583          	ld	a1,0(s0)
   25944:	03843783          	ld	a5,56(s0)
   25948:	003c1613          	slli	a2,s8,0x3
   2594c:	00c585b3          	add	a1,a1,a2
   25950:	0005b603          	ld	a2,0(a1)
   25954:	03950b33          	mul	s6,a0,s9
   25958:	00098513          	mv	a0,s3
   2595c:	000a0593          	mv	a1,s4
   25960:	000a8693          	mv	a3,s5
   25964:	000b0713          	mv	a4,s6
   25968:	000780e7          	jalr	a5
   2596c:	01846603          	lwu	a2,24(s0)
   25970:	01446503          	lwu	a0,20(s0)
   25974:	00cc0c33          	add	s8,s8,a2
   25978:	015b0ab3          	add	s5,s6,s5
   2597c:	f6ac6ce3          	bltu	s8,a0,258f4 <access_virt_barray+0x1dc>
   25980:	02042503          	lw	a0,32(s0)
   25984:	0b757063          	bgeu	a0,s7,25a24 <access_virt_barray+0x30c>
   25988:	02957463          	bgeu	a0,s1,259b0 <access_virt_barray+0x298>
   2598c:	02090c63          	beqz	s2,259c4 <access_virt_barray+0x2ac>
   25990:	0009b503          	ld	a0,0(s3)
   25994:	00053583          	ld	a1,0(a0)
   25998:	01600613          	li	a2,22
   2599c:	02c52423          	sw	a2,40(a0)
   259a0:	00098513          	mv	a0,s3
   259a4:	000580e7          	jalr	a1
   259a8:	00048513          	mv	a0,s1
   259ac:	0080006f          	j	259b4 <access_virt_barray+0x29c>
   259b0:	0c090663          	beqz	s2,25a7c <access_virt_barray+0x364>
   259b4:	02442583          	lw	a1,36(s0)
   259b8:	03742023          	sw	s7,32(s0)
   259bc:	00059a63          	bnez	a1,259d0 <access_virt_barray+0x2b8>
   259c0:	0680006f          	j	25a28 <access_virt_barray+0x310>
   259c4:	02442583          	lw	a1,36(s0)
   259c8:	00048513          	mv	a0,s1
   259cc:	0a058c63          	beqz	a1,25a84 <access_virt_barray+0x36c>
   259d0:	01c42603          	lw	a2,28(s0)
   259d4:	40c505bb          	subw	a1,a0,a2
   259d8:	40cb863b          	subw	a2,s7,a2
   259dc:	04c5f463          	bgeu	a1,a2,25a24 <access_virt_barray+0x30c>
   259e0:	00c46983          	lwu	s3,12(s0)
   259e4:	00799993          	slli	s3,s3,0x7
   259e8:	02059593          	slli	a1,a1,0x20
   259ec:	01d5da13          	srli	s4,a1,0x1d
   259f0:	fff54513          	not	a0,a0
   259f4:	01750533          	add	a0,a0,s7
   259f8:	02051513          	slli	a0,a0,0x20
   259fc:	01d55513          	srli	a0,a0,0x1d
   25a00:	01450533          	add	a0,a0,s4
   25a04:	00850a93          	addi	s5,a0,8
   25a08:	00043503          	ld	a0,0(s0)
   25a0c:	01450533          	add	a0,a0,s4
   25a10:	00053503          	ld	a0,0(a0)
   25a14:	00098593          	mv	a1,s3
   25a18:	a91fe0ef          	jal	244a8 <jzero_far>
   25a1c:	008a0a13          	addi	s4,s4,8
   25a20:	ff5a14e3          	bne	s4,s5,25a08 <access_virt_barray+0x2f0>
   25a24:	00090663          	beqz	s2,25a30 <access_virt_barray+0x318>
   25a28:	00100513          	li	a0,1
   25a2c:	02a42423          	sw	a0,40(s0)
   25a30:	01c42503          	lw	a0,28(s0)
   25a34:	00043583          	ld	a1,0(s0)
   25a38:	40a484bb          	subw	s1,s1,a0
   25a3c:	02049493          	slli	s1,s1,0x20
   25a40:	01d4d513          	srli	a0,s1,0x1d
   25a44:	00a58533          	add	a0,a1,a0
   25a48:	05813083          	ld	ra,88(sp)
   25a4c:	05013403          	ld	s0,80(sp)
   25a50:	04813483          	ld	s1,72(sp)
   25a54:	04013903          	ld	s2,64(sp)
   25a58:	03813983          	ld	s3,56(sp)
   25a5c:	03013a03          	ld	s4,48(sp)
   25a60:	02813a83          	ld	s5,40(sp)
   25a64:	02013b03          	ld	s6,32(sp)
   25a68:	01813b83          	ld	s7,24(sp)
   25a6c:	01013c03          	ld	s8,16(sp)
   25a70:	00813c83          	ld	s9,8(sp)
   25a74:	06010113          	addi	sp,sp,96
   25a78:	00008067          	ret
   25a7c:	02442583          	lw	a1,36(s0)
   25a80:	f40598e3          	bnez	a1,259d0 <access_virt_barray+0x2b8>
   25a84:	0009b503          	ld	a0,0(s3)
   25a88:	00053583          	ld	a1,0(a0)
   25a8c:	01600613          	li	a2,22
   25a90:	02c52423          	sw	a2,40(a0)
   25a94:	00098513          	mv	a0,s3
   25a98:	000580e7          	jalr	a1
   25a9c:	f95ff06f          	j	25a30 <access_virt_barray+0x318>

0000000000025aa0 <free_pool>:
   25aa0:	fd010113          	addi	sp,sp,-48
   25aa4:	02113423          	sd	ra,40(sp)
   25aa8:	02813023          	sd	s0,32(sp)
   25aac:	00913c23          	sd	s1,24(sp)
   25ab0:	01213823          	sd	s2,16(sp)
   25ab4:	01313423          	sd	s3,8(sp)
   25ab8:	01413023          	sd	s4,0(sp)
   25abc:	00050413          	mv	s0,a0
   25ac0:	00853983          	ld	s3,8(a0)
   25ac4:	00200513          	li	a0,2
   25ac8:	00058493          	mv	s1,a1
   25acc:	02a5e463          	bltu	a1,a0,25af4 <free_pool+0x54>
   25ad0:	00043503          	ld	a0,0(s0)
   25ad4:	02952623          	sw	s1,44(a0)
   25ad8:	00043583          	ld	a1,0(s0)
   25adc:	0005b583          	ld	a1,0(a1)
   25ae0:	00e00613          	li	a2,14
   25ae4:	02c52423          	sw	a2,40(a0)
   25ae8:	00040513          	mv	a0,s0
   25aec:	000580e7          	jalr	a1
   25af0:	0240006f          	j	25b14 <free_pool+0x74>
   25af4:	00100513          	li	a0,1
   25af8:	00a49e63          	bne	s1,a0,25b14 <free_pool+0x74>
   25afc:	0889b903          	ld	s2,136(s3)
   25b00:	0c091663          	bnez	s2,25bcc <free_pool+0x12c>
   25b04:	0909b903          	ld	s2,144(s3)
   25b08:	0809b423          	sd	zero,136(s3)
   25b0c:	0e091463          	bnez	s2,25bf4 <free_pool+0x154>
   25b10:	0809b823          	sd	zero,144(s3)
   25b14:	00349513          	slli	a0,s1,0x3
   25b18:	00a98533          	add	a0,s3,a0
   25b1c:	07853583          	ld	a1,120(a0)
   25b20:	06053c23          	sd	zero,120(a0)
   25b24:	02058c63          	beqz	a1,25b5c <free_pool+0xbc>
   25b28:	0085b503          	ld	a0,8(a1)
   25b2c:	0105b603          	ld	a2,16(a1)
   25b30:	0005ba03          	ld	s4,0(a1)
   25b34:	00c50533          	add	a0,a0,a2
   25b38:	01850913          	addi	s2,a0,24
   25b3c:	00040513          	mv	a0,s0
   25b40:	00090613          	mv	a2,s2
   25b44:	134000ef          	jal	25c78 <jpeg_free_large>
   25b48:	0989b503          	ld	a0,152(s3)
   25b4c:	41250533          	sub	a0,a0,s2
   25b50:	08a9bc23          	sd	a0,152(s3)
   25b54:	000a0593          	mv	a1,s4
   25b58:	fc0a18e3          	bnez	s4,25b28 <free_pool+0x88>
   25b5c:	00349493          	slli	s1,s1,0x3
   25b60:	009984b3          	add	s1,s3,s1
   25b64:	0684b583          	ld	a1,104(s1)
   25b68:	0604b423          	sd	zero,104(s1)
   25b6c:	02058c63          	beqz	a1,25ba4 <free_pool+0x104>
   25b70:	0085b503          	ld	a0,8(a1)
   25b74:	0105b603          	ld	a2,16(a1)
   25b78:	0005b903          	ld	s2,0(a1)
   25b7c:	00c50533          	add	a0,a0,a2
   25b80:	01850493          	addi	s1,a0,24
   25b84:	00040513          	mv	a0,s0
   25b88:	00048613          	mv	a2,s1
   25b8c:	0dc000ef          	jal	25c68 <jpeg_free_small>
   25b90:	0989b503          	ld	a0,152(s3)
   25b94:	40950533          	sub	a0,a0,s1
   25b98:	08a9bc23          	sd	a0,152(s3)
   25b9c:	00090593          	mv	a1,s2
   25ba0:	fc0918e3          	bnez	s2,25b70 <free_pool+0xd0>
   25ba4:	02813083          	ld	ra,40(sp)
   25ba8:	02013403          	ld	s0,32(sp)
   25bac:	01813483          	ld	s1,24(sp)
   25bb0:	01013903          	ld	s2,16(sp)
   25bb4:	00813983          	ld	s3,8(sp)
   25bb8:	00013a03          	ld	s4,0(sp)
   25bbc:	03010113          	addi	sp,sp,48
   25bc0:	00008067          	ret
   25bc4:	03093903          	ld	s2,48(s2)
   25bc8:	f2090ee3          	beqz	s2,25b04 <free_pool+0x64>
   25bcc:	02c92503          	lw	a0,44(s2)
   25bd0:	fe050ae3          	beqz	a0,25bc4 <free_pool+0x124>
   25bd4:	04893603          	ld	a2,72(s2)
   25bd8:	02092623          	sw	zero,44(s2)
   25bdc:	03890593          	addi	a1,s2,56
   25be0:	00040513          	mv	a0,s0
   25be4:	000600e7          	jalr	a2
   25be8:	fddff06f          	j	25bc4 <free_pool+0x124>
   25bec:	03093903          	ld	s2,48(s2)
   25bf0:	f20900e3          	beqz	s2,25b10 <free_pool+0x70>
   25bf4:	02c92503          	lw	a0,44(s2)
   25bf8:	fe050ae3          	beqz	a0,25bec <free_pool+0x14c>
   25bfc:	04893603          	ld	a2,72(s2)
   25c00:	02092623          	sw	zero,44(s2)
   25c04:	03890593          	addi	a1,s2,56
   25c08:	00040513          	mv	a0,s0
   25c0c:	000600e7          	jalr	a2
   25c10:	fddff06f          	j	25bec <free_pool+0x14c>

0000000000025c14 <self_destruct>:
   25c14:	ff010113          	addi	sp,sp,-16
   25c18:	00113423          	sd	ra,8(sp)
   25c1c:	00813023          	sd	s0,0(sp)
   25c20:	00050413          	mv	s0,a0
   25c24:	00100593          	li	a1,1
   25c28:	e79ff0ef          	jal	25aa0 <free_pool>
   25c2c:	00040513          	mv	a0,s0
   25c30:	00000593          	li	a1,0
   25c34:	e6dff0ef          	jal	25aa0 <free_pool>
   25c38:	00843583          	ld	a1,8(s0)
   25c3c:	0a800613          	li	a2,168
   25c40:	00040513          	mv	a0,s0
   25c44:	024000ef          	jal	25c68 <jpeg_free_small>
   25c48:	00043423          	sd	zero,8(s0)
   25c4c:	00040513          	mv	a0,s0
   25c50:	00813083          	ld	ra,8(sp)
   25c54:	00013403          	ld	s0,0(sp)
   25c58:	01010113          	addi	sp,sp,16
   25c5c:	0480006f          	j	25ca4 <jpeg_mem_term>

0000000000025c60 <jpeg_get_small>:
   25c60:	00058513          	mv	a0,a1
   25c64:	eddea06f          	j	10b40 <malloc@plt>

0000000000025c68 <jpeg_free_small>:
   25c68:	00058513          	mv	a0,a1
   25c6c:	804eb06f          	j	10c70 <free@plt>

0000000000025c70 <jpeg_get_large>:
   25c70:	00058513          	mv	a0,a1
   25c74:	ecdea06f          	j	10b40 <malloc@plt>

0000000000025c78 <jpeg_free_large>:
   25c78:	00058513          	mv	a0,a1
   25c7c:	ff5ea06f          	j	10c70 <free@plt>

0000000000025c80 <jpeg_mem_available>:
   25c80:	00060513          	mv	a0,a2
   25c84:	00008067          	ret

0000000000025c88 <jpeg_open_backing_store>:
   25c88:	00053583          	ld	a1,0(a0)
   25c8c:	0005b303          	ld	t1,0(a1)
   25c90:	03100613          	li	a2,49
   25c94:	02c5a423          	sw	a2,40(a1)
   25c98:	00030067          	jr	t1

0000000000025c9c <jpeg_mem_init>:
   25c9c:	00000513          	li	a0,0
   25ca0:	00008067          	ret

0000000000025ca4 <jpeg_mem_term>:
   25ca4:	00008067          	ret

0000000000025ca8 <__libc_csu_init>:
   25ca8:	7139                	.insn	2, 0x7139
   25caa:	f822                	.insn	2, 0xf822
   25cac:	f04a                	.insn	2, 0xf04a
   25cae:	00004417          	auipc	s0,0x4
   25cb2:	14240413          	addi	s0,s0,322 # 29df0 <__frame_dummy_init_array_entry>
   25cb6:	00004917          	auipc	s2,0x4
   25cba:	14290913          	addi	s2,s2,322 # 29df8 <__do_global_dtors_aux_fini_array_entry>
   25cbe:	40890933          	sub	s2,s2,s0
   25cc2:	fc06                	.insn	2, 0xfc06
   25cc4:	f426                	.insn	2, 0xf426
   25cc6:	ec4e                	.insn	2, 0xec4e
   25cc8:	e852                	.insn	2, 0xe852
   25cca:	e456                	.insn	2, 0xe456
   25ccc:	40395913          	srai	s2,s2,0x3
   25cd0:	00090f63          	beqz	s2,25cee <__libc_csu_init+0x46>
   25cd4:	89aa                	.insn	2, 0x89aa
   25cd6:	8a2e                	.insn	2, 0x8a2e
   25cd8:	8ab2                	.insn	2, 0x8ab2
   25cda:	4481                	.insn	2, 0x4481
   25cdc:	601c                	.insn	2, 0x601c
   25cde:	8656                	.insn	2, 0x8656
   25ce0:	85d2                	.insn	2, 0x85d2
   25ce2:	854e                	.insn	2, 0x854e
   25ce4:	0485                	.insn	2, 0x0485
   25ce6:	9782                	.insn	2, 0x9782
   25ce8:	0421                	.insn	2, 0x0421
   25cea:	fe9919e3          	bne	s2,s1,25cdc <__libc_csu_init+0x34>
   25cee:	70e2                	.insn	2, 0x70e2
   25cf0:	7442                	.insn	2, 0x7442
   25cf2:	74a2                	.insn	2, 0x74a2
   25cf4:	7902                	.insn	2, 0x7902
   25cf6:	69e2                	.insn	2, 0x69e2
   25cf8:	6a42                	.insn	2, 0x6a42
   25cfa:	6aa2                	.insn	2, 0x6aa2
   25cfc:	6121                	.insn	2, 0x6121
   25cfe:	8082                	.insn	2, 0x8082

0000000000025d00 <__libc_csu_fini>:
   25d00:	8082                	.insn	2, 0x8082
