
djpeg_regsw:     file format elf64-littleriscv


Disassembly of section .plt:

0000000000010af0 <_PROCEDURE_LINKAGE_TABLE_>:
   10af0:	97 93 01 00 33 03 c3 41 03 be 03 50 13 03 43 fd     ....3..A...P..C.
   10b00:	93 82 03 50 13 53 13 00 83 b2 82 00 67 00 0e 00     ...P.S......g...

0000000000010b10 <fprintf@plt>:
   10b10:	00019e17          	auipc	t3,0x19
   10b14:	4f0e3e03          	ld	t3,1264(t3) # 2a000 <fprintf@GLIBC_2.27>
   10b18:	000e0367          	jalr	t1,t3
   10b1c:	00000013          	nop

0000000000010b20 <getenv@plt>:
   10b20:	00019e17          	auipc	t3,0x19
   10b24:	4e8e3e03          	ld	t3,1256(t3) # 2a008 <getenv@GLIBC_2.27>
   10b28:	000e0367          	jalr	t1,t3
   10b2c:	00000013          	nop

0000000000010b30 <fwrite@plt>:
   10b30:	00019e17          	auipc	t3,0x19
   10b34:	4e0e3e03          	ld	t3,1248(t3) # 2a010 <fwrite@GLIBC_2.27>
   10b38:	000e0367          	jalr	t1,t3
   10b3c:	00000013          	nop

0000000000010b40 <malloc@plt>:
   10b40:	00019e17          	auipc	t3,0x19
   10b44:	4d8e3e03          	ld	t3,1240(t3) # 2a018 <malloc@GLIBC_2.27>
   10b48:	000e0367          	jalr	t1,t3
   10b4c:	00000013          	nop

0000000000010b50 <__libc_start_main@plt>:
   10b50:	00019e17          	auipc	t3,0x19
   10b54:	4d0e3e03          	ld	t3,1232(t3) # 2a020 <__libc_start_main@GLIBC_2.27>
   10b58:	000e0367          	jalr	t1,t3
   10b5c:	00000013          	nop

0000000000010b60 <__isoc99_sscanf@plt>:
   10b60:	00019e17          	auipc	t3,0x19
   10b64:	4c8e3e03          	ld	t3,1224(t3) # 2a028 <__isoc99_sscanf@GLIBC_2.27>
   10b68:	000e0367          	jalr	t1,t3
   10b6c:	00000013          	nop

0000000000010b70 <fputc@plt>:
   10b70:	00019e17          	auipc	t3,0x19
   10b74:	4c0e3e03          	ld	t3,1216(t3) # 2a030 <fputc@GLIBC_2.27>
   10b78:	000e0367          	jalr	t1,t3
   10b7c:	00000013          	nop

0000000000010b80 <fflush@plt>:
   10b80:	00019e17          	auipc	t3,0x19
   10b84:	4b8e3e03          	ld	t3,1208(t3) # 2a038 <fflush@GLIBC_2.27>
   10b88:	000e0367          	jalr	t1,t3
   10b8c:	00000013          	nop

0000000000010b90 <memcpy@plt>:
   10b90:	00019e17          	auipc	t3,0x19
   10b94:	4b0e3e03          	ld	t3,1200(t3) # 2a040 <memcpy@GLIBC_2.27>
   10b98:	000e0367          	jalr	t1,t3
   10b9c:	00000013          	nop

0000000000010ba0 <fread@plt>:
   10ba0:	00019e17          	auipc	t3,0x19
   10ba4:	4a8e3e03          	ld	t3,1192(t3) # 2a048 <fread@GLIBC_2.27>
   10ba8:	000e0367          	jalr	t1,t3
   10bac:	00000013          	nop

0000000000010bb0 <putc@plt>:
   10bb0:	00019e17          	auipc	t3,0x19
   10bb4:	4a0e3e03          	ld	t3,1184(t3) # 2a050 <putc@GLIBC_2.27>
   10bb8:	000e0367          	jalr	t1,t3
   10bbc:	00000013          	nop

0000000000010bc0 <getc@plt>:
   10bc0:	00019e17          	auipc	t3,0x19
   10bc4:	498e3e03          	ld	t3,1176(t3) # 2a058 <getc@GLIBC_2.27>
   10bc8:	000e0367          	jalr	t1,t3
   10bcc:	00000013          	nop

0000000000010bd0 <__ctype_tolower_loc@plt>:
   10bd0:	00019e17          	auipc	t3,0x19
   10bd4:	490e3e03          	ld	t3,1168(t3) # 2a060 <__ctype_tolower_loc@GLIBC_2.27>
   10bd8:	000e0367          	jalr	t1,t3
   10bdc:	00000013          	nop

0000000000010be0 <sprintf@plt>:
   10be0:	00019e17          	auipc	t3,0x19
   10be4:	488e3e03          	ld	t3,1160(t3) # 2a068 <sprintf@GLIBC_2.27>
   10be8:	000e0367          	jalr	t1,t3
   10bec:	00000013          	nop

0000000000010bf0 <exit@plt>:
   10bf0:	00019e17          	auipc	t3,0x19
   10bf4:	480e3e03          	ld	t3,1152(t3) # 2a070 <exit@GLIBC_2.27>
   10bf8:	000e0367          	jalr	t1,t3
   10bfc:	00000013          	nop

0000000000010c00 <printf@plt>:
   10c00:	00019e17          	auipc	t3,0x19
   10c04:	478e3e03          	ld	t3,1144(t3) # 2a078 <printf@GLIBC_2.27>
   10c08:	000e0367          	jalr	t1,t3
   10c0c:	00000013          	nop

0000000000010c10 <fclose@plt>:
   10c10:	00019e17          	auipc	t3,0x19
   10c14:	470e3e03          	ld	t3,1136(t3) # 2a080 <fclose@GLIBC_2.27>
   10c18:	000e0367          	jalr	t1,t3
   10c1c:	00000013          	nop

0000000000010c20 <signal@plt>:
   10c20:	00019e17          	auipc	t3,0x19
   10c24:	468e3e03          	ld	t3,1128(t3) # 2a088 <signal@GLIBC_2.27>
   10c28:	000e0367          	jalr	t1,t3
   10c2c:	00000013          	nop

0000000000010c30 <fopen@plt>:
   10c30:	00019e17          	auipc	t3,0x19
   10c34:	460e3e03          	ld	t3,1120(t3) # 2a090 <fopen@GLIBC_2.27>
   10c38:	000e0367          	jalr	t1,t3
   10c3c:	00000013          	nop

0000000000010c40 <ferror@plt>:
   10c40:	00019e17          	auipc	t3,0x19
   10c44:	458e3e03          	ld	t3,1112(t3) # 2a098 <ferror@GLIBC_2.27>
   10c48:	000e0367          	jalr	t1,t3
   10c4c:	00000013          	nop

0000000000010c50 <memset@plt>:
   10c50:	00019e17          	auipc	t3,0x19
   10c54:	450e3e03          	ld	t3,1104(t3) # 2a0a0 <memset@GLIBC_2.27>
   10c58:	000e0367          	jalr	t1,t3
   10c5c:	00000013          	nop

0000000000010c60 <__ctype_b_loc@plt>:
   10c60:	00019e17          	auipc	t3,0x19
   10c64:	448e3e03          	ld	t3,1096(t3) # 2a0a8 <__ctype_b_loc@GLIBC_2.27>
   10c68:	000e0367          	jalr	t1,t3
   10c6c:	00000013          	nop

0000000000010c70 <free@plt>:
   10c70:	00019e17          	auipc	t3,0x19
   10c74:	440e3e03          	ld	t3,1088(t3) # 2a0b0 <free@GLIBC_2.27>
   10c78:	000e0367          	jalr	t1,t3
   10c7c:	00000013          	nop

Disassembly of section .text:

0000000000010c80 <_start>:
   10c80:	02e000ef          	jal	10cae <load_gp>
   10c84:	87aa                	mv	a5,a0
   10c86:	00019517          	auipc	a0,0x19
   10c8a:	36253503          	ld	a0,866(a0) # 29fe8 <main@@Base+0x19284>
   10c8e:	6582                	ld	a1,0(sp)
   10c90:	0030                	addi	a2,sp,8
   10c92:	ff017113          	andi	sp,sp,-16
   10c96:	00015697          	auipc	a3,0x15
   10c9a:	01268693          	addi	a3,a3,18 # 25ca8 <__libc_csu_init>
   10c9e:	00015717          	auipc	a4,0x15
   10ca2:	06270713          	addi	a4,a4,98 # 25d00 <__libc_csu_fini>
   10ca6:	880a                	mv	a6,sp
   10ca8:	ea9ff0ef          	jal	10b50 <__libc_start_main@plt>
   10cac:	9002                	ebreak

0000000000010cae <load_gp>:
   10cae:	0001a197          	auipc	gp,0x1a
   10cb2:	c0a18193          	addi	gp,gp,-1014 # 2a8b8 <__global_pointer$>
   10cb6:	8082                	ret
	...

0000000000010cba <deregister_tm_clones>:
   10cba:	0002a537          	lui	a0,0x2a
   10cbe:	0002a737          	lui	a4,0x2a
   10cc2:	0b850793          	addi	a5,a0,184 # 2a0b8 <__TMC_END__>
   10cc6:	0b870713          	addi	a4,a4,184 # 2a0b8 <__TMC_END__>
   10cca:	00f70863          	beq	a4,a5,10cda <deregister_tm_clones+0x20>
   10cce:	00000793          	li	a5,0
   10cd2:	c781                	beqz	a5,10cda <deregister_tm_clones+0x20>
   10cd4:	0b850513          	addi	a0,a0,184
   10cd8:	8782                	jr	a5
   10cda:	8082                	ret

0000000000010cdc <register_tm_clones>:
   10cdc:	0002a537          	lui	a0,0x2a
   10ce0:	0b850793          	addi	a5,a0,184 # 2a0b8 <__TMC_END__>
   10ce4:	0002a737          	lui	a4,0x2a
   10ce8:	0b870593          	addi	a1,a4,184 # 2a0b8 <__TMC_END__>
   10cec:	8d9d                	sub	a1,a1,a5
   10cee:	4035d793          	srai	a5,a1,0x3
   10cf2:	91fd                	srli	a1,a1,0x3f
   10cf4:	95be                	add	a1,a1,a5
   10cf6:	8585                	srai	a1,a1,0x1
   10cf8:	c599                	beqz	a1,10d06 <register_tm_clones+0x2a>
   10cfa:	00000793          	li	a5,0
   10cfe:	c781                	beqz	a5,10d06 <register_tm_clones+0x2a>
   10d00:	0b850513          	addi	a0,a0,184
   10d04:	8782                	jr	a5
   10d06:	8082                	ret

0000000000010d08 <__do_global_dtors_aux>:
   10d08:	1141                	addi	sp,sp,-16
   10d0a:	e022                	sd	s0,0(sp)
   10d0c:	8781c783          	lbu	a5,-1928(gp) # 2a130 <completed.0>
   10d10:	e406                	sd	ra,8(sp)
   10d12:	e791                	bnez	a5,10d1e <__do_global_dtors_aux+0x16>
   10d14:	fa7ff0ef          	jal	10cba <deregister_tm_clones>
   10d18:	4785                	li	a5,1
   10d1a:	86f18c23          	sb	a5,-1928(gp) # 2a130 <completed.0>
   10d1e:	60a2                	ld	ra,8(sp)
   10d20:	6402                	ld	s0,0(sp)
   10d22:	0141                	addi	sp,sp,16
   10d24:	8082                	ret

0000000000010d26 <frame_dummy>:
   10d26:	bf5d                	j	10cdc <register_tm_clones>

0000000000010d28 <get_regsw_hits>:
   10d28:	80b02573          	csrr	a0,0x80b
   10d2c:	0005051b          	sext.w	a0,a0
   10d30:	00008067          	ret

0000000000010d34 <get_regsw_misses>:
   10d34:	80c02573          	csrr	a0,0x80c
   10d38:	0005051b          	sext.w	a0,a0
   10d3c:	00008067          	ret

0000000000010d40 <clear_regsw_cache>:
   10d40:	80d02573          	csrr	a0,0x80d
   10d44:	00008067          	ret

0000000000010d48 <get_cycles>:
   10d48:	80e02573          	csrr	a0,0x80e
   10d4c:	0005051b          	sext.w	a0,a0
   10d50:	00008067          	ret

0000000000010d54 <crash_handler>:
   10d54:	00000513          	li	a0,0
   10d58:	80851073          	csrw	0x808,a0
   10d5c:	00100513          	li	a0,1
   10d60:	e91ff0ef          	jal	10bf0 <exit@plt>

0000000000010d64 <main>:
   10d64:	cb010113          	addi	sp,sp,-848
   10d68:	34113423          	sd	ra,840(sp)
   10d6c:	34813023          	sd	s0,832(sp)
   10d70:	32913c23          	sd	s1,824(sp)
   10d74:	33213823          	sd	s2,816(sp)
   10d78:	33313423          	sd	s3,808(sp)
   10d7c:	33413023          	sd	s4,800(sp)
   10d80:	00058913          	mv	s2,a1
   10d84:	00050993          	mv	s3,a0
   10d88:	000115b7          	lui	a1,0x11
   10d8c:	d5458593          	addi	a1,a1,-684 # 10d54 <crash_handler>
   10d90:	00b00513          	li	a0,11
   10d94:	e8dff0ef          	jal	10c20 <signal@plt>
   10d98:	80d02573          	csrr	a0,0x80d
   10d9c:	80e02a73          	csrr	s4,0x80e
   10da0:	00100513          	li	a0,1
   10da4:	80851073          	csrw	0x808,a0
   10da8:	00093583          	ld	a1,0(s2)
   10dac:	84b1b423          	sd	a1,-1976(gp) # 2a100 <progname>
   10db0:	00058663          	beqz	a1,10dbc <main+0x58>
   10db4:	0005c583          	lbu	a1,0(a1)
   10db8:	00059863          	bnez	a1,10dc8 <main+0x64>
   10dbc:	000265b7          	lui	a1,0x26
   10dc0:	e8858593          	addi	a1,a1,-376 # 25e88 <cdjpeg_message_table+0x160>
   10dc4:	84b1b423          	sd	a1,-1976(gp) # 2a100 <progname>
   10dc8:	00010513          	mv	a0,sp
   10dcc:	6e8130ef          	jal	244b4 <jpeg_std_error>
   10dd0:	0aa13423          	sd	a0,168(sp)
   10dd4:	0a810513          	addi	a0,sp,168
   10dd8:	03e00593          	li	a1,62
   10ddc:	27800613          	li	a2,632
   10de0:	7a4030ef          	jal	14584 <jpeg_CreateDecompress>
   10de4:	00026537          	lui	a0,0x26
   10de8:	d2850513          	addi	a0,a0,-728 # 25d28 <cdjpeg_message_table>
   10dec:	08a13c23          	sd	a0,152(sp)
   10df0:	41300513          	li	a0,1043
   10df4:	02051513          	slli	a0,a0,0x20
   10df8:	3e850513          	addi	a0,a0,1000
   10dfc:	0aa13023          	sd	a0,160(sp)
   10e00:	00011437          	lui	s0,0x11
   10e04:	07c40413          	addi	s0,s0,124 # 1107c <print_text_marker>
   10e08:	0a810513          	addi	a0,sp,168
   10e0c:	0fe00593          	li	a1,254
   10e10:	00040613          	mv	a2,s0
   10e14:	035070ef          	jal	18648 <jpeg_set_marker_processor>
   10e18:	0a810513          	addi	a0,sp,168
   10e1c:	0ec00593          	li	a1,236
   10e20:	00040613          	mv	a2,s0
   10e24:	025070ef          	jal	18648 <jpeg_set_marker_processor>
   10e28:	0a810513          	addi	a0,sp,168
   10e2c:	00098593          	mv	a1,s3
   10e30:	00090613          	mv	a2,s2
   10e34:	00000693          	li	a3,0
   10e38:	530000ef          	jal	11368 <parse_switches>
   10e3c:	fff9859b          	addiw	a1,s3,-1
   10e40:	00b55e63          	bge	a0,a1,10e5c <main+0xf8>
   10e44:	8681b503          	ld	a0,-1944(gp) # 2a120 <stderr@GLIBC_2.27>
   10e48:	8481b603          	ld	a2,-1976(gp) # 2a100 <progname>
   10e4c:	000265b7          	lui	a1,0x26
   10e50:	e8e58593          	addi	a1,a1,-370 # 25e8e <cdjpeg_message_table+0x166>
   10e54:	cbdff0ef          	jal	10b10 <fprintf@plt>
   10e58:	345000ef          	jal	1199c <usage>
   10e5c:	03355a63          	bge	a0,s3,10e90 <main+0x12c>
   10e60:	00351513          	slli	a0,a0,0x3
   10e64:	00a904b3          	add	s1,s2,a0
   10e68:	0004b503          	ld	a0,0(s1)
   10e6c:	000265b7          	lui	a1,0x26
   10e70:	ea758593          	addi	a1,a1,-345 # 25ea7 <cdjpeg_message_table+0x17f>
   10e74:	dbdff0ef          	jal	10c30 <fopen@plt>
   10e78:	00050413          	mv	s0,a0
   10e7c:	00051e63          	bnez	a0,10e98 <main+0x134>
   10e80:	8681b503          	ld	a0,-1944(gp) # 2a120 <stderr@GLIBC_2.27>
   10e84:	8481b603          	ld	a2,-1976(gp) # 2a100 <progname>
   10e88:	0004b683          	ld	a3,0(s1)
   10e8c:	0400006f          	j	10ecc <main+0x168>
   10e90:	6e4030ef          	jal	14574 <read_stdin>
   10e94:	00050413          	mv	s0,a0
   10e98:	8501b503          	ld	a0,-1968(gp) # 2a108 <outfilename>
   10e9c:	00051863          	bnez	a0,10eac <main+0x148>
   10ea0:	6dc030ef          	jal	1457c <write_stdout>
   10ea4:	00050493          	mv	s1,a0
   10ea8:	0380006f          	j	10ee0 <main+0x17c>
   10eac:	000265b7          	lui	a1,0x26
   10eb0:	ebd58593          	addi	a1,a1,-323 # 25ebd <cdjpeg_message_table+0x195>
   10eb4:	d7dff0ef          	jal	10c30 <fopen@plt>
   10eb8:	00050493          	mv	s1,a0
   10ebc:	02051263          	bnez	a0,10ee0 <main+0x17c>
   10ec0:	8681b503          	ld	a0,-1944(gp) # 2a120 <stderr@GLIBC_2.27>
   10ec4:	8481b603          	ld	a2,-1976(gp) # 2a100 <progname>
   10ec8:	8501b683          	ld	a3,-1968(gp) # 2a108 <outfilename>
   10ecc:	000265b7          	lui	a1,0x26
   10ed0:	eaa58593          	addi	a1,a1,-342 # 25eaa <cdjpeg_message_table+0x182>
   10ed4:	c3dff0ef          	jal	10b10 <fprintf@plt>
   10ed8:	00100513          	li	a0,1
   10edc:	d15ff0ef          	jal	10bf0 <exit@plt>
   10ee0:	0a810513          	addi	a0,sp,168
   10ee4:	00040593          	mv	a1,s0
   10ee8:	298040ef          	jal	15180 <jpeg_stdio_src>
   10eec:	0a810513          	addi	a0,sp,168
   10ef0:	00100593          	li	a1,1
   10ef4:	79c030ef          	jal	14690 <jpeg_read_header>
   10ef8:	0a810513          	addi	a0,sp,168
   10efc:	00100693          	li	a3,1
   10f00:	00098593          	mv	a1,s3
   10f04:	00090613          	mv	a2,s2
   10f08:	460000ef          	jal	11368 <parse_switches>
   10f0c:	8581a503          	lw	a0,-1960(gp) # 2a110 <requested_fmt>
   10f10:	00500593          	li	a1,5
   10f14:	02a5e463          	bltu	a1,a0,10f3c <main+0x1d8>
   10f18:	00251513          	slli	a0,a0,0x2
   10f1c:	000265b7          	lui	a1,0x26
   10f20:	d1058593          	addi	a1,a1,-752 # 25d10 <_IO_stdin_used+0x8>
   10f24:	00b50533          	add	a0,a0,a1
   10f28:	00052503          	lw	a0,0(a0)
   10f2c:	00050067          	jr	a0
   10f30:	0a810513          	addi	a0,sp,168
   10f34:	00000593          	li	a1,0
   10f38:	02c0006f          	j	10f64 <main+0x200>
   10f3c:	0a813503          	ld	a0,168(sp)
   10f40:	00053583          	ld	a1,0(a0)
   10f44:	41200613          	li	a2,1042
   10f48:	02c52423          	sw	a2,40(a0)
   10f4c:	0a810513          	addi	a0,sp,168
   10f50:	000580e7          	jalr	a1
   10f54:	00000913          	li	s2,0
   10f58:	0380006f          	j	10f90 <main+0x22c>
   10f5c:	0a810513          	addi	a0,sp,168
   10f60:	00100593          	li	a1,1
   10f64:	6b9010ef          	jal	12e1c <jinit_write_bmp>
   10f68:	0240006f          	j	10f8c <main+0x228>
   10f6c:	0a810513          	addi	a0,sp,168
   10f70:	7f1000ef          	jal	11f60 <jinit_write_gif>
   10f74:	0180006f          	j	10f8c <main+0x228>
   10f78:	0a810513          	addi	a0,sp,168
   10f7c:	481000ef          	jal	11bfc <jinit_write_ppm>
   10f80:	00c0006f          	j	10f8c <main+0x228>
   10f84:	0a810513          	addi	a0,sp,168
   10f88:	129010ef          	jal	128b0 <jinit_write_targa>
   10f8c:	00050913          	mv	s2,a0
   10f90:	00993c23          	sd	s1,24(s2)
   10f94:	0a810513          	addi	a0,sp,168
   10f98:	3c5030ef          	jal	14b5c <jpeg_start_decompress>
   10f9c:	00093603          	ld	a2,0(s2)
   10fa0:	0a810513          	addi	a0,sp,168
   10fa4:	00090593          	mv	a1,s2
   10fa8:	000600e7          	jalr	a2
   10fac:	15012503          	lw	a0,336(sp)
   10fb0:	13412583          	lw	a1,308(sp)
   10fb4:	02b57a63          	bgeu	a0,a1,10fe8 <main+0x284>
   10fb8:	02093583          	ld	a1,32(s2)
   10fbc:	02892603          	lw	a2,40(s2)
   10fc0:	0a810513          	addi	a0,sp,168
   10fc4:	589030ef          	jal	14d4c <jpeg_read_scanlines>
   10fc8:	00893683          	ld	a3,8(s2)
   10fcc:	00050613          	mv	a2,a0
   10fd0:	0a810513          	addi	a0,sp,168
   10fd4:	00090593          	mv	a1,s2
   10fd8:	000680e7          	jalr	a3
   10fdc:	15012503          	lw	a0,336(sp)
   10fe0:	13412583          	lw	a1,308(sp)
   10fe4:	fcb56ae3          	bltu	a0,a1,10fb8 <main+0x254>
   10fe8:	01093603          	ld	a2,16(s2)
   10fec:	0a810513          	addi	a0,sp,168
   10ff0:	00090593          	mv	a1,s2
   10ff4:	000600e7          	jalr	a2
   10ff8:	0a810513          	addi	a0,sp,168
   10ffc:	271030ef          	jal	14a6c <jpeg_finish_decompress>
   11000:	0a810513          	addi	a0,sp,168
   11004:	684030ef          	jal	14688 <jpeg_destroy_decompress>
   11008:	8601b503          	ld	a0,-1952(gp) # 2a118 <stdin@GLIBC_2.27>
   1100c:	00a40663          	beq	s0,a0,11018 <main+0x2b4>
   11010:	00040513          	mv	a0,s0
   11014:	bfdff0ef          	jal	10c10 <fclose@plt>
   11018:	8701b503          	ld	a0,-1936(gp) # 2a128 <stdout@GLIBC_2.27>
   1101c:	00a48663          	beq	s1,a0,11028 <main+0x2c4>
   11020:	00048513          	mv	a0,s1
   11024:	bedff0ef          	jal	10c10 <fclose@plt>
   11028:	000a0a1b          	sext.w	s4,s4
   1102c:	80e02573          	csrr	a0,0x80e
   11030:	0005051b          	sext.w	a0,a0
   11034:	80b024f3          	csrr	s1,0x80b
   11038:	80c026f3          	csrr	a3,0x80c
   1103c:	41450433          	sub	s0,a0,s4
   11040:	0004849b          	sext.w	s1,s1
   11044:	0006869b          	sext.w	a3,a3
   11048:	00026537          	lui	a0,0x26
   1104c:	ec050513          	addi	a0,a0,-320 # 25ec0 <cdjpeg_message_table+0x198>
   11050:	00040593          	mv	a1,s0
   11054:	00048613          	mv	a2,s1
   11058:	ba9ff0ef          	jal	10c00 <printf@plt>
   1105c:	409405b3          	sub	a1,s0,s1
   11060:	00026537          	lui	a0,0x26
   11064:	eee50513          	addi	a0,a0,-274 # 25eee <cdjpeg_message_table+0x1c6>
   11068:	b99ff0ef          	jal	10c00 <printf@plt>
   1106c:	08013503          	ld	a0,128(sp)
   11070:	00a03533          	snez	a0,a0
   11074:	00151513          	slli	a0,a0,0x1
   11078:	b79ff0ef          	jal	10bf0 <exit@plt>

000000000001107c <print_text_marker>:
   1107c:	f9010113          	addi	sp,sp,-112
   11080:	06113423          	sd	ra,104(sp)
   11084:	06813023          	sd	s0,96(sp)
   11088:	04913c23          	sd	s1,88(sp)
   1108c:	05213823          	sd	s2,80(sp)
   11090:	05313423          	sd	s3,72(sp)
   11094:	05413023          	sd	s4,64(sp)
   11098:	03513c23          	sd	s5,56(sp)
   1109c:	03613823          	sd	s6,48(sp)
   110a0:	03713423          	sd	s7,40(sp)
   110a4:	03813023          	sd	s8,32(sp)
   110a8:	01913c23          	sd	s9,24(sp)
   110ac:	01a13823          	sd	s10,16(sp)
   110b0:	01b13423          	sd	s11,8(sp)
   110b4:	00050413          	mv	s0,a0
   110b8:	02853483          	ld	s1,40(a0)
   110bc:	00053503          	ld	a0,0(a0)
   110c0:	0084b583          	ld	a1,8(s1)
   110c4:	07c52a03          	lw	s4,124(a0)
   110c8:	02059663          	bnez	a1,110f4 <print_text_marker+0x78>
   110cc:	0184b583          	ld	a1,24(s1)
   110d0:	00040513          	mv	a0,s0
   110d4:	000580e7          	jalr	a1
   110d8:	00051e63          	bnez	a0,110f4 <print_text_marker+0x78>
   110dc:	00043503          	ld	a0,0(s0)
   110e0:	00053583          	ld	a1,0(a0)
   110e4:	01800613          	li	a2,24
   110e8:	02c52423          	sw	a2,40(a0)
   110ec:	00040513          	mv	a0,s0
   110f0:	000580e7          	jalr	a1
   110f4:	0084b503          	ld	a0,8(s1)
   110f8:	0004b583          	ld	a1,0(s1)
   110fc:	fff50513          	addi	a0,a0,-1
   11100:	00a4b423          	sd	a0,8(s1)
   11104:	02843903          	ld	s2,40(s0)
   11108:	00158513          	addi	a0,a1,1
   1110c:	00a4b023          	sd	a0,0(s1)
   11110:	0005c483          	lbu	s1,0(a1)
   11114:	00893503          	ld	a0,8(s2)
   11118:	00849493          	slli	s1,s1,0x8
   1111c:	02051663          	bnez	a0,11148 <print_text_marker+0xcc>
   11120:	01893583          	ld	a1,24(s2)
   11124:	00040513          	mv	a0,s0
   11128:	000580e7          	jalr	a1
   1112c:	00051e63          	bnez	a0,11148 <print_text_marker+0xcc>
   11130:	00043503          	ld	a0,0(s0)
   11134:	00053583          	ld	a1,0(a0)
   11138:	01800613          	li	a2,24
   1113c:	02c52423          	sw	a2,40(a0)
   11140:	00040513          	mv	a0,s0
   11144:	000580e7          	jalr	a1
   11148:	00893503          	ld	a0,8(s2)
   1114c:	00093583          	ld	a1,0(s2)
   11150:	fff50513          	addi	a0,a0,-1
   11154:	00a93423          	sd	a0,8(s2)
   11158:	00158513          	addi	a0,a1,1
   1115c:	00a93023          	sd	a0,0(s2)
   11160:	0005c903          	lbu	s2,0(a1)
   11164:	0124e9b3          	or	s3,s1,s2
   11168:	07404863          	bgtz	s4,111d8 <print_text_marker+0x15c>
   1116c:	00300513          	li	a0,3
   11170:	1aa9ec63          	bltu	s3,a0,11328 <print_text_marker+0x2ac>
   11174:	ffd98493          	addi	s1,s3,-3
   11178:	00148493          	addi	s1,s1,1
   1117c:	01800913          	li	s2,24
   11180:	0240006f          	j	111a4 <print_text_marker+0x128>
   11184:	0089b503          	ld	a0,8(s3)
   11188:	0009b583          	ld	a1,0(s3)
   1118c:	fff50513          	addi	a0,a0,-1
   11190:	00a9b423          	sd	a0,8(s3)
   11194:	00158593          	addi	a1,a1,1
   11198:	fff48493          	addi	s1,s1,-1
   1119c:	00b9b023          	sd	a1,0(s3)
   111a0:	16905c63          	blez	s1,11318 <print_text_marker+0x29c>
   111a4:	02843983          	ld	s3,40(s0)
   111a8:	0089b503          	ld	a0,8(s3)
   111ac:	fc051ce3          	bnez	a0,11184 <print_text_marker+0x108>
   111b0:	0189b583          	ld	a1,24(s3)
   111b4:	00040513          	mv	a0,s0
   111b8:	000580e7          	jalr	a1
   111bc:	fc0514e3          	bnez	a0,11184 <print_text_marker+0x108>
   111c0:	00043503          	ld	a0,0(s0)
   111c4:	00053583          	ld	a1,0(a0)
   111c8:	03252423          	sw	s2,40(a0)
   111cc:	00040513          	mv	a0,s0
   111d0:	000580e7          	jalr	a1
   111d4:	fb1ff06f          	j	11184 <print_text_marker+0x108>
   111d8:	21c42583          	lw	a1,540(s0)
   111dc:	8681b503          	ld	a0,-1944(gp) # 2a120 <stderr@GLIBC_2.27>
   111e0:	0fe00613          	li	a2,254
   111e4:	ffe98693          	addi	a3,s3,-2
   111e8:	00c59c63          	bne	a1,a2,11200 <print_text_marker+0x184>
   111ec:	000265b7          	lui	a1,0x26
   111f0:	43258593          	addi	a1,a1,1074 # 26432 <cdjpeg_message_table+0x70a>
   111f4:	00068613          	mv	a2,a3
   111f8:	919ff0ef          	jal	10b10 <fprintf@plt>
   111fc:	0140006f          	j	11210 <print_text_marker+0x194>
   11200:	f205861b          	addiw	a2,a1,-224
   11204:	000265b7          	lui	a1,0x26
   11208:	44858593          	addi	a1,a1,1096 # 26448 <cdjpeg_message_table+0x720>
   1120c:	905ff0ef          	jal	10b10 <fprintf@plt>
   11210:	00200513          	li	a0,2
   11214:	11357263          	bgeu	a0,s3,11318 <print_text_marker+0x29c>
   11218:	f5405ee3          	blez	s4,11174 <print_text_marker+0xf8>
   1121c:	00000993          	li	s3,0
   11220:	012484b3          	add	s1,s1,s2
   11224:	ffe48a93          	addi	s5,s1,-2
   11228:	01800b13          	li	s6,24
   1122c:	00a00b93          	li	s7,10
   11230:	00d00c13          	li	s8,13
   11234:	05c00d13          	li	s10,92
   11238:	000264b7          	lui	s1,0x26
   1123c:	45c48493          	addi	s1,s1,1116 # 2645c <cdjpeg_message_table+0x734>
   11240:	0180006f          	j	11258 <print_text_marker+0x1dc>
   11244:	8681b583          	ld	a1,-1944(gp) # 2a120 <stderr@GLIBC_2.27>
   11248:	00a00513          	li	a0,10
   1124c:	925ff0ef          	jal	10b70 <fputc@plt>
   11250:	fffa8a93          	addi	s5,s5,-1
   11254:	0d505263          	blez	s5,11318 <print_text_marker+0x29c>
   11258:	02843903          	ld	s2,40(s0)
   1125c:	00893503          	ld	a0,8(s2)
   11260:	00098d93          	mv	s11,s3
   11264:	02051463          	bnez	a0,1128c <print_text_marker+0x210>
   11268:	01893583          	ld	a1,24(s2)
   1126c:	00040513          	mv	a0,s0
   11270:	000580e7          	jalr	a1
   11274:	00051c63          	bnez	a0,1128c <print_text_marker+0x210>
   11278:	00043503          	ld	a0,0(s0)
   1127c:	00053583          	ld	a1,0(a0)
   11280:	03652423          	sw	s6,40(a0)
   11284:	00040513          	mv	a0,s0
   11288:	000580e7          	jalr	a1
   1128c:	00893503          	ld	a0,8(s2)
   11290:	00093583          	ld	a1,0(s2)
   11294:	fff50513          	addi	a0,a0,-1
   11298:	00a93423          	sd	a0,8(s2)
   1129c:	00158513          	addi	a0,a1,1
   112a0:	00a93023          	sd	a0,0(s2)
   112a4:	0005c983          	lbu	s3,0(a1)
   112a8:	03798c63          	beq	s3,s7,112e0 <print_text_marker+0x264>
   112ac:	f9898ce3          	beq	s3,s8,11244 <print_text_marker+0x1c8>
   112b0:	03a98c63          	beq	s3,s10,112e8 <print_text_marker+0x26c>
   112b4:	9adff0ef          	jal	10c60 <__ctype_b_loc@plt>
   112b8:	00053503          	ld	a0,0(a0)
   112bc:	00199593          	slli	a1,s3,0x1
   112c0:	00b50533          	add	a0,a0,a1
   112c4:	00055503          	lhu	a0,0(a0)
   112c8:	8681b583          	ld	a1,-1944(gp) # 2a120 <stderr@GLIBC_2.27>
   112cc:	03151513          	slli	a0,a0,0x31
   112d0:	02055863          	bgez	a0,11300 <print_text_marker+0x284>
   112d4:	00098513          	mv	a0,s3
   112d8:	8d9ff0ef          	jal	10bb0 <putc@plt>
   112dc:	f75ff06f          	j	11250 <print_text_marker+0x1d4>
   112e0:	f78d92e3          	bne	s11,s8,11244 <print_text_marker+0x1c8>
   112e4:	f6dff06f          	j	11250 <print_text_marker+0x1d4>
   112e8:	8681b683          	ld	a3,-1944(gp) # 2a120 <stderr@GLIBC_2.27>
   112ec:	00200593          	li	a1,2
   112f0:	00100613          	li	a2,1
   112f4:	00048513          	mv	a0,s1
   112f8:	839ff0ef          	jal	10b30 <fwrite@plt>
   112fc:	f55ff06f          	j	11250 <print_text_marker+0x1d4>
   11300:	00058513          	mv	a0,a1
   11304:	000265b7          	lui	a1,0x26
   11308:	45f58593          	addi	a1,a1,1119 # 2645f <cdjpeg_message_table+0x737>
   1130c:	00098613          	mv	a2,s3
   11310:	801ff0ef          	jal	10b10 <fprintf@plt>
   11314:	f3dff06f          	j	11250 <print_text_marker+0x1d4>
   11318:	01405863          	blez	s4,11328 <print_text_marker+0x2ac>
   1131c:	8681b583          	ld	a1,-1944(gp) # 2a120 <stderr@GLIBC_2.27>
   11320:	00a00513          	li	a0,10
   11324:	84dff0ef          	jal	10b70 <fputc@plt>
   11328:	00100513          	li	a0,1
   1132c:	06813083          	ld	ra,104(sp)
   11330:	06013403          	ld	s0,96(sp)
   11334:	05813483          	ld	s1,88(sp)
   11338:	05013903          	ld	s2,80(sp)
   1133c:	04813983          	ld	s3,72(sp)
   11340:	04013a03          	ld	s4,64(sp)
   11344:	03813a83          	ld	s5,56(sp)
   11348:	03013b03          	ld	s6,48(sp)
   1134c:	02813b83          	ld	s7,40(sp)
   11350:	02013c03          	ld	s8,32(sp)
   11354:	01813c83          	ld	s9,24(sp)
   11358:	01013d03          	ld	s10,16(sp)
   1135c:	00813d83          	ld	s11,8(sp)
   11360:	07010113          	addi	sp,sp,112
   11364:	00008067          	ret

0000000000011368 <parse_switches>:
   11368:	f6010113          	addi	sp,sp,-160
   1136c:	08113c23          	sd	ra,152(sp)
   11370:	08813823          	sd	s0,144(sp)
   11374:	08913423          	sd	s1,136(sp)
   11378:	09213023          	sd	s2,128(sp)
   1137c:	07313c23          	sd	s3,120(sp)
   11380:	07413823          	sd	s4,112(sp)
   11384:	07513423          	sd	s5,104(sp)
   11388:	07613023          	sd	s6,96(sp)
   1138c:	05713c23          	sd	s7,88(sp)
   11390:	05813823          	sd	s8,80(sp)
   11394:	05913423          	sd	s9,72(sp)
   11398:	05a13023          	sd	s10,64(sp)
   1139c:	03b13c23          	sd	s11,56(sp)
   113a0:	00d13c23          	sd	a3,24(sp)
   113a4:	00058913          	mv	s2,a1
   113a8:	00050993          	mv	s3,a0
   113ac:	8401b823          	sd	zero,-1968(gp) # 2a108 <outfilename>
   113b0:	00053503          	ld	a0,0(a0)
   113b4:	00300593          	li	a1,3
   113b8:	84b1ac23          	sw	a1,-1960(gp) # 2a110 <requested_fmt>
   113bc:	06052e23          	sw	zero,124(a0)
   113c0:	00200513          	li	a0,2
   113c4:	00100d93          	li	s11,1
   113c8:	56a94663          	blt	s2,a0,11934 <parse_switches+0x5cc>
   113cc:	00060493          	mv	s1,a2
   113d0:	04498513          	addi	a0,s3,68
   113d4:	00a13823          	sd	a0,16(sp)
   113d8:	04898513          	addi	a0,s3,72
   113dc:	00a13423          	sd	a0,8(sp)
   113e0:	00100c13          	li	s8,1
   113e4:	02d00413          	li	s0,45
   113e8:	00026b37          	lui	s6,0x26
   113ec:	465b0b13          	addi	s6,s6,1125 # 26465 <cdjpeg_message_table+0x73d>
   113f0:	00027bb7          	lui	s7,0x27
   113f4:	245b8b93          	addi	s7,s7,581 # 27245 <cdjpeg_message_table+0x151d>
   113f8:	00027d37          	lui	s10,0x27
   113fc:	66ed0d13          	addi	s10,s10,1646 # 2766e <cdjpeg_message_table+0x1946>
   11400:	00100d93          	li	s11,1
   11404:	0280006f          	j	1142c <parse_switches+0xc4>
   11408:	001c8c93          	addi	s9,s9,1
   1140c:	00100613          	li	a2,1
   11410:	000c8513          	mv	a0,s9
   11414:	000b0593          	mv	a1,s6
   11418:	090030ef          	jal	144a8 <keymatch>
   1141c:	02050863          	beqz	a0,1144c <parse_switches+0xe4>
   11420:	8401ac23          	sw	zero,-1960(gp) # 2a110 <requested_fmt>
   11424:	001d8d9b          	addiw	s11,s11,1
   11428:	512dd663          	bge	s11,s2,11934 <parse_switches+0x5cc>
   1142c:	003d9513          	slli	a0,s11,0x3
   11430:	00a48533          	add	a0,s1,a0
   11434:	00053c83          	ld	s9,0(a0)
   11438:	000cc503          	lbu	a0,0(s9)
   1143c:	fc8506e3          	beq	a0,s0,11408 <parse_switches+0xa0>
   11440:	4fb04a63          	bgtz	s11,11934 <parse_switches+0x5cc>
   11444:	8401b823          	sd	zero,-1968(gp) # 2a108 <outfilename>
   11448:	fddff06f          	j	11424 <parse_switches+0xbc>
   1144c:	00100613          	li	a2,1
   11450:	000c8513          	mv	a0,s9
   11454:	000b8593          	mv	a1,s7
   11458:	050030ef          	jal	144a8 <keymatch>
   1145c:	04051663          	bnez	a0,114a8 <parse_switches+0x140>
   11460:	00100613          	li	a2,1
   11464:	000c8513          	mv	a0,s9
   11468:	000265b7          	lui	a1,0x26
   1146c:	46958593          	addi	a1,a1,1129 # 26469 <cdjpeg_message_table+0x741>
   11470:	038030ef          	jal	144a8 <keymatch>
   11474:	02051a63          	bnez	a0,114a8 <parse_switches+0x140>
   11478:	00100613          	li	a2,1
   1147c:	000c8513          	mv	a0,s9
   11480:	000265b7          	lui	a1,0x26
   11484:	47158593          	addi	a1,a1,1137 # 26471 <cdjpeg_message_table+0x749>
   11488:	020030ef          	jal	144a8 <keymatch>
   1148c:	00051e63          	bnez	a0,114a8 <parse_switches+0x140>
   11490:	00100613          	li	a2,1
   11494:	000c8513          	mv	a0,s9
   11498:	000265b7          	lui	a1,0x26
   1149c:	47a58593          	addi	a1,a1,1146 # 2647a <cdjpeg_message_table+0x752>
   114a0:	008030ef          	jal	144a8 <keymatch>
   114a4:	02050c63          	beqz	a0,114dc <parse_switches+0x174>
   114a8:	001d8d9b          	addiw	s11,s11,1
   114ac:	4d2dd463          	bge	s11,s2,11974 <parse_switches+0x60c>
   114b0:	003d9513          	slli	a0,s11,0x3
   114b4:	00a48533          	add	a0,s1,a0
   114b8:	00053503          	ld	a0,0(a0)
   114bc:	03410613          	addi	a2,sp,52
   114c0:	000d0593          	mv	a1,s10
   114c4:	e9cff0ef          	jal	10b60 <__isoc99_sscanf@plt>
   114c8:	4b851663          	bne	a0,s8,11974 <parse_switches+0x60c>
   114cc:	03412503          	lw	a0,52(sp)
   114d0:	06a9ac23          	sw	a0,120(s3)
   114d4:	0789a623          	sw	s8,108(s3)
   114d8:	f4dff06f          	j	11424 <parse_switches+0xbc>
   114dc:	00200613          	li	a2,2
   114e0:	000c8513          	mv	a0,s9
   114e4:	000265b7          	lui	a1,0x26
   114e8:	48358593          	addi	a1,a1,1155 # 26483 <cdjpeg_message_table+0x75b>
   114ec:	7bd020ef          	jal	144a8 <keymatch>
   114f0:	02050a63          	beqz	a0,11524 <parse_switches+0x1bc>
   114f4:	001d8d9b          	addiw	s11,s11,1
   114f8:	472dde63          	bge	s11,s2,11974 <parse_switches+0x60c>
   114fc:	003d9c93          	slli	s9,s11,0x3
   11500:	01948cb3          	add	s9,s1,s9
   11504:	000cb503          	ld	a0,0(s9)
   11508:	00100613          	li	a2,1
   1150c:	000265b7          	lui	a1,0x26
   11510:	48758593          	addi	a1,a1,1159 # 26487 <cdjpeg_message_table+0x75f>
   11514:	795020ef          	jal	144a8 <keymatch>
   11518:	04050c63          	beqz	a0,11570 <parse_switches+0x208>
   1151c:	0609a023          	sw	zero,96(s3)
   11520:	f05ff06f          	j	11424 <parse_switches+0xbc>
   11524:	00200613          	li	a2,2
   11528:	000c8513          	mv	a0,s9
   1152c:	000265b7          	lui	a1,0x26
   11530:	49658593          	addi	a1,a1,1174 # 26496 <cdjpeg_message_table+0x76e>
   11534:	775020ef          	jal	144a8 <keymatch>
   11538:	04050c63          	beqz	a0,11590 <parse_switches+0x228>
   1153c:	001d8d9b          	addiw	s11,s11,1
   11540:	432dda63          	bge	s11,s2,11974 <parse_switches+0x60c>
   11544:	003d9c93          	slli	s9,s11,0x3
   11548:	01948cb3          	add	s9,s1,s9
   1154c:	000cb503          	ld	a0,0(s9)
   11550:	00200613          	li	a2,2
   11554:	000265b7          	lui	a1,0x26
   11558:	49d58593          	addi	a1,a1,1181 # 2649d <cdjpeg_message_table+0x775>
   1155c:	74d020ef          	jal	144a8 <keymatch>
   11560:	06050e63          	beqz	a0,115dc <parse_switches+0x274>
   11564:	00200513          	li	a0,2
   11568:	06a9a823          	sw	a0,112(s3)
   1156c:	eb9ff06f          	j	11424 <parse_switches+0xbc>
   11570:	000cb503          	ld	a0,0(s9)
   11574:	00200613          	li	a2,2
   11578:	000265b7          	lui	a1,0x26
   1157c:	48b58593          	addi	a1,a1,1163 # 2648b <cdjpeg_message_table+0x763>
   11580:	729020ef          	jal	144a8 <keymatch>
   11584:	06050c63          	beqz	a0,115fc <parse_switches+0x294>
   11588:	0789a023          	sw	s8,96(s3)
   1158c:	e99ff06f          	j	11424 <parse_switches+0xbc>
   11590:	00100613          	li	a2,1
   11594:	000c8513          	mv	a0,s9
   11598:	000265b7          	lui	a1,0x26
   1159c:	4ad58593          	addi	a1,a1,1197 # 264ad <cdjpeg_message_table+0x785>
   115a0:	709020ef          	jal	144a8 <keymatch>
   115a4:	00051e63          	bnez	a0,115c0 <parse_switches+0x258>
   115a8:	00100613          	li	a2,1
   115ac:	000c8513          	mv	a0,s9
   115b0:	000265b7          	lui	a1,0x26
   115b4:	4b358593          	addi	a1,a1,1203 # 264b3 <cdjpeg_message_table+0x78b>
   115b8:	6f1020ef          	jal	144a8 <keymatch>
   115bc:	08050263          	beqz	a0,11640 <parse_switches+0x2d8>
   115c0:	85c1c503          	lbu	a0,-1956(gp) # 2a114 <parse_switches.printed_version>
   115c4:	0c050863          	beqz	a0,11694 <parse_switches+0x32c>
   115c8:	0009b503          	ld	a0,0(s3)
   115cc:	07c52583          	lw	a1,124(a0)
   115d0:	00158593          	addi	a1,a1,1
   115d4:	06b52e23          	sw	a1,124(a0)
   115d8:	e4dff06f          	j	11424 <parse_switches+0xbc>
   115dc:	000cb503          	ld	a0,0(s9)
   115e0:	00200613          	li	a2,2
   115e4:	000265b7          	lui	a1,0x26
   115e8:	4a058593          	addi	a1,a1,1184 # 264a0 <cdjpeg_message_table+0x778>
   115ec:	6bd020ef          	jal	144a8 <keymatch>
   115f0:	02050863          	beqz	a0,11620 <parse_switches+0x2b8>
   115f4:	0609a823          	sw	zero,112(s3)
   115f8:	e2dff06f          	j	11424 <parse_switches+0xbc>
   115fc:	000cb503          	ld	a0,0(s9)
   11600:	00200613          	li	a2,2
   11604:	000265b7          	lui	a1,0x26
   11608:	49058593          	addi	a1,a1,1168 # 26490 <cdjpeg_message_table+0x768>
   1160c:	69d020ef          	jal	144a8 <keymatch>
   11610:	36050263          	beqz	a0,11974 <parse_switches+0x60c>
   11614:	00200513          	li	a0,2
   11618:	06a9a023          	sw	a0,96(s3)
   1161c:	e09ff06f          	j	11424 <parse_switches+0xbc>
   11620:	000cb503          	ld	a0,0(s9)
   11624:	00200613          	li	a2,2
   11628:	000265b7          	lui	a1,0x26
   1162c:	4a558593          	addi	a1,a1,1189 # 264a5 <cdjpeg_message_table+0x77d>
   11630:	679020ef          	jal	144a8 <keymatch>
   11634:	34050063          	beqz	a0,11974 <parse_switches+0x60c>
   11638:	0789a823          	sw	s8,112(s3)
   1163c:	de9ff06f          	j	11424 <parse_switches+0xbc>
   11640:	00100613          	li	a2,1
   11644:	000c8513          	mv	a0,s9
   11648:	000265b7          	lui	a1,0x26
   1164c:	48b58593          	addi	a1,a1,1163 # 2648b <cdjpeg_message_table+0x763>
   11650:	659020ef          	jal	144a8 <keymatch>
   11654:	02050063          	beqz	a0,11674 <parse_switches+0x30c>
   11658:	06c9a503          	lw	a0,108(s3)
   1165c:	0789b823          	sd	s8,112(s3)
   11660:	00051663          	bnez	a0,1166c <parse_switches+0x304>
   11664:	0d800513          	li	a0,216
   11668:	06a9ac23          	sw	a0,120(s3)
   1166c:	0789b023          	sd	s8,96(s3)
   11670:	db5ff06f          	j	11424 <parse_switches+0xbc>
   11674:	00100613          	li	a2,1
   11678:	000c8513          	mv	a0,s9
   1167c:	000265b7          	lui	a1,0x26
   11680:	51d58593          	addi	a1,a1,1309 # 2651d <cdjpeg_message_table+0x7f5>
   11684:	625020ef          	jal	144a8 <keymatch>
   11688:	02050a63          	beqz	a0,116bc <parse_switches+0x354>
   1168c:	8581ac23          	sw	s8,-1960(gp) # 2a110 <requested_fmt>
   11690:	d95ff06f          	j	11424 <parse_switches+0xbc>
   11694:	8681b503          	ld	a0,-1944(gp) # 2a120 <stderr@GLIBC_2.27>
   11698:	000265b7          	lui	a1,0x26
   1169c:	4bb58593          	addi	a1,a1,1211 # 264bb <cdjpeg_message_table+0x793>
   116a0:	00026637          	lui	a2,0x26
   116a4:	4ea60613          	addi	a2,a2,1258 # 264ea <cdjpeg_message_table+0x7c2>
   116a8:	000266b7          	lui	a3,0x26
   116ac:	4fa68693          	addi	a3,a3,1274 # 264fa <cdjpeg_message_table+0x7d2>
   116b0:	c60ff0ef          	jal	10b10 <fprintf@plt>
   116b4:	85818e23          	sb	s8,-1956(gp) # 2a114 <parse_switches.printed_version>
   116b8:	f11ff06f          	j	115c8 <parse_switches+0x260>
   116bc:	00200613          	li	a2,2
   116c0:	000c8513          	mv	a0,s9
   116c4:	000265b7          	lui	a1,0x26
   116c8:	52158593          	addi	a1,a1,1313 # 26521 <cdjpeg_message_table+0x7f9>
   116cc:	5dd020ef          	jal	144a8 <keymatch>
   116d0:	00051e63          	bnez	a0,116ec <parse_switches+0x384>
   116d4:	00200613          	li	a2,2
   116d8:	000c8513          	mv	a0,s9
   116dc:	000265b7          	lui	a1,0x26
   116e0:	52b58593          	addi	a1,a1,1323 # 2652b <cdjpeg_message_table+0x803>
   116e4:	5c5020ef          	jal	144a8 <keymatch>
   116e8:	00050663          	beqz	a0,116f4 <parse_switches+0x38c>
   116ec:	0589a023          	sw	s8,64(s3)
   116f0:	d35ff06f          	j	11424 <parse_switches+0xbc>
   116f4:	00300613          	li	a2,3
   116f8:	000c8513          	mv	a0,s9
   116fc:	000265b7          	lui	a1,0x26
   11700:	53558593          	addi	a1,a1,1333 # 26535 <cdjpeg_message_table+0x80d>
   11704:	5a5020ef          	jal	144a8 <keymatch>
   11708:	04050a63          	beqz	a0,1175c <parse_switches+0x3f4>
   1170c:	001d8d9b          	addiw	s11,s11,1
   11710:	272dd263          	bge	s11,s2,11974 <parse_switches+0x60c>
   11714:	01813503          	ld	a0,24(sp)
   11718:	d00506e3          	beqz	a0,11424 <parse_switches+0xbc>
   1171c:	003d9513          	slli	a0,s11,0x3
   11720:	00a48533          	add	a0,s1,a0
   11724:	00a13023          	sd	a0,0(sp)
   11728:	00053503          	ld	a0,0(a0)
   1172c:	000265b7          	lui	a1,0x26
   11730:	ea758593          	addi	a1,a1,-345 # 25ea7 <cdjpeg_message_table+0x17f>
   11734:	cfcff0ef          	jal	10c30 <fopen@plt>
   11738:	24050063          	beqz	a0,11978 <parse_switches+0x610>
   1173c:	00050c93          	mv	s9,a0
   11740:	00098513          	mv	a0,s3
   11744:	000c8593          	mv	a1,s9
   11748:	1e0020ef          	jal	13928 <read_color_map>
   1174c:	000c8513          	mv	a0,s9
   11750:	cc0ff0ef          	jal	10c10 <fclose@plt>
   11754:	0789a623          	sw	s8,108(s3)
   11758:	ccdff06f          	j	11424 <parse_switches+0xbc>
   1175c:	00300613          	li	a2,3
   11760:	000c8513          	mv	a0,s9
   11764:	000265b7          	lui	a1,0x26
   11768:	53958593          	addi	a1,a1,1337 # 26539 <cdjpeg_message_table+0x811>
   1176c:	53d020ef          	jal	144a8 <keymatch>
   11770:	06050463          	beqz	a0,117d8 <parse_switches+0x470>
   11774:	001d8d9b          	addiw	s11,s11,1
   11778:	07800513          	li	a0,120
   1177c:	02a103a3          	sb	a0,39(sp)
   11780:	1f2dda63          	bge	s11,s2,11974 <parse_switches+0x60c>
   11784:	003d9513          	slli	a0,s11,0x3
   11788:	00a48533          	add	a0,s1,a0
   1178c:	00053503          	ld	a0,0(a0)
   11790:	02810613          	addi	a2,sp,40
   11794:	02710693          	addi	a3,sp,39
   11798:	000265b7          	lui	a1,0x26
   1179c:	54358593          	addi	a1,a1,1347 # 26543 <cdjpeg_message_table+0x81b>
   117a0:	bc0ff0ef          	jal	10b60 <__isoc99_sscanf@plt>
   117a4:	1ca05863          	blez	a0,11974 <parse_switches+0x60c>
   117a8:	02714583          	lbu	a1,39(sp)
   117ac:	02813503          	ld	a0,40(sp)
   117b0:	0df5f593          	andi	a1,a1,223
   117b4:	04d00613          	li	a2,77
   117b8:	00c59663          	bne	a1,a2,117c4 <parse_switches+0x45c>
   117bc:	3e800593          	li	a1,1000
   117c0:	02b50533          	mul	a0,a0,a1
   117c4:	0089b583          	ld	a1,8(s3)
   117c8:	3e800613          	li	a2,1000
   117cc:	02c50533          	mul	a0,a0,a2
   117d0:	04a5bc23          	sd	a0,88(a1)
   117d4:	c51ff06f          	j	11424 <parse_switches+0xbc>
   117d8:	00300613          	li	a2,3
   117dc:	000c8513          	mv	a0,s9
   117e0:	000265b7          	lui	a1,0x26
   117e4:	54958593          	addi	a1,a1,1353 # 26549 <cdjpeg_message_table+0x821>
   117e8:	4c1020ef          	jal	144a8 <keymatch>
   117ec:	00050663          	beqz	a0,117f8 <parse_switches+0x490>
   117f0:	0609a223          	sw	zero,100(s3)
   117f4:	c31ff06f          	j	11424 <parse_switches+0xbc>
   117f8:	00300613          	li	a2,3
   117fc:	000c8513          	mv	a0,s9
   11800:	000265b7          	lui	a1,0x26
   11804:	55258593          	addi	a1,a1,1362 # 26552 <cdjpeg_message_table+0x82a>
   11808:	4a1020ef          	jal	144a8 <keymatch>
   1180c:	00050663          	beqz	a0,11818 <parse_switches+0x4b0>
   11810:	0609aa23          	sw	zero,116(s3)
   11814:	c11ff06f          	j	11424 <parse_switches+0xbc>
   11818:	00300613          	li	a2,3
   1181c:	000c8513          	mv	a0,s9
   11820:	000265b7          	lui	a1,0x26
   11824:	55a58593          	addi	a1,a1,1370 # 2655a <cdjpeg_message_table+0x832>
   11828:	481020ef          	jal	144a8 <keymatch>
   1182c:	00050863          	beqz	a0,1183c <parse_switches+0x4d4>
   11830:	00200513          	li	a0,2
   11834:	84a1ac23          	sw	a0,-1960(gp) # 2a110 <requested_fmt>
   11838:	bedff06f          	j	11424 <parse_switches+0xbc>
   1183c:	00400613          	li	a2,4
   11840:	000c8513          	mv	a0,s9
   11844:	000265b7          	lui	a1,0x26
   11848:	55e58593          	addi	a1,a1,1374 # 2655e <cdjpeg_message_table+0x836>
   1184c:	45d020ef          	jal	144a8 <keymatch>
   11850:	02050063          	beqz	a0,11870 <parse_switches+0x508>
   11854:	001d8d9b          	addiw	s11,s11,1
   11858:	112dde63          	bge	s11,s2,11974 <parse_switches+0x60c>
   1185c:	003d9513          	slli	a0,s11,0x3
   11860:	00a48533          	add	a0,s1,a0
   11864:	00053503          	ld	a0,0(a0)
   11868:	84a1b823          	sd	a0,-1968(gp) # 2a108 <outfilename>
   1186c:	bb9ff06f          	j	11424 <parse_switches+0xbc>
   11870:	00100613          	li	a2,1
   11874:	000c8513          	mv	a0,s9
   11878:	000265b7          	lui	a1,0x26
   1187c:	56658593          	addi	a1,a1,1382 # 26566 <cdjpeg_message_table+0x83e>
   11880:	429020ef          	jal	144a8 <keymatch>
   11884:	00051e63          	bnez	a0,118a0 <parse_switches+0x538>
   11888:	00100613          	li	a2,1
   1188c:	000c8513          	mv	a0,s9
   11890:	000265b7          	lui	a1,0x26
   11894:	56a58593          	addi	a1,a1,1386 # 2656a <cdjpeg_message_table+0x842>
   11898:	411020ef          	jal	144a8 <keymatch>
   1189c:	00050663          	beqz	a0,118a8 <parse_switches+0x540>
   118a0:	00300513          	li	a0,3
   118a4:	f91ff06f          	j	11834 <parse_switches+0x4cc>
   118a8:	00100613          	li	a2,1
   118ac:	000c8513          	mv	a0,s9
   118b0:	000265b7          	lui	a1,0x26
   118b4:	56e58593          	addi	a1,a1,1390 # 2656e <cdjpeg_message_table+0x846>
   118b8:	3f1020ef          	jal	144a8 <keymatch>
   118bc:	00050663          	beqz	a0,118c8 <parse_switches+0x560>
   118c0:	00400513          	li	a0,4
   118c4:	f71ff06f          	j	11834 <parse_switches+0x4cc>
   118c8:	00100613          	li	a2,1
   118cc:	000c8513          	mv	a0,s9
   118d0:	000265b7          	lui	a1,0x26
   118d4:	52558593          	addi	a1,a1,1317 # 26525 <cdjpeg_message_table+0x7fd>
   118d8:	3d1020ef          	jal	144a8 <keymatch>
   118dc:	02050c63          	beqz	a0,11914 <parse_switches+0x5ac>
   118e0:	001d8d9b          	addiw	s11,s11,1
   118e4:	092dd863          	bge	s11,s2,11974 <parse_switches+0x60c>
   118e8:	003d9513          	slli	a0,s11,0x3
   118ec:	00a48533          	add	a0,s1,a0
   118f0:	00053503          	ld	a0,0(a0)
   118f4:	000265b7          	lui	a1,0x26
   118f8:	57258593          	addi	a1,a1,1394 # 26572 <cdjpeg_message_table+0x84a>
   118fc:	01013603          	ld	a2,16(sp)
   11900:	00813683          	ld	a3,8(sp)
   11904:	a5cff0ef          	jal	10b60 <__isoc99_sscanf@plt>
   11908:	00200593          	li	a1,2
   1190c:	b0b50ce3          	beq	a0,a1,11424 <parse_switches+0xbc>
   11910:	0640006f          	j	11974 <parse_switches+0x60c>
   11914:	00100613          	li	a2,1
   11918:	000c8513          	mv	a0,s9
   1191c:	000265b7          	lui	a1,0x26
   11920:	40d58593          	addi	a1,a1,1037 # 2640d <cdjpeg_message_table+0x6e5>
   11924:	385020ef          	jal	144a8 <keymatch>
   11928:	04050663          	beqz	a0,11974 <parse_switches+0x60c>
   1192c:	00500513          	li	a0,5
   11930:	f05ff06f          	j	11834 <parse_switches+0x4cc>
   11934:	000d8513          	mv	a0,s11
   11938:	09813083          	ld	ra,152(sp)
   1193c:	09013403          	ld	s0,144(sp)
   11940:	08813483          	ld	s1,136(sp)
   11944:	08013903          	ld	s2,128(sp)
   11948:	07813983          	ld	s3,120(sp)
   1194c:	07013a03          	ld	s4,112(sp)
   11950:	06813a83          	ld	s5,104(sp)
   11954:	06013b03          	ld	s6,96(sp)
   11958:	05813b83          	ld	s7,88(sp)
   1195c:	05013c03          	ld	s8,80(sp)
   11960:	04813c83          	ld	s9,72(sp)
   11964:	04013d03          	ld	s10,64(sp)
   11968:	03813d83          	ld	s11,56(sp)
   1196c:	0a010113          	addi	sp,sp,160
   11970:	00008067          	ret
   11974:	028000ef          	jal	1199c <usage>
   11978:	8681b503          	ld	a0,-1944(gp) # 2a120 <stderr@GLIBC_2.27>
   1197c:	8481b603          	ld	a2,-1976(gp) # 2a100 <progname>
   11980:	00013583          	ld	a1,0(sp)
   11984:	0005b683          	ld	a3,0(a1)
   11988:	000265b7          	lui	a1,0x26
   1198c:	eaa58593          	addi	a1,a1,-342 # 25eaa <cdjpeg_message_table+0x182>
   11990:	980ff0ef          	jal	10b10 <fprintf@plt>
   11994:	00100513          	li	a0,1
   11998:	a58ff0ef          	jal	10bf0 <exit@plt>

000000000001199c <usage>:
   1199c:	fe010113          	addi	sp,sp,-32
   119a0:	00113c23          	sd	ra,24(sp)
   119a4:	00813823          	sd	s0,16(sp)
   119a8:	00913423          	sd	s1,8(sp)
   119ac:	01213023          	sd	s2,0(sp)
   119b0:	8681b503          	ld	a0,-1944(gp) # 2a120 <stderr@GLIBC_2.27>
   119b4:	8481b603          	ld	a2,-1976(gp) # 2a100 <progname>
   119b8:	000265b7          	lui	a1,0x26
   119bc:	57858593          	addi	a1,a1,1400 # 26578 <cdjpeg_message_table+0x850>
   119c0:	950ff0ef          	jal	10b10 <fprintf@plt>
   119c4:	8681b683          	ld	a3,-1944(gp) # 2a120 <stderr@GLIBC_2.27>
   119c8:	00026537          	lui	a0,0x26
   119cc:	58e50513          	addi	a0,a0,1422 # 2658e <cdjpeg_message_table+0x866>
   119d0:	00c00593          	li	a1,12
   119d4:	00100613          	li	a2,1
   119d8:	958ff0ef          	jal	10b30 <fwrite@plt>
   119dc:	8681b683          	ld	a3,-1944(gp) # 2a120 <stderr@GLIBC_2.27>
   119e0:	00026537          	lui	a0,0x26
   119e4:	59b50513          	addi	a0,a0,1435 # 2659b <cdjpeg_message_table+0x873>
   119e8:	02500593          	li	a1,37
   119ec:	00100613          	li	a2,1
   119f0:	940ff0ef          	jal	10b30 <fwrite@plt>
   119f4:	8681b683          	ld	a3,-1944(gp) # 2a120 <stderr@GLIBC_2.27>
   119f8:	00026537          	lui	a0,0x26
   119fc:	5c150513          	addi	a0,a0,1473 # 265c1 <cdjpeg_message_table+0x899>
   11a00:	03700593          	li	a1,55
   11a04:	00100613          	li	a2,1
   11a08:	928ff0ef          	jal	10b30 <fwrite@plt>
   11a0c:	8681b683          	ld	a3,-1944(gp) # 2a120 <stderr@GLIBC_2.27>
   11a10:	00026537          	lui	a0,0x26
   11a14:	5f950513          	addi	a0,a0,1529 # 265f9 <cdjpeg_message_table+0x8d1>
   11a18:	02e00593          	li	a1,46
   11a1c:	00100613          	li	a2,1
   11a20:	910ff0ef          	jal	10b30 <fwrite@plt>
   11a24:	8681b683          	ld	a3,-1944(gp) # 2a120 <stderr@GLIBC_2.27>
   11a28:	00026537          	lui	a0,0x26
   11a2c:	62850513          	addi	a0,a0,1576 # 26628 <cdjpeg_message_table+0x900>
   11a30:	02800593          	li	a1,40
   11a34:	00100613          	li	a2,1
   11a38:	8f8ff0ef          	jal	10b30 <fwrite@plt>
   11a3c:	8681b683          	ld	a3,-1944(gp) # 2a120 <stderr@GLIBC_2.27>
   11a40:	00026537          	lui	a0,0x26
   11a44:	65150513          	addi	a0,a0,1617 # 26651 <cdjpeg_message_table+0x929>
   11a48:	03d00593          	li	a1,61
   11a4c:	00100613          	li	a2,1
   11a50:	8e0ff0ef          	jal	10b30 <fwrite@plt>
   11a54:	8681b503          	ld	a0,-1944(gp) # 2a120 <stderr@GLIBC_2.27>
   11a58:	000265b7          	lui	a1,0x26
   11a5c:	68f58593          	addi	a1,a1,1679 # 2668f <cdjpeg_message_table+0x967>
   11a60:	00026437          	lui	s0,0x26
   11a64:	eed40413          	addi	s0,s0,-275 # 25eed <cdjpeg_message_table+0x1c5>
   11a68:	00040613          	mv	a2,s0
   11a6c:	8a4ff0ef          	jal	10b10 <fprintf@plt>
   11a70:	8681b503          	ld	a0,-1944(gp) # 2a120 <stderr@GLIBC_2.27>
   11a74:	000265b7          	lui	a1,0x26
   11a78:	6cc58593          	addi	a1,a1,1740 # 266cc <cdjpeg_message_table+0x9a4>
   11a7c:	00040613          	mv	a2,s0
   11a80:	890ff0ef          	jal	10b10 <fprintf@plt>
   11a84:	8681b503          	ld	a0,-1944(gp) # 2a120 <stderr@GLIBC_2.27>
   11a88:	000265b7          	lui	a1,0x26
   11a8c:	6f958593          	addi	a1,a1,1785 # 266f9 <cdjpeg_message_table+0x9d1>
   11a90:	00040613          	mv	a2,s0
   11a94:	87cff0ef          	jal	10b10 <fprintf@plt>
   11a98:	8681b503          	ld	a0,-1944(gp) # 2a120 <stderr@GLIBC_2.27>
   11a9c:	000265b7          	lui	a1,0x26
   11aa0:	73358593          	addi	a1,a1,1843 # 26733 <cdjpeg_message_table+0xa0b>
   11aa4:	000264b7          	lui	s1,0x26
   11aa8:	76e48493          	addi	s1,s1,1902 # 2676e <cdjpeg_message_table+0xa46>
   11aac:	00048613          	mv	a2,s1
   11ab0:	860ff0ef          	jal	10b10 <fprintf@plt>
   11ab4:	8681b503          	ld	a0,-1944(gp) # 2a120 <stderr@GLIBC_2.27>
   11ab8:	000265b7          	lui	a1,0x26
   11abc:	77958593          	addi	a1,a1,1913 # 26779 <cdjpeg_message_table+0xa51>
   11ac0:	00040613          	mv	a2,s0
   11ac4:	84cff0ef          	jal	10b10 <fprintf@plt>
   11ac8:	8681b683          	ld	a3,-1944(gp) # 2a120 <stderr@GLIBC_2.27>
   11acc:	00026537          	lui	a0,0x26
   11ad0:	7a850513          	addi	a0,a0,1960 # 267a8 <cdjpeg_message_table+0xa80>
   11ad4:	01d00593          	li	a1,29
   11ad8:	00100613          	li	a2,1
   11adc:	854ff0ef          	jal	10b30 <fwrite@plt>
   11ae0:	8681b503          	ld	a0,-1944(gp) # 2a120 <stderr@GLIBC_2.27>
   11ae4:	000265b7          	lui	a1,0x26
   11ae8:	7c658593          	addi	a1,a1,1990 # 267c6 <cdjpeg_message_table+0xa9e>
   11aec:	00048613          	mv	a2,s1
   11af0:	820ff0ef          	jal	10b10 <fprintf@plt>
   11af4:	8681b503          	ld	a0,-1944(gp) # 2a120 <stderr@GLIBC_2.27>
   11af8:	000265b7          	lui	a1,0x26
   11afc:	7f158593          	addi	a1,a1,2033 # 267f1 <cdjpeg_message_table+0xac9>
   11b00:	00040613          	mv	a2,s0
   11b04:	80cff0ef          	jal	10b10 <fprintf@plt>
   11b08:	8681b503          	ld	a0,-1944(gp) # 2a120 <stderr@GLIBC_2.27>
   11b0c:	000275b7          	lui	a1,0x27
   11b10:	82a58593          	addi	a1,a1,-2006 # 2682a <cdjpeg_message_table+0xb02>
   11b14:	00040613          	mv	a2,s0
   11b18:	ff9fe0ef          	jal	10b10 <fprintf@plt>
   11b1c:	8681b683          	ld	a3,-1944(gp) # 2a120 <stderr@GLIBC_2.27>
   11b20:	00027537          	lui	a0,0x27
   11b24:	85c50513          	addi	a0,a0,-1956 # 2685c <cdjpeg_message_table+0xb34>
   11b28:	02d00593          	li	a1,45
   11b2c:	00100613          	li	a2,1
   11b30:	800ff0ef          	jal	10b30 <fwrite@plt>
   11b34:	8681b683          	ld	a3,-1944(gp) # 2a120 <stderr@GLIBC_2.27>
   11b38:	00027537          	lui	a0,0x27
   11b3c:	88a50513          	addi	a0,a0,-1910 # 2688a <cdjpeg_message_table+0xb62>
   11b40:	03500593          	li	a1,53
   11b44:	00100613          	li	a2,1
   11b48:	fe9fe0ef          	jal	10b30 <fwrite@plt>
   11b4c:	8681b683          	ld	a3,-1944(gp) # 2a120 <stderr@GLIBC_2.27>
   11b50:	00027537          	lui	a0,0x27
   11b54:	8c050513          	addi	a0,a0,-1856 # 268c0 <cdjpeg_message_table+0xb98>
   11b58:	03e00593          	li	a1,62
   11b5c:	00100613          	li	a2,1
   11b60:	fd1fe0ef          	jal	10b30 <fwrite@plt>
   11b64:	8681b683          	ld	a3,-1944(gp) # 2a120 <stderr@GLIBC_2.27>
   11b68:	00027537          	lui	a0,0x27
   11b6c:	8ff50513          	addi	a0,a0,-1793 # 268ff <cdjpeg_message_table+0xbd7>
   11b70:	03800593          	li	a1,56
   11b74:	00100613          	li	a2,1
   11b78:	fb9fe0ef          	jal	10b30 <fwrite@plt>
   11b7c:	8681b683          	ld	a3,-1944(gp) # 2a120 <stderr@GLIBC_2.27>
   11b80:	00027537          	lui	a0,0x27
   11b84:	93850513          	addi	a0,a0,-1736 # 26938 <cdjpeg_message_table+0xc10>
   11b88:	03300593          	li	a1,51
   11b8c:	00100613          	li	a2,1
   11b90:	fa1fe0ef          	jal	10b30 <fwrite@plt>
   11b94:	8681b683          	ld	a3,-1944(gp) # 2a120 <stderr@GLIBC_2.27>
   11b98:	00027537          	lui	a0,0x27
   11b9c:	96c50513          	addi	a0,a0,-1684 # 2696c <cdjpeg_message_table+0xc44>
   11ba0:	03d00593          	li	a1,61
   11ba4:	00100613          	li	a2,1
   11ba8:	f89fe0ef          	jal	10b30 <fwrite@plt>
   11bac:	8681b683          	ld	a3,-1944(gp) # 2a120 <stderr@GLIBC_2.27>
   11bb0:	00027537          	lui	a0,0x27
   11bb4:	9aa50513          	addi	a0,a0,-1622 # 269aa <cdjpeg_message_table+0xc82>
   11bb8:	03300593          	li	a1,51
   11bbc:	00100613          	li	a2,1
   11bc0:	f71fe0ef          	jal	10b30 <fwrite@plt>
   11bc4:	8681b683          	ld	a3,-1944(gp) # 2a120 <stderr@GLIBC_2.27>
   11bc8:	00027537          	lui	a0,0x27
   11bcc:	9de50513          	addi	a0,a0,-1570 # 269de <cdjpeg_message_table+0xcb6>
   11bd0:	02e00593          	li	a1,46
   11bd4:	00100613          	li	a2,1
   11bd8:	f59fe0ef          	jal	10b30 <fwrite@plt>
   11bdc:	8681b683          	ld	a3,-1944(gp) # 2a120 <stderr@GLIBC_2.27>
   11be0:	00027537          	lui	a0,0x27
   11be4:	a0d50513          	addi	a0,a0,-1523 # 26a0d <cdjpeg_message_table+0xce5>
   11be8:	02b00593          	li	a1,43
   11bec:	00100613          	li	a2,1
   11bf0:	f41fe0ef          	jal	10b30 <fwrite@plt>
   11bf4:	00100513          	li	a0,1
   11bf8:	ff9fe0ef          	jal	10bf0 <exit@plt>

0000000000011bfc <jinit_write_ppm>:
   11bfc:	fe010113          	addi	sp,sp,-32
   11c00:	00113c23          	sd	ra,24(sp)
   11c04:	00813823          	sd	s0,16(sp)
   11c08:	00913423          	sd	s1,8(sp)
   11c0c:	01213023          	sd	s2,0(sp)
   11c10:	00050493          	mv	s1,a0
   11c14:	00853503          	ld	a0,8(a0)
   11c18:	00053683          	ld	a3,0(a0)
   11c1c:	00100593          	li	a1,1
   11c20:	05000613          	li	a2,80
   11c24:	00100913          	li	s2,1
   11c28:	00048513          	mv	a0,s1
   11c2c:	000680e7          	jalr	a3
   11c30:	00050413          	mv	s0,a0
   11c34:	00012537          	lui	a0,0x12
   11c38:	d2c50513          	addi	a0,a0,-724 # 11d2c <start_output_ppm>
   11c3c:	00a43023          	sd	a0,0(s0)
   11c40:	00012537          	lui	a0,0x12
   11c44:	d9450513          	addi	a0,a0,-620 # 11d94 <finish_output_ppm>
   11c48:	00a43823          	sd	a0,16(s0)
   11c4c:	00048513          	mv	a0,s1
   11c50:	7dc030ef          	jal	1542c <jpeg_calc_output_dimensions>
   11c54:	0884a503          	lw	a0,136(s1)
   11c58:	0904a583          	lw	a1,144(s1)
   11c5c:	0084b603          	ld	a2,8(s1)
   11c60:	02a58533          	mul	a0,a1,a0
   11c64:	04a42423          	sw	a0,72(s0)
   11c68:	00063683          	ld	a3,0(a2)
   11c6c:	02051513          	slli	a0,a0,0x20
   11c70:	02055613          	srli	a2,a0,0x20
   11c74:	04c43023          	sd	a2,64(s0)
   11c78:	00100593          	li	a1,1
   11c7c:	00048513          	mv	a0,s1
   11c80:	000680e7          	jalr	a3
   11c84:	06c4a583          	lw	a1,108(s1)
   11c88:	02a43823          	sd	a0,48(s0)
   11c8c:	04058863          	beqz	a1,11cdc <jinit_write_ppm+0xe0>
   11c90:	0084b503          	ld	a0,8(s1)
   11c94:	0884a583          	lw	a1,136(s1)
   11c98:	0944a603          	lw	a2,148(s1)
   11c9c:	01053703          	ld	a4,16(a0)
   11ca0:	02b6063b          	mulw	a2,a2,a1
   11ca4:	00100593          	li	a1,1
   11ca8:	00100693          	li	a3,1
   11cac:	00048513          	mv	a0,s1
   11cb0:	000700e7          	jalr	a4
   11cb4:	06c4a583          	lw	a1,108(s1)
   11cb8:	02a43023          	sd	a0,32(s0)
   11cbc:	03242423          	sw	s2,40(s0)
   11cc0:	02058c63          	beqz	a1,11cf8 <jinit_write_ppm+0xfc>
   11cc4:	0404a503          	lw	a0,64(s1)
   11cc8:	00100593          	li	a1,1
   11ccc:	02b51c63          	bne	a0,a1,11d04 <jinit_write_ppm+0x108>
   11cd0:	00012537          	lui	a0,0x12
   11cd4:	e5450513          	addi	a0,a0,-428 # 11e54 <put_demapped_gray>
   11cd8:	0340006f          	j	11d0c <jinit_write_ppm+0x110>
   11cdc:	03840593          	addi	a1,s0,56
   11ce0:	02a43c23          	sd	a0,56(s0)
   11ce4:	02b43023          	sd	a1,32(s0)
   11ce8:	03242423          	sw	s2,40(s0)
   11cec:	00012537          	lui	a0,0x12
   11cf0:	f4c50513          	addi	a0,a0,-180 # 11f4c <put_pixel_rows>
   11cf4:	0180006f          	j	11d0c <jinit_write_ppm+0x110>
   11cf8:	00012537          	lui	a0,0x12
   11cfc:	e0050513          	addi	a0,a0,-512 # 11e00 <copy_pixel_rows>
   11d00:	00c0006f          	j	11d0c <jinit_write_ppm+0x110>
   11d04:	00012537          	lui	a0,0x12
   11d08:	ec050513          	addi	a0,a0,-320 # 11ec0 <put_demapped_rgb>
   11d0c:	00a43423          	sd	a0,8(s0)
   11d10:	00040513          	mv	a0,s0
   11d14:	01813083          	ld	ra,24(sp)
   11d18:	01013403          	ld	s0,16(sp)
   11d1c:	00813483          	ld	s1,8(sp)
   11d20:	00013903          	ld	s2,0(sp)
   11d24:	02010113          	addi	sp,sp,32
   11d28:	00008067          	ret

0000000000011d2c <start_output_ppm>:
   11d2c:	04052603          	lw	a2,64(a0)
   11d30:	00200693          	li	a3,2
   11d34:	02d60663          	beq	a2,a3,11d60 <start_output_ppm+0x34>
   11d38:	00100693          	li	a3,1
   11d3c:	04d61263          	bne	a2,a3,11d80 <start_output_ppm+0x54>
   11d40:	0185b783          	ld	a5,24(a1)
   11d44:	08856603          	lwu	a2,136(a0)
   11d48:	08c56683          	lwu	a3,140(a0)
   11d4c:	000275b7          	lui	a1,0x27
   11d50:	a3958593          	addi	a1,a1,-1479 # 26a39 <cdjpeg_message_table+0xd11>
   11d54:	0ff00713          	li	a4,255
   11d58:	00078513          	mv	a0,a5
   11d5c:	db5fe06f          	j	10b10 <fprintf@plt>
   11d60:	0185b783          	ld	a5,24(a1)
   11d64:	08856603          	lwu	a2,136(a0)
   11d68:	08c56683          	lwu	a3,140(a0)
   11d6c:	000275b7          	lui	a1,0x27
   11d70:	a4858593          	addi	a1,a1,-1464 # 26a48 <cdjpeg_message_table+0xd20>
   11d74:	0ff00713          	li	a4,255
   11d78:	00078513          	mv	a0,a5
   11d7c:	d95fe06f          	j	10b10 <fprintf@plt>
   11d80:	00053583          	ld	a1,0(a0)
   11d84:	0005b303          	ld	t1,0(a1)
   11d88:	40100613          	li	a2,1025
   11d8c:	02c5a423          	sw	a2,40(a1)
   11d90:	00030067          	jr	t1

0000000000011d94 <finish_output_ppm>:
   11d94:	fe010113          	addi	sp,sp,-32
   11d98:	00113c23          	sd	ra,24(sp)
   11d9c:	00813823          	sd	s0,16(sp)
   11da0:	00913423          	sd	s1,8(sp)
   11da4:	00058493          	mv	s1,a1
   11da8:	0185b583          	ld	a1,24(a1)
   11dac:	00050413          	mv	s0,a0
   11db0:	00058513          	mv	a0,a1
   11db4:	dcdfe0ef          	jal	10b80 <fflush@plt>
   11db8:	0184b503          	ld	a0,24(s1)
   11dbc:	e85fe0ef          	jal	10c40 <ferror@plt>
   11dc0:	02050663          	beqz	a0,11dec <finish_output_ppm+0x58>
   11dc4:	00043503          	ld	a0,0(s0)
   11dc8:	00053303          	ld	t1,0(a0)
   11dcc:	02500593          	li	a1,37
   11dd0:	02b52423          	sw	a1,40(a0)
   11dd4:	00040513          	mv	a0,s0
   11dd8:	01813083          	ld	ra,24(sp)
   11ddc:	01013403          	ld	s0,16(sp)
   11de0:	00813483          	ld	s1,8(sp)
   11de4:	02010113          	addi	sp,sp,32
   11de8:	00030067          	jr	t1
   11dec:	01813083          	ld	ra,24(sp)
   11df0:	01013403          	ld	s0,16(sp)
   11df4:	00813483          	ld	s1,8(sp)
   11df8:	02010113          	addi	sp,sp,32
   11dfc:	00008067          	ret

0000000000011e00 <copy_pixel_rows>:
   11e00:	0485a683          	lw	a3,72(a1)
   11e04:	0305b503          	ld	a0,48(a1)
   11e08:	02068e63          	beqz	a3,11e44 <copy_pixel_rows+0x44>
   11e0c:	0205b603          	ld	a2,32(a1)
   11e10:	00063603          	ld	a2,0(a2)
   11e14:	fff68693          	addi	a3,a3,-1
   11e18:	02069693          	slli	a3,a3,0x20
   11e1c:	0206d693          	srli	a3,a3,0x20
   11e20:	00a686b3          	add	a3,a3,a0
   11e24:	00168693          	addi	a3,a3,1
   11e28:	00064703          	lbu	a4,0(a2)
   11e2c:	00160613          	addi	a2,a2,1
   11e30:	00150793          	addi	a5,a0,1
   11e34:	00e50023          	sb	a4,0(a0)
   11e38:	00078513          	mv	a0,a5
   11e3c:	fed796e3          	bne	a5,a3,11e28 <copy_pixel_rows+0x28>
   11e40:	0305b503          	ld	a0,48(a1)
   11e44:	0405b603          	ld	a2,64(a1)
   11e48:	0185b683          	ld	a3,24(a1)
   11e4c:	00100593          	li	a1,1
   11e50:	ce1fe06f          	j	10b30 <fwrite@plt>

0000000000011e54 <put_demapped_gray>:
   11e54:	00050613          	mv	a2,a0
   11e58:	08852703          	lw	a4,136(a0)
   11e5c:	0305b503          	ld	a0,48(a1)
   11e60:	04070863          	beqz	a4,11eb0 <put_demapped_gray+0x5c>
   11e64:	0a063603          	ld	a2,160(a2)
   11e68:	0205b683          	ld	a3,32(a1)
   11e6c:	00063603          	ld	a2,0(a2)
   11e70:	0006b683          	ld	a3,0(a3)
   11e74:	fff70713          	addi	a4,a4,-1
   11e78:	02071713          	slli	a4,a4,0x20
   11e7c:	02075713          	srli	a4,a4,0x20
   11e80:	00d70733          	add	a4,a4,a3
   11e84:	00170713          	addi	a4,a4,1
   11e88:	0006c783          	lbu	a5,0(a3)
   11e8c:	00f607b3          	add	a5,a2,a5
   11e90:	0007c783          	lbu	a5,0(a5)
   11e94:	00168813          	addi	a6,a3,1
   11e98:	00150693          	addi	a3,a0,1
   11e9c:	00f50023          	sb	a5,0(a0)
   11ea0:	00068513          	mv	a0,a3
   11ea4:	00080693          	mv	a3,a6
   11ea8:	fee810e3          	bne	a6,a4,11e88 <put_demapped_gray+0x34>
   11eac:	0305b503          	ld	a0,48(a1)
   11eb0:	0405b603          	ld	a2,64(a1)
   11eb4:	0185b683          	ld	a3,24(a1)
   11eb8:	00100593          	li	a1,1
   11ebc:	c75fe06f          	j	10b30 <fwrite@plt>

0000000000011ec0 <put_demapped_rgb>:
   11ec0:	00050613          	mv	a2,a0
   11ec4:	08852803          	lw	a6,136(a0)
   11ec8:	0305b503          	ld	a0,48(a1)
   11ecc:	06080863          	beqz	a6,11f3c <put_demapped_rgb+0x7c>
   11ed0:	0a063703          	ld	a4,160(a2)
   11ed4:	0205b783          	ld	a5,32(a1)
   11ed8:	00073603          	ld	a2,0(a4)
   11edc:	00873683          	ld	a3,8(a4)
   11ee0:	01073703          	ld	a4,16(a4)
   11ee4:	0007b783          	ld	a5,0(a5)
   11ee8:	fff80813          	addi	a6,a6,-1
   11eec:	02081813          	slli	a6,a6,0x20
   11ef0:	02085813          	srli	a6,a6,0x20
   11ef4:	00f80833          	add	a6,a6,a5
   11ef8:	00180813          	addi	a6,a6,1
   11efc:	0007c883          	lbu	a7,0(a5)
   11f00:	011602b3          	add	t0,a2,a7
   11f04:	0002c283          	lbu	t0,0(t0)
   11f08:	00550023          	sb	t0,0(a0)
   11f0c:	011682b3          	add	t0,a3,a7
   11f10:	0002c283          	lbu	t0,0(t0)
   11f14:	005500a3          	sb	t0,1(a0)
   11f18:	011708b3          	add	a7,a4,a7
   11f1c:	0008c883          	lbu	a7,0(a7)
   11f20:	00178293          	addi	t0,a5,1
   11f24:	00350793          	addi	a5,a0,3
   11f28:	01150123          	sb	a7,2(a0)
   11f2c:	00078513          	mv	a0,a5
   11f30:	00028793          	mv	a5,t0
   11f34:	fd0294e3          	bne	t0,a6,11efc <put_demapped_rgb+0x3c>
   11f38:	0305b503          	ld	a0,48(a1)
   11f3c:	0405b603          	ld	a2,64(a1)
   11f40:	0185b683          	ld	a3,24(a1)
   11f44:	00100593          	li	a1,1
   11f48:	be9fe06f          	j	10b30 <fwrite@plt>

0000000000011f4c <put_pixel_rows>:
   11f4c:	0305b503          	ld	a0,48(a1)
   11f50:	0405b603          	ld	a2,64(a1)
   11f54:	0185b683          	ld	a3,24(a1)
   11f58:	00100593          	li	a1,1
   11f5c:	bd5fe06f          	j	10b30 <fwrite@plt>

0000000000011f60 <jinit_write_gif>:
   11f60:	fe010113          	addi	sp,sp,-32
   11f64:	00113c23          	sd	ra,24(sp)
   11f68:	00813823          	sd	s0,16(sp)
   11f6c:	00913423          	sd	s1,8(sp)
   11f70:	01213023          	sd	s2,0(sp)
   11f74:	00050413          	mv	s0,a0
   11f78:	00853503          	ld	a0,8(a0)
   11f7c:	00053683          	ld	a3,0(a0)
   11f80:	00100593          	li	a1,1
   11f84:	16000613          	li	a2,352
   11f88:	00100913          	li	s2,1
   11f8c:	00040513          	mv	a0,s0
   11f90:	000680e7          	jalr	a3
   11f94:	00050493          	mv	s1,a0
   11f98:	02853823          	sd	s0,48(a0)
   11f9c:	00012537          	lui	a0,0x12
   11fa0:	08050513          	addi	a0,a0,128 # 12080 <start_output_gif>
   11fa4:	00a4b023          	sd	a0,0(s1)
   11fa8:	04042503          	lw	a0,64(s0)
   11fac:	000125b7          	lui	a1,0x12
   11fb0:	0a858593          	addi	a1,a1,168 # 120a8 <put_pixel_rows>
   11fb4:	00b4b423          	sd	a1,8(s1)
   11fb8:	000125b7          	lui	a1,0x12
   11fbc:	2a858593          	addi	a1,a1,680 # 122a8 <finish_output_gif>
   11fc0:	fff5061b          	addiw	a2,a0,-1
   11fc4:	00b4b823          	sd	a1,16(s1)
   11fc8:	02c97063          	bgeu	s2,a2,11fe8 <jinit_write_gif+0x88>
   11fcc:	00043503          	ld	a0,0(s0)
   11fd0:	00053583          	ld	a1,0(a0)
   11fd4:	3f600613          	li	a2,1014
   11fd8:	02c52423          	sw	a2,40(a0)
   11fdc:	00040513          	mv	a0,s0
   11fe0:	000580e7          	jalr	a1
   11fe4:	04042503          	lw	a0,64(s0)
   11fe8:	01251863          	bne	a0,s2,11ff8 <jinit_write_gif+0x98>
   11fec:	12842503          	lw	a0,296(s0)
   11ff0:	00900593          	li	a1,9
   11ff4:	02b54063          	blt	a0,a1,12014 <jinit_write_gif+0xb4>
   11ff8:	07842503          	lw	a0,120(s0)
   11ffc:	00100593          	li	a1,1
   12000:	10100613          	li	a2,257
   12004:	06b42623          	sw	a1,108(s0)
   12008:	00c54663          	blt	a0,a2,12014 <jinit_write_gif+0xb4>
   1200c:	10000513          	li	a0,256
   12010:	06a42c23          	sw	a0,120(s0)
   12014:	00040513          	mv	a0,s0
   12018:	414030ef          	jal	1542c <jpeg_calc_output_dimensions>
   1201c:	09442503          	lw	a0,148(s0)
   12020:	00100913          	li	s2,1
   12024:	01250e63          	beq	a0,s2,12040 <jinit_write_gif+0xe0>
   12028:	00043503          	ld	a0,0(s0)
   1202c:	00053583          	ld	a1,0(a0)
   12030:	3f400613          	li	a2,1012
   12034:	02c52423          	sw	a2,40(a0)
   12038:	00040513          	mv	a0,s0
   1203c:	000580e7          	jalr	a1
   12040:	00843503          	ld	a0,8(s0)
   12044:	01053703          	ld	a4,16(a0)
   12048:	08842603          	lw	a2,136(s0)
   1204c:	00100593          	li	a1,1
   12050:	00100693          	li	a3,1
   12054:	00040513          	mv	a0,s0
   12058:	000700e7          	jalr	a4
   1205c:	02a4b023          	sd	a0,32(s1)
   12060:	0324a423          	sw	s2,40(s1)
   12064:	00048513          	mv	a0,s1
   12068:	01813083          	ld	ra,24(sp)
   1206c:	01013403          	ld	s0,16(sp)
   12070:	00813483          	ld	s1,8(sp)
   12074:	00013903          	ld	s2,0(sp)
   12078:	02010113          	addi	sp,sp,32
   1207c:	00008067          	ret

0000000000012080 <start_output_gif>:
   12080:	00050613          	mv	a2,a0
   12084:	06c52683          	lw	a3,108(a0)
   12088:	00058513          	mv	a0,a1
   1208c:	00068863          	beqz	a3,1209c <start_output_gif+0x1c>
   12090:	09c62583          	lw	a1,156(a2)
   12094:	0a063603          	ld	a2,160(a2)
   12098:	3f40006f          	j	1248c <emit_header>
   1209c:	10000593          	li	a1,256
   120a0:	00000613          	li	a2,0
   120a4:	3e80006f          	j	1248c <emit_header>

00000000000120a8 <put_pixel_rows>:
   120a8:	fb010113          	addi	sp,sp,-80
   120ac:	04113423          	sd	ra,72(sp)
   120b0:	04813023          	sd	s0,64(sp)
   120b4:	02913c23          	sd	s1,56(sp)
   120b8:	03213823          	sd	s2,48(sp)
   120bc:	03313423          	sd	s3,40(sp)
   120c0:	03413023          	sd	s4,32(sp)
   120c4:	01513c23          	sd	s5,24(sp)
   120c8:	01613823          	sd	s6,16(sp)
   120cc:	01713423          	sd	s7,8(sp)
   120d0:	08852903          	lw	s2,136(a0)
   120d4:	1a090463          	beqz	s2,1227c <put_pixel_rows+0x1d4>
   120d8:	00058413          	mv	s0,a1
   120dc:	0205b503          	ld	a0,32(a1)
   120e0:	00053983          	ld	s3,0(a0)
   120e4:	05c58493          	addi	s1,a1,92
   120e8:	0485a583          	lw	a1,72(a1)
   120ec:	04043503          	ld	a0,64(s0)
   120f0:	00800a13          	li	s4,8
   120f4:	0ff00a93          	li	s5,255
   120f8:	02500b13          	li	s6,37
   120fc:	00f00b93          	li	s7,15
   12100:	0180006f          	j	12118 <put_pixel_rows+0x70>
   12104:	00160613          	addi	a2,a2,1
   12108:	00198993          	addi	s3,s3,1
   1210c:	fff9091b          	addiw	s2,s2,-1
   12110:	04c42a23          	sw	a2,84(s0)
   12114:	16090463          	beqz	s2,1227c <put_pixel_rows+0x1d4>
   12118:	0009c603          	lbu	a2,0(s3)
   1211c:	03842683          	lw	a3,56(s0)
   12120:	00b61633          	sll	a2,a2,a1
   12124:	00a66533          	or	a0,a2,a0
   12128:	04a43023          	sd	a0,64(s0)
   1212c:	00b685bb          	addw	a1,a3,a1
   12130:	04b42423          	sw	a1,72(s0)
   12134:	0945c263          	blt	a1,s4,121b8 <put_pixel_rows+0x110>
   12138:	05842703          	lw	a4,88(s0)
   1213c:	0280006f          	j	12164 <put_pixel_rows+0xbc>
   12140:	00000713          	li	a4,0
   12144:	04042c23          	sw	zero,88(s0)
   12148:	04043503          	ld	a0,64(s0)
   1214c:	04842603          	lw	a2,72(s0)
   12150:	40855513          	srai	a0,a0,0x8
   12154:	04a43023          	sd	a0,64(s0)
   12158:	ff860593          	addi	a1,a2,-8
   1215c:	04b42423          	sw	a1,72(s0)
   12160:	04cbdc63          	bge	s7,a2,121b8 <put_pixel_rows+0x110>
   12164:	0017071b          	addiw	a4,a4,1
   12168:	04e42c23          	sw	a4,88(s0)
   1216c:	00e48733          	add	a4,s1,a4
   12170:	00a70023          	sb	a0,0(a4)
   12174:	05842703          	lw	a4,88(s0)
   12178:	fd5748e3          	blt	a4,s5,12148 <put_pixel_rows+0xa0>
   1217c:	01843683          	ld	a3,24(s0)
   12180:	0017061b          	addiw	a2,a4,1
   12184:	04c42c23          	sw	a2,88(s0)
   12188:	04e40e23          	sb	a4,92(s0)
   1218c:	00100593          	li	a1,1
   12190:	00048513          	mv	a0,s1
   12194:	99dfe0ef          	jal	10b30 <fwrite@plt>
   12198:	05842583          	lw	a1,88(s0)
   1219c:	fab502e3          	beq	a0,a1,12140 <put_pixel_rows+0x98>
   121a0:	03043503          	ld	a0,48(s0)
   121a4:	00053583          	ld	a1,0(a0)
   121a8:	0005b603          	ld	a2,0(a1)
   121ac:	0365a423          	sw	s6,40(a1)
   121b0:	000600e7          	jalr	a2
   121b4:	f8dff06f          	j	12140 <put_pixel_rows+0x98>
   121b8:	05442603          	lw	a2,84(s0)
   121bc:	03c42683          	lw	a3,60(s0)
   121c0:	f4d642e3          	blt	a2,a3,12104 <put_pixel_rows+0x5c>
   121c4:	04c42603          	lw	a2,76(s0)
   121c8:	03842683          	lw	a3,56(s0)
   121cc:	00b61733          	sll	a4,a2,a1
   121d0:	00a76533          	or	a0,a4,a0
   121d4:	04a43023          	sd	a0,64(s0)
   121d8:	00b685bb          	addw	a1,a3,a1
   121dc:	04b42423          	sw	a1,72(s0)
   121e0:	0945c463          	blt	a1,s4,12268 <put_pixel_rows+0x1c0>
   121e4:	05842703          	lw	a4,88(s0)
   121e8:	0280006f          	j	12210 <put_pixel_rows+0x168>
   121ec:	00000713          	li	a4,0
   121f0:	04042c23          	sw	zero,88(s0)
   121f4:	04043503          	ld	a0,64(s0)
   121f8:	04842603          	lw	a2,72(s0)
   121fc:	40855513          	srai	a0,a0,0x8
   12200:	04a43023          	sd	a0,64(s0)
   12204:	ff860593          	addi	a1,a2,-8
   12208:	04b42423          	sw	a1,72(s0)
   1220c:	04cbdc63          	bge	s7,a2,12264 <put_pixel_rows+0x1bc>
   12210:	0017071b          	addiw	a4,a4,1
   12214:	04e42c23          	sw	a4,88(s0)
   12218:	00e48733          	add	a4,s1,a4
   1221c:	00a70023          	sb	a0,0(a4)
   12220:	05842703          	lw	a4,88(s0)
   12224:	fd5748e3          	blt	a4,s5,121f4 <put_pixel_rows+0x14c>
   12228:	01843683          	ld	a3,24(s0)
   1222c:	0017061b          	addiw	a2,a4,1
   12230:	04c42c23          	sw	a2,88(s0)
   12234:	04e40e23          	sb	a4,92(s0)
   12238:	00100593          	li	a1,1
   1223c:	00048513          	mv	a0,s1
   12240:	8f1fe0ef          	jal	10b30 <fwrite@plt>
   12244:	05842583          	lw	a1,88(s0)
   12248:	fab502e3          	beq	a0,a1,121ec <put_pixel_rows+0x144>
   1224c:	03043503          	ld	a0,48(s0)
   12250:	00053583          	ld	a1,0(a0)
   12254:	0005b603          	ld	a2,0(a1)
   12258:	0365a423          	sw	s6,40(a1)
   1225c:	000600e7          	jalr	a2
   12260:	f8dff06f          	j	121ec <put_pixel_rows+0x144>
   12264:	04c42603          	lw	a2,76(s0)
   12268:	00260613          	addi	a2,a2,2
   1226c:	00198993          	addi	s3,s3,1
   12270:	fff9091b          	addiw	s2,s2,-1
   12274:	04c42a23          	sw	a2,84(s0)
   12278:	ea0910e3          	bnez	s2,12118 <put_pixel_rows+0x70>
   1227c:	04813083          	ld	ra,72(sp)
   12280:	04013403          	ld	s0,64(sp)
   12284:	03813483          	ld	s1,56(sp)
   12288:	03013903          	ld	s2,48(sp)
   1228c:	02813983          	ld	s3,40(sp)
   12290:	02013a03          	ld	s4,32(sp)
   12294:	01813a83          	ld	s5,24(sp)
   12298:	01013b03          	ld	s6,16(sp)
   1229c:	00813b83          	ld	s7,8(sp)
   122a0:	05010113          	addi	sp,sp,80
   122a4:	00008067          	ret

00000000000122a8 <finish_output_gif>:
   122a8:	fc010113          	addi	sp,sp,-64
   122ac:	02113c23          	sd	ra,56(sp)
   122b0:	02813823          	sd	s0,48(sp)
   122b4:	02913423          	sd	s1,40(sp)
   122b8:	03213023          	sd	s2,32(sp)
   122bc:	01313c23          	sd	s3,24(sp)
   122c0:	01413823          	sd	s4,16(sp)
   122c4:	01513423          	sd	s5,8(sp)
   122c8:	00058493          	mv	s1,a1
   122cc:	0505a583          	lw	a1,80(a1)
   122d0:	0484a603          	lw	a2,72(s1)
   122d4:	0404b683          	ld	a3,64(s1)
   122d8:	00050413          	mv	s0,a0
   122dc:	0384a703          	lw	a4,56(s1)
   122e0:	00c59533          	sll	a0,a1,a2
   122e4:	00d56533          	or	a0,a0,a3
   122e8:	04a4b023          	sd	a0,64(s1)
   122ec:	00c7063b          	addw	a2,a4,a2
   122f0:	04c4a423          	sw	a2,72(s1)
   122f4:	00800593          	li	a1,8
   122f8:	05c48913          	addi	s2,s1,92
   122fc:	08b64863          	blt	a2,a1,1238c <finish_output_gif+0xe4>
   12300:	0584a583          	lw	a1,88(s1)
   12304:	0ff00993          	li	s3,255
   12308:	02500a13          	li	s4,37
   1230c:	00f00a93          	li	s5,15
   12310:	0280006f          	j	12338 <finish_output_gif+0x90>
   12314:	00000593          	li	a1,0
   12318:	0404ac23          	sw	zero,88(s1)
   1231c:	0404b503          	ld	a0,64(s1)
   12320:	0484a683          	lw	a3,72(s1)
   12324:	40855513          	srai	a0,a0,0x8
   12328:	04a4b023          	sd	a0,64(s1)
   1232c:	ff86861b          	addiw	a2,a3,-8
   12330:	04c4a423          	sw	a2,72(s1)
   12334:	04dadc63          	bge	s5,a3,1238c <finish_output_gif+0xe4>
   12338:	0015859b          	addiw	a1,a1,1
   1233c:	04b4ac23          	sw	a1,88(s1)
   12340:	00b905b3          	add	a1,s2,a1
   12344:	00a58023          	sb	a0,0(a1)
   12348:	0584a583          	lw	a1,88(s1)
   1234c:	fd35c8e3          	blt	a1,s3,1231c <finish_output_gif+0x74>
   12350:	0184b683          	ld	a3,24(s1)
   12354:	0015861b          	addiw	a2,a1,1
   12358:	04c4ac23          	sw	a2,88(s1)
   1235c:	04b48e23          	sb	a1,92(s1)
   12360:	00100593          	li	a1,1
   12364:	00090513          	mv	a0,s2
   12368:	fc8fe0ef          	jal	10b30 <fwrite@plt>
   1236c:	0584a583          	lw	a1,88(s1)
   12370:	fab502e3          	beq	a0,a1,12314 <finish_output_gif+0x6c>
   12374:	0304b503          	ld	a0,48(s1)
   12378:	00053583          	ld	a1,0(a0)
   1237c:	0005b603          	ld	a2,0(a1)
   12380:	0345a423          	sw	s4,40(a1)
   12384:	000600e7          	jalr	a2
   12388:	f8dff06f          	j	12314 <finish_output_gif+0x6c>
   1238c:	05848993          	addi	s3,s1,88
   12390:	02c05663          	blez	a2,123bc <finish_output_gif+0x114>
   12394:	0584a583          	lw	a1,88(s1)
   12398:	0015859b          	addiw	a1,a1,1
   1239c:	04b4ac23          	sw	a1,88(s1)
   123a0:	00b905b3          	add	a1,s2,a1
   123a4:	00a58023          	sb	a0,0(a1)
   123a8:	0584a503          	lw	a0,88(s1)
   123ac:	0ff00593          	li	a1,255
   123b0:	00b55a63          	bge	a0,a1,123c4 <finish_output_gif+0x11c>
   123b4:	00a04863          	bgtz	a0,123c4 <finish_output_gif+0x11c>
   123b8:	04c0006f          	j	12404 <finish_output_gif+0x15c>
   123bc:	0584a503          	lw	a0,88(s1)
   123c0:	04a05263          	blez	a0,12404 <finish_output_gif+0x15c>
   123c4:	0184b683          	ld	a3,24(s1)
   123c8:	0015061b          	addiw	a2,a0,1
   123cc:	04c4ac23          	sw	a2,88(s1)
   123d0:	04a48e23          	sb	a0,92(s1)
   123d4:	00100593          	li	a1,1
   123d8:	00090513          	mv	a0,s2
   123dc:	f54fe0ef          	jal	10b30 <fwrite@plt>
   123e0:	0584a583          	lw	a1,88(s1)
   123e4:	00b50e63          	beq	a0,a1,12400 <finish_output_gif+0x158>
   123e8:	0304b503          	ld	a0,48(s1)
   123ec:	00053583          	ld	a1,0(a0)
   123f0:	0005b603          	ld	a2,0(a1)
   123f4:	02500693          	li	a3,37
   123f8:	02d5a423          	sw	a3,40(a1)
   123fc:	000600e7          	jalr	a2
   12400:	0009a023          	sw	zero,0(s3)
   12404:	0184b583          	ld	a1,24(s1)
   12408:	00000513          	li	a0,0
   1240c:	fa4fe0ef          	jal	10bb0 <putc@plt>
   12410:	0184b583          	ld	a1,24(s1)
   12414:	03b00513          	li	a0,59
   12418:	f98fe0ef          	jal	10bb0 <putc@plt>
   1241c:	0184b503          	ld	a0,24(s1)
   12420:	f60fe0ef          	jal	10b80 <fflush@plt>
   12424:	0184b503          	ld	a0,24(s1)
   12428:	819fe0ef          	jal	10c40 <ferror@plt>
   1242c:	02050e63          	beqz	a0,12468 <finish_output_gif+0x1c0>
   12430:	00043503          	ld	a0,0(s0)
   12434:	00053303          	ld	t1,0(a0)
   12438:	02500593          	li	a1,37
   1243c:	02b52423          	sw	a1,40(a0)
   12440:	00040513          	mv	a0,s0
   12444:	03813083          	ld	ra,56(sp)
   12448:	03013403          	ld	s0,48(sp)
   1244c:	02813483          	ld	s1,40(sp)
   12450:	02013903          	ld	s2,32(sp)
   12454:	01813983          	ld	s3,24(sp)
   12458:	01013a03          	ld	s4,16(sp)
   1245c:	00813a83          	ld	s5,8(sp)
   12460:	04010113          	addi	sp,sp,64
   12464:	00030067          	jr	t1
   12468:	03813083          	ld	ra,56(sp)
   1246c:	03013403          	ld	s0,48(sp)
   12470:	02813483          	ld	s1,40(sp)
   12474:	02013903          	ld	s2,32(sp)
   12478:	01813983          	ld	s3,24(sp)
   1247c:	01013a03          	ld	s4,16(sp)
   12480:	00813a83          	ld	s5,8(sp)
   12484:	04010113          	addi	sp,sp,64
   12488:	00008067          	ret

000000000001248c <emit_header>:
   1248c:	fa010113          	addi	sp,sp,-96
   12490:	04113c23          	sd	ra,88(sp)
   12494:	04813823          	sd	s0,80(sp)
   12498:	04913423          	sd	s1,72(sp)
   1249c:	05213023          	sd	s2,64(sp)
   124a0:	03313c23          	sd	s3,56(sp)
   124a4:	03413823          	sd	s4,48(sp)
   124a8:	03513423          	sd	s5,40(sp)
   124ac:	03613023          	sd	s6,32(sp)
   124b0:	01713c23          	sd	s7,24(sp)
   124b4:	01813823          	sd	s8,16(sp)
   124b8:	01913423          	sd	s9,8(sp)
   124bc:	01a13023          	sd	s10,0(sp)
   124c0:	00050413          	mv	s0,a0
   124c4:	03053503          	ld	a0,48(a0)
   124c8:	12852b83          	lw	s7,296(a0)
   124cc:	10100693          	li	a3,257
   124d0:	00060993          	mv	s3,a2
   124d4:	00058913          	mv	s2,a1
   124d8:	02d5c263          	blt	a1,a3,124fc <emit_header+0x70>
   124dc:	00053583          	ld	a1,0(a0)
   124e0:	0325a623          	sw	s2,44(a1)
   124e4:	03043503          	ld	a0,48(s0)
   124e8:	00053603          	ld	a2,0(a0)
   124ec:	00063603          	ld	a2,0(a2)
   124f0:	40f00693          	li	a3,1039
   124f4:	02d5a423          	sw	a3,40(a1)
   124f8:	000600e7          	jalr	a2
   124fc:	ff8b8b93          	addi	s7,s7,-8
   12500:	00100513          	li	a0,1
   12504:	ff000c13          	li	s8,-16
   12508:	00100a13          	li	s4,1
   1250c:	01451b3b          	sllw	s6,a0,s4
   12510:	001a0a1b          	addiw	s4,s4,1
   12514:	010c0c1b          	addiw	s8,s8,16
   12518:	ff2b4ae3          	blt	s6,s2,1250c <emit_header+0x80>
   1251c:	fffa0a9b          	addiw	s5,s4,-1
   12520:	00200513          	li	a0,2
   12524:	000a8493          	mv	s1,s5
   12528:	01556463          	bltu	a0,s5,12530 <emit_header+0xa4>
   1252c:	00200493          	li	s1,2
   12530:	01843583          	ld	a1,24(s0)
   12534:	04700513          	li	a0,71
   12538:	e78fe0ef          	jal	10bb0 <putc@plt>
   1253c:	01843583          	ld	a1,24(s0)
   12540:	04900513          	li	a0,73
   12544:	e6cfe0ef          	jal	10bb0 <putc@plt>
   12548:	01843583          	ld	a1,24(s0)
   1254c:	04600513          	li	a0,70
   12550:	e60fe0ef          	jal	10bb0 <putc@plt>
   12554:	01843583          	ld	a1,24(s0)
   12558:	03800513          	li	a0,56
   1255c:	e54fe0ef          	jal	10bb0 <putc@plt>
   12560:	01843583          	ld	a1,24(s0)
   12564:	03700513          	li	a0,55
   12568:	e48fe0ef          	jal	10bb0 <putc@plt>
   1256c:	01843583          	ld	a1,24(s0)
   12570:	06100513          	li	a0,97
   12574:	e3cfe0ef          	jal	10bb0 <putc@plt>
   12578:	03043503          	ld	a0,48(s0)
   1257c:	08852c83          	lw	s9,136(a0)
   12580:	01843583          	ld	a1,24(s0)
   12584:	0ffcf513          	zext.b	a0,s9
   12588:	e28fe0ef          	jal	10bb0 <putc@plt>
   1258c:	01843583          	ld	a1,24(s0)
   12590:	030c9513          	slli	a0,s9,0x30
   12594:	03855513          	srli	a0,a0,0x38
   12598:	e18fe0ef          	jal	10bb0 <putc@plt>
   1259c:	03043503          	ld	a0,48(s0)
   125a0:	08c52c83          	lw	s9,140(a0)
   125a4:	01843583          	ld	a1,24(s0)
   125a8:	0ffcf513          	zext.b	a0,s9
   125ac:	e04fe0ef          	jal	10bb0 <putc@plt>
   125b0:	01843583          	ld	a1,24(s0)
   125b4:	030c9513          	slli	a0,s9,0x30
   125b8:	03855513          	srli	a0,a0,0x38
   125bc:	df4fe0ef          	jal	10bb0 <putc@plt>
   125c0:	01843583          	ld	a1,24(s0)
   125c4:	ffea051b          	addiw	a0,s4,-2
   125c8:	01856533          	or	a0,a0,s8
   125cc:	08056513          	ori	a0,a0,128
   125d0:	de0fe0ef          	jal	10bb0 <putc@plt>
   125d4:	01843583          	ld	a1,24(s0)
   125d8:	00000513          	li	a0,0
   125dc:	dd4fe0ef          	jal	10bb0 <putc@plt>
   125e0:	01843583          	ld	a1,24(s0)
   125e4:	00000513          	li	a0,0
   125e8:	dc8fe0ef          	jal	10bb0 <putc@plt>
   125ec:	02000513          	li	a0,32
   125f0:	1aaa1863          	bne	s4,a0,127a0 <emit_header+0x314>
   125f4:	01843583          	ld	a1,24(s0)
   125f8:	02c00513          	li	a0,44
   125fc:	db4fe0ef          	jal	10bb0 <putc@plt>
   12600:	01843583          	ld	a1,24(s0)
   12604:	00000513          	li	a0,0
   12608:	da8fe0ef          	jal	10bb0 <putc@plt>
   1260c:	01843583          	ld	a1,24(s0)
   12610:	00000513          	li	a0,0
   12614:	d9cfe0ef          	jal	10bb0 <putc@plt>
   12618:	01843583          	ld	a1,24(s0)
   1261c:	00000513          	li	a0,0
   12620:	d90fe0ef          	jal	10bb0 <putc@plt>
   12624:	01843583          	ld	a1,24(s0)
   12628:	00000513          	li	a0,0
   1262c:	d84fe0ef          	jal	10bb0 <putc@plt>
   12630:	03043503          	ld	a0,48(s0)
   12634:	08852903          	lw	s2,136(a0)
   12638:	01843583          	ld	a1,24(s0)
   1263c:	0ff97513          	zext.b	a0,s2
   12640:	d70fe0ef          	jal	10bb0 <putc@plt>
   12644:	01843583          	ld	a1,24(s0)
   12648:	03091513          	slli	a0,s2,0x30
   1264c:	03855513          	srli	a0,a0,0x38
   12650:	d60fe0ef          	jal	10bb0 <putc@plt>
   12654:	03043503          	ld	a0,48(s0)
   12658:	08c52903          	lw	s2,140(a0)
   1265c:	01843583          	ld	a1,24(s0)
   12660:	0ff97513          	zext.b	a0,s2
   12664:	d4cfe0ef          	jal	10bb0 <putc@plt>
   12668:	01843583          	ld	a1,24(s0)
   1266c:	03091513          	slli	a0,s2,0x30
   12670:	03855513          	srli	a0,a0,0x38
   12674:	d3cfe0ef          	jal	10bb0 <putc@plt>
   12678:	01843583          	ld	a1,24(s0)
   1267c:	00000513          	li	a0,0
   12680:	d30fe0ef          	jal	10bb0 <putc@plt>
   12684:	01843583          	ld	a1,24(s0)
   12688:	00048513          	mv	a0,s1
   1268c:	d24fe0ef          	jal	10bb0 <putc@plt>
   12690:	00148593          	addi	a1,s1,1
   12694:	02b42c23          	sw	a1,56(s0)
   12698:	ffe00513          	li	a0,-2
   1269c:	0095153b          	sllw	a0,a0,s1
   126a0:	fff54513          	not	a0,a0
   126a4:	02a42e23          	sw	a0,60(s0)
   126a8:	00100513          	li	a0,1
   126ac:	0095153b          	sllw	a0,a0,s1
   126b0:	04a42623          	sw	a0,76(s0)
   126b4:	00150613          	addi	a2,a0,1
   126b8:	04c42823          	sw	a2,80(s0)
   126bc:	00250613          	addi	a2,a0,2
   126c0:	04c42a23          	sw	a2,84(s0)
   126c4:	04042c23          	sw	zero,88(s0)
   126c8:	04a43023          	sd	a0,64(s0)
   126cc:	00700613          	li	a2,7
   126d0:	04b42423          	sw	a1,72(s0)
   126d4:	08caea63          	bltu	s5,a2,12768 <emit_header+0x2dc>
   126d8:	00000593          	li	a1,0
   126dc:	05c40493          	addi	s1,s0,92
   126e0:	0ff00913          	li	s2,255
   126e4:	02500993          	li	s3,37
   126e8:	00f00a13          	li	s4,15
   126ec:	0280006f          	j	12714 <emit_header+0x288>
   126f0:	00000593          	li	a1,0
   126f4:	04042c23          	sw	zero,88(s0)
   126f8:	04043503          	ld	a0,64(s0)
   126fc:	04842603          	lw	a2,72(s0)
   12700:	40855513          	srai	a0,a0,0x8
   12704:	04a43023          	sd	a0,64(s0)
   12708:	ff860693          	addi	a3,a2,-8
   1270c:	04d42423          	sw	a3,72(s0)
   12710:	04ca5c63          	bge	s4,a2,12768 <emit_header+0x2dc>
   12714:	0015859b          	addiw	a1,a1,1
   12718:	04b42c23          	sw	a1,88(s0)
   1271c:	00b485b3          	add	a1,s1,a1
   12720:	00a58023          	sb	a0,0(a1)
   12724:	05842583          	lw	a1,88(s0)
   12728:	fd25c8e3          	blt	a1,s2,126f8 <emit_header+0x26c>
   1272c:	01843683          	ld	a3,24(s0)
   12730:	0015861b          	addiw	a2,a1,1
   12734:	04c42c23          	sw	a2,88(s0)
   12738:	04b40e23          	sb	a1,92(s0)
   1273c:	00100593          	li	a1,1
   12740:	00048513          	mv	a0,s1
   12744:	becfe0ef          	jal	10b30 <fwrite@plt>
   12748:	05842583          	lw	a1,88(s0)
   1274c:	fab502e3          	beq	a0,a1,126f0 <emit_header+0x264>
   12750:	03043503          	ld	a0,48(s0)
   12754:	00053583          	ld	a1,0(a0)
   12758:	0005b603          	ld	a2,0(a1)
   1275c:	0335a423          	sw	s3,40(a1)
   12760:	000600e7          	jalr	a2
   12764:	f8dff06f          	j	126f0 <emit_header+0x264>
   12768:	05813083          	ld	ra,88(sp)
   1276c:	05013403          	ld	s0,80(sp)
   12770:	04813483          	ld	s1,72(sp)
   12774:	04013903          	ld	s2,64(sp)
   12778:	03813983          	ld	s3,56(sp)
   1277c:	03013a03          	ld	s4,48(sp)
   12780:	02813a83          	ld	s5,40(sp)
   12784:	02013b03          	ld	s6,32(sp)
   12788:	01813b83          	ld	s7,24(sp)
   1278c:	01013c03          	ld	s8,16(sp)
   12790:	00813c83          	ld	s9,8(sp)
   12794:	00013d03          	ld	s10,0(sp)
   12798:	06010113          	addi	sp,sp,96
   1279c:	00008067          	ret
   127a0:	0a098863          	beqz	s3,12850 <emit_header+0x3c4>
   127a4:	01604463          	bgtz	s6,127ac <emit_header+0x320>
   127a8:	00100b13          	li	s6,1
   127ac:	00000c13          	li	s8,0
   127b0:	00200c93          	li	s9,2
   127b4:	0340006f          	j	127e8 <emit_header+0x35c>
   127b8:	01843583          	ld	a1,24(s0)
   127bc:	00000513          	li	a0,0
   127c0:	bf0fe0ef          	jal	10bb0 <putc@plt>
   127c4:	01843583          	ld	a1,24(s0)
   127c8:	00000513          	li	a0,0
   127cc:	be4fe0ef          	jal	10bb0 <putc@plt>
   127d0:	00000a13          	li	s4,0
   127d4:	01843583          	ld	a1,24(s0)
   127d8:	000a0513          	mv	a0,s4
   127dc:	bd4fe0ef          	jal	10bb0 <putc@plt>
   127e0:	001c0c13          	addi	s8,s8,1
   127e4:	e18b08e3          	beq	s6,s8,125f4 <emit_header+0x168>
   127e8:	fd2c58e3          	bge	s8,s2,127b8 <emit_header+0x32c>
   127ec:	03043503          	ld	a0,48(s0)
   127f0:	0009b583          	ld	a1,0(s3)
   127f4:	04052d03          	lw	s10,64(a0)
   127f8:	018585b3          	add	a1,a1,s8
   127fc:	0005c503          	lbu	a0,0(a1)
   12800:	01843583          	ld	a1,24(s0)
   12804:	01755a3b          	srlw	s4,a0,s7
   12808:	000a0513          	mv	a0,s4
   1280c:	ba4fe0ef          	jal	10bb0 <putc@plt>
   12810:	039d1863          	bne	s10,s9,12840 <emit_header+0x3b4>
   12814:	0089b503          	ld	a0,8(s3)
   12818:	01850533          	add	a0,a0,s8
   1281c:	00054503          	lbu	a0,0(a0)
   12820:	01843583          	ld	a1,24(s0)
   12824:	0175553b          	srlw	a0,a0,s7
   12828:	b88fe0ef          	jal	10bb0 <putc@plt>
   1282c:	0109b503          	ld	a0,16(s3)
   12830:	01850533          	add	a0,a0,s8
   12834:	00054503          	lbu	a0,0(a0)
   12838:	01755a3b          	srlw	s4,a0,s7
   1283c:	f99ff06f          	j	127d4 <emit_header+0x348>
   12840:	01843583          	ld	a1,24(s0)
   12844:	000a0513          	mv	a0,s4
   12848:	b68fe0ef          	jal	10bb0 <putc@plt>
   1284c:	f89ff06f          	j	127d4 <emit_header+0x348>
   12850:	fff90a13          	addi	s4,s2,-1
   12854:	01fa551b          	srliw	a0,s4,0x1f
   12858:	00aa0533          	add	a0,s4,a0
   1285c:	01604463          	bgtz	s6,12864 <emit_header+0x3d8>
   12860:	00100b13          	li	s6,1
   12864:	00000b93          	li	s7,0
   12868:	40155c1b          	sraiw	s8,a0,0x1
   1286c:	0380006f          	j	128a4 <emit_header+0x418>
   12870:	034c49bb          	divw	s3,s8,s4
   12874:	01843583          	ld	a1,24(s0)
   12878:	00098513          	mv	a0,s3
   1287c:	b34fe0ef          	jal	10bb0 <putc@plt>
   12880:	01843583          	ld	a1,24(s0)
   12884:	00098513          	mv	a0,s3
   12888:	b28fe0ef          	jal	10bb0 <putc@plt>
   1288c:	01843583          	ld	a1,24(s0)
   12890:	00098513          	mv	a0,s3
   12894:	b1cfe0ef          	jal	10bb0 <putc@plt>
   12898:	001b8b9b          	addiw	s7,s7,1
   1289c:	0ffc0c13          	addi	s8,s8,255
   128a0:	d57b0ae3          	beq	s6,s7,125f4 <emit_header+0x168>
   128a4:	fd2bc6e3          	blt	s7,s2,12870 <emit_header+0x3e4>
   128a8:	00000993          	li	s3,0
   128ac:	fc9ff06f          	j	12874 <emit_header+0x3e8>

00000000000128b0 <jinit_write_targa>:
   128b0:	fe010113          	addi	sp,sp,-32
   128b4:	00113c23          	sd	ra,24(sp)
   128b8:	00813823          	sd	s0,16(sp)
   128bc:	00913423          	sd	s1,8(sp)
   128c0:	01213023          	sd	s2,0(sp)
   128c4:	00050413          	mv	s0,a0
   128c8:	00853503          	ld	a0,8(a0)
   128cc:	00053683          	ld	a3,0(a0)
   128d0:	00100593          	li	a1,1
   128d4:	04000613          	li	a2,64
   128d8:	00100913          	li	s2,1
   128dc:	00040513          	mv	a0,s0
   128e0:	000680e7          	jalr	a3
   128e4:	00050493          	mv	s1,a0
   128e8:	00013537          	lui	a0,0x13
   128ec:	97850513          	addi	a0,a0,-1672 # 12978 <start_output_tga>
   128f0:	00a4b023          	sd	a0,0(s1)
   128f4:	00013537          	lui	a0,0x13
   128f8:	c8450513          	addi	a0,a0,-892 # 12c84 <finish_output_tga>
   128fc:	00a4b823          	sd	a0,16(s1)
   12900:	00040513          	mv	a0,s0
   12904:	329020ef          	jal	1542c <jpeg_calc_output_dimensions>
   12908:	08842503          	lw	a0,136(s0)
   1290c:	09442583          	lw	a1,148(s0)
   12910:	00843603          	ld	a2,8(s0)
   12914:	02a58533          	mul	a0,a1,a0
   12918:	00063683          	ld	a3,0(a2)
   1291c:	02a4ac23          	sw	a0,56(s1)
   12920:	02051513          	slli	a0,a0,0x20
   12924:	02055613          	srli	a2,a0,0x20
   12928:	00100593          	li	a1,1
   1292c:	00040513          	mv	a0,s0
   12930:	000680e7          	jalr	a3
   12934:	00843583          	ld	a1,8(s0)
   12938:	0105b703          	ld	a4,16(a1)
   1293c:	0384a603          	lw	a2,56(s1)
   12940:	02a4b823          	sd	a0,48(s1)
   12944:	00100593          	li	a1,1
   12948:	00100693          	li	a3,1
   1294c:	00040513          	mv	a0,s0
   12950:	000700e7          	jalr	a4
   12954:	02a4b023          	sd	a0,32(s1)
   12958:	0324a423          	sw	s2,40(s1)
   1295c:	00048513          	mv	a0,s1
   12960:	01813083          	ld	ra,24(sp)
   12964:	01013403          	ld	s0,16(sp)
   12968:	00813483          	ld	s1,8(sp)
   1296c:	00013903          	ld	s2,0(sp)
   12970:	02010113          	addi	sp,sp,32
   12974:	00008067          	ret

0000000000012978 <start_output_tga>:
   12978:	fb010113          	addi	sp,sp,-80
   1297c:	04113423          	sd	ra,72(sp)
   12980:	04813023          	sd	s0,64(sp)
   12984:	02913c23          	sd	s1,56(sp)
   12988:	03213823          	sd	s2,48(sp)
   1298c:	03313423          	sd	s3,40(sp)
   12990:	03413023          	sd	s4,32(sp)
   12994:	00050493          	mv	s1,a0
   12998:	04052503          	lw	a0,64(a0)
   1299c:	00200613          	li	a2,2
   129a0:	00058413          	mv	s0,a1
   129a4:	08c50863          	beq	a0,a2,12a34 <start_output_tga+0xbc>
   129a8:	00100593          	li	a1,1
   129ac:	0cb51c63          	bne	a0,a1,12a84 <start_output_tga+0x10c>
   129b0:	0884a503          	lw	a0,136(s1)
   129b4:	00013423          	sd	zero,8(sp)
   129b8:	00012823          	sw	zero,16(sp)
   129bc:	08c4a583          	lw	a1,140(s1)
   129c0:	00a10a23          	sb	a0,20(sp)
   129c4:	00855513          	srli	a0,a0,0x8
   129c8:	00a10aa3          	sb	a0,21(sp)
   129cc:	00b10b23          	sb	a1,22(sp)
   129d0:	0085d593          	srli	a1,a1,0x8
   129d4:	00b10ba3          	sb	a1,23(sp)
   129d8:	00300513          	li	a0,3
   129dc:	00a10523          	sb	a0,10(sp)
   129e0:	01843683          	ld	a3,24(s0)
   129e4:	00002537          	lui	a0,0x2
   129e8:	00850513          	addi	a0,a0,8 # 2008 <__abi_tag-0xe28c>
   129ec:	00a11c23          	sh	a0,24(sp)
   129f0:	00810513          	addi	a0,sp,8
   129f4:	00100593          	li	a1,1
   129f8:	01200613          	li	a2,18
   129fc:	01200913          	li	s2,18
   12a00:	930fe0ef          	jal	10b30 <fwrite@plt>
   12a04:	01250e63          	beq	a0,s2,12a20 <start_output_tga+0xa8>
   12a08:	0004b503          	ld	a0,0(s1)
   12a0c:	00053583          	ld	a1,0(a0)
   12a10:	02500613          	li	a2,37
   12a14:	02c52423          	sw	a2,40(a0)
   12a18:	00048513          	mv	a0,s1
   12a1c:	000580e7          	jalr	a1
   12a20:	06c4a503          	lw	a0,108(s1)
   12a24:	22050a63          	beqz	a0,12c58 <start_output_tga+0x2e0>
   12a28:	00013537          	lui	a0,0x13
   12a2c:	cf050513          	addi	a0,a0,-784 # 12cf0 <put_demapped_gray>
   12a30:	2300006f          	j	12c60 <start_output_tga+0x2e8>
   12a34:	06c4a503          	lw	a0,108(s1)
   12a38:	08050063          	beqz	a0,12ab8 <start_output_tga+0x140>
   12a3c:	09c4a983          	lw	s3,156(s1)
   12a40:	10100513          	li	a0,257
   12a44:	0ea9c863          	blt	s3,a0,12b34 <start_output_tga+0x1bc>
   12a48:	0004b503          	ld	a0,0(s1)
   12a4c:	40f00593          	li	a1,1039
   12a50:	02b52423          	sw	a1,40(a0)
   12a54:	03352623          	sw	s3,44(a0)
   12a58:	0004b503          	ld	a0,0(s1)
   12a5c:	00053583          	ld	a1,0(a0)
   12a60:	00048513          	mv	a0,s1
   12a64:	000580e7          	jalr	a1
   12a68:	0404a503          	lw	a0,64(s1)
   12a6c:	00010c23          	sb	zero,24(sp)
   12a70:	00013823          	sd	zero,16(sp)
   12a74:	00013423          	sd	zero,8(sp)
   12a78:	fff50513          	addi	a0,a0,-1
   12a7c:	00153613          	seqz	a2,a0
   12a80:	0d00006f          	j	12b50 <start_output_tga+0x1d8>
   12a84:	0004b503          	ld	a0,0(s1)
   12a88:	00053303          	ld	t1,0(a0)
   12a8c:	40a00593          	li	a1,1034
   12a90:	02b52423          	sw	a1,40(a0)
   12a94:	00048513          	mv	a0,s1
   12a98:	04813083          	ld	ra,72(sp)
   12a9c:	04013403          	ld	s0,64(sp)
   12aa0:	03813483          	ld	s1,56(sp)
   12aa4:	03013903          	ld	s2,48(sp)
   12aa8:	02813983          	ld	s3,40(sp)
   12aac:	02013a03          	ld	s4,32(sp)
   12ab0:	05010113          	addi	sp,sp,80
   12ab4:	00030067          	jr	t1
   12ab8:	0884a503          	lw	a0,136(s1)
   12abc:	00013423          	sd	zero,8(sp)
   12ac0:	00012823          	sw	zero,16(sp)
   12ac4:	08c4a583          	lw	a1,140(s1)
   12ac8:	00a10a23          	sb	a0,20(sp)
   12acc:	00855513          	srli	a0,a0,0x8
   12ad0:	00a10aa3          	sb	a0,21(sp)
   12ad4:	00b10b23          	sb	a1,22(sp)
   12ad8:	0085d593          	srli	a1,a1,0x8
   12adc:	00b10ba3          	sb	a1,23(sp)
   12ae0:	00200513          	li	a0,2
   12ae4:	00a10523          	sb	a0,10(sp)
   12ae8:	01843683          	ld	a3,24(s0)
   12aec:	00002537          	lui	a0,0x2
   12af0:	01850513          	addi	a0,a0,24 # 2018 <__abi_tag-0xe27c>
   12af4:	00a11c23          	sh	a0,24(sp)
   12af8:	00810513          	addi	a0,sp,8
   12afc:	00100593          	li	a1,1
   12b00:	01200613          	li	a2,18
   12b04:	01200913          	li	s2,18
   12b08:	828fe0ef          	jal	10b30 <fwrite@plt>
   12b0c:	01250e63          	beq	a0,s2,12b28 <start_output_tga+0x1b0>
   12b10:	0004b503          	ld	a0,0(s1)
   12b14:	00053583          	ld	a1,0(a0)
   12b18:	02500613          	li	a2,37
   12b1c:	02c52423          	sw	a2,40(a0)
   12b20:	00048513          	mv	a0,s1
   12b24:	000580e7          	jalr	a1
   12b28:	00013537          	lui	a0,0x13
   12b2c:	db050513          	addi	a0,a0,-592 # 12db0 <put_pixel_rows>
   12b30:	1300006f          	j	12c60 <start_output_tga+0x2e8>
   12b34:	00000613          	li	a2,0
   12b38:	00000593          	li	a1,0
   12b3c:	00000513          	li	a0,0
   12b40:	00010c23          	sb	zero,24(sp)
   12b44:	00013823          	sd	zero,16(sp)
   12b48:	00013423          	sd	zero,8(sp)
   12b4c:	03305263          	blez	s3,12b70 <start_output_tga+0x1f8>
   12b50:	00100513          	li	a0,1
   12b54:	00a104a3          	sb	a0,9(sp)
   12b58:	013106a3          	sb	s3,13(sp)
   12b5c:	0089d593          	srli	a1,s3,0x8
   12b60:	00b10723          	sb	a1,14(sp)
   12b64:	01800593          	li	a1,24
   12b68:	00b107a3          	sb	a1,15(sp)
   12b6c:	00060593          	mv	a1,a2
   12b70:	0884a603          	lw	a2,136(s1)
   12b74:	08c4a683          	lw	a3,140(s1)
   12b78:	00c10a23          	sb	a2,20(sp)
   12b7c:	00865613          	srli	a2,a2,0x8
   12b80:	00c10aa3          	sb	a2,21(sp)
   12b84:	00d10b23          	sb	a3,22(sp)
   12b88:	0086d693          	srli	a3,a3,0x8
   12b8c:	00d10ba3          	sb	a3,23(sp)
   12b90:	02000613          	li	a2,32
   12b94:	00c10ca3          	sb	a2,25(sp)
   12b98:	00058663          	beqz	a1,12ba4 <start_output_tga+0x22c>
   12b9c:	00300513          	li	a0,3
   12ba0:	00c0006f          	j	12bac <start_output_tga+0x234>
   12ba4:	00050a63          	beqz	a0,12bb8 <start_output_tga+0x240>
   12ba8:	00100513          	li	a0,1
   12bac:	00a10523          	sb	a0,10(sp)
   12bb0:	00800513          	li	a0,8
   12bb4:	0100006f          	j	12bc4 <start_output_tga+0x24c>
   12bb8:	00200513          	li	a0,2
   12bbc:	00a10523          	sb	a0,10(sp)
   12bc0:	01800513          	li	a0,24
   12bc4:	00a10c23          	sb	a0,24(sp)
   12bc8:	01843683          	ld	a3,24(s0)
   12bcc:	00810513          	addi	a0,sp,8
   12bd0:	00100593          	li	a1,1
   12bd4:	01200613          	li	a2,18
   12bd8:	01200913          	li	s2,18
   12bdc:	f55fd0ef          	jal	10b30 <fwrite@plt>
   12be0:	01250e63          	beq	a0,s2,12bfc <start_output_tga+0x284>
   12be4:	0004b503          	ld	a0,0(s1)
   12be8:	00053583          	ld	a1,0(a0)
   12bec:	02500613          	li	a2,37
   12bf0:	02c52423          	sw	a2,40(a0)
   12bf4:	00048513          	mv	a0,s1
   12bf8:	000580e7          	jalr	a1
   12bfc:	05305e63          	blez	s3,12c58 <start_output_tga+0x2e0>
   12c00:	01843903          	ld	s2,24(s0)
   12c04:	00000a13          	li	s4,0
   12c08:	0a04b503          	ld	a0,160(s1)
   12c0c:	01053503          	ld	a0,16(a0)
   12c10:	01450533          	add	a0,a0,s4
   12c14:	00054503          	lbu	a0,0(a0)
   12c18:	00090593          	mv	a1,s2
   12c1c:	f95fd0ef          	jal	10bb0 <putc@plt>
   12c20:	0a04b503          	ld	a0,160(s1)
   12c24:	00853503          	ld	a0,8(a0)
   12c28:	01450533          	add	a0,a0,s4
   12c2c:	00054503          	lbu	a0,0(a0)
   12c30:	00090593          	mv	a1,s2
   12c34:	f7dfd0ef          	jal	10bb0 <putc@plt>
   12c38:	0a04b503          	ld	a0,160(s1)
   12c3c:	00053503          	ld	a0,0(a0)
   12c40:	01450533          	add	a0,a0,s4
   12c44:	00054503          	lbu	a0,0(a0)
   12c48:	00090593          	mv	a1,s2
   12c4c:	f65fd0ef          	jal	10bb0 <putc@plt>
   12c50:	001a0a13          	addi	s4,s4,1
   12c54:	fb499ae3          	bne	s3,s4,12c08 <start_output_tga+0x290>
   12c58:	00013537          	lui	a0,0x13
   12c5c:	d5850513          	addi	a0,a0,-680 # 12d58 <put_gray_rows>
   12c60:	00a43423          	sd	a0,8(s0)
   12c64:	04813083          	ld	ra,72(sp)
   12c68:	04013403          	ld	s0,64(sp)
   12c6c:	03813483          	ld	s1,56(sp)
   12c70:	03013903          	ld	s2,48(sp)
   12c74:	02813983          	ld	s3,40(sp)
   12c78:	02013a03          	ld	s4,32(sp)
   12c7c:	05010113          	addi	sp,sp,80
   12c80:	00008067          	ret

0000000000012c84 <finish_output_tga>:
   12c84:	fe010113          	addi	sp,sp,-32
   12c88:	00113c23          	sd	ra,24(sp)
   12c8c:	00813823          	sd	s0,16(sp)
   12c90:	00913423          	sd	s1,8(sp)
   12c94:	00058493          	mv	s1,a1
   12c98:	0185b583          	ld	a1,24(a1)
   12c9c:	00050413          	mv	s0,a0
   12ca0:	00058513          	mv	a0,a1
   12ca4:	eddfd0ef          	jal	10b80 <fflush@plt>
   12ca8:	0184b503          	ld	a0,24(s1)
   12cac:	f95fd0ef          	jal	10c40 <ferror@plt>
   12cb0:	02050663          	beqz	a0,12cdc <finish_output_tga+0x58>
   12cb4:	00043503          	ld	a0,0(s0)
   12cb8:	00053303          	ld	t1,0(a0)
   12cbc:	02500593          	li	a1,37
   12cc0:	02b52423          	sw	a1,40(a0)
   12cc4:	00040513          	mv	a0,s0
   12cc8:	01813083          	ld	ra,24(sp)
   12ccc:	01013403          	ld	s0,16(sp)
   12cd0:	00813483          	ld	s1,8(sp)
   12cd4:	02010113          	addi	sp,sp,32
   12cd8:	00030067          	jr	t1
   12cdc:	01813083          	ld	ra,24(sp)
   12ce0:	01013403          	ld	s0,16(sp)
   12ce4:	00813483          	ld	s1,8(sp)
   12ce8:	02010113          	addi	sp,sp,32
   12cec:	00008067          	ret

0000000000012cf0 <put_demapped_gray>:
   12cf0:	00050613          	mv	a2,a0
   12cf4:	08852703          	lw	a4,136(a0)
   12cf8:	0305b503          	ld	a0,48(a1)
   12cfc:	04070663          	beqz	a4,12d48 <put_demapped_gray+0x58>
   12d00:	0a063603          	ld	a2,160(a2)
   12d04:	0205b683          	ld	a3,32(a1)
   12d08:	00063603          	ld	a2,0(a2)
   12d0c:	0006b683          	ld	a3,0(a3)
   12d10:	fff70713          	addi	a4,a4,-1
   12d14:	02071713          	slli	a4,a4,0x20
   12d18:	02075713          	srli	a4,a4,0x20
   12d1c:	00a70733          	add	a4,a4,a0
   12d20:	00170713          	addi	a4,a4,1
   12d24:	0006c783          	lbu	a5,0(a3)
   12d28:	00f607b3          	add	a5,a2,a5
   12d2c:	0007c783          	lbu	a5,0(a5)
   12d30:	00168693          	addi	a3,a3,1
   12d34:	00150813          	addi	a6,a0,1
   12d38:	00f50023          	sb	a5,0(a0)
   12d3c:	00080513          	mv	a0,a6
   12d40:	fee812e3          	bne	a6,a4,12d24 <put_demapped_gray+0x34>
   12d44:	0305b503          	ld	a0,48(a1)
   12d48:	0385e603          	lwu	a2,56(a1)
   12d4c:	0185b683          	ld	a3,24(a1)
   12d50:	00100593          	li	a1,1
   12d54:	dddfd06f          	j	10b30 <fwrite@plt>

0000000000012d58 <put_gray_rows>:
   12d58:	08852683          	lw	a3,136(a0)
   12d5c:	0305b503          	ld	a0,48(a1)
   12d60:	04068063          	beqz	a3,12da0 <put_gray_rows+0x48>
   12d64:	0205b603          	ld	a2,32(a1)
   12d68:	00063603          	ld	a2,0(a2)
   12d6c:	fff68693          	addi	a3,a3,-1
   12d70:	02069693          	slli	a3,a3,0x20
   12d74:	0206d693          	srli	a3,a3,0x20
   12d78:	00c686b3          	add	a3,a3,a2
   12d7c:	00168693          	addi	a3,a3,1
   12d80:	00064703          	lbu	a4,0(a2)
   12d84:	00160793          	addi	a5,a2,1
   12d88:	00150613          	addi	a2,a0,1
   12d8c:	00e50023          	sb	a4,0(a0)
   12d90:	00060513          	mv	a0,a2
   12d94:	00078613          	mv	a2,a5
   12d98:	fed794e3          	bne	a5,a3,12d80 <put_gray_rows+0x28>
   12d9c:	0305b503          	ld	a0,48(a1)
   12da0:	0385e603          	lwu	a2,56(a1)
   12da4:	0185b683          	ld	a3,24(a1)
   12da8:	00100593          	li	a1,1
   12dac:	d85fd06f          	j	10b30 <fwrite@plt>

0000000000012db0 <put_pixel_rows>:
   12db0:	08852683          	lw	a3,136(a0)
   12db4:	0305b503          	ld	a0,48(a1)
   12db8:	04068a63          	beqz	a3,12e0c <put_pixel_rows+0x5c>
   12dbc:	0205b603          	ld	a2,32(a1)
   12dc0:	00063603          	ld	a2,0(a2)
   12dc4:	00260613          	addi	a2,a2,2
   12dc8:	fff68693          	addi	a3,a3,-1
   12dcc:	02069693          	slli	a3,a3,0x20
   12dd0:	0206d713          	srli	a4,a3,0x20
   12dd4:	01f6d693          	srli	a3,a3,0x1f
   12dd8:	00e686b3          	add	a3,a3,a4
   12ddc:	00a686b3          	add	a3,a3,a0
   12de0:	00368693          	addi	a3,a3,3
   12de4:	00064703          	lbu	a4,0(a2)
   12de8:	00e50023          	sb	a4,0(a0)
   12dec:	fff64703          	lbu	a4,-1(a2)
   12df0:	00e500a3          	sb	a4,1(a0)
   12df4:	ffe64703          	lbu	a4,-2(a2)
   12df8:	00e50123          	sb	a4,2(a0)
   12dfc:	00350513          	addi	a0,a0,3
   12e00:	00360613          	addi	a2,a2,3
   12e04:	fed510e3          	bne	a0,a3,12de4 <put_pixel_rows+0x34>
   12e08:	0305b503          	ld	a0,48(a1)
   12e0c:	0385e603          	lwu	a2,56(a1)
   12e10:	0185b683          	ld	a3,24(a1)
   12e14:	00100593          	li	a1,1
   12e18:	d19fd06f          	j	10b30 <fwrite@plt>

0000000000012e1c <jinit_write_bmp>:
   12e1c:	fd010113          	addi	sp,sp,-48
   12e20:	02113423          	sd	ra,40(sp)
   12e24:	02813023          	sd	s0,32(sp)
   12e28:	00913c23          	sd	s1,24(sp)
   12e2c:	01213823          	sd	s2,16(sp)
   12e30:	01313423          	sd	s3,8(sp)
   12e34:	00050413          	mv	s0,a0
   12e38:	00853503          	ld	a0,8(a0)
   12e3c:	00053683          	ld	a3,0(a0)
   12e40:	00058913          	mv	s2,a1
   12e44:	00100593          	li	a1,1
   12e48:	05000613          	li	a2,80
   12e4c:	00100993          	li	s3,1
   12e50:	00040513          	mv	a0,s0
   12e54:	000680e7          	jalr	a3
   12e58:	00050493          	mv	s1,a0
   12e5c:	00013537          	lui	a0,0x13
   12e60:	f7850513          	addi	a0,a0,-136 # 12f78 <start_output_bmp>
   12e64:	00a4b023          	sd	a0,0(s1)
   12e68:	04042503          	lw	a0,64(s0)
   12e6c:	000135b7          	lui	a1,0x13
   12e70:	f7c58593          	addi	a1,a1,-132 # 12f7c <finish_output_bmp>
   12e74:	00b4b823          	sd	a1,16(s1)
   12e78:	00200593          	li	a1,2
   12e7c:	0324a823          	sw	s2,48(s1)
   12e80:	02b50263          	beq	a0,a1,12ea4 <jinit_write_bmp+0x88>
   12e84:	03350463          	beq	a0,s3,12eac <jinit_write_bmp+0x90>
   12e88:	00043503          	ld	a0,0(s0)
   12e8c:	00053583          	ld	a1,0(a0)
   12e90:	3ed00613          	li	a2,1005
   12e94:	02c52423          	sw	a2,40(a0)
   12e98:	00040513          	mv	a0,s0
   12e9c:	000580e7          	jalr	a1
   12ea0:	0180006f          	j	12eb8 <jinit_write_bmp+0x9c>
   12ea4:	06c42503          	lw	a0,108(s0)
   12ea8:	0c050263          	beqz	a0,12f6c <jinit_write_bmp+0x150>
   12eac:	00013537          	lui	a0,0x13
   12eb0:	49c50513          	addi	a0,a0,1180 # 1349c <put_gray_rows>
   12eb4:	00a4b423          	sd	a0,8(s1)
   12eb8:	00040513          	mv	a0,s0
   12ebc:	570020ef          	jal	1542c <jpeg_calc_output_dimensions>
   12ec0:	08842503          	lw	a0,136(s0)
   12ec4:	09442583          	lw	a1,148(s0)
   12ec8:	02a58533          	mul	a0,a1,a0
   12ecc:	00843583          	ld	a1,8(s0)
   12ed0:	04a4a023          	sw	a0,64(s1)
   12ed4:	40a0063b          	negw	a2,a0
   12ed8:	00367613          	andi	a2,a2,3
   12edc:	0205b803          	ld	a6,32(a1)
   12ee0:	08c42703          	lw	a4,140(s0)
   12ee4:	00c5093b          	addw	s2,a0,a2
   12ee8:	0524a223          	sw	s2,68(s1)
   12eec:	04c4a423          	sw	a2,72(s1)
   12ef0:	00100593          	li	a1,1
   12ef4:	00100793          	li	a5,1
   12ef8:	00100993          	li	s3,1
   12efc:	00040513          	mv	a0,s0
   12f00:	00000613          	li	a2,0
   12f04:	00090693          	mv	a3,s2
   12f08:	000800e7          	jalr	a6
   12f0c:	01043583          	ld	a1,16(s0)
   12f10:	02a4bc23          	sd	a0,56(s1)
   12f14:	0404a623          	sw	zero,76(s1)
   12f18:	00058863          	beqz	a1,12f28 <jinit_write_bmp+0x10c>
   12f1c:	0245a503          	lw	a0,36(a1)
   12f20:	00150513          	addi	a0,a0,1
   12f24:	02a5a223          	sw	a0,36(a1)
   12f28:	00843503          	ld	a0,8(s0)
   12f2c:	01053703          	ld	a4,16(a0)
   12f30:	00100593          	li	a1,1
   12f34:	00100693          	li	a3,1
   12f38:	00040513          	mv	a0,s0
   12f3c:	00090613          	mv	a2,s2
   12f40:	000700e7          	jalr	a4
   12f44:	02a4b023          	sd	a0,32(s1)
   12f48:	0334a423          	sw	s3,40(s1)
   12f4c:	00048513          	mv	a0,s1
   12f50:	02813083          	ld	ra,40(sp)
   12f54:	02013403          	ld	s0,32(sp)
   12f58:	01813483          	ld	s1,24(sp)
   12f5c:	01013903          	ld	s2,16(sp)
   12f60:	00813983          	ld	s3,8(sp)
   12f64:	03010113          	addi	sp,sp,48
   12f68:	00008067          	ret
   12f6c:	00013537          	lui	a0,0x13
   12f70:	56450513          	addi	a0,a0,1380 # 13564 <put_pixel_rows>
   12f74:	f41ff06f          	j	12eb4 <jinit_write_bmp+0x98>

0000000000012f78 <start_output_bmp>:
   12f78:	00008067          	ret

0000000000012f7c <finish_output_bmp>:
   12f7c:	f6010113          	addi	sp,sp,-160
   12f80:	08113c23          	sd	ra,152(sp)
   12f84:	08813823          	sd	s0,144(sp)
   12f88:	08913423          	sd	s1,136(sp)
   12f8c:	09213023          	sd	s2,128(sp)
   12f90:	07313c23          	sd	s3,120(sp)
   12f94:	07413823          	sd	s4,112(sp)
   12f98:	07513423          	sd	s5,104(sp)
   12f9c:	07613023          	sd	s6,96(sp)
   12fa0:	05713c23          	sd	s7,88(sp)
   12fa4:	05813823          	sd	s8,80(sp)
   12fa8:	05913423          	sd	s9,72(sp)
   12fac:	05a13023          	sd	s10,64(sp)
   12fb0:	00058913          	mv	s2,a1
   12fb4:	00050413          	mv	s0,a0
   12fb8:	0185b483          	ld	s1,24(a1)
   12fbc:	0305a503          	lw	a0,48(a1)
   12fc0:	01043a03          	ld	s4,16(s0)
   12fc4:	02050863          	beqz	a0,12ff4 <finish_output_bmp+0x78>
   12fc8:	04042583          	lw	a1,64(s0)
   12fcc:	00200613          	li	a2,2
   12fd0:	00100513          	li	a0,1
   12fd4:	04c59663          	bne	a1,a2,13020 <finish_output_bmp+0xa4>
   12fd8:	06c42603          	lw	a2,108(s0)
   12fdc:	00c03ab3          	snez	s5,a2
   12fe0:	00800593          	li	a1,8
   12fe4:	00061463          	bnez	a2,12fec <finish_output_bmp+0x70>
   12fe8:	01800593          	li	a1,24
   12fec:	008a9993          	slli	s3,s5,0x8
   12ff0:	03c0006f          	j	1302c <finish_output_bmp+0xb0>
   12ff4:	04042503          	lw	a0,64(s0)
   12ff8:	00200b13          	li	s6,2
   12ffc:	00100b93          	li	s7,1
   13000:	15651863          	bne	a0,s6,13150 <finish_output_bmp+0x1d4>
   13004:	06c42503          	lw	a0,108(s0)
   13008:	00a03ab3          	snez	s5,a0
   1300c:	00800c13          	li	s8,8
   13010:	00051463          	bnez	a0,13018 <finish_output_bmp+0x9c>
   13014:	01800c13          	li	s8,24
   13018:	008a9993          	slli	s3,s5,0x8
   1301c:	1400006f          	j	1315c <finish_output_bmp+0x1e0>
   13020:	10000993          	li	s3,256
   13024:	00800593          	li	a1,8
   13028:	00100a93          	li	s5,1
   1302c:	04496603          	lwu	a2,68(s2)
   13030:	08c46683          	lwu	a3,140(s0)
   13034:	00199713          	slli	a4,s3,0x1
   13038:	01370733          	add	a4,a4,s3
   1303c:	01a76793          	ori	a5,a4,26
   13040:	02c68633          	mul	a2,a3,a2
   13044:	00f60633          	add	a2,a2,a5
   13048:	000109a3          	sb	zero,19(sp)
   1304c:	00010923          	sb	zero,18(sp)
   13050:	000108a3          	sb	zero,17(sp)
   13054:	00010823          	sb	zero,16(sp)
   13058:	02010aa3          	sb	zero,53(sp)
   1305c:	02010a23          	sb	zero,52(sp)
   13060:	04200793          	li	a5,66
   13064:	00f10523          	sb	a5,10(sp)
   13068:	04d00793          	li	a5,77
   1306c:	00f105a3          	sb	a5,11(sp)
   13070:	00c10623          	sb	a2,12(sp)
   13074:	00865793          	srli	a5,a2,0x8
   13078:	00f106a3          	sb	a5,13(sp)
   1307c:	01065793          	srli	a5,a2,0x10
   13080:	00f10723          	sb	a5,14(sp)
   13084:	01865613          	srli	a2,a2,0x18
   13088:	00c107a3          	sb	a2,15(sp)
   1308c:	01a00613          	li	a2,26
   13090:	00c10a23          	sb	a2,20(sp)
   13094:	00875713          	srli	a4,a4,0x8
   13098:	00e10aa3          	sb	a4,21(sp)
   1309c:	00010b23          	sb	zero,22(sp)
   130a0:	00010ba3          	sb	zero,23(sp)
   130a4:	08842603          	lw	a2,136(s0)
   130a8:	00c00b13          	li	s6,12
   130ac:	03610923          	sb	s6,50(sp)
   130b0:	020109a3          	sb	zero,51(sp)
   130b4:	02c10b23          	sb	a2,54(sp)
   130b8:	00865613          	srli	a2,a2,0x8
   130bc:	02c10ba3          	sb	a2,55(sp)
   130c0:	02d10c23          	sb	a3,56(sp)
   130c4:	0086d693          	srli	a3,a3,0x8
   130c8:	02d10ca3          	sb	a3,57(sp)
   130cc:	02a10d23          	sb	a0,58(sp)
   130d0:	02010da3          	sb	zero,59(sp)
   130d4:	02b10e23          	sb	a1,60(sp)
   130d8:	02010ea3          	sb	zero,61(sp)
   130dc:	00a10513          	addi	a0,sp,10
   130e0:	00100593          	li	a1,1
   130e4:	00e00613          	li	a2,14
   130e8:	00e00b93          	li	s7,14
   130ec:	00048693          	mv	a3,s1
   130f0:	a41fd0ef          	jal	10b30 <fwrite@plt>
   130f4:	01750e63          	beq	a0,s7,13110 <finish_output_bmp+0x194>
   130f8:	00043503          	ld	a0,0(s0)
   130fc:	00053583          	ld	a1,0(a0)
   13100:	02500613          	li	a2,37
   13104:	02c52423          	sw	a2,40(a0)
   13108:	00040513          	mv	a0,s0
   1310c:	000580e7          	jalr	a1
   13110:	01893683          	ld	a3,24(s2)
   13114:	03210513          	addi	a0,sp,50
   13118:	00100593          	li	a1,1
   1311c:	00c00613          	li	a2,12
   13120:	a11fd0ef          	jal	10b30 <fwrite@plt>
   13124:	01650e63          	beq	a0,s6,13140 <finish_output_bmp+0x1c4>
   13128:	00043503          	ld	a0,0(s0)
   1312c:	00053583          	ld	a1,0(a0)
   13130:	02500613          	li	a2,37
   13134:	02c52423          	sw	a2,40(a0)
   13138:	00040513          	mv	a0,s0
   1313c:	000580e7          	jalr	a1
   13140:	1c0a8063          	beqz	s5,13300 <finish_output_bmp+0x384>
   13144:	01893583          	ld	a1,24(s2)
   13148:	00300693          	li	a3,3
   1314c:	1a80006f          	j	132f4 <finish_output_bmp+0x378>
   13150:	10000993          	li	s3,256
   13154:	00800c13          	li	s8,8
   13158:	00100a93          	li	s5,1
   1315c:	04496503          	lwu	a0,68(s2)
   13160:	08c46c83          	lwu	s9,140(s0)
   13164:	00299593          	slli	a1,s3,0x2
   13168:	0365e593          	ori	a1,a1,54
   1316c:	02ac8533          	mul	a0,s9,a0
   13170:	00b50d33          	add	s10,a0,a1
   13174:	02010da3          	sb	zero,59(sp)
   13178:	02010d23          	sb	zero,58(sp)
   1317c:	02010ca3          	sb	zero,57(sp)
   13180:	02010c23          	sb	zero,56(sp)
   13184:	00c10513          	addi	a0,sp,12
   13188:	02600613          	li	a2,38
   1318c:	00000593          	li	a1,0
   13190:	ac1fd0ef          	jal	10c50 <memset@plt>
   13194:	04200513          	li	a0,66
   13198:	02a10923          	sb	a0,50(sp)
   1319c:	04d00513          	li	a0,77
   131a0:	02a109a3          	sb	a0,51(sp)
   131a4:	03a10a23          	sb	s10,52(sp)
   131a8:	008d5513          	srli	a0,s10,0x8
   131ac:	02a10aa3          	sb	a0,53(sp)
   131b0:	010d5513          	srli	a0,s10,0x10
   131b4:	02a10b23          	sb	a0,54(sp)
   131b8:	018d5513          	srli	a0,s10,0x18
   131bc:	02a10ba3          	sb	a0,55(sp)
   131c0:	03600513          	li	a0,54
   131c4:	02a10e23          	sb	a0,60(sp)
   131c8:	0069d513          	srli	a0,s3,0x6
   131cc:	02a10ea3          	sb	a0,61(sp)
   131d0:	02010f23          	sb	zero,62(sp)
   131d4:	02010fa3          	sb	zero,63(sp)
   131d8:	08842503          	lw	a0,136(s0)
   131dc:	02800593          	li	a1,40
   131e0:	00b10523          	sb	a1,10(sp)
   131e4:	000105a3          	sb	zero,11(sp)
   131e8:	00a10723          	sb	a0,14(sp)
   131ec:	00855593          	srli	a1,a0,0x8
   131f0:	00b107a3          	sb	a1,15(sp)
   131f4:	01055593          	srli	a1,a0,0x10
   131f8:	00b10823          	sb	a1,16(sp)
   131fc:	01855513          	srli	a0,a0,0x18
   13200:	00a108a3          	sb	a0,17(sp)
   13204:	01910923          	sb	s9,18(sp)
   13208:	008cd513          	srli	a0,s9,0x8
   1320c:	00a109a3          	sb	a0,19(sp)
   13210:	010cd513          	srli	a0,s9,0x10
   13214:	00a10a23          	sb	a0,20(sp)
   13218:	17a44503          	lbu	a0,378(s0)
   1321c:	018cd593          	srli	a1,s9,0x18
   13220:	00b10aa3          	sb	a1,21(sp)
   13224:	01710b23          	sb	s7,22(sp)
   13228:	01810c23          	sb	s8,24(sp)
   1322c:	05651463          	bne	a0,s6,13274 <finish_output_bmp+0x2f8>
   13230:	17c45503          	lhu	a0,380(s0)
   13234:	06400593          	li	a1,100
   13238:	02b50533          	mul	a0,a0,a1
   1323c:	02a10123          	sb	a0,34(sp)
   13240:	00855613          	srli	a2,a0,0x8
   13244:	02c101a3          	sb	a2,35(sp)
   13248:	17e45603          	lhu	a2,382(s0)
   1324c:	01055513          	srli	a0,a0,0x10
   13250:	02a10223          	sb	a0,36(sp)
   13254:	020102a3          	sb	zero,37(sp)
   13258:	02b60533          	mul	a0,a2,a1
   1325c:	02a10323          	sb	a0,38(sp)
   13260:	00855593          	srli	a1,a0,0x8
   13264:	02b103a3          	sb	a1,39(sp)
   13268:	01055513          	srli	a0,a0,0x10
   1326c:	02a10423          	sb	a0,40(sp)
   13270:	020104a3          	sb	zero,41(sp)
   13274:	02010523          	sb	zero,42(sp)
   13278:	0089d513          	srli	a0,s3,0x8
   1327c:	02a105a3          	sb	a0,43(sp)
   13280:	03210513          	addi	a0,sp,50
   13284:	00100593          	li	a1,1
   13288:	00e00613          	li	a2,14
   1328c:	00e00b13          	li	s6,14
   13290:	00048693          	mv	a3,s1
   13294:	89dfd0ef          	jal	10b30 <fwrite@plt>
   13298:	01650e63          	beq	a0,s6,132b4 <finish_output_bmp+0x338>
   1329c:	00043503          	ld	a0,0(s0)
   132a0:	00053583          	ld	a1,0(a0)
   132a4:	02500613          	li	a2,37
   132a8:	02c52423          	sw	a2,40(a0)
   132ac:	00040513          	mv	a0,s0
   132b0:	000580e7          	jalr	a1
   132b4:	01893683          	ld	a3,24(s2)
   132b8:	00a10513          	addi	a0,sp,10
   132bc:	00100593          	li	a1,1
   132c0:	02800613          	li	a2,40
   132c4:	02800b13          	li	s6,40
   132c8:	869fd0ef          	jal	10b30 <fwrite@plt>
   132cc:	01650e63          	beq	a0,s6,132e8 <finish_output_bmp+0x36c>
   132d0:	00043503          	ld	a0,0(s0)
   132d4:	00053583          	ld	a1,0(a0)
   132d8:	02500613          	li	a2,37
   132dc:	02c52423          	sw	a2,40(a0)
   132e0:	00040513          	mv	a0,s0
   132e4:	000580e7          	jalr	a1
   132e8:	000a8c63          	beqz	s5,13300 <finish_output_bmp+0x384>
   132ec:	01893583          	ld	a1,24(s2)
   132f0:	00400693          	li	a3,4
   132f4:	00040513          	mv	a0,s0
   132f8:	00098613          	mv	a2,s3
   132fc:	338000ef          	jal	13634 <write_colormap>
   13300:	08c42983          	lw	s3,140(s0)
   13304:	0e098863          	beqz	s3,133f4 <finish_output_bmp+0x478>
   13308:	000a1663          	bnez	s4,13314 <finish_output_bmp+0x398>
   1330c:	08c0006f          	j	13398 <finish_output_bmp+0x41c>
   13310:	0e098263          	beqz	s3,133f4 <finish_output_bmp+0x478>
   13314:	08c46503          	lwu	a0,140(s0)
   13318:	413505bb          	subw	a1,a0,s3
   1331c:	02059593          	slli	a1,a1,0x20
   13320:	000a3603          	ld	a2,0(s4)
   13324:	0205d593          	srli	a1,a1,0x20
   13328:	00ba3423          	sd	a1,8(s4)
   1332c:	00aa3823          	sd	a0,16(s4)
   13330:	00040513          	mv	a0,s0
   13334:	000600e7          	jalr	a2
   13338:	00843503          	ld	a0,8(s0)
   1333c:	03853783          	ld	a5,56(a0)
   13340:	03893583          	ld	a1,56(s2)
   13344:	fff9899b          	addiw	s3,s3,-1
   13348:	00100693          	li	a3,1
   1334c:	00040513          	mv	a0,s0
   13350:	00098613          	mv	a2,s3
   13354:	00000713          	li	a4,0
   13358:	000780e7          	jalr	a5
   1335c:	04492583          	lw	a1,68(s2)
   13360:	fa0588e3          	beqz	a1,13310 <finish_output_bmp+0x394>
   13364:	00053a83          	ld	s5,0(a0)
   13368:	fff58593          	addi	a1,a1,-1
   1336c:	02059593          	slli	a1,a1,0x20
   13370:	0205d593          	srli	a1,a1,0x20
   13374:	00ba85b3          	add	a1,s5,a1
   13378:	00158b13          	addi	s6,a1,1
   1337c:	000ac503          	lbu	a0,0(s5)
   13380:	00048593          	mv	a1,s1
   13384:	82dfd0ef          	jal	10bb0 <putc@plt>
   13388:	001a8a93          	addi	s5,s5,1
   1338c:	ff6a98e3          	bne	s5,s6,1337c <finish_output_bmp+0x400>
   13390:	f81ff06f          	j	13310 <finish_output_bmp+0x394>
   13394:	06098063          	beqz	s3,133f4 <finish_output_bmp+0x478>
   13398:	00843503          	ld	a0,8(s0)
   1339c:	03853783          	ld	a5,56(a0)
   133a0:	03893583          	ld	a1,56(s2)
   133a4:	fff9899b          	addiw	s3,s3,-1
   133a8:	00100693          	li	a3,1
   133ac:	00040513          	mv	a0,s0
   133b0:	00098613          	mv	a2,s3
   133b4:	00000713          	li	a4,0
   133b8:	000780e7          	jalr	a5
   133bc:	04492583          	lw	a1,68(s2)
   133c0:	fc058ae3          	beqz	a1,13394 <finish_output_bmp+0x418>
   133c4:	00053a83          	ld	s5,0(a0)
   133c8:	fff58593          	addi	a1,a1,-1
   133cc:	02059593          	slli	a1,a1,0x20
   133d0:	0205d593          	srli	a1,a1,0x20
   133d4:	00ba85b3          	add	a1,s5,a1
   133d8:	00158b13          	addi	s6,a1,1
   133dc:	000ac503          	lbu	a0,0(s5)
   133e0:	00048593          	mv	a1,s1
   133e4:	fccfd0ef          	jal	10bb0 <putc@plt>
   133e8:	001a8a93          	addi	s5,s5,1
   133ec:	ff6a98e3          	bne	s5,s6,133dc <finish_output_bmp+0x460>
   133f0:	fa5ff06f          	j	13394 <finish_output_bmp+0x418>
   133f4:	000a0863          	beqz	s4,13404 <finish_output_bmp+0x488>
   133f8:	020a2503          	lw	a0,32(s4)
   133fc:	00150513          	addi	a0,a0,1
   13400:	02aa2023          	sw	a0,32(s4)
   13404:	00048513          	mv	a0,s1
   13408:	f78fd0ef          	jal	10b80 <fflush@plt>
   1340c:	00048513          	mv	a0,s1
   13410:	831fd0ef          	jal	10c40 <ferror@plt>
   13414:	04050863          	beqz	a0,13464 <finish_output_bmp+0x4e8>
   13418:	00043503          	ld	a0,0(s0)
   1341c:	00053303          	ld	t1,0(a0)
   13420:	02500593          	li	a1,37
   13424:	02b52423          	sw	a1,40(a0)
   13428:	00040513          	mv	a0,s0
   1342c:	09813083          	ld	ra,152(sp)
   13430:	09013403          	ld	s0,144(sp)
   13434:	08813483          	ld	s1,136(sp)
   13438:	08013903          	ld	s2,128(sp)
   1343c:	07813983          	ld	s3,120(sp)
   13440:	07013a03          	ld	s4,112(sp)
   13444:	06813a83          	ld	s5,104(sp)
   13448:	06013b03          	ld	s6,96(sp)
   1344c:	05813b83          	ld	s7,88(sp)
   13450:	05013c03          	ld	s8,80(sp)
   13454:	04813c83          	ld	s9,72(sp)
   13458:	04013d03          	ld	s10,64(sp)
   1345c:	0a010113          	addi	sp,sp,160
   13460:	00030067          	jr	t1
   13464:	09813083          	ld	ra,152(sp)
   13468:	09013403          	ld	s0,144(sp)
   1346c:	08813483          	ld	s1,136(sp)
   13470:	08013903          	ld	s2,128(sp)
   13474:	07813983          	ld	s3,120(sp)
   13478:	07013a03          	ld	s4,112(sp)
   1347c:	06813a83          	ld	s5,104(sp)
   13480:	06013b03          	ld	s6,96(sp)
   13484:	05813b83          	ld	s7,88(sp)
   13488:	05013c03          	ld	s8,80(sp)
   1348c:	04813c83          	ld	s9,72(sp)
   13490:	04013d03          	ld	s10,64(sp)
   13494:	0a010113          	addi	sp,sp,160
   13498:	00008067          	ret

000000000001349c <put_gray_rows>:
   1349c:	fe010113          	addi	sp,sp,-32
   134a0:	00113c23          	sd	ra,24(sp)
   134a4:	00813823          	sd	s0,16(sp)
   134a8:	00913423          	sd	s1,8(sp)
   134ac:	00050493          	mv	s1,a0
   134b0:	00853503          	ld	a0,8(a0)
   134b4:	00058413          	mv	s0,a1
   134b8:	03853783          	ld	a5,56(a0)
   134bc:	0385b583          	ld	a1,56(a1)
   134c0:	04c42603          	lw	a2,76(s0)
   134c4:	00100693          	li	a3,1
   134c8:	00100713          	li	a4,1
   134cc:	00048513          	mv	a0,s1
   134d0:	000780e7          	jalr	a5
   134d4:	04c42603          	lw	a2,76(s0)
   134d8:	0884a683          	lw	a3,136(s1)
   134dc:	00053583          	ld	a1,0(a0)
   134e0:	00160613          	addi	a2,a2,1
   134e4:	04c42623          	sw	a2,76(s0)
   134e8:	04068e63          	beqz	a3,13544 <put_gray_rows+0xa8>
   134ec:	02043503          	ld	a0,32(s0)
   134f0:	00053603          	ld	a2,0(a0)
   134f4:	fff68693          	addi	a3,a3,-1
   134f8:	02069693          	slli	a3,a3,0x20
   134fc:	0206d693          	srli	a3,a3,0x20
   13500:	00c686b3          	add	a3,a3,a2
   13504:	00168693          	addi	a3,a3,1
   13508:	00064703          	lbu	a4,0(a2)
   1350c:	00160793          	addi	a5,a2,1
   13510:	00158513          	addi	a0,a1,1
   13514:	00e58023          	sb	a4,0(a1)
   13518:	00050593          	mv	a1,a0
   1351c:	00078613          	mv	a2,a5
   13520:	fed794e3          	bne	a5,a3,13508 <put_gray_rows+0x6c>
   13524:	04842603          	lw	a2,72(s0)
   13528:	02c05463          	blez	a2,13550 <put_gray_rows+0xb4>
   1352c:	00000593          	li	a1,0
   13530:	01813083          	ld	ra,24(sp)
   13534:	01013403          	ld	s0,16(sp)
   13538:	00813483          	ld	s1,8(sp)
   1353c:	02010113          	addi	sp,sp,32
   13540:	f10fd06f          	j	10c50 <memset@plt>
   13544:	00058513          	mv	a0,a1
   13548:	04842603          	lw	a2,72(s0)
   1354c:	fec040e3          	bgtz	a2,1352c <put_gray_rows+0x90>
   13550:	01813083          	ld	ra,24(sp)
   13554:	01013403          	ld	s0,16(sp)
   13558:	00813483          	ld	s1,8(sp)
   1355c:	02010113          	addi	sp,sp,32
   13560:	00008067          	ret

0000000000013564 <put_pixel_rows>:
   13564:	fe010113          	addi	sp,sp,-32
   13568:	00113c23          	sd	ra,24(sp)
   1356c:	00813823          	sd	s0,16(sp)
   13570:	00913423          	sd	s1,8(sp)
   13574:	00050493          	mv	s1,a0
   13578:	00853503          	ld	a0,8(a0)
   1357c:	00058413          	mv	s0,a1
   13580:	03853783          	ld	a5,56(a0)
   13584:	0385b583          	ld	a1,56(a1)
   13588:	04c42603          	lw	a2,76(s0)
   1358c:	00100693          	li	a3,1
   13590:	00100713          	li	a4,1
   13594:	00048513          	mv	a0,s1
   13598:	000780e7          	jalr	a5
   1359c:	04c42583          	lw	a1,76(s0)
   135a0:	0884a603          	lw	a2,136(s1)
   135a4:	00053503          	ld	a0,0(a0)
   135a8:	00158593          	addi	a1,a1,1
   135ac:	04b42623          	sw	a1,76(s0)
   135b0:	04060863          	beqz	a2,13600 <put_pixel_rows+0x9c>
   135b4:	02043583          	ld	a1,32(s0)
   135b8:	0005b583          	ld	a1,0(a1)
   135bc:	fff60613          	addi	a2,a2,-1
   135c0:	02061613          	slli	a2,a2,0x20
   135c4:	02065693          	srli	a3,a2,0x20
   135c8:	01f65613          	srli	a2,a2,0x1f
   135cc:	00d60633          	add	a2,a2,a3
   135d0:	00b60633          	add	a2,a2,a1
   135d4:	00360613          	addi	a2,a2,3
   135d8:	0005c683          	lbu	a3,0(a1)
   135dc:	00d50123          	sb	a3,2(a0)
   135e0:	0015c683          	lbu	a3,1(a1)
   135e4:	00d500a3          	sb	a3,1(a0)
   135e8:	0025c683          	lbu	a3,2(a1)
   135ec:	00358713          	addi	a4,a1,3
   135f0:	00d50023          	sb	a3,0(a0)
   135f4:	00350513          	addi	a0,a0,3
   135f8:	00070593          	mv	a1,a4
   135fc:	fcc71ee3          	bne	a4,a2,135d8 <put_pixel_rows+0x74>
   13600:	04842603          	lw	a2,72(s0)
   13604:	00c05e63          	blez	a2,13620 <put_pixel_rows+0xbc>
   13608:	00000593          	li	a1,0
   1360c:	01813083          	ld	ra,24(sp)
   13610:	01013403          	ld	s0,16(sp)
   13614:	00813483          	ld	s1,8(sp)
   13618:	02010113          	addi	sp,sp,32
   1361c:	e34fd06f          	j	10c50 <memset@plt>
   13620:	01813083          	ld	ra,24(sp)
   13624:	01013403          	ld	s0,16(sp)
   13628:	00813483          	ld	s1,8(sp)
   1362c:	02010113          	addi	sp,sp,32
   13630:	00008067          	ret

0000000000013634 <write_colormap>:
   13634:	fc010113          	addi	sp,sp,-64
   13638:	02113c23          	sd	ra,56(sp)
   1363c:	02813823          	sd	s0,48(sp)
   13640:	02913423          	sd	s1,40(sp)
   13644:	03213023          	sd	s2,32(sp)
   13648:	01313c23          	sd	s3,24(sp)
   1364c:	01413823          	sd	s4,16(sp)
   13650:	01513423          	sd	s5,8(sp)
   13654:	01613023          	sd	s6,0(sp)
   13658:	00050993          	mv	s3,a0
   1365c:	0a053a03          	ld	s4,160(a0)
   13660:	00068913          	mv	s2,a3
   13664:	00060493          	mv	s1,a2
   13668:	00058413          	mv	s0,a1
   1366c:	0c0a0063          	beqz	s4,1372c <write_colormap+0xf8>
   13670:	0909a503          	lw	a0,144(s3)
   13674:	09c9aa83          	lw	s5,156(s3)
   13678:	00300593          	li	a1,3
   1367c:	12b51663          	bne	a0,a1,137a8 <write_colormap+0x174>
   13680:	1d505a63          	blez	s5,13854 <write_colormap+0x220>
   13684:	00000b13          	li	s6,0
   13688:	00400513          	li	a0,4
   1368c:	04a91c63          	bne	s2,a0,136e4 <write_colormap+0xb0>
   13690:	010a3503          	ld	a0,16(s4)
   13694:	01650533          	add	a0,a0,s6
   13698:	00054503          	lbu	a0,0(a0)
   1369c:	00040593          	mv	a1,s0
   136a0:	d10fd0ef          	jal	10bb0 <putc@plt>
   136a4:	008a3503          	ld	a0,8(s4)
   136a8:	01650533          	add	a0,a0,s6
   136ac:	00054503          	lbu	a0,0(a0)
   136b0:	00040593          	mv	a1,s0
   136b4:	cfcfd0ef          	jal	10bb0 <putc@plt>
   136b8:	000a3503          	ld	a0,0(s4)
   136bc:	01650533          	add	a0,a0,s6
   136c0:	00054503          	lbu	a0,0(a0)
   136c4:	00040593          	mv	a1,s0
   136c8:	ce8fd0ef          	jal	10bb0 <putc@plt>
   136cc:	00000513          	li	a0,0
   136d0:	00040593          	mv	a1,s0
   136d4:	cdcfd0ef          	jal	10bb0 <putc@plt>
   136d8:	001b0b13          	addi	s6,s6,1
   136dc:	fb6a9ae3          	bne	s5,s6,13690 <write_colormap+0x5c>
   136e0:	1780006f          	j	13858 <write_colormap+0x224>
   136e4:	010a3503          	ld	a0,16(s4)
   136e8:	01650533          	add	a0,a0,s6
   136ec:	00054503          	lbu	a0,0(a0)
   136f0:	00040593          	mv	a1,s0
   136f4:	cbcfd0ef          	jal	10bb0 <putc@plt>
   136f8:	008a3503          	ld	a0,8(s4)
   136fc:	01650533          	add	a0,a0,s6
   13700:	00054503          	lbu	a0,0(a0)
   13704:	00040593          	mv	a1,s0
   13708:	ca8fd0ef          	jal	10bb0 <putc@plt>
   1370c:	000a3503          	ld	a0,0(s4)
   13710:	01650533          	add	a0,a0,s6
   13714:	00054503          	lbu	a0,0(a0)
   13718:	00040593          	mv	a1,s0
   1371c:	c94fd0ef          	jal	10bb0 <putc@plt>
   13720:	001b0b13          	addi	s6,s6,1
   13724:	fd6a90e3          	bne	s5,s6,136e4 <write_colormap+0xb0>
   13728:	1300006f          	j	13858 <write_colormap+0x224>
   1372c:	00000a13          	li	s4,0
   13730:	10000a93          	li	s5,256
   13734:	00400513          	li	a0,4
   13738:	04a91063          	bne	s2,a0,13778 <write_colormap+0x144>
   1373c:	000a0513          	mv	a0,s4
   13740:	00040593          	mv	a1,s0
   13744:	c6cfd0ef          	jal	10bb0 <putc@plt>
   13748:	000a0513          	mv	a0,s4
   1374c:	00040593          	mv	a1,s0
   13750:	c60fd0ef          	jal	10bb0 <putc@plt>
   13754:	000a0513          	mv	a0,s4
   13758:	00040593          	mv	a1,s0
   1375c:	c54fd0ef          	jal	10bb0 <putc@plt>
   13760:	00000513          	li	a0,0
   13764:	00040593          	mv	a1,s0
   13768:	c48fd0ef          	jal	10bb0 <putc@plt>
   1376c:	001a0a1b          	addiw	s4,s4,1
   13770:	fd5a16e3          	bne	s4,s5,1373c <write_colormap+0x108>
   13774:	0e40006f          	j	13858 <write_colormap+0x224>
   13778:	000a0513          	mv	a0,s4
   1377c:	00040593          	mv	a1,s0
   13780:	c30fd0ef          	jal	10bb0 <putc@plt>
   13784:	000a0513          	mv	a0,s4
   13788:	00040593          	mv	a1,s0
   1378c:	c24fd0ef          	jal	10bb0 <putc@plt>
   13790:	000a0513          	mv	a0,s4
   13794:	00040593          	mv	a1,s0
   13798:	c18fd0ef          	jal	10bb0 <putc@plt>
   1379c:	001a0a1b          	addiw	s4,s4,1
   137a0:	fd5a1ce3          	bne	s4,s5,13778 <write_colormap+0x144>
   137a4:	0b40006f          	j	13858 <write_colormap+0x224>
   137a8:	17505a63          	blez	s5,1391c <write_colormap+0x2e8>
   137ac:	00000b13          	li	s6,0
   137b0:	00400513          	li	a0,4
   137b4:	04a91c63          	bne	s2,a0,1380c <write_colormap+0x1d8>
   137b8:	000a3503          	ld	a0,0(s4)
   137bc:	01650533          	add	a0,a0,s6
   137c0:	00054503          	lbu	a0,0(a0)
   137c4:	00040593          	mv	a1,s0
   137c8:	be8fd0ef          	jal	10bb0 <putc@plt>
   137cc:	000a3503          	ld	a0,0(s4)
   137d0:	01650533          	add	a0,a0,s6
   137d4:	00054503          	lbu	a0,0(a0)
   137d8:	00040593          	mv	a1,s0
   137dc:	bd4fd0ef          	jal	10bb0 <putc@plt>
   137e0:	000a3503          	ld	a0,0(s4)
   137e4:	01650533          	add	a0,a0,s6
   137e8:	00054503          	lbu	a0,0(a0)
   137ec:	00040593          	mv	a1,s0
   137f0:	bc0fd0ef          	jal	10bb0 <putc@plt>
   137f4:	00000513          	li	a0,0
   137f8:	00040593          	mv	a1,s0
   137fc:	bb4fd0ef          	jal	10bb0 <putc@plt>
   13800:	001b0b13          	addi	s6,s6,1
   13804:	fb6a9ae3          	bne	s5,s6,137b8 <write_colormap+0x184>
   13808:	0500006f          	j	13858 <write_colormap+0x224>
   1380c:	000a3503          	ld	a0,0(s4)
   13810:	01650533          	add	a0,a0,s6
   13814:	00054503          	lbu	a0,0(a0)
   13818:	00040593          	mv	a1,s0
   1381c:	b94fd0ef          	jal	10bb0 <putc@plt>
   13820:	000a3503          	ld	a0,0(s4)
   13824:	01650533          	add	a0,a0,s6
   13828:	00054503          	lbu	a0,0(a0)
   1382c:	00040593          	mv	a1,s0
   13830:	b80fd0ef          	jal	10bb0 <putc@plt>
   13834:	000a3503          	ld	a0,0(s4)
   13838:	01650533          	add	a0,a0,s6
   1383c:	00054503          	lbu	a0,0(a0)
   13840:	00040593          	mv	a1,s0
   13844:	b6cfd0ef          	jal	10bb0 <putc@plt>
   13848:	001b0b13          	addi	s6,s6,1
   1384c:	fd6a90e3          	bne	s5,s6,1380c <write_colormap+0x1d8>
   13850:	0080006f          	j	13858 <write_colormap+0x224>
   13854:	00000a93          	li	s5,0
   13858:	0354d263          	bge	s1,s5,1387c <write_colormap+0x248>
   1385c:	0009b503          	ld	a0,0(s3)
   13860:	03552623          	sw	s5,44(a0)
   13864:	0009b583          	ld	a1,0(s3)
   13868:	0005b583          	ld	a1,0(a1)
   1386c:	40f00613          	li	a2,1039
   13870:	02c52423          	sw	a2,40(a0)
   13874:	00098513          	mv	a0,s3
   13878:	000580e7          	jalr	a1
   1387c:	069adc63          	bge	s5,s1,138f4 <write_colormap+0x2c0>
   13880:	415484bb          	subw	s1,s1,s5
   13884:	00400513          	li	a0,4
   13888:	04a91063          	bne	s2,a0,138c8 <write_colormap+0x294>
   1388c:	00000513          	li	a0,0
   13890:	00040593          	mv	a1,s0
   13894:	b1cfd0ef          	jal	10bb0 <putc@plt>
   13898:	00000513          	li	a0,0
   1389c:	00040593          	mv	a1,s0
   138a0:	b10fd0ef          	jal	10bb0 <putc@plt>
   138a4:	00000513          	li	a0,0
   138a8:	00040593          	mv	a1,s0
   138ac:	b04fd0ef          	jal	10bb0 <putc@plt>
   138b0:	00000513          	li	a0,0
   138b4:	00040593          	mv	a1,s0
   138b8:	af8fd0ef          	jal	10bb0 <putc@plt>
   138bc:	fff4849b          	addiw	s1,s1,-1
   138c0:	fc0496e3          	bnez	s1,1388c <write_colormap+0x258>
   138c4:	0300006f          	j	138f4 <write_colormap+0x2c0>
   138c8:	00000513          	li	a0,0
   138cc:	00040593          	mv	a1,s0
   138d0:	ae0fd0ef          	jal	10bb0 <putc@plt>
   138d4:	00000513          	li	a0,0
   138d8:	00040593          	mv	a1,s0
   138dc:	ad4fd0ef          	jal	10bb0 <putc@plt>
   138e0:	00000513          	li	a0,0
   138e4:	00040593          	mv	a1,s0
   138e8:	ac8fd0ef          	jal	10bb0 <putc@plt>
   138ec:	fff4849b          	addiw	s1,s1,-1
   138f0:	fc049ce3          	bnez	s1,138c8 <write_colormap+0x294>
   138f4:	03813083          	ld	ra,56(sp)
   138f8:	03013403          	ld	s0,48(sp)
   138fc:	02813483          	ld	s1,40(sp)
   13900:	02013903          	ld	s2,32(sp)
   13904:	01813983          	ld	s3,24(sp)
   13908:	01013a03          	ld	s4,16(sp)
   1390c:	00813a83          	ld	s5,8(sp)
   13910:	00013b03          	ld	s6,0(sp)
   13914:	04010113          	addi	sp,sp,64
   13918:	00008067          	ret
   1391c:	00000a93          	li	s5,0
   13920:	f204cee3          	bltz	s1,1385c <write_colormap+0x228>
   13924:	f59ff06f          	j	1387c <write_colormap+0x248>

0000000000013928 <read_color_map>:
   13928:	f5010113          	addi	sp,sp,-176
   1392c:	0a113423          	sd	ra,168(sp)
   13930:	0a813023          	sd	s0,160(sp)
   13934:	08913c23          	sd	s1,152(sp)
   13938:	09213823          	sd	s2,144(sp)
   1393c:	09313423          	sd	s3,136(sp)
   13940:	09413023          	sd	s4,128(sp)
   13944:	07513c23          	sd	s5,120(sp)
   13948:	07613823          	sd	s6,112(sp)
   1394c:	07713423          	sd	s7,104(sp)
   13950:	07813023          	sd	s8,96(sp)
   13954:	05913c23          	sd	s9,88(sp)
   13958:	05a13823          	sd	s10,80(sp)
   1395c:	05b13423          	sd	s11,72(sp)
   13960:	00050b13          	mv	s6,a0
   13964:	00853503          	ld	a0,8(a0)
   13968:	01053703          	ld	a4,16(a0)
   1396c:	00058493          	mv	s1,a1
   13970:	00100593          	li	a1,1
   13974:	10000613          	li	a2,256
   13978:	00300693          	li	a3,3
   1397c:	000b0513          	mv	a0,s6
   13980:	000700e7          	jalr	a4
   13984:	0aab3023          	sd	a0,160(s6)
   13988:	080b2e23          	sw	zero,156(s6)
   1398c:	00048513          	mv	a0,s1
   13990:	a30fd0ef          	jal	10bc0 <getc@plt>
   13994:	05000593          	li	a1,80
   13998:	05613023          	sd	s6,64(sp)
   1399c:	0cb50663          	beq	a0,a1,13a68 <read_color_map+0x140>
   139a0:	04700593          	li	a1,71
   139a4:	26b51863          	bne	a0,a1,13c14 <read_color_map+0x2ec>
   139a8:	00048513          	mv	a0,s1
   139ac:	a14fd0ef          	jal	10bc0 <getc@plt>
   139b0:	fff00413          	li	s0,-1
   139b4:	00050913          	mv	s2,a0
   139b8:	64850263          	beq	a0,s0,13ffc <read_color_map+0x6d4>
   139bc:	00048513          	mv	a0,s1
   139c0:	a00fd0ef          	jal	10bc0 <getc@plt>
   139c4:	00050993          	mv	s3,a0
   139c8:	64850e63          	beq	a0,s0,14024 <read_color_map+0x6fc>
   139cc:	00048513          	mv	a0,s1
   139d0:	9f0fd0ef          	jal	10bc0 <getc@plt>
   139d4:	fff00413          	li	s0,-1
   139d8:	66850a63          	beq	a0,s0,1404c <read_color_map+0x724>
   139dc:	00048513          	mv	a0,s1
   139e0:	9e0fd0ef          	jal	10bc0 <getc@plt>
   139e4:	68850663          	beq	a0,s0,14070 <read_color_map+0x748>
   139e8:	00048513          	mv	a0,s1
   139ec:	9d4fd0ef          	jal	10bc0 <getc@plt>
   139f0:	fff00413          	li	s0,-1
   139f4:	6a850263          	beq	a0,s0,14098 <read_color_map+0x770>
   139f8:	00048513          	mv	a0,s1
   139fc:	9c4fd0ef          	jal	10bc0 <getc@plt>
   13a00:	6a850e63          	beq	a0,s0,140bc <read_color_map+0x794>
   13a04:	00048513          	mv	a0,s1
   13a08:	9b8fd0ef          	jal	10bc0 <getc@plt>
   13a0c:	fff00413          	li	s0,-1
   13a10:	6c850a63          	beq	a0,s0,140e4 <read_color_map+0x7bc>
   13a14:	00048513          	mv	a0,s1
   13a18:	9a8fd0ef          	jal	10bc0 <getc@plt>
   13a1c:	6e850663          	beq	a0,s0,14108 <read_color_map+0x7e0>
   13a20:	00048513          	mv	a0,s1
   13a24:	99cfd0ef          	jal	10bc0 <getc@plt>
   13a28:	fff00413          	li	s0,-1
   13a2c:	70850263          	beq	a0,s0,14130 <read_color_map+0x808>
   13a30:	00048513          	mv	a0,s1
   13a34:	98cfd0ef          	jal	10bc0 <getc@plt>
   13a38:	00050a13          	mv	s4,a0
   13a3c:	70850e63          	beq	a0,s0,14158 <read_color_map+0x830>
   13a40:	00048513          	mv	a0,s1
   13a44:	97cfd0ef          	jal	10bc0 <getc@plt>
   13a48:	fff00413          	li	s0,-1
   13a4c:	72850a63          	beq	a0,s0,14180 <read_color_map+0x858>
   13a50:	00048513          	mv	a0,s1
   13a54:	96cfd0ef          	jal	10bc0 <getc@plt>
   13a58:	74850663          	beq	a0,s0,141a4 <read_color_map+0x87c>
   13a5c:	04900513          	li	a0,73
   13a60:	76a90263          	beq	s2,a0,141c4 <read_color_map+0x89c>
   13a64:	7680006f          	j	141cc <read_color_map+0x8a4>
   13a68:	00048513          	mv	a0,s1
   13a6c:	954fd0ef          	jal	10bc0 <getc@plt>
   13a70:	00050a13          	mv	s4,a0
   13a74:	000b0513          	mv	a0,s6
   13a78:	00048593          	mv	a1,s1
   13a7c:	0ed000ef          	jal	14368 <read_pbm_integer>
   13a80:	00050413          	mv	s0,a0
   13a84:	000b0513          	mv	a0,s6
   13a88:	00048593          	mv	a1,s1
   13a8c:	0dd000ef          	jal	14368 <read_pbm_integer>
   13a90:	00a13823          	sd	a0,16(sp)
   13a94:	000b0513          	mv	a0,s6
   13a98:	00048593          	mv	a1,s1
   13a9c:	0cd000ef          	jal	14368 <read_pbm_integer>
   13aa0:	00050a93          	mv	s5,a0
   13aa4:	02813c23          	sd	s0,56(sp)
   13aa8:	1a040e63          	beqz	s0,13c64 <read_color_map+0x33c>
   13aac:	01013503          	ld	a0,16(sp)
   13ab0:	1a050a63          	beqz	a0,13c64 <read_color_map+0x33c>
   13ab4:	1a0a8863          	beqz	s5,13c64 <read_color_map+0x33c>
   13ab8:	0ff00513          	li	a0,255
   13abc:	1caa9463          	bne	s5,a0,13c84 <read_color_map+0x35c>
   13ac0:	03300513          	li	a0,51
   13ac4:	1eaa0063          	beq	s4,a0,13ca4 <read_color_map+0x37c>
   13ac8:	03600513          	li	a0,54
   13acc:	14aa1463          	bne	s4,a0,13c14 <read_color_map+0x2ec>
   13ad0:	03813503          	ld	a0,56(sp)
   13ad4:	04050ce3          	beqz	a0,1432c <read_color_map+0xa04>
   13ad8:	01013503          	ld	a0,16(sp)
   13adc:	040508e3          	beqz	a0,1432c <read_color_map+0xa04>
   13ae0:	00000593          	li	a1,0
   13ae4:	fff00b93          	li	s7,-1
   13ae8:	00100513          	li	a0,1
   13aec:	02851513          	slli	a0,a0,0x28
   13af0:	03950d13          	addi	s10,a0,57
   13af4:	0140006f          	j	13b08 <read_color_map+0x1e0>
   13af8:	03013583          	ld	a1,48(sp)
   13afc:	0015859b          	addiw	a1,a1,1
   13b00:	01013503          	ld	a0,16(sp)
   13b04:	02a584e3          	beq	a1,a0,1432c <read_color_map+0xa04>
   13b08:	02b13823          	sd	a1,48(sp)
   13b0c:	00000d93          	li	s11,0
   13b10:	0340006f          	j	13b44 <read_color_map+0x21c>
   13b14:	01340433          	add	s0,s0,s3
   13b18:	01440023          	sb	s4,0(s0)
   13b1c:	01390933          	add	s2,s2,s3
   13b20:	01590023          	sb	s5,0(s2)
   13b24:	013c09b3          	add	s3,s8,s3
   13b28:	01698023          	sb	s6,0(s3)
   13b2c:	09cca503          	lw	a0,156(s9)
   13b30:	00150513          	addi	a0,a0,1
   13b34:	08acae23          	sw	a0,156(s9)
   13b38:	001d8d9b          	addiw	s11,s11,1
   13b3c:	03813503          	ld	a0,56(sp)
   13b40:	faad8ce3          	beq	s11,a0,13af8 <read_color_map+0x1d0>
   13b44:	00048513          	mv	a0,s1
   13b48:	878fd0ef          	jal	10bc0 <getc@plt>
   13b4c:	00050a13          	mv	s4,a0
   13b50:	00048513          	mv	a0,s1
   13b54:	86cfd0ef          	jal	10bc0 <getc@plt>
   13b58:	00050a93          	mv	s5,a0
   13b5c:	00048513          	mv	a0,s1
   13b60:	860fd0ef          	jal	10bc0 <getc@plt>
   13b64:	00050b13          	mv	s6,a0
   13b68:	017a0663          	beq	s4,s7,13b74 <read_color_map+0x24c>
   13b6c:	017a8463          	beq	s5,s7,13b74 <read_color_map+0x24c>
   13b70:	017b1e63          	bne	s6,s7,13b8c <read_color_map+0x264>
   13b74:	04013503          	ld	a0,64(sp)
   13b78:	00053603          	ld	a2,0(a0)
   13b7c:	00063583          	ld	a1,0(a2)
   13b80:	40e00693          	li	a3,1038
   13b84:	02d62423          	sw	a3,40(a2)
   13b88:	000580e7          	jalr	a1
   13b8c:	04013c83          	ld	s9,64(sp)
   13b90:	0a0cb503          	ld	a0,160(s9)
   13b94:	00053403          	ld	s0,0(a0)
   13b98:	00853903          	ld	s2,8(a0)
   13b9c:	09cca983          	lw	s3,156(s9)
   13ba0:	01053c03          	ld	s8,16(a0)
   13ba4:	f73058e3          	blez	s3,13b14 <read_color_map+0x1ec>
   13ba8:	00040513          	mv	a0,s0
   13bac:	00090593          	mv	a1,s2
   13bb0:	000c0613          	mv	a2,s8
   13bb4:	00098693          	mv	a3,s3
   13bb8:	0180006f          	j	13bd0 <read_color_map+0x2a8>
   13bbc:	fff68693          	addi	a3,a3,-1
   13bc0:	00160613          	addi	a2,a2,1
   13bc4:	00158593          	addi	a1,a1,1
   13bc8:	00150513          	addi	a0,a0,1
   13bcc:	02068063          	beqz	a3,13bec <read_color_map+0x2c4>
   13bd0:	00054703          	lbu	a4,0(a0)
   13bd4:	feea14e3          	bne	s4,a4,13bbc <read_color_map+0x294>
   13bd8:	0005c703          	lbu	a4,0(a1)
   13bdc:	feea90e3          	bne	s5,a4,13bbc <read_color_map+0x294>
   13be0:	00064703          	lbu	a4,0(a2)
   13be4:	fceb1ce3          	bne	s6,a4,13bbc <read_color_map+0x294>
   13be8:	f51ff06f          	j	13b38 <read_color_map+0x210>
   13bec:	04013c83          	ld	s9,64(sp)
   13bf0:	10000513          	li	a0,256
   13bf4:	f2a9c0e3          	blt	s3,a0,13b14 <read_color_map+0x1ec>
   13bf8:	000cb503          	ld	a0,0(s9)
   13bfc:	03a53423          	sd	s10,40(a0)
   13c00:	000cb503          	ld	a0,0(s9)
   13c04:	00053583          	ld	a1,0(a0)
   13c08:	000c8513          	mv	a0,s9
   13c0c:	000580e7          	jalr	a1
   13c10:	f05ff06f          	j	13b14 <read_color_map+0x1ec>
   13c14:	000b3503          	ld	a0,0(s6)
   13c18:	00053303          	ld	t1,0(a0)
   13c1c:	40e00593          	li	a1,1038
   13c20:	02b52423          	sw	a1,40(a0)
   13c24:	000b0513          	mv	a0,s6
   13c28:	0a813083          	ld	ra,168(sp)
   13c2c:	0a013403          	ld	s0,160(sp)
   13c30:	09813483          	ld	s1,152(sp)
   13c34:	09013903          	ld	s2,144(sp)
   13c38:	08813983          	ld	s3,136(sp)
   13c3c:	08013a03          	ld	s4,128(sp)
   13c40:	07813a83          	ld	s5,120(sp)
   13c44:	07013b03          	ld	s6,112(sp)
   13c48:	06813b83          	ld	s7,104(sp)
   13c4c:	06013c03          	ld	s8,96(sp)
   13c50:	05813c83          	ld	s9,88(sp)
   13c54:	05013d03          	ld	s10,80(sp)
   13c58:	04813d83          	ld	s11,72(sp)
   13c5c:	0b010113          	addi	sp,sp,176
   13c60:	00030067          	jr	t1
   13c64:	000b3503          	ld	a0,0(s6)
   13c68:	00053583          	ld	a1,0(a0)
   13c6c:	40e00613          	li	a2,1038
   13c70:	02c52423          	sw	a2,40(a0)
   13c74:	000b0513          	mv	a0,s6
   13c78:	000580e7          	jalr	a1
   13c7c:	0ff00513          	li	a0,255
   13c80:	e4aa80e3          	beq	s5,a0,13ac0 <read_color_map+0x198>
   13c84:	000b3503          	ld	a0,0(s6)
   13c88:	00053583          	ld	a1,0(a0)
   13c8c:	40e00613          	li	a2,1038
   13c90:	02c52423          	sw	a2,40(a0)
   13c94:	000b0513          	mv	a0,s6
   13c98:	000580e7          	jalr	a1
   13c9c:	03300513          	li	a0,51
   13ca0:	e2aa14e3          	bne	s4,a0,13ac8 <read_color_map+0x1a0>
   13ca4:	03813503          	ld	a0,56(sp)
   13ca8:	68050263          	beqz	a0,1432c <read_color_map+0xa04>
   13cac:	01013503          	ld	a0,16(sp)
   13cb0:	66050e63          	beqz	a0,1432c <read_color_map+0xa04>
   13cb4:	00000593          	li	a1,0
   13cb8:	02300a93          	li	s5,35
   13cbc:	00a00b13          	li	s6,10
   13cc0:	fff00b93          	li	s7,-1
   13cc4:	02100c13          	li	s8,33
   13cc8:	40e00913          	li	s2,1038
   13ccc:	00100513          	li	a0,1
   13cd0:	02851513          	slli	a0,a0,0x28
   13cd4:	03950513          	addi	a0,a0,57
   13cd8:	00a13c23          	sd	a0,24(sp)
   13cdc:	00800537          	lui	a0,0x800
   13ce0:	0135051b          	addiw	a0,a0,19 # 800013 <__global_pointer$+0x7d575b>
   13ce4:	00a51a13          	slli	s4,a0,0xa
   13ce8:	0140006f          	j	13cfc <read_color_map+0x3d4>
   13cec:	00813583          	ld	a1,8(sp)
   13cf0:	0015859b          	addiw	a1,a1,1
   13cf4:	01013503          	ld	a0,16(sp)
   13cf8:	62a58a63          	beq	a1,a0,1432c <read_color_map+0xa04>
   13cfc:	00b13423          	sd	a1,8(sp)
   13d00:	00000413          	li	s0,0
   13d04:	03c0006f          	j	13d40 <read_color_map+0x418>
   13d08:	008d8db3          	add	s11,s11,s0
   13d0c:	013d8023          	sb	s3,0(s11)
   13d10:	00878533          	add	a0,a5,s0
   13d14:	01950023          	sb	s9,0(a0)
   13d18:	00880433          	add	s0,a6,s0
   13d1c:	01240023          	sb	s2,0(s0)
   13d20:	09cd2503          	lw	a0,156(s10)
   13d24:	00150513          	addi	a0,a0,1
   13d28:	08ad2e23          	sw	a0,156(s10)
   13d2c:	03013403          	ld	s0,48(sp)
   13d30:	0014041b          	addiw	s0,s0,1
   13d34:	03813503          	ld	a0,56(sp)
   13d38:	40e00913          	li	s2,1038
   13d3c:	faa408e3          	beq	s0,a0,13cec <read_color_map+0x3c4>
   13d40:	04013d03          	ld	s10,64(sp)
   13d44:	02813823          	sd	s0,48(sp)
   13d48:	00048513          	mv	a0,s1
   13d4c:	e75fc0ef          	jal	10bc0 <getc@plt>
   13d50:	01551a63          	bne	a0,s5,13d64 <read_color_map+0x43c>
   13d54:	00048513          	mv	a0,s1
   13d58:	e69fc0ef          	jal	10bc0 <getc@plt>
   13d5c:	01650463          	beq	a0,s6,13d64 <read_color_map+0x43c>
   13d60:	ff751ae3          	bne	a0,s7,13d54 <read_color_map+0x42c>
   13d64:	00150593          	addi	a1,a0,1
   13d68:	02bc6863          	bltu	s8,a1,13d98 <read_color_map+0x470>
   13d6c:	00ba5633          	srl	a2,s4,a1
   13d70:	00167613          	andi	a2,a2,1
   13d74:	fc061ae3          	bnez	a2,13d48 <read_color_map+0x420>
   13d78:	02059063          	bnez	a1,13d98 <read_color_map+0x470>
   13d7c:	00050413          	mv	s0,a0
   13d80:	000d3503          	ld	a0,0(s10)
   13d84:	00053583          	ld	a1,0(a0)
   13d88:	03252423          	sw	s2,40(a0)
   13d8c:	000d0513          	mv	a0,s10
   13d90:	000580e7          	jalr	a1
   13d94:	0140006f          	j	13da8 <read_color_map+0x480>
   13d98:	00050413          	mv	s0,a0
   13d9c:	fc65051b          	addiw	a0,a0,-58
   13da0:	ff500593          	li	a1,-11
   13da4:	00a5ec63          	bltu	a1,a0,13dbc <read_color_map+0x494>
   13da8:	000d3503          	ld	a0,0(s10)
   13dac:	00053583          	ld	a1,0(a0)
   13db0:	03252423          	sw	s2,40(a0)
   13db4:	000d0513          	mv	a0,s10
   13db8:	000580e7          	jalr	a1
   13dbc:	fd04099b          	addiw	s3,s0,-48
   13dc0:	00048513          	mv	a0,s1
   13dc4:	dfdfc0ef          	jal	10bc0 <getc@plt>
   13dc8:	01551a63          	bne	a0,s5,13ddc <read_color_map+0x4b4>
   13dcc:	00048513          	mv	a0,s1
   13dd0:	df1fc0ef          	jal	10bc0 <getc@plt>
   13dd4:	01650463          	beq	a0,s6,13ddc <read_color_map+0x4b4>
   13dd8:	ff751ae3          	bne	a0,s7,13dcc <read_color_map+0x4a4>
   13ddc:	fd05051b          	addiw	a0,a0,-48
   13de0:	01657e63          	bgeu	a0,s6,13dfc <read_color_map+0x4d4>
   13de4:	036985b3          	mul	a1,s3,s6
   13de8:	00b509bb          	addw	s3,a0,a1
   13dec:	00048513          	mv	a0,s1
   13df0:	dd1fc0ef          	jal	10bc0 <getc@plt>
   13df4:	fd550ce3          	beq	a0,s5,13dcc <read_color_map+0x4a4>
   13df8:	fe5ff06f          	j	13ddc <read_color_map+0x4b4>
   13dfc:	00048513          	mv	a0,s1
   13e00:	dc1fc0ef          	jal	10bc0 <getc@plt>
   13e04:	01551a63          	bne	a0,s5,13e18 <read_color_map+0x4f0>
   13e08:	00048513          	mv	a0,s1
   13e0c:	db5fc0ef          	jal	10bc0 <getc@plt>
   13e10:	01650463          	beq	a0,s6,13e18 <read_color_map+0x4f0>
   13e14:	ff751ae3          	bne	a0,s7,13e08 <read_color_map+0x4e0>
   13e18:	00150593          	addi	a1,a0,1
   13e1c:	02bc6863          	bltu	s8,a1,13e4c <read_color_map+0x524>
   13e20:	00ba5633          	srl	a2,s4,a1
   13e24:	00167613          	andi	a2,a2,1
   13e28:	fc061ae3          	bnez	a2,13dfc <read_color_map+0x4d4>
   13e2c:	02059063          	bnez	a1,13e4c <read_color_map+0x524>
   13e30:	00050413          	mv	s0,a0
   13e34:	000d3503          	ld	a0,0(s10)
   13e38:	00053583          	ld	a1,0(a0)
   13e3c:	03252423          	sw	s2,40(a0)
   13e40:	000d0513          	mv	a0,s10
   13e44:	000580e7          	jalr	a1
   13e48:	0140006f          	j	13e5c <read_color_map+0x534>
   13e4c:	00050413          	mv	s0,a0
   13e50:	fc65051b          	addiw	a0,a0,-58
   13e54:	ff500593          	li	a1,-11
   13e58:	00a5ec63          	bltu	a1,a0,13e70 <read_color_map+0x548>
   13e5c:	000d3503          	ld	a0,0(s10)
   13e60:	00053583          	ld	a1,0(a0)
   13e64:	03252423          	sw	s2,40(a0)
   13e68:	000d0513          	mv	a0,s10
   13e6c:	000580e7          	jalr	a1
   13e70:	fd040c9b          	addiw	s9,s0,-48
   13e74:	00048513          	mv	a0,s1
   13e78:	d49fc0ef          	jal	10bc0 <getc@plt>
   13e7c:	01551a63          	bne	a0,s5,13e90 <read_color_map+0x568>
   13e80:	00048513          	mv	a0,s1
   13e84:	d3dfc0ef          	jal	10bc0 <getc@plt>
   13e88:	01650463          	beq	a0,s6,13e90 <read_color_map+0x568>
   13e8c:	ff751ae3          	bne	a0,s7,13e80 <read_color_map+0x558>
   13e90:	fd05051b          	addiw	a0,a0,-48
   13e94:	01657e63          	bgeu	a0,s6,13eb0 <read_color_map+0x588>
   13e98:	036c85b3          	mul	a1,s9,s6
   13e9c:	00b50cbb          	addw	s9,a0,a1
   13ea0:	00048513          	mv	a0,s1
   13ea4:	d1dfc0ef          	jal	10bc0 <getc@plt>
   13ea8:	fd550ce3          	beq	a0,s5,13e80 <read_color_map+0x558>
   13eac:	fe5ff06f          	j	13e90 <read_color_map+0x568>
   13eb0:	00048513          	mv	a0,s1
   13eb4:	d0dfc0ef          	jal	10bc0 <getc@plt>
   13eb8:	01551a63          	bne	a0,s5,13ecc <read_color_map+0x5a4>
   13ebc:	00048513          	mv	a0,s1
   13ec0:	d01fc0ef          	jal	10bc0 <getc@plt>
   13ec4:	01650463          	beq	a0,s6,13ecc <read_color_map+0x5a4>
   13ec8:	ff751ae3          	bne	a0,s7,13ebc <read_color_map+0x594>
   13ecc:	00150593          	addi	a1,a0,1
   13ed0:	02bc6863          	bltu	s8,a1,13f00 <read_color_map+0x5d8>
   13ed4:	00ba5633          	srl	a2,s4,a1
   13ed8:	00167613          	andi	a2,a2,1
   13edc:	fc061ae3          	bnez	a2,13eb0 <read_color_map+0x588>
   13ee0:	02059063          	bnez	a1,13f00 <read_color_map+0x5d8>
   13ee4:	00050413          	mv	s0,a0
   13ee8:	000d3503          	ld	a0,0(s10)
   13eec:	00053583          	ld	a1,0(a0)
   13ef0:	03252423          	sw	s2,40(a0)
   13ef4:	000d0513          	mv	a0,s10
   13ef8:	000580e7          	jalr	a1
   13efc:	0140006f          	j	13f10 <read_color_map+0x5e8>
   13f00:	00050413          	mv	s0,a0
   13f04:	fc65051b          	addiw	a0,a0,-58
   13f08:	ff500593          	li	a1,-11
   13f0c:	00a5ec63          	bltu	a1,a0,13f24 <read_color_map+0x5fc>
   13f10:	000d3503          	ld	a0,0(s10)
   13f14:	00053583          	ld	a1,0(a0)
   13f18:	03252423          	sw	s2,40(a0)
   13f1c:	000d0513          	mv	a0,s10
   13f20:	000580e7          	jalr	a1
   13f24:	fd04091b          	addiw	s2,s0,-48
   13f28:	00048513          	mv	a0,s1
   13f2c:	c95fc0ef          	jal	10bc0 <getc@plt>
   13f30:	01551a63          	bne	a0,s5,13f44 <read_color_map+0x61c>
   13f34:	00048513          	mv	a0,s1
   13f38:	c89fc0ef          	jal	10bc0 <getc@plt>
   13f3c:	01650463          	beq	a0,s6,13f44 <read_color_map+0x61c>
   13f40:	ff751ae3          	bne	a0,s7,13f34 <read_color_map+0x60c>
   13f44:	fd05051b          	addiw	a0,a0,-48
   13f48:	01657e63          	bgeu	a0,s6,13f64 <read_color_map+0x63c>
   13f4c:	036905b3          	mul	a1,s2,s6
   13f50:	00b5093b          	addw	s2,a0,a1
   13f54:	00048513          	mv	a0,s1
   13f58:	c69fc0ef          	jal	10bc0 <getc@plt>
   13f5c:	fd550ce3          	beq	a0,s5,13f34 <read_color_map+0x60c>
   13f60:	fe5ff06f          	j	13f44 <read_color_map+0x61c>
   13f64:	0a0d3503          	ld	a0,160(s10)
   13f68:	00053d83          	ld	s11,0(a0)
   13f6c:	00853783          	ld	a5,8(a0)
   13f70:	09cd2403          	lw	s0,156(s10)
   13f74:	01053803          	ld	a6,16(a0)
   13f78:	d88058e3          	blez	s0,13d08 <read_color_map+0x3e0>
   13f7c:	000d8513          	mv	a0,s11
   13f80:	00078593          	mv	a1,a5
   13f84:	00080613          	mv	a2,a6
   13f88:	00040693          	mv	a3,s0
   13f8c:	0180006f          	j	13fa4 <read_color_map+0x67c>
   13f90:	fff68693          	addi	a3,a3,-1
   13f94:	00160613          	addi	a2,a2,1
   13f98:	00158593          	addi	a1,a1,1
   13f9c:	00150513          	addi	a0,a0,1
   13fa0:	02068063          	beqz	a3,13fc0 <read_color_map+0x698>
   13fa4:	00054703          	lbu	a4,0(a0)
   13fa8:	fee994e3          	bne	s3,a4,13f90 <read_color_map+0x668>
   13fac:	0005c703          	lbu	a4,0(a1)
   13fb0:	feec90e3          	bne	s9,a4,13f90 <read_color_map+0x668>
   13fb4:	00064703          	lbu	a4,0(a2)
   13fb8:	fce91ce3          	bne	s2,a4,13f90 <read_color_map+0x668>
   13fbc:	d71ff06f          	j	13d2c <read_color_map+0x404>
   13fc0:	04013d03          	ld	s10,64(sp)
   13fc4:	10000513          	li	a0,256
   13fc8:	d4a440e3          	blt	s0,a0,13d08 <read_color_map+0x3e0>
   13fcc:	000d3503          	ld	a0,0(s10)
   13fd0:	01813583          	ld	a1,24(sp)
   13fd4:	02b53423          	sd	a1,40(a0)
   13fd8:	000d3503          	ld	a0,0(s10)
   13fdc:	00053583          	ld	a1,0(a0)
   13fe0:	000d0513          	mv	a0,s10
   13fe4:	02f13423          	sd	a5,40(sp)
   13fe8:	03013023          	sd	a6,32(sp)
   13fec:	000580e7          	jalr	a1
   13ff0:	02013803          	ld	a6,32(sp)
   13ff4:	02813783          	ld	a5,40(sp)
   13ff8:	d11ff06f          	j	13d08 <read_color_map+0x3e0>
   13ffc:	000b3503          	ld	a0,0(s6)
   14000:	00053583          	ld	a1,0(a0)
   14004:	40e00613          	li	a2,1038
   14008:	02c52423          	sw	a2,40(a0)
   1400c:	000b0513          	mv	a0,s6
   14010:	000580e7          	jalr	a1
   14014:	00048513          	mv	a0,s1
   14018:	ba9fc0ef          	jal	10bc0 <getc@plt>
   1401c:	00050993          	mv	s3,a0
   14020:	9a8516e3          	bne	a0,s0,139cc <read_color_map+0xa4>
   14024:	000b3503          	ld	a0,0(s6)
   14028:	00053583          	ld	a1,0(a0)
   1402c:	40e00613          	li	a2,1038
   14030:	02c52423          	sw	a2,40(a0)
   14034:	000b0513          	mv	a0,s6
   14038:	000580e7          	jalr	a1
   1403c:	00048513          	mv	a0,s1
   14040:	b81fc0ef          	jal	10bc0 <getc@plt>
   14044:	fff00413          	li	s0,-1
   14048:	98851ae3          	bne	a0,s0,139dc <read_color_map+0xb4>
   1404c:	000b3503          	ld	a0,0(s6)
   14050:	00053583          	ld	a1,0(a0)
   14054:	40e00613          	li	a2,1038
   14058:	02c52423          	sw	a2,40(a0)
   1405c:	000b0513          	mv	a0,s6
   14060:	000580e7          	jalr	a1
   14064:	00048513          	mv	a0,s1
   14068:	b59fc0ef          	jal	10bc0 <getc@plt>
   1406c:	96851ee3          	bne	a0,s0,139e8 <read_color_map+0xc0>
   14070:	000b3503          	ld	a0,0(s6)
   14074:	00053583          	ld	a1,0(a0)
   14078:	40e00613          	li	a2,1038
   1407c:	02c52423          	sw	a2,40(a0)
   14080:	000b0513          	mv	a0,s6
   14084:	000580e7          	jalr	a1
   14088:	00048513          	mv	a0,s1
   1408c:	b35fc0ef          	jal	10bc0 <getc@plt>
   14090:	fff00413          	li	s0,-1
   14094:	968512e3          	bne	a0,s0,139f8 <read_color_map+0xd0>
   14098:	000b3503          	ld	a0,0(s6)
   1409c:	00053583          	ld	a1,0(a0)
   140a0:	40e00613          	li	a2,1038
   140a4:	02c52423          	sw	a2,40(a0)
   140a8:	000b0513          	mv	a0,s6
   140ac:	000580e7          	jalr	a1
   140b0:	00048513          	mv	a0,s1
   140b4:	b0dfc0ef          	jal	10bc0 <getc@plt>
   140b8:	948516e3          	bne	a0,s0,13a04 <read_color_map+0xdc>
   140bc:	000b3503          	ld	a0,0(s6)
   140c0:	00053583          	ld	a1,0(a0)
   140c4:	40e00613          	li	a2,1038
   140c8:	02c52423          	sw	a2,40(a0)
   140cc:	000b0513          	mv	a0,s6
   140d0:	000580e7          	jalr	a1
   140d4:	00048513          	mv	a0,s1
   140d8:	ae9fc0ef          	jal	10bc0 <getc@plt>
   140dc:	fff00413          	li	s0,-1
   140e0:	92851ae3          	bne	a0,s0,13a14 <read_color_map+0xec>
   140e4:	000b3503          	ld	a0,0(s6)
   140e8:	00053583          	ld	a1,0(a0)
   140ec:	40e00613          	li	a2,1038
   140f0:	02c52423          	sw	a2,40(a0)
   140f4:	000b0513          	mv	a0,s6
   140f8:	000580e7          	jalr	a1
   140fc:	00048513          	mv	a0,s1
   14100:	ac1fc0ef          	jal	10bc0 <getc@plt>
   14104:	90851ee3          	bne	a0,s0,13a20 <read_color_map+0xf8>
   14108:	000b3503          	ld	a0,0(s6)
   1410c:	00053583          	ld	a1,0(a0)
   14110:	40e00613          	li	a2,1038
   14114:	02c52423          	sw	a2,40(a0)
   14118:	000b0513          	mv	a0,s6
   1411c:	000580e7          	jalr	a1
   14120:	00048513          	mv	a0,s1
   14124:	a9dfc0ef          	jal	10bc0 <getc@plt>
   14128:	fff00413          	li	s0,-1
   1412c:	908512e3          	bne	a0,s0,13a30 <read_color_map+0x108>
   14130:	000b3503          	ld	a0,0(s6)
   14134:	00053583          	ld	a1,0(a0)
   14138:	40e00613          	li	a2,1038
   1413c:	02c52423          	sw	a2,40(a0)
   14140:	000b0513          	mv	a0,s6
   14144:	000580e7          	jalr	a1
   14148:	00048513          	mv	a0,s1
   1414c:	a75fc0ef          	jal	10bc0 <getc@plt>
   14150:	00050a13          	mv	s4,a0
   14154:	8e8516e3          	bne	a0,s0,13a40 <read_color_map+0x118>
   14158:	000b3503          	ld	a0,0(s6)
   1415c:	00053583          	ld	a1,0(a0)
   14160:	40e00613          	li	a2,1038
   14164:	02c52423          	sw	a2,40(a0)
   14168:	000b0513          	mv	a0,s6
   1416c:	000580e7          	jalr	a1
   14170:	00048513          	mv	a0,s1
   14174:	a4dfc0ef          	jal	10bc0 <getc@plt>
   14178:	fff00413          	li	s0,-1
   1417c:	8c851ae3          	bne	a0,s0,13a50 <read_color_map+0x128>
   14180:	000b3503          	ld	a0,0(s6)
   14184:	00053583          	ld	a1,0(a0)
   14188:	40e00613          	li	a2,1038
   1418c:	02c52423          	sw	a2,40(a0)
   14190:	000b0513          	mv	a0,s6
   14194:	000580e7          	jalr	a1
   14198:	00048513          	mv	a0,s1
   1419c:	a25fc0ef          	jal	10bc0 <getc@plt>
   141a0:	8a851ee3          	bne	a0,s0,13a5c <read_color_map+0x134>
   141a4:	000b3503          	ld	a0,0(s6)
   141a8:	00053583          	ld	a1,0(a0)
   141ac:	40e00613          	li	a2,1038
   141b0:	02c52423          	sw	a2,40(a0)
   141b4:	000b0513          	mv	a0,s6
   141b8:	000580e7          	jalr	a1
   141bc:	04900513          	li	a0,73
   141c0:	00a91663          	bne	s2,a0,141cc <read_color_map+0x8a4>
   141c4:	04600513          	li	a0,70
   141c8:	00a98e63          	beq	s3,a0,141e4 <read_color_map+0x8bc>
   141cc:	000b3503          	ld	a0,0(s6)
   141d0:	00053583          	ld	a1,0(a0)
   141d4:	40e00613          	li	a2,1038
   141d8:	02c52423          	sw	a2,40(a0)
   141dc:	000b0513          	mv	a0,s6
   141e0:	000580e7          	jalr	a1
   141e4:	080a7513          	andi	a0,s4,128
   141e8:	00051e63          	bnez	a0,14204 <read_color_map+0x8dc>
   141ec:	000b3503          	ld	a0,0(s6)
   141f0:	00053583          	ld	a1,0(a0)
   141f4:	40e00613          	li	a2,1038
   141f8:	02c52423          	sw	a2,40(a0)
   141fc:	000b0513          	mv	a0,s6
   14200:	000580e7          	jalr	a1
   14204:	00000a93          	li	s5,0
   14208:	007a7513          	andi	a0,s4,7
   1420c:	00200593          	li	a1,2
   14210:	00a59b3b          	sllw	s6,a1,a0
   14214:	fff00b93          	li	s7,-1
   14218:	00100513          	li	a0,1
   1421c:	02851513          	slli	a0,a0,0x28
   14220:	03950513          	addi	a0,a0,57
   14224:	02a13c23          	sd	a0,56(sp)
   14228:	0300006f          	j	14258 <read_color_map+0x930>
   1422c:	01840433          	add	s0,s0,s8
   14230:	01240023          	sb	s2,0(s0)
   14234:	018d8db3          	add	s11,s11,s8
   14238:	013d8023          	sb	s3,0(s11)
   1423c:	018c8c33          	add	s8,s9,s8
   14240:	014c0023          	sb	s4,0(s8)
   14244:	09cd2503          	lw	a0,156(s10)
   14248:	00150513          	addi	a0,a0,1
   1424c:	08ad2e23          	sw	a0,156(s10)
   14250:	001a8a9b          	addiw	s5,s5,1
   14254:	0d6a8c63          	beq	s5,s6,1432c <read_color_map+0xa04>
   14258:	00048513          	mv	a0,s1
   1425c:	965fc0ef          	jal	10bc0 <getc@plt>
   14260:	00050913          	mv	s2,a0
   14264:	00048513          	mv	a0,s1
   14268:	959fc0ef          	jal	10bc0 <getc@plt>
   1426c:	00050993          	mv	s3,a0
   14270:	00048513          	mv	a0,s1
   14274:	94dfc0ef          	jal	10bc0 <getc@plt>
   14278:	00050a13          	mv	s4,a0
   1427c:	01790663          	beq	s2,s7,14288 <read_color_map+0x960>
   14280:	01798463          	beq	s3,s7,14288 <read_color_map+0x960>
   14284:	017a1e63          	bne	s4,s7,142a0 <read_color_map+0x978>
   14288:	04013503          	ld	a0,64(sp)
   1428c:	00053603          	ld	a2,0(a0)
   14290:	00063583          	ld	a1,0(a2)
   14294:	40e00693          	li	a3,1038
   14298:	02d62423          	sw	a3,40(a2)
   1429c:	000580e7          	jalr	a1
   142a0:	04013d03          	ld	s10,64(sp)
   142a4:	0a0d3503          	ld	a0,160(s10)
   142a8:	00053403          	ld	s0,0(a0)
   142ac:	00853d83          	ld	s11,8(a0)
   142b0:	09cd2c03          	lw	s8,156(s10)
   142b4:	01053c83          	ld	s9,16(a0)
   142b8:	f7805ae3          	blez	s8,1422c <read_color_map+0x904>
   142bc:	00040513          	mv	a0,s0
   142c0:	000d8593          	mv	a1,s11
   142c4:	000c8613          	mv	a2,s9
   142c8:	000c0693          	mv	a3,s8
   142cc:	0180006f          	j	142e4 <read_color_map+0x9bc>
   142d0:	fff68693          	addi	a3,a3,-1
   142d4:	00160613          	addi	a2,a2,1
   142d8:	00158593          	addi	a1,a1,1
   142dc:	00150513          	addi	a0,a0,1
   142e0:	02068063          	beqz	a3,14300 <read_color_map+0x9d8>
   142e4:	00054703          	lbu	a4,0(a0)
   142e8:	fee914e3          	bne	s2,a4,142d0 <read_color_map+0x9a8>
   142ec:	0005c703          	lbu	a4,0(a1)
   142f0:	fee990e3          	bne	s3,a4,142d0 <read_color_map+0x9a8>
   142f4:	00064703          	lbu	a4,0(a2)
   142f8:	fcea1ce3          	bne	s4,a4,142d0 <read_color_map+0x9a8>
   142fc:	f55ff06f          	j	14250 <read_color_map+0x928>
   14300:	04013d03          	ld	s10,64(sp)
   14304:	10000513          	li	a0,256
   14308:	f2ac42e3          	blt	s8,a0,1422c <read_color_map+0x904>
   1430c:	000d3503          	ld	a0,0(s10)
   14310:	03813583          	ld	a1,56(sp)
   14314:	02b53423          	sd	a1,40(a0)
   14318:	000d3503          	ld	a0,0(s10)
   1431c:	00053583          	ld	a1,0(a0)
   14320:	000d0513          	mv	a0,s10
   14324:	000580e7          	jalr	a1
   14328:	f05ff06f          	j	1422c <read_color_map+0x904>
   1432c:	0a813083          	ld	ra,168(sp)
   14330:	0a013403          	ld	s0,160(sp)
   14334:	09813483          	ld	s1,152(sp)
   14338:	09013903          	ld	s2,144(sp)
   1433c:	08813983          	ld	s3,136(sp)
   14340:	08013a03          	ld	s4,128(sp)
   14344:	07813a83          	ld	s5,120(sp)
   14348:	07013b03          	ld	s6,112(sp)
   1434c:	06813b83          	ld	s7,104(sp)
   14350:	06013c03          	ld	s8,96(sp)
   14354:	05813c83          	ld	s9,88(sp)
   14358:	05013d03          	ld	s10,80(sp)
   1435c:	04813d83          	ld	s11,72(sp)
   14360:	0b010113          	addi	sp,sp,176
   14364:	00008067          	ret

0000000000014368 <read_pbm_integer>:
   14368:	fc010113          	addi	sp,sp,-64
   1436c:	02113c23          	sd	ra,56(sp)
   14370:	02813823          	sd	s0,48(sp)
   14374:	02913423          	sd	s1,40(sp)
   14378:	03213023          	sd	s2,32(sp)
   1437c:	01313c23          	sd	s3,24(sp)
   14380:	01413823          	sd	s4,16(sp)
   14384:	01513423          	sd	s5,8(sp)
   14388:	01613023          	sd	s6,0(sp)
   1438c:	00058413          	mv	s0,a1
   14390:	00050493          	mv	s1,a0
   14394:	02300913          	li	s2,35
   14398:	00a00993          	li	s3,10
   1439c:	fff00a13          	li	s4,-1
   143a0:	02100a93          	li	s5,33
   143a4:	00800537          	lui	a0,0x800
   143a8:	0135051b          	addiw	a0,a0,19 # 800013 <__global_pointer$+0x7d575b>
   143ac:	00a51b13          	slli	s6,a0,0xa
   143b0:	00040513          	mv	a0,s0
   143b4:	80dfc0ef          	jal	10bc0 <getc@plt>
   143b8:	01251a63          	bne	a0,s2,143cc <read_pbm_integer+0x64>
   143bc:	00040513          	mv	a0,s0
   143c0:	801fc0ef          	jal	10bc0 <getc@plt>
   143c4:	01350463          	beq	a0,s3,143cc <read_pbm_integer+0x64>
   143c8:	ff451ae3          	bne	a0,s4,143bc <read_pbm_integer+0x54>
   143cc:	00150593          	addi	a1,a0,1
   143d0:	02baea63          	bltu	s5,a1,14404 <read_pbm_integer+0x9c>
   143d4:	00bb5633          	srl	a2,s6,a1
   143d8:	00167613          	andi	a2,a2,1
   143dc:	fc061ae3          	bnez	a2,143b0 <read_pbm_integer+0x48>
   143e0:	02059263          	bnez	a1,14404 <read_pbm_integer+0x9c>
   143e4:	00050913          	mv	s2,a0
   143e8:	0004b503          	ld	a0,0(s1)
   143ec:	00053583          	ld	a1,0(a0)
   143f0:	40e00613          	li	a2,1038
   143f4:	02c52423          	sw	a2,40(a0)
   143f8:	00048513          	mv	a0,s1
   143fc:	000580e7          	jalr	a1
   14400:	0140006f          	j	14414 <read_pbm_integer+0xac>
   14404:	00050913          	mv	s2,a0
   14408:	fc65051b          	addiw	a0,a0,-58
   1440c:	ff500593          	li	a1,-11
   14410:	00a5ee63          	bltu	a1,a0,1442c <read_pbm_integer+0xc4>
   14414:	0004b503          	ld	a0,0(s1)
   14418:	00053583          	ld	a1,0(a0)
   1441c:	40e00613          	li	a2,1038
   14420:	02c52423          	sw	a2,40(a0)
   14424:	00048513          	mv	a0,s1
   14428:	000580e7          	jalr	a1
   1442c:	fd09049b          	addiw	s1,s2,-48
   14430:	02300913          	li	s2,35
   14434:	00a00993          	li	s3,10
   14438:	fff00a13          	li	s4,-1
   1443c:	00900a93          	li	s5,9
   14440:	00040513          	mv	a0,s0
   14444:	f7cfc0ef          	jal	10bc0 <getc@plt>
   14448:	01251a63          	bne	a0,s2,1445c <read_pbm_integer+0xf4>
   1444c:	00040513          	mv	a0,s0
   14450:	f70fc0ef          	jal	10bc0 <getc@plt>
   14454:	01350463          	beq	a0,s3,1445c <read_pbm_integer+0xf4>
   14458:	ff451ae3          	bne	a0,s4,1444c <read_pbm_integer+0xe4>
   1445c:	fd05051b          	addiw	a0,a0,-48
   14460:	00aaee63          	bltu	s5,a0,1447c <read_pbm_integer+0x114>
   14464:	033484b3          	mul	s1,s1,s3
   14468:	009504bb          	addw	s1,a0,s1
   1446c:	00040513          	mv	a0,s0
   14470:	f50fc0ef          	jal	10bc0 <getc@plt>
   14474:	fd250ce3          	beq	a0,s2,1444c <read_pbm_integer+0xe4>
   14478:	fe5ff06f          	j	1445c <read_pbm_integer+0xf4>
   1447c:	00048513          	mv	a0,s1
   14480:	03813083          	ld	ra,56(sp)
   14484:	03013403          	ld	s0,48(sp)
   14488:	02813483          	ld	s1,40(sp)
   1448c:	02013903          	ld	s2,32(sp)
   14490:	01813983          	ld	s3,24(sp)
   14494:	01013a03          	ld	s4,16(sp)
   14498:	00813a83          	ld	s5,8(sp)
   1449c:	00013b03          	ld	s6,0(sp)
   144a0:	04010113          	addi	sp,sp,64
   144a4:	00008067          	ret

00000000000144a8 <keymatch>:
   144a8:	fc010113          	addi	sp,sp,-64
   144ac:	02113c23          	sd	ra,56(sp)
   144b0:	02813823          	sd	s0,48(sp)
   144b4:	02913423          	sd	s1,40(sp)
   144b8:	03213023          	sd	s2,32(sp)
   144bc:	01313c23          	sd	s3,24(sp)
   144c0:	01413823          	sd	s4,16(sp)
   144c4:	01513423          	sd	s5,8(sp)
   144c8:	00054a03          	lbu	s4,0(a0)
   144cc:	00060413          	mv	s0,a2
   144d0:	060a0a63          	beqz	s4,14544 <keymatch+0x9c>
   144d4:	00058493          	mv	s1,a1
   144d8:	00000913          	li	s2,0
   144dc:	00150993          	addi	s3,a0,1
   144e0:	0300006f          	j	14510 <keymatch+0x68>
   144e4:	eecfc0ef          	jal	10bd0 <__ctype_tolower_loc@plt>
   144e8:	00053503          	ld	a0,0(a0)
   144ec:	002a1a13          	slli	s4,s4,0x2
   144f0:	01450533          	add	a0,a0,s4
   144f4:	00052503          	lw	a0,0(a0)
   144f8:	05551263          	bne	a0,s5,1453c <keymatch+0x94>
   144fc:	0009ca03          	lbu	s4,0(s3)
   14500:	00148493          	addi	s1,s1,1
   14504:	0019091b          	addiw	s2,s2,1
   14508:	00198993          	addi	s3,s3,1
   1450c:	020a0e63          	beqz	s4,14548 <keymatch+0xa0>
   14510:	0004ca83          	lbu	s5,0(s1)
   14514:	020a8463          	beqz	s5,1453c <keymatch+0x94>
   14518:	f48fc0ef          	jal	10c60 <__ctype_b_loc@plt>
   1451c:	00053503          	ld	a0,0(a0)
   14520:	001a1593          	slli	a1,s4,0x1
   14524:	00b50533          	add	a0,a0,a1
   14528:	00055503          	lhu	a0,0(a0)
   1452c:	10057513          	andi	a0,a0,256
   14530:	fa051ae3          	bnez	a0,144e4 <keymatch+0x3c>
   14534:	0ffa7513          	zext.b	a0,s4
   14538:	fd5502e3          	beq	a0,s5,144fc <keymatch+0x54>
   1453c:	00000513          	li	a0,0
   14540:	0100006f          	j	14550 <keymatch+0xa8>
   14544:	00000913          	li	s2,0
   14548:	00892533          	slt	a0,s2,s0
   1454c:	00154513          	xori	a0,a0,1
   14550:	03813083          	ld	ra,56(sp)
   14554:	03013403          	ld	s0,48(sp)
   14558:	02813483          	ld	s1,40(sp)
   1455c:	02013903          	ld	s2,32(sp)
   14560:	01813983          	ld	s3,24(sp)
   14564:	01013a03          	ld	s4,16(sp)
   14568:	00813a83          	ld	s5,8(sp)
   1456c:	04010113          	addi	sp,sp,64
   14570:	00008067          	ret

0000000000014574 <read_stdin>:
   14574:	8601b503          	ld	a0,-1952(gp) # 2a118 <stdin@GLIBC_2.27>
   14578:	00008067          	ret

000000000001457c <write_stdout>:
   1457c:	8701b503          	ld	a0,-1936(gp) # 2a128 <stdout@GLIBC_2.27>
   14580:	00008067          	ret

0000000000014584 <jpeg_CreateDecompress>:
   14584:	fe010113          	addi	sp,sp,-32
   14588:	00113c23          	sd	ra,24(sp)
   1458c:	00813823          	sd	s0,16(sp)
   14590:	00913423          	sd	s1,8(sp)
   14594:	01213023          	sd	s2,0(sp)
   14598:	00060493          	mv	s1,a2
   1459c:	00050413          	mv	s0,a0
   145a0:	03e00513          	li	a0,62
   145a4:	00043423          	sd	zero,8(s0)
   145a8:	02a58863          	beq	a1,a0,145d8 <jpeg_CreateDecompress+0x54>
   145ac:	00043503          	ld	a0,0(s0)
   145b0:	01f00613          	li	a2,31
   145b4:	02161613          	slli	a2,a2,0x21
   145b8:	00c60613          	addi	a2,a2,12
   145bc:	02c53423          	sd	a2,40(a0)
   145c0:	00043503          	ld	a0,0(s0)
   145c4:	02b52823          	sw	a1,48(a0)
   145c8:	00043503          	ld	a0,0(s0)
   145cc:	00053583          	ld	a1,0(a0)
   145d0:	00040513          	mv	a0,s0
   145d4:	000580e7          	jalr	a1
   145d8:	27800513          	li	a0,632
   145dc:	02a48863          	beq	s1,a0,1460c <jpeg_CreateDecompress+0x88>
   145e0:	00043503          	ld	a0,0(s0)
   145e4:	04f00593          	li	a1,79
   145e8:	02359593          	slli	a1,a1,0x23
   145ec:	01558593          	addi	a1,a1,21
   145f0:	02b53423          	sd	a1,40(a0)
   145f4:	00043503          	ld	a0,0(s0)
   145f8:	02952823          	sw	s1,48(a0)
   145fc:	00043503          	ld	a0,0(s0)
   14600:	00053583          	ld	a1,0(a0)
   14604:	00040513          	mv	a0,s0
   14608:	000580e7          	jalr	a1
   1460c:	00043483          	ld	s1,0(s0)
   14610:	01843903          	ld	s2,24(s0)
   14614:	00840513          	addi	a0,s0,8
   14618:	27000613          	li	a2,624
   1461c:	00000593          	li	a1,0
   14620:	e30fc0ef          	jal	10c50 <memset@plt>
   14624:	00943023          	sd	s1,0(s0)
   14628:	01243c23          	sd	s2,24(s0)
   1462c:	00100513          	li	a0,1
   14630:	02a42023          	sw	a0,32(s0)
   14634:	00040513          	mv	a0,s0
   14638:	0a0100ef          	jal	246d8 <jinit_memory_mgr>
   1463c:	00043823          	sd	zero,16(s0)
   14640:	02043423          	sd	zero,40(s0)
   14644:	0c840513          	addi	a0,s0,200
   14648:	18043823          	sd	zero,400(s0)
   1464c:	06000613          	li	a2,96
   14650:	00000593          	li	a1,0
   14654:	dfcfc0ef          	jal	10c50 <memset@plt>
   14658:	00040513          	mv	a0,s0
   1465c:	20c020ef          	jal	16868 <jinit_marker_reader>
   14660:	00040513          	mv	a0,s0
   14664:	78c010ef          	jal	15df0 <jinit_input_controller>
   14668:	0c800513          	li	a0,200
   1466c:	02a42223          	sw	a0,36(s0)
   14670:	01813083          	ld	ra,24(sp)
   14674:	01013403          	ld	s0,16(sp)
   14678:	00813483          	ld	s1,8(sp)
   1467c:	00013903          	ld	s2,0(sp)
   14680:	02010113          	addi	sp,sp,32
   14684:	00008067          	ret

0000000000014688 <jpeg_destroy_decompress>:
   14688:	4c50f06f          	j	2434c <jpeg_destroy>

000000000001468c <jpeg_abort_decompress>:
   1468c:	45d0f06f          	j	242e8 <jpeg_abort>

0000000000014690 <jpeg_read_header>:
   14690:	fe010113          	addi	sp,sp,-32
   14694:	00113c23          	sd	ra,24(sp)
   14698:	00813823          	sd	s0,16(sp)
   1469c:	00913423          	sd	s1,8(sp)
   146a0:	01213023          	sd	s2,0(sp)
   146a4:	00050413          	mv	s0,a0
   146a8:	02452503          	lw	a0,36(a0)
   146ac:	ffe57613          	andi	a2,a0,-2
   146b0:	0c800693          	li	a3,200
   146b4:	00058493          	mv	s1,a1
   146b8:	02d60263          	beq	a2,a3,146dc <jpeg_read_header+0x4c>
   146bc:	00043583          	ld	a1,0(s0)
   146c0:	02a5a623          	sw	a0,44(a1)
   146c4:	00043503          	ld	a0,0(s0)
   146c8:	00053603          	ld	a2,0(a0)
   146cc:	01400513          	li	a0,20
   146d0:	02a5a423          	sw	a0,40(a1)
   146d4:	00040513          	mv	a0,s0
   146d8:	000600e7          	jalr	a2
   146dc:	00040513          	mv	a0,s0
   146e0:	050000ef          	jal	14730 <jpeg_consume_input>
   146e4:	00200593          	li	a1,2
   146e8:	02b51863          	bne	a0,a1,14718 <jpeg_read_header+0x88>
   146ec:	00050913          	mv	s2,a0
   146f0:	00048e63          	beqz	s1,1470c <jpeg_read_header+0x7c>
   146f4:	00043503          	ld	a0,0(s0)
   146f8:	00053583          	ld	a1,0(a0)
   146fc:	03300613          	li	a2,51
   14700:	02c52423          	sw	a2,40(a0)
   14704:	00040513          	mv	a0,s0
   14708:	000580e7          	jalr	a1
   1470c:	00040513          	mv	a0,s0
   14710:	3d90f0ef          	jal	242e8 <jpeg_abort>
   14714:	00090513          	mv	a0,s2
   14718:	01813083          	ld	ra,24(sp)
   1471c:	01013403          	ld	s0,16(sp)
   14720:	00813483          	ld	s1,8(sp)
   14724:	00013903          	ld	s2,0(sp)
   14728:	02010113          	addi	sp,sp,32
   1472c:	00008067          	ret

0000000000014730 <jpeg_consume_input>:
   14730:	fe010113          	addi	sp,sp,-32
   14734:	00113c23          	sd	ra,24(sp)
   14738:	00813823          	sd	s0,16(sp)
   1473c:	00913423          	sd	s1,8(sp)
   14740:	01213023          	sd	s2,0(sp)
   14744:	02452603          	lw	a2,36(a0)
   14748:	f3860593          	addi	a1,a2,-200
   1474c:	00a00693          	li	a3,10
   14750:	0eb6ea63          	bltu	a3,a1,14844 <jpeg_consume_input+0x114>
   14754:	00259593          	slli	a1,a1,0x2
   14758:	000286b7          	lui	a3,0x28
   1475c:	bfc68693          	addi	a3,a3,-1028 # 27bfc <cdjpeg_message_table+0x1ed4>
   14760:	00d585b3          	add	a1,a1,a3
   14764:	0005a683          	lw	a3,0(a1)
   14768:	00100593          	li	a1,1
   1476c:	00068067          	jr	a3
   14770:	24053583          	ld	a1,576(a0)
   14774:	0005b303          	ld	t1,0(a1)
   14778:	01813083          	ld	ra,24(sp)
   1477c:	01013403          	ld	s0,16(sp)
   14780:	00813483          	ld	s1,8(sp)
   14784:	00013903          	ld	s2,0(sp)
   14788:	02010113          	addi	sp,sp,32
   1478c:	00030067          	jr	t1
   14790:	24053583          	ld	a1,576(a0)
   14794:	0085b583          	ld	a1,8(a1)
   14798:	00050413          	mv	s0,a0
   1479c:	000580e7          	jalr	a1
   147a0:	02843503          	ld	a0,40(s0)
   147a4:	01053583          	ld	a1,16(a0)
   147a8:	00040513          	mv	a0,s0
   147ac:	000580e7          	jalr	a1
   147b0:	00040513          	mv	a0,s0
   147b4:	0c900593          	li	a1,201
   147b8:	02b42223          	sw	a1,36(s0)
   147bc:	24053583          	ld	a1,576(a0)
   147c0:	0005b583          	ld	a1,0(a1)
   147c4:	00050413          	mv	s0,a0
   147c8:	000580e7          	jalr	a1
   147cc:	00100613          	li	a2,1
   147d0:	00050593          	mv	a1,a0
   147d4:	1cc51663          	bne	a0,a2,149a0 <jpeg_consume_input+0x270>
   147d8:	00040513          	mv	a0,s0
   147dc:	03842583          	lw	a1,56(s0)
   147e0:	0ac58463          	beq	a1,a2,14888 <jpeg_consume_input+0x158>
   147e4:	00400493          	li	s1,4
   147e8:	08958063          	beq	a1,s1,14868 <jpeg_consume_input+0x138>
   147ec:	00300913          	li	s2,3
   147f0:	0b259263          	bne	a1,s2,14894 <jpeg_consume_input+0x164>
   147f4:	17452583          	lw	a1,372(a0)
   147f8:	00200493          	li	s1,2
   147fc:	14059a63          	bnez	a1,14950 <jpeg_consume_input+0x220>
   14800:	18052583          	lw	a1,384(a0)
   14804:	0c058a63          	beqz	a1,148d8 <jpeg_consume_input+0x1a8>
   14808:	18454583          	lbu	a1,388(a0)
   1480c:	00200493          	li	s1,2
   14810:	10058663          	beqz	a1,1491c <jpeg_consume_input+0x1ec>
   14814:	00100613          	li	a2,1
   14818:	12c58c63          	beq	a1,a2,14950 <jpeg_consume_input+0x220>
   1481c:	00053603          	ld	a2,0(a0)
   14820:	02b62623          	sw	a1,44(a2)
   14824:	00053503          	ld	a0,0(a0)
   14828:	00853683          	ld	a3,8(a0)
   1482c:	07200513          	li	a0,114
   14830:	02a62423          	sw	a0,40(a2)
   14834:	fff00593          	li	a1,-1
   14838:	00040513          	mv	a0,s0
   1483c:	000680e7          	jalr	a3
   14840:	10c0006f          	j	1494c <jpeg_consume_input+0x21c>
   14844:	00053583          	ld	a1,0(a0)
   14848:	02c5a623          	sw	a2,44(a1)
   1484c:	00053603          	ld	a2,0(a0)
   14850:	00063603          	ld	a2,0(a2)
   14854:	01400693          	li	a3,20
   14858:	02d5a423          	sw	a3,40(a1)
   1485c:	000600e7          	jalr	a2
   14860:	00000593          	li	a1,0
   14864:	13c0006f          	j	149a0 <jpeg_consume_input+0x270>
   14868:	18052583          	lw	a1,384(a0)
   1486c:	02058a63          	beqz	a1,148a0 <jpeg_consume_input+0x170>
   14870:	18454583          	lbu	a1,388(a0)
   14874:	02058663          	beqz	a1,148a0 <jpeg_consume_input+0x170>
   14878:	00200613          	li	a2,2
   1487c:	02c59663          	bne	a1,a2,148a8 <jpeg_consume_input+0x178>
   14880:	00500913          	li	s2,5
   14884:	0cc0006f          	j	14950 <jpeg_consume_input+0x220>
   14888:	00058913          	mv	s2,a1
   1488c:	00058493          	mv	s1,a1
   14890:	0c00006f          	j	14950 <jpeg_consume_input+0x220>
   14894:	00000913          	li	s2,0
   14898:	00000493          	li	s1,0
   1489c:	0b40006f          	j	14950 <jpeg_consume_input+0x220>
   148a0:	00400913          	li	s2,4
   148a4:	0ac0006f          	j	14950 <jpeg_consume_input+0x220>
   148a8:	00053603          	ld	a2,0(a0)
   148ac:	02b62623          	sw	a1,44(a2)
   148b0:	00053503          	ld	a0,0(a0)
   148b4:	00853683          	ld	a3,8(a0)
   148b8:	07200513          	li	a0,114
   148bc:	02a62423          	sw	a0,40(a2)
   148c0:	fff00593          	li	a1,-1
   148c4:	00040513          	mv	a0,s0
   148c8:	000680e7          	jalr	a3
   148cc:	00040513          	mv	a0,s0
   148d0:	00500913          	li	s2,5
   148d4:	07c0006f          	j	14950 <jpeg_consume_input+0x220>
   148d8:	13053583          	ld	a1,304(a0)
   148dc:	0005a603          	lw	a2,0(a1)
   148e0:	0605a683          	lw	a3,96(a1)
   148e4:	0c05a583          	lw	a1,192(a1)
   148e8:	00100713          	li	a4,1
   148ec:	00e61a63          	bne	a2,a4,14900 <jpeg_consume_input+0x1d0>
   148f0:	00200713          	li	a4,2
   148f4:	00e69663          	bne	a3,a4,14900 <jpeg_consume_input+0x1d0>
   148f8:	00300713          	li	a4,3
   148fc:	04e58a63          	beq	a1,a4,14950 <jpeg_consume_input+0x220>
   14900:	05200713          	li	a4,82
   14904:	00200493          	li	s1,2
   14908:	00e61e63          	bne	a2,a4,14924 <jpeg_consume_input+0x1f4>
   1490c:	04700713          	li	a4,71
   14910:	00e69a63          	bne	a3,a4,14924 <jpeg_consume_input+0x1f4>
   14914:	04200713          	li	a4,66
   14918:	00e59663          	bne	a1,a4,14924 <jpeg_consume_input+0x1f4>
   1491c:	00200913          	li	s2,2
   14920:	0300006f          	j	14950 <jpeg_consume_input+0x220>
   14924:	00053503          	ld	a0,0(a0)
   14928:	02c52623          	sw	a2,44(a0)
   1492c:	02d52823          	sw	a3,48(a0)
   14930:	00853603          	ld	a2,8(a0)
   14934:	02b52a23          	sw	a1,52(a0)
   14938:	06f00593          	li	a1,111
   1493c:	02b52423          	sw	a1,40(a0)
   14940:	00100593          	li	a1,1
   14944:	00040513          	mv	a0,s0
   14948:	000600e7          	jalr	a2
   1494c:	00040513          	mv	a0,s0
   14950:	03252e23          	sw	s2,60(a0)
   14954:	04952023          	sw	s1,64(a0)
   14958:	00100593          	li	a1,1
   1495c:	04b52223          	sw	a1,68(a0)
   14960:	04b52423          	sw	a1,72(a0)
   14964:	3ff00613          	li	a2,1023
   14968:	03461613          	slli	a2,a2,0x34
   1496c:	04c53823          	sd	a2,80(a0)
   14970:	04053c23          	sd	zero,88(a0)
   14974:	02059613          	slli	a2,a1,0x20
   14978:	06c53023          	sd	a2,96(a0)
   1497c:	06b53423          	sd	a1,104(a0)
   14980:	00260613          	addi	a2,a2,2
   14984:	06c53823          	sd	a2,112(a0)
   14988:	10000613          	li	a2,256
   1498c:	06c53c23          	sd	a2,120(a0)
   14990:	0a053023          	sd	zero,160(a0)
   14994:	08053023          	sd	zero,128(a0)
   14998:	0ca00613          	li	a2,202
   1499c:	02c52223          	sw	a2,36(a0)
   149a0:	00058513          	mv	a0,a1
   149a4:	01813083          	ld	ra,24(sp)
   149a8:	01013403          	ld	s0,16(sp)
   149ac:	00813483          	ld	s1,8(sp)
   149b0:	00013903          	ld	s2,0(sp)
   149b4:	02010113          	addi	sp,sp,32
   149b8:	00008067          	ret

00000000000149bc <jpeg_input_complete>:
   149bc:	ff010113          	addi	sp,sp,-16
   149c0:	00113423          	sd	ra,8(sp)
   149c4:	00813023          	sd	s0,0(sp)
   149c8:	00050413          	mv	s0,a0
   149cc:	02452503          	lw	a0,36(a0)
   149d0:	f2d5059b          	addiw	a1,a0,-211
   149d4:	ff400613          	li	a2,-12
   149d8:	02b66263          	bltu	a2,a1,149fc <jpeg_input_complete+0x40>
   149dc:	00043583          	ld	a1,0(s0)
   149e0:	02a5a623          	sw	a0,44(a1)
   149e4:	00043503          	ld	a0,0(s0)
   149e8:	00053603          	ld	a2,0(a0)
   149ec:	01400513          	li	a0,20
   149f0:	02a5a423          	sw	a0,40(a1)
   149f4:	00040513          	mv	a0,s0
   149f8:	000600e7          	jalr	a2
   149fc:	24043503          	ld	a0,576(s0)
   14a00:	02452503          	lw	a0,36(a0)
   14a04:	00813083          	ld	ra,8(sp)
   14a08:	00013403          	ld	s0,0(sp)
   14a0c:	01010113          	addi	sp,sp,16
   14a10:	00008067          	ret

0000000000014a14 <jpeg_has_multiple_scans>:
   14a14:	ff010113          	addi	sp,sp,-16
   14a18:	00113423          	sd	ra,8(sp)
   14a1c:	00813023          	sd	s0,0(sp)
   14a20:	00050413          	mv	s0,a0
   14a24:	02452503          	lw	a0,36(a0)
   14a28:	f2d5059b          	addiw	a1,a0,-211
   14a2c:	ff600613          	li	a2,-10
   14a30:	02b66263          	bltu	a2,a1,14a54 <jpeg_has_multiple_scans+0x40>
   14a34:	00043583          	ld	a1,0(s0)
   14a38:	02a5a623          	sw	a0,44(a1)
   14a3c:	00043503          	ld	a0,0(s0)
   14a40:	00053603          	ld	a2,0(a0)
   14a44:	01400513          	li	a0,20
   14a48:	02a5a423          	sw	a0,40(a1)
   14a4c:	00040513          	mv	a0,s0
   14a50:	000600e7          	jalr	a2
   14a54:	24043503          	ld	a0,576(s0)
   14a58:	02052503          	lw	a0,32(a0)
   14a5c:	00813083          	ld	ra,8(sp)
   14a60:	00013403          	ld	s0,0(sp)
   14a64:	01010113          	addi	sp,sp,16
   14a68:	00008067          	ret

0000000000014a6c <jpeg_finish_decompress>:
   14a6c:	ff010113          	addi	sp,sp,-16
   14a70:	00113423          	sd	ra,8(sp)
   14a74:	00813023          	sd	s0,0(sp)
   14a78:	00050413          	mv	s0,a0
   14a7c:	02452503          	lw	a0,36(a0)
   14a80:	f335059b          	addiw	a1,a0,-205
   14a84:	00100613          	li	a2,1
   14a88:	00b66663          	bltu	a2,a1,14a94 <jpeg_finish_decompress+0x28>
   14a8c:	05842583          	lw	a1,88(s0)
   14a90:	02058c63          	beqz	a1,14ac8 <jpeg_finish_decompress+0x5c>
   14a94:	0d200593          	li	a1,210
   14a98:	06b50663          	beq	a0,a1,14b04 <jpeg_finish_decompress+0x98>
   14a9c:	0cf00593          	li	a1,207
   14aa0:	04b50e63          	beq	a0,a1,14afc <jpeg_finish_decompress+0x90>
   14aa4:	00043583          	ld	a1,0(s0)
   14aa8:	02a5a623          	sw	a0,44(a1)
   14aac:	00043503          	ld	a0,0(s0)
   14ab0:	00053603          	ld	a2,0(a0)
   14ab4:	01400513          	li	a0,20
   14ab8:	02a5a423          	sw	a0,40(a1)
   14abc:	00040513          	mv	a0,s0
   14ac0:	000600e7          	jalr	a2
   14ac4:	0400006f          	j	14b04 <jpeg_finish_decompress+0x98>
   14ac8:	0a842503          	lw	a0,168(s0)
   14acc:	08c42583          	lw	a1,140(s0)
   14ad0:	00b57e63          	bgeu	a0,a1,14aec <jpeg_finish_decompress+0x80>
   14ad4:	00043503          	ld	a0,0(s0)
   14ad8:	00053583          	ld	a1,0(a0)
   14adc:	04300613          	li	a2,67
   14ae0:	02c52423          	sw	a2,40(a0)
   14ae4:	00040513          	mv	a0,s0
   14ae8:	000580e7          	jalr	a1
   14aec:	22043503          	ld	a0,544(s0)
   14af0:	00853583          	ld	a1,8(a0)
   14af4:	00040513          	mv	a0,s0
   14af8:	000580e7          	jalr	a1
   14afc:	0d200513          	li	a0,210
   14b00:	02a42223          	sw	a0,36(s0)
   14b04:	24043503          	ld	a0,576(s0)
   14b08:	02452583          	lw	a1,36(a0)
   14b0c:	02059263          	bnez	a1,14b30 <jpeg_finish_decompress+0xc4>
   14b10:	00053583          	ld	a1,0(a0)
   14b14:	00040513          	mv	a0,s0
   14b18:	000580e7          	jalr	a1
   14b1c:	fe0514e3          	bnez	a0,14b04 <jpeg_finish_decompress+0x98>
   14b20:	00813083          	ld	ra,8(sp)
   14b24:	00013403          	ld	s0,0(sp)
   14b28:	01010113          	addi	sp,sp,16
   14b2c:	00008067          	ret
   14b30:	02843503          	ld	a0,40(s0)
   14b34:	03053583          	ld	a1,48(a0)
   14b38:	00040513          	mv	a0,s0
   14b3c:	000580e7          	jalr	a1
   14b40:	00040513          	mv	a0,s0
   14b44:	7a40f0ef          	jal	242e8 <jpeg_abort>
   14b48:	00100513          	li	a0,1
   14b4c:	00813083          	ld	ra,8(sp)
   14b50:	00013403          	ld	s0,0(sp)
   14b54:	01010113          	addi	sp,sp,16
   14b58:	00008067          	ret

0000000000014b5c <jpeg_start_decompress>:
   14b5c:	fe010113          	addi	sp,sp,-32
   14b60:	00113c23          	sd	ra,24(sp)
   14b64:	00813823          	sd	s0,16(sp)
   14b68:	00913423          	sd	s1,8(sp)
   14b6c:	01213023          	sd	s2,0(sp)
   14b70:	00050413          	mv	s0,a0
   14b74:	02452503          	lw	a0,36(a0)
   14b78:	0cc00593          	li	a1,204
   14b7c:	0eb50463          	beq	a0,a1,14c64 <jpeg_start_decompress+0x108>
   14b80:	0cb00593          	li	a1,203
   14b84:	02b50463          	beq	a0,a1,14bac <jpeg_start_decompress+0x50>
   14b88:	0ca00593          	li	a1,202
   14b8c:	08b51a63          	bne	a0,a1,14c20 <jpeg_start_decompress+0xc4>
   14b90:	00040513          	mv	a0,s0
   14b94:	43d000ef          	jal	157d0 <jinit_master_decompress>
   14b98:	05842583          	lw	a1,88(s0)
   14b9c:	0cf00513          	li	a0,207
   14ba0:	16059a63          	bnez	a1,14d14 <jpeg_start_decompress+0x1b8>
   14ba4:	0cb00513          	li	a0,203
   14ba8:	02a42223          	sw	a0,36(s0)
   14bac:	24043503          	ld	a0,576(s0)
   14bb0:	02052503          	lw	a0,32(a0)
   14bb4:	18050063          	beqz	a0,14d34 <jpeg_start_decompress+0x1d8>
   14bb8:	01043583          	ld	a1,16(s0)
   14bbc:	00200493          	li	s1,2
   14bc0:	00100913          	li	s2,1
   14bc4:	00058863          	beqz	a1,14bd4 <jpeg_start_decompress+0x78>
   14bc8:	0005b583          	ld	a1,0(a1)
   14bcc:	00040513          	mv	a0,s0
   14bd0:	000580e7          	jalr	a1
   14bd4:	24043503          	ld	a0,576(s0)
   14bd8:	00053583          	ld	a1,0(a0)
   14bdc:	00040513          	mv	a0,s0
   14be0:	000580e7          	jalr	a1
   14be4:	12050c63          	beqz	a0,14d1c <jpeg_start_decompress+0x1c0>
   14be8:	14950663          	beq	a0,s1,14d34 <jpeg_start_decompress+0x1d8>
   14bec:	01043583          	ld	a1,16(s0)
   14bf0:	ffd57513          	andi	a0,a0,-3
   14bf4:	fd2518e3          	bne	a0,s2,14bc4 <jpeg_start_decompress+0x68>
   14bf8:	fc0586e3          	beqz	a1,14bc4 <jpeg_start_decompress+0x68>
   14bfc:	0085b603          	ld	a2,8(a1)
   14c00:	0105b503          	ld	a0,16(a1)
   14c04:	00160613          	addi	a2,a2,1
   14c08:	00c5b423          	sd	a2,8(a1)
   14c0c:	faa64ce3          	blt	a2,a0,14bc4 <jpeg_start_decompress+0x68>
   14c10:	1a446603          	lwu	a2,420(s0)
   14c14:	00c50533          	add	a0,a0,a2
   14c18:	00a5b823          	sd	a0,16(a1)
   14c1c:	fa9ff06f          	j	14bc4 <jpeg_start_decompress+0x68>
   14c20:	00043583          	ld	a1,0(s0)
   14c24:	02a5a623          	sw	a0,44(a1)
   14c28:	00043503          	ld	a0,0(s0)
   14c2c:	00053603          	ld	a2,0(a0)
   14c30:	01400513          	li	a0,20
   14c34:	02a5a423          	sw	a0,40(a1)
   14c38:	00040513          	mv	a0,s0
   14c3c:	000600e7          	jalr	a2
   14c40:	02442503          	lw	a0,36(s0)
   14c44:	0cc00493          	li	s1,204
   14c48:	00950e63          	beq	a0,s1,14c64 <jpeg_start_decompress+0x108>
   14c4c:	22043503          	ld	a0,544(s0)
   14c50:	00053583          	ld	a1,0(a0)
   14c54:	00040513          	mv	a0,s0
   14c58:	000580e7          	jalr	a1
   14c5c:	0a042423          	sw	zero,168(s0)
   14c60:	02942223          	sw	s1,36(s0)
   14c64:	22043503          	ld	a0,544(s0)
   14c68:	01052503          	lw	a0,16(a0)
   14c6c:	08050e63          	beqz	a0,14d08 <jpeg_start_decompress+0x1ac>
   14c70:	0a846503          	lwu	a0,168(s0)
   14c74:	0a840493          	addi	s1,s0,168
   14c78:	0380006f          	j	14cb0 <jpeg_start_decompress+0x154>
   14c7c:	22043503          	ld	a0,544(s0)
   14c80:	00853583          	ld	a1,8(a0)
   14c84:	00040513          	mv	a0,s0
   14c88:	000580e7          	jalr	a1
   14c8c:	22043503          	ld	a0,544(s0)
   14c90:	00053583          	ld	a1,0(a0)
   14c94:	00040513          	mv	a0,s0
   14c98:	000580e7          	jalr	a1
   14c9c:	22043503          	ld	a0,544(s0)
   14ca0:	01052583          	lw	a1,16(a0)
   14ca4:	00000513          	li	a0,0
   14ca8:	0a042423          	sw	zero,168(s0)
   14cac:	04058e63          	beqz	a1,14d08 <jpeg_start_decompress+0x1ac>
   14cb0:	08c46583          	lwu	a1,140(s0)
   14cb4:	fcb574e3          	bgeu	a0,a1,14c7c <jpeg_start_decompress+0x120>
   14cb8:	01043603          	ld	a2,16(s0)
   14cbc:	00060e63          	beqz	a2,14cd8 <jpeg_start_decompress+0x17c>
   14cc0:	00063683          	ld	a3,0(a2)
   14cc4:	00a63423          	sd	a0,8(a2)
   14cc8:	00b63823          	sd	a1,16(a2)
   14ccc:	00040513          	mv	a0,s0
   14cd0:	000680e7          	jalr	a3
   14cd4:	0a846503          	lwu	a0,168(s0)
   14cd8:	22843583          	ld	a1,552(s0)
   14cdc:	0085b703          	ld	a4,8(a1)
   14ce0:	00050913          	mv	s2,a0
   14ce4:	00040513          	mv	a0,s0
   14ce8:	00000593          	li	a1,0
   14cec:	00048613          	mv	a2,s1
   14cf0:	00000693          	li	a3,0
   14cf4:	000700e7          	jalr	a4
   14cf8:	0a846503          	lwu	a0,168(s0)
   14cfc:	fb251ae3          	bne	a0,s2,14cb0 <jpeg_start_decompress+0x154>
   14d00:	00000513          	li	a0,0
   14d04:	0180006f          	j	14d1c <jpeg_start_decompress+0x1c0>
   14d08:	05c42503          	lw	a0,92(s0)
   14d0c:	00a03533          	snez	a0,a0
   14d10:	0cd50513          	addi	a0,a0,205
   14d14:	02a42223          	sw	a0,36(s0)
   14d18:	00100513          	li	a0,1
   14d1c:	01813083          	ld	ra,24(sp)
   14d20:	01013403          	ld	s0,16(sp)
   14d24:	00813483          	ld	s1,8(sp)
   14d28:	00013903          	ld	s2,0(sp)
   14d2c:	02010113          	addi	sp,sp,32
   14d30:	00008067          	ret
   14d34:	0ac42503          	lw	a0,172(s0)
   14d38:	0aa42a23          	sw	a0,180(s0)
   14d3c:	02442503          	lw	a0,36(s0)
   14d40:	0cc00493          	li	s1,204
   14d44:	f09514e3          	bne	a0,s1,14c4c <jpeg_start_decompress+0xf0>
   14d48:	f1dff06f          	j	14c64 <jpeg_start_decompress+0x108>

0000000000014d4c <jpeg_read_scanlines>:
   14d4c:	fd010113          	addi	sp,sp,-48
   14d50:	02113423          	sd	ra,40(sp)
   14d54:	02813023          	sd	s0,32(sp)
   14d58:	00913c23          	sd	s1,24(sp)
   14d5c:	01213823          	sd	s2,16(sp)
   14d60:	00050413          	mv	s0,a0
   14d64:	02452503          	lw	a0,36(a0)
   14d68:	0cd00693          	li	a3,205
   14d6c:	00060493          	mv	s1,a2
   14d70:	00058913          	mv	s2,a1
   14d74:	02d50263          	beq	a0,a3,14d98 <jpeg_read_scanlines+0x4c>
   14d78:	00043583          	ld	a1,0(s0)
   14d7c:	02a5a623          	sw	a0,44(a1)
   14d80:	00043503          	ld	a0,0(s0)
   14d84:	00053603          	ld	a2,0(a0)
   14d88:	01400513          	li	a0,20
   14d8c:	02a5a423          	sw	a0,40(a1)
   14d90:	00040513          	mv	a0,s0
   14d94:	000600e7          	jalr	a2
   14d98:	0a842603          	lw	a2,168(s0)
   14d9c:	08c42583          	lw	a1,140(s0)
   14da0:	06b67263          	bgeu	a2,a1,14e04 <jpeg_read_scanlines+0xb8>
   14da4:	01043503          	ld	a0,16(s0)
   14da8:	02050463          	beqz	a0,14dd0 <jpeg_read_scanlines+0x84>
   14dac:	02061613          	slli	a2,a2,0x20
   14db0:	02065613          	srli	a2,a2,0x20
   14db4:	02059593          	slli	a1,a1,0x20
   14db8:	00053683          	ld	a3,0(a0)
   14dbc:	0205d593          	srli	a1,a1,0x20
   14dc0:	00c53423          	sd	a2,8(a0)
   14dc4:	00b53823          	sd	a1,16(a0)
   14dc8:	00040513          	mv	a0,s0
   14dcc:	000680e7          	jalr	a3
   14dd0:	22843503          	ld	a0,552(s0)
   14dd4:	00853703          	ld	a4,8(a0)
   14dd8:	00012623          	sw	zero,12(sp)
   14ddc:	00c10613          	addi	a2,sp,12
   14de0:	00040513          	mv	a0,s0
   14de4:	00090593          	mv	a1,s2
   14de8:	00048693          	mv	a3,s1
   14dec:	000700e7          	jalr	a4
   14df0:	00c12503          	lw	a0,12(sp)
   14df4:	0a842583          	lw	a1,168(s0)
   14df8:	00a585b3          	add	a1,a1,a0
   14dfc:	0ab42423          	sw	a1,168(s0)
   14e00:	0240006f          	j	14e24 <jpeg_read_scanlines+0xd8>
   14e04:	00043503          	ld	a0,0(s0)
   14e08:	00853603          	ld	a2,8(a0)
   14e0c:	07b00593          	li	a1,123
   14e10:	02b52423          	sw	a1,40(a0)
   14e14:	fff00593          	li	a1,-1
   14e18:	00040513          	mv	a0,s0
   14e1c:	000600e7          	jalr	a2
   14e20:	00000513          	li	a0,0
   14e24:	02813083          	ld	ra,40(sp)
   14e28:	02013403          	ld	s0,32(sp)
   14e2c:	01813483          	ld	s1,24(sp)
   14e30:	01013903          	ld	s2,16(sp)
   14e34:	03010113          	addi	sp,sp,48
   14e38:	00008067          	ret

0000000000014e3c <jpeg_read_raw_data>:
   14e3c:	fd010113          	addi	sp,sp,-48
   14e40:	02113423          	sd	ra,40(sp)
   14e44:	02813023          	sd	s0,32(sp)
   14e48:	00913c23          	sd	s1,24(sp)
   14e4c:	01213823          	sd	s2,16(sp)
   14e50:	01313423          	sd	s3,8(sp)
   14e54:	00050413          	mv	s0,a0
   14e58:	02452503          	lw	a0,36(a0)
   14e5c:	0ce00693          	li	a3,206
   14e60:	00060913          	mv	s2,a2
   14e64:	00058493          	mv	s1,a1
   14e68:	02d50263          	beq	a0,a3,14e8c <jpeg_read_raw_data+0x50>
   14e6c:	00043583          	ld	a1,0(s0)
   14e70:	02a5a623          	sw	a0,44(a1)
   14e74:	00043503          	ld	a0,0(s0)
   14e78:	00053603          	ld	a2,0(a0)
   14e7c:	01400513          	li	a0,20
   14e80:	02a5a423          	sw	a0,40(a1)
   14e84:	00040513          	mv	a0,s0
   14e88:	000600e7          	jalr	a2
   14e8c:	0a842603          	lw	a2,168(s0)
   14e90:	08c42583          	lw	a1,140(s0)
   14e94:	08b67063          	bgeu	a2,a1,14f14 <jpeg_read_raw_data+0xd8>
   14e98:	01043503          	ld	a0,16(s0)
   14e9c:	02050463          	beqz	a0,14ec4 <jpeg_read_raw_data+0x88>
   14ea0:	02061613          	slli	a2,a2,0x20
   14ea4:	02065613          	srli	a2,a2,0x20
   14ea8:	02059593          	slli	a1,a1,0x20
   14eac:	00053683          	ld	a3,0(a0)
   14eb0:	0205d593          	srli	a1,a1,0x20
   14eb4:	00c53423          	sd	a2,8(a0)
   14eb8:	00b53823          	sd	a1,16(a0)
   14ebc:	00040513          	mv	a0,s0
   14ec0:	000680e7          	jalr	a3
   14ec4:	19c42503          	lw	a0,412(s0)
   14ec8:	1a042583          	lw	a1,416(s0)
   14ecc:	02a589bb          	mulw	s3,a1,a0
   14ed0:	01397e63          	bgeu	s2,s3,14eec <jpeg_read_raw_data+0xb0>
   14ed4:	00043503          	ld	a0,0(s0)
   14ed8:	00053583          	ld	a1,0(a0)
   14edc:	01700613          	li	a2,23
   14ee0:	02c52423          	sw	a2,40(a0)
   14ee4:	00040513          	mv	a0,s0
   14ee8:	000580e7          	jalr	a1
   14eec:	23043503          	ld	a0,560(s0)
   14ef0:	01853603          	ld	a2,24(a0)
   14ef4:	00040513          	mv	a0,s0
   14ef8:	00048593          	mv	a1,s1
   14efc:	000600e7          	jalr	a2
   14f00:	02050863          	beqz	a0,14f30 <jpeg_read_raw_data+0xf4>
   14f04:	0a842503          	lw	a0,168(s0)
   14f08:	01350533          	add	a0,a0,s3
   14f0c:	0aa42423          	sw	a0,168(s0)
   14f10:	0240006f          	j	14f34 <jpeg_read_raw_data+0xf8>
   14f14:	00043503          	ld	a0,0(s0)
   14f18:	00853603          	ld	a2,8(a0)
   14f1c:	07b00593          	li	a1,123
   14f20:	02b52423          	sw	a1,40(a0)
   14f24:	fff00593          	li	a1,-1
   14f28:	00040513          	mv	a0,s0
   14f2c:	000600e7          	jalr	a2
   14f30:	00000993          	li	s3,0
   14f34:	00098513          	mv	a0,s3
   14f38:	02813083          	ld	ra,40(sp)
   14f3c:	02013403          	ld	s0,32(sp)
   14f40:	01813483          	ld	s1,24(sp)
   14f44:	01013903          	ld	s2,16(sp)
   14f48:	00813983          	ld	s3,8(sp)
   14f4c:	03010113          	addi	sp,sp,48
   14f50:	00008067          	ret

0000000000014f54 <jpeg_start_output>:
   14f54:	fe010113          	addi	sp,sp,-32
   14f58:	00113c23          	sd	ra,24(sp)
   14f5c:	00813823          	sd	s0,16(sp)
   14f60:	00913423          	sd	s1,8(sp)
   14f64:	01213023          	sd	s2,0(sp)
   14f68:	00050413          	mv	s0,a0
   14f6c:	02452503          	lw	a0,36(a0)
   14f70:	0cc00613          	li	a2,204
   14f74:	02c50a63          	beq	a0,a2,14fa8 <jpeg_start_output+0x54>
   14f78:	0cf00613          	li	a2,207
   14f7c:	02c50663          	beq	a0,a2,14fa8 <jpeg_start_output+0x54>
   14f80:	00043603          	ld	a2,0(s0)
   14f84:	02a62623          	sw	a0,44(a2)
   14f88:	00043503          	ld	a0,0(s0)
   14f8c:	00053683          	ld	a3,0(a0)
   14f90:	01400513          	li	a0,20
   14f94:	02a62423          	sw	a0,40(a2)
   14f98:	00040513          	mv	a0,s0
   14f9c:	00058493          	mv	s1,a1
   14fa0:	000680e7          	jalr	a3
   14fa4:	00048593          	mv	a1,s1
   14fa8:	00b04463          	bgtz	a1,14fb0 <jpeg_start_output+0x5c>
   14fac:	00100593          	li	a1,1
   14fb0:	24043503          	ld	a0,576(s0)
   14fb4:	02452503          	lw	a0,36(a0)
   14fb8:	00050863          	beqz	a0,14fc8 <jpeg_start_output+0x74>
   14fbc:	0ac42503          	lw	a0,172(s0)
   14fc0:	00a5c463          	blt	a1,a0,14fc8 <jpeg_start_output+0x74>
   14fc4:	00050593          	mv	a1,a0
   14fc8:	02442503          	lw	a0,36(s0)
   14fcc:	0cc00493          	li	s1,204
   14fd0:	0ab42a23          	sw	a1,180(s0)
   14fd4:	00950e63          	beq	a0,s1,14ff0 <jpeg_start_output+0x9c>
   14fd8:	22043503          	ld	a0,544(s0)
   14fdc:	00053583          	ld	a1,0(a0)
   14fe0:	00040513          	mv	a0,s0
   14fe4:	000580e7          	jalr	a1
   14fe8:	0a042423          	sw	zero,168(s0)
   14fec:	02942223          	sw	s1,36(s0)
   14ff0:	22043503          	ld	a0,544(s0)
   14ff4:	01052503          	lw	a0,16(a0)
   14ff8:	08050e63          	beqz	a0,15094 <jpeg_start_output+0x140>
   14ffc:	0a846503          	lwu	a0,168(s0)
   15000:	0a840493          	addi	s1,s0,168
   15004:	0380006f          	j	1503c <jpeg_start_output+0xe8>
   15008:	22043503          	ld	a0,544(s0)
   1500c:	00853583          	ld	a1,8(a0)
   15010:	00040513          	mv	a0,s0
   15014:	000580e7          	jalr	a1
   15018:	22043503          	ld	a0,544(s0)
   1501c:	00053583          	ld	a1,0(a0)
   15020:	00040513          	mv	a0,s0
   15024:	000580e7          	jalr	a1
   15028:	22043503          	ld	a0,544(s0)
   1502c:	01052583          	lw	a1,16(a0)
   15030:	00000513          	li	a0,0
   15034:	0a042423          	sw	zero,168(s0)
   15038:	04058e63          	beqz	a1,15094 <jpeg_start_output+0x140>
   1503c:	08c46583          	lwu	a1,140(s0)
   15040:	fcb574e3          	bgeu	a0,a1,15008 <jpeg_start_output+0xb4>
   15044:	01043603          	ld	a2,16(s0)
   15048:	00060e63          	beqz	a2,15064 <jpeg_start_output+0x110>
   1504c:	00063683          	ld	a3,0(a2)
   15050:	00a63423          	sd	a0,8(a2)
   15054:	00b63823          	sd	a1,16(a2)
   15058:	00040513          	mv	a0,s0
   1505c:	000680e7          	jalr	a3
   15060:	0a846503          	lwu	a0,168(s0)
   15064:	22843583          	ld	a1,552(s0)
   15068:	0085b703          	ld	a4,8(a1)
   1506c:	00050913          	mv	s2,a0
   15070:	00040513          	mv	a0,s0
   15074:	00000593          	li	a1,0
   15078:	00048613          	mv	a2,s1
   1507c:	00000693          	li	a3,0
   15080:	000700e7          	jalr	a4
   15084:	0a846503          	lwu	a0,168(s0)
   15088:	fb251ae3          	bne	a0,s2,1503c <jpeg_start_output+0xe8>
   1508c:	00000513          	li	a0,0
   15090:	0180006f          	j	150a8 <jpeg_start_output+0x154>
   15094:	05c42503          	lw	a0,92(s0)
   15098:	00a03533          	snez	a0,a0
   1509c:	0cd50513          	addi	a0,a0,205
   150a0:	02a42223          	sw	a0,36(s0)
   150a4:	00100513          	li	a0,1
   150a8:	01813083          	ld	ra,24(sp)
   150ac:	01013403          	ld	s0,16(sp)
   150b0:	00813483          	ld	s1,8(sp)
   150b4:	00013903          	ld	s2,0(sp)
   150b8:	02010113          	addi	sp,sp,32
   150bc:	00008067          	ret

00000000000150c0 <jpeg_finish_output>:
   150c0:	ff010113          	addi	sp,sp,-16
   150c4:	00113423          	sd	ra,8(sp)
   150c8:	00813023          	sd	s0,0(sp)
   150cc:	00050413          	mv	s0,a0
   150d0:	02452503          	lw	a0,36(a0)
   150d4:	f335059b          	addiw	a1,a0,-205
   150d8:	00100613          	li	a2,1
   150dc:	02b66463          	bltu	a2,a1,15104 <jpeg_finish_output+0x44>
   150e0:	05842583          	lw	a1,88(s0)
   150e4:	02058463          	beqz	a1,1510c <jpeg_finish_output+0x4c>
   150e8:	22043503          	ld	a0,544(s0)
   150ec:	00853583          	ld	a1,8(a0)
   150f0:	00040513          	mv	a0,s0
   150f4:	000580e7          	jalr	a1
   150f8:	0d000513          	li	a0,208
   150fc:	02a42223          	sw	a0,36(s0)
   15100:	02c0006f          	j	1512c <jpeg_finish_output+0x6c>
   15104:	0d000593          	li	a1,208
   15108:	02b50263          	beq	a0,a1,1512c <jpeg_finish_output+0x6c>
   1510c:	00043583          	ld	a1,0(s0)
   15110:	02a5a623          	sw	a0,44(a1)
   15114:	00043503          	ld	a0,0(s0)
   15118:	00053603          	ld	a2,0(a0)
   1511c:	01400513          	li	a0,20
   15120:	02a5a423          	sw	a0,40(a1)
   15124:	00040513          	mv	a0,s0
   15128:	000600e7          	jalr	a2
   1512c:	0ac42503          	lw	a0,172(s0)
   15130:	0b442583          	lw	a1,180(s0)
   15134:	02a5c863          	blt	a1,a0,15164 <jpeg_finish_output+0xa4>
   15138:	24043503          	ld	a0,576(s0)
   1513c:	02452583          	lw	a1,36(a0)
   15140:	02059263          	bnez	a1,15164 <jpeg_finish_output+0xa4>
   15144:	00053583          	ld	a1,0(a0)
   15148:	00040513          	mv	a0,s0
   1514c:	000580e7          	jalr	a1
   15150:	fc051ee3          	bnez	a0,1512c <jpeg_finish_output+0x6c>
   15154:	00813083          	ld	ra,8(sp)
   15158:	00013403          	ld	s0,0(sp)
   1515c:	01010113          	addi	sp,sp,16
   15160:	00008067          	ret
   15164:	0cf00513          	li	a0,207
   15168:	02a42223          	sw	a0,36(s0)
   1516c:	00100513          	li	a0,1
   15170:	00813083          	ld	ra,8(sp)
   15174:	00013403          	ld	s0,0(sp)
   15178:	01010113          	addi	sp,sp,16
   1517c:	00008067          	ret

0000000000015180 <jpeg_stdio_src>:
   15180:	fe010113          	addi	sp,sp,-32
   15184:	00113c23          	sd	ra,24(sp)
   15188:	00813823          	sd	s0,16(sp)
   1518c:	00913423          	sd	s1,8(sp)
   15190:	01213023          	sd	s2,0(sp)
   15194:	02853603          	ld	a2,40(a0)
   15198:	00058413          	mv	s0,a1
   1519c:	04061263          	bnez	a2,151e0 <jpeg_stdio_src+0x60>
   151a0:	00853583          	ld	a1,8(a0)
   151a4:	0005b683          	ld	a3,0(a1)
   151a8:	05000613          	li	a2,80
   151ac:	00050493          	mv	s1,a0
   151b0:	00000593          	li	a1,0
   151b4:	000680e7          	jalr	a3
   151b8:	0084b583          	ld	a1,8(s1)
   151bc:	0005b683          	ld	a3,0(a1)
   151c0:	00050913          	mv	s2,a0
   151c4:	02a4b423          	sd	a0,40(s1)
   151c8:	00001637          	lui	a2,0x1
   151cc:	00048513          	mv	a0,s1
   151d0:	00000593          	li	a1,0
   151d4:	000680e7          	jalr	a3
   151d8:	0284b603          	ld	a2,40(s1)
   151dc:	04a93023          	sd	a0,64(s2)
   151e0:	00015537          	lui	a0,0x15
   151e4:	24050513          	addi	a0,a0,576 # 15240 <init_source>
   151e8:	00a63823          	sd	a0,16(a2) # 1010 <__abi_tag-0xf284>
   151ec:	00015537          	lui	a0,0x15
   151f0:	25050513          	addi	a0,a0,592 # 15250 <fill_input_buffer>
   151f4:	00a63c23          	sd	a0,24(a2)
   151f8:	00015537          	lui	a0,0x15
   151fc:	30850513          	addi	a0,a0,776 # 15308 <skip_input_data>
   15200:	02a63023          	sd	a0,32(a2)
   15204:	00016537          	lui	a0,0x16
   15208:	53050513          	addi	a0,a0,1328 # 16530 <jpeg_resync_to_restart>
   1520c:	02a63423          	sd	a0,40(a2)
   15210:	00015537          	lui	a0,0x15
   15214:	42850513          	addi	a0,a0,1064 # 15428 <term_source>
   15218:	02a63823          	sd	a0,48(a2)
   1521c:	02863c23          	sd	s0,56(a2)
   15220:	00063023          	sd	zero,0(a2)
   15224:	00063423          	sd	zero,8(a2)
   15228:	01813083          	ld	ra,24(sp)
   1522c:	01013403          	ld	s0,16(sp)
   15230:	00813483          	ld	s1,8(sp)
   15234:	00013903          	ld	s2,0(sp)
   15238:	02010113          	addi	sp,sp,32
   1523c:	00008067          	ret

0000000000015240 <init_source>:
   15240:	02853503          	ld	a0,40(a0)
   15244:	00100593          	li	a1,1
   15248:	04b52423          	sw	a1,72(a0)
   1524c:	00008067          	ret

0000000000015250 <fill_input_buffer>:
   15250:	fe010113          	addi	sp,sp,-32
   15254:	00113c23          	sd	ra,24(sp)
   15258:	00813823          	sd	s0,16(sp)
   1525c:	00913423          	sd	s1,8(sp)
   15260:	01213023          	sd	s2,0(sp)
   15264:	00050413          	mv	s0,a0
   15268:	02853483          	ld	s1,40(a0)
   1526c:	0404b503          	ld	a0,64(s1)
   15270:	0384b683          	ld	a3,56(s1)
   15274:	00100593          	li	a1,1
   15278:	00001637          	lui	a2,0x1
   1527c:	925fb0ef          	jal	10ba0 <fread@plt>
   15280:	04051e63          	bnez	a0,152dc <fill_input_buffer+0x8c>
   15284:	0484a503          	lw	a0,72(s1)
   15288:	00050e63          	beqz	a0,152a4 <fill_input_buffer+0x54>
   1528c:	00043503          	ld	a0,0(s0)
   15290:	00053583          	ld	a1,0(a0)
   15294:	02a00613          	li	a2,42
   15298:	02c52423          	sw	a2,40(a0)
   1529c:	00040513          	mv	a0,s0
   152a0:	000580e7          	jalr	a1
   152a4:	00043503          	ld	a0,0(s0)
   152a8:	00853603          	ld	a2,8(a0)
   152ac:	07800593          	li	a1,120
   152b0:	02b52423          	sw	a1,40(a0)
   152b4:	fff00593          	li	a1,-1
   152b8:	fff00913          	li	s2,-1
   152bc:	00040513          	mv	a0,s0
   152c0:	000600e7          	jalr	a2 # 1000 <__abi_tag-0xf294>
   152c4:	0404b503          	ld	a0,64(s1)
   152c8:	01250023          	sb	s2,0(a0)
   152cc:	0404b503          	ld	a0,64(s1)
   152d0:	0d900593          	li	a1,217
   152d4:	00b500a3          	sb	a1,1(a0)
   152d8:	00200513          	li	a0,2
   152dc:	0404b583          	ld	a1,64(s1)
   152e0:	00b4b023          	sd	a1,0(s1)
   152e4:	00a4b423          	sd	a0,8(s1)
   152e8:	00100513          	li	a0,1
   152ec:	0404a423          	sw	zero,72(s1)
   152f0:	01813083          	ld	ra,24(sp)
   152f4:	01013403          	ld	s0,16(sp)
   152f8:	00813483          	ld	s1,8(sp)
   152fc:	00013903          	ld	s2,0(sp)
   15300:	02010113          	addi	sp,sp,32
   15304:	00008067          	ret

0000000000015308 <skip_input_data>:
   15308:	10b05e63          	blez	a1,15424 <skip_input_data+0x11c>
   1530c:	fb010113          	addi	sp,sp,-80
   15310:	04113423          	sd	ra,72(sp)
   15314:	04813023          	sd	s0,64(sp)
   15318:	02913c23          	sd	s1,56(sp)
   1531c:	03213823          	sd	s2,48(sp)
   15320:	03313423          	sd	s3,40(sp)
   15324:	03413023          	sd	s4,32(sp)
   15328:	01513c23          	sd	s5,24(sp)
   1532c:	01613823          	sd	s6,16(sp)
   15330:	01713423          	sd	s7,8(sp)
   15334:	01813023          	sd	s8,0(sp)
   15338:	00058413          	mv	s0,a1
   1533c:	00050493          	mv	s1,a0
   15340:	02853903          	ld	s2,40(a0)
   15344:	00893983          	ld	s3,8(s2)
   15348:	08b9de63          	bge	s3,a1,153e4 <skip_input_data+0xdc>
   1534c:	07800a13          	li	s4,120
   15350:	fff00a93          	li	s5,-1
   15354:	0d900b13          	li	s6,217
   15358:	02a00b93          	li	s7,42
   1535c:	04c0006f          	j	153a8 <skip_input_data+0xa0>
   15360:	0004b503          	ld	a0,0(s1)
   15364:	00853603          	ld	a2,8(a0)
   15368:	03452423          	sw	s4,40(a0)
   1536c:	fff00593          	li	a1,-1
   15370:	00048513          	mv	a0,s1
   15374:	000600e7          	jalr	a2
   15378:	040c3503          	ld	a0,64(s8)
   1537c:	01550023          	sb	s5,0(a0)
   15380:	040c3503          	ld	a0,64(s8)
   15384:	016500a3          	sb	s6,1(a0)
   15388:	00200513          	li	a0,2
   1538c:	41340433          	sub	s0,s0,s3
   15390:	040c3583          	ld	a1,64(s8)
   15394:	00ac3423          	sd	a0,8(s8)
   15398:	00893983          	ld	s3,8(s2)
   1539c:	00bc3023          	sd	a1,0(s8)
   153a0:	040c2423          	sw	zero,72(s8)
   153a4:	0489d063          	bge	s3,s0,153e4 <skip_input_data+0xdc>
   153a8:	0284bc03          	ld	s8,40(s1)
   153ac:	040c3503          	ld	a0,64(s8)
   153b0:	038c3683          	ld	a3,56(s8)
   153b4:	00100593          	li	a1,1
   153b8:	00001637          	lui	a2,0x1
   153bc:	fe4fb0ef          	jal	10ba0 <fread@plt>
   153c0:	fc0516e3          	bnez	a0,1538c <skip_input_data+0x84>
   153c4:	048c2503          	lw	a0,72(s8)
   153c8:	f8050ce3          	beqz	a0,15360 <skip_input_data+0x58>
   153cc:	0004b503          	ld	a0,0(s1)
   153d0:	00053583          	ld	a1,0(a0)
   153d4:	03752423          	sw	s7,40(a0)
   153d8:	00048513          	mv	a0,s1
   153dc:	000580e7          	jalr	a1
   153e0:	f81ff06f          	j	15360 <skip_input_data+0x58>
   153e4:	00093503          	ld	a0,0(s2)
   153e8:	00850533          	add	a0,a0,s0
   153ec:	00a93023          	sd	a0,0(s2)
   153f0:	40898533          	sub	a0,s3,s0
   153f4:	00a93423          	sd	a0,8(s2)
   153f8:	04813083          	ld	ra,72(sp)
   153fc:	04013403          	ld	s0,64(sp)
   15400:	03813483          	ld	s1,56(sp)
   15404:	03013903          	ld	s2,48(sp)
   15408:	02813983          	ld	s3,40(sp)
   1540c:	02013a03          	ld	s4,32(sp)
   15410:	01813a83          	ld	s5,24(sp)
   15414:	01013b03          	ld	s6,16(sp)
   15418:	00813b83          	ld	s7,8(sp)
   1541c:	00013c03          	ld	s8,0(sp)
   15420:	05010113          	addi	sp,sp,80
   15424:	00008067          	ret

0000000000015428 <term_source>:
   15428:	00008067          	ret

000000000001542c <jpeg_calc_output_dimensions>:
   1542c:	fd010113          	addi	sp,sp,-48
   15430:	02113423          	sd	ra,40(sp)
   15434:	02813023          	sd	s0,32(sp)
   15438:	00913c23          	sd	s1,24(sp)
   1543c:	01213823          	sd	s2,16(sp)
   15440:	01313423          	sd	s3,8(sp)
   15444:	00050413          	mv	s0,a0
   15448:	02452503          	lw	a0,36(a0)
   1544c:	0ca00593          	li	a1,202
   15450:	02b50263          	beq	a0,a1,15474 <jpeg_calc_output_dimensions+0x48>
   15454:	00043583          	ld	a1,0(s0)
   15458:	02a5a623          	sw	a0,44(a1)
   1545c:	00043503          	ld	a0,0(s0)
   15460:	00053603          	ld	a2,0(a0)
   15464:	01400513          	li	a0,20
   15468:	02a5a423          	sw	a0,40(a1)
   1546c:	00040513          	mv	a0,s0
   15470:	000600e7          	jalr	a2 # 1000 <__abi_tag-0xf294>
   15474:	04442583          	lw	a1,68(s0)
   15478:	04842603          	lw	a2,72(s0)
   1547c:	0035951b          	slliw	a0,a1,0x3
   15480:	06a67a63          	bgeu	a2,a0,154f4 <jpeg_calc_output_dimensions+0xc8>
   15484:	0025951b          	slliw	a0,a1,0x2
   15488:	06a67e63          	bgeu	a2,a0,15504 <jpeg_calc_output_dimensions+0xd8>
   1548c:	03042503          	lw	a0,48(s0)
   15490:	0015959b          	slliw	a1,a1,0x1
   15494:	08b67063          	bgeu	a2,a1,15514 <jpeg_calc_output_dimensions+0xe8>
   15498:	03442603          	lw	a2,52(s0)
   1549c:	08a42423          	sw	a0,136(s0)
   154a0:	03842583          	lw	a1,56(s0)
   154a4:	08c42623          	sw	a2,140(s0)
   154a8:	00800693          	li	a3,8
   154ac:	1ad42023          	sw	a3,416(s0)
   154b0:	13040493          	addi	s1,s0,304
   154b4:	16b05863          	blez	a1,15624 <jpeg_calc_output_dimensions+0x1f8>
   154b8:	13043503          	ld	a0,304(s0)
   154bc:	00b02633          	sgtz	a2,a1
   154c0:	02450713          	addi	a4,a0,36
   154c4:	fff58793          	addi	a5,a1,-1
   154c8:	00300813          	li	a6,3
   154cc:	02581813          	slli	a6,a6,0x25
   154d0:	02079793          	slli	a5,a5,0x20
   154d4:	0307b7b3          	mulhu	a5,a5,a6
   154d8:	00a787b3          	add	a5,a5,a0
   154dc:	08478793          	addi	a5,a5,132
   154e0:	00d72023          	sw	a3,0(a4)
   154e4:	06070713          	addi	a4,a4,96
   154e8:	fef71ce3          	bne	a4,a5,154e0 <jpeg_calc_output_dimensions+0xb4>
   154ec:	0c061c63          	bnez	a2,155c4 <jpeg_calc_output_dimensions+0x198>
   154f0:	1340006f          	j	15624 <jpeg_calc_output_dimensions+0x1f8>
   154f4:	00100913          	li	s2,1
   154f8:	00800493          	li	s1,8
   154fc:	03042503          	lw	a0,48(s0)
   15500:	01c0006f          	j	1551c <jpeg_calc_output_dimensions+0xf0>
   15504:	00200913          	li	s2,2
   15508:	00400493          	li	s1,4
   1550c:	03042503          	lw	a0,48(s0)
   15510:	00c0006f          	j	1551c <jpeg_calc_output_dimensions+0xf0>
   15514:	00400913          	li	s2,4
   15518:	00200493          	li	s1,2
   1551c:	02051513          	slli	a0,a0,0x20
   15520:	02055513          	srli	a0,a0,0x20
   15524:	00048593          	mv	a1,s1
   15528:	6b90e0ef          	jal	243e0 <jdiv_round_up>
   1552c:	03446583          	lwu	a1,52(s0)
   15530:	08a42423          	sw	a0,136(s0)
   15534:	00058513          	mv	a0,a1
   15538:	00048593          	mv	a1,s1
   1553c:	6a50e0ef          	jal	243e0 <jdiv_round_up>
   15540:	03842583          	lw	a1,56(s0)
   15544:	08a42623          	sw	a0,140(s0)
   15548:	1b242023          	sw	s2,416(s0)
   1554c:	13040493          	addi	s1,s0,304
   15550:	0cb05a63          	blez	a1,15624 <jpeg_calc_output_dimensions+0x1f8>
   15554:	19842683          	lw	a3,408(s0)
   15558:	13043503          	ld	a0,304(s0)
   1555c:	00000613          	li	a2,0
   15560:	032686bb          	mulw	a3,a3,s2
   15564:	00400713          	li	a4,4
   15568:	00050793          	mv	a5,a0
   1556c:	0180006f          	j	15584 <jpeg_calc_output_dimensions+0x158>
   15570:	00088293          	mv	t0,a7
   15574:	0257a223          	sw	t0,36(a5)
   15578:	0016061b          	addiw	a2,a2,1
   1557c:	06078793          	addi	a5,a5,96
   15580:	02b60e63          	beq	a2,a1,155bc <jpeg_calc_output_dimensions+0x190>
   15584:	0087a803          	lw	a6,8(a5)
   15588:	00181813          	slli	a6,a6,0x1
   1558c:	00090293          	mv	t0,s2
   15590:	00028893          	mv	a7,t0
   15594:	030282bb          	mulw	t0,t0,a6
   15598:	fc56cce3          	blt	a3,t0,15570 <jpeg_calc_output_dimensions+0x144>
   1559c:	00c7a303          	lw	t1,12(a5)
   155a0:	19c42383          	lw	t2,412(s0)
   155a4:	0018929b          	slliw	t0,a7,0x1
   155a8:	0262833b          	mulw	t1,t0,t1
   155ac:	032383bb          	mulw	t2,t2,s2
   155b0:	fc63c0e3          	blt	t2,t1,15570 <jpeg_calc_output_dimensions+0x144>
   155b4:	fce8cee3          	blt	a7,a4,15590 <jpeg_calc_output_dimensions+0x164>
   155b8:	fbdff06f          	j	15574 <jpeg_calc_output_dimensions+0x148>
   155bc:	00100613          	li	a2,1
   155c0:	06060263          	beqz	a2,15624 <jpeg_calc_output_dimensions+0x1f8>
   155c4:	00000913          	li	s2,0
   155c8:	02450993          	addi	s3,a0,36
   155cc:	fe49a503          	lw	a0,-28(s3)
   155d0:	0009a583          	lw	a1,0(s3)
   155d4:	03046603          	lwu	a2,48(s0)
   155d8:	19842683          	lw	a3,408(s0)
   155dc:	02a5853b          	mulw	a0,a1,a0
   155e0:	02c50533          	mul	a0,a0,a2
   155e4:	0036959b          	slliw	a1,a3,0x3
   155e8:	5f90e0ef          	jal	243e0 <jdiv_round_up>
   155ec:	fe89a583          	lw	a1,-24(s3)
   155f0:	0009a603          	lw	a2,0(s3)
   155f4:	03446683          	lwu	a3,52(s0)
   155f8:	19c42703          	lw	a4,412(s0)
   155fc:	00a9a223          	sw	a0,4(s3)
   15600:	02b6053b          	mulw	a0,a2,a1
   15604:	02d50533          	mul	a0,a0,a3
   15608:	0037159b          	slliw	a1,a4,0x3
   1560c:	5d50e0ef          	jal	243e0 <jdiv_round_up>
   15610:	03842583          	lw	a1,56(s0)
   15614:	00a9a423          	sw	a0,8(s3)
   15618:	0019091b          	addiw	s2,s2,1
   1561c:	06098993          	addi	s3,s3,96
   15620:	fab946e3          	blt	s2,a1,155cc <jpeg_calc_output_dimensions+0x1a0>
   15624:	04042683          	lw	a3,64(s0)
   15628:	fff6851b          	addiw	a0,a3,-1
   1562c:	00400713          	li	a4,4
   15630:	00058613          	mv	a2,a1
   15634:	00a76c63          	bltu	a4,a0,1564c <jpeg_calc_output_dimensions+0x220>
   15638:	00251513          	slli	a0,a0,0x2
   1563c:	00028637          	lui	a2,0x28
   15640:	c2860613          	addi	a2,a2,-984 # 27c28 <cdjpeg_message_table+0x1f00>
   15644:	00a60533          	add	a0,a2,a0
   15648:	00052603          	lw	a2,0(a0)
   1564c:	06c42783          	lw	a5,108(s0)
   15650:	08c42823          	sw	a2,144(s0)
   15654:	00100513          	li	a0,1
   15658:	00060713          	mv	a4,a2
   1565c:	00078463          	beqz	a5,15664 <jpeg_calc_output_dimensions+0x238>
   15660:	00100713          	li	a4,1
   15664:	06442783          	lw	a5,100(s0)
   15668:	08e42a23          	sw	a4,148(s0)
   1566c:	00079663          	bnez	a5,15678 <jpeg_calc_output_dimensions+0x24c>
   15670:	18842703          	lw	a4,392(s0)
   15674:	02070263          	beqz	a4,15698 <jpeg_calc_output_dimensions+0x26c>
   15678:	08a42c23          	sw	a0,152(s0)
   1567c:	02813083          	ld	ra,40(sp)
   15680:	02013403          	ld	s0,32(sp)
   15684:	01813483          	ld	s1,24(sp)
   15688:	01013903          	ld	s2,16(sp)
   1568c:	00813983          	ld	s3,8(sp)
   15690:	03010113          	addi	sp,sp,48
   15694:	00008067          	ret
   15698:	00200713          	li	a4,2
   1569c:	fce69ee3          	bne	a3,a4,15678 <jpeg_calc_output_dimensions+0x24c>
   156a0:	00300693          	li	a3,3
   156a4:	fcd59ae3          	bne	a1,a3,15678 <jpeg_calc_output_dimensions+0x24c>
   156a8:	03c42583          	lw	a1,60(s0)
   156ac:	fcd596e3          	bne	a1,a3,15678 <jpeg_calc_output_dimensions+0x24c>
   156b0:	00300593          	li	a1,3
   156b4:	fcb612e3          	bne	a2,a1,15678 <jpeg_calc_output_dimensions+0x24c>
   156b8:	0004b583          	ld	a1,0(s1)
   156bc:	0085a603          	lw	a2,8(a1)
   156c0:	00200693          	li	a3,2
   156c4:	fad61ae3          	bne	a2,a3,15678 <jpeg_calc_output_dimensions+0x24c>
   156c8:	0685a603          	lw	a2,104(a1)
   156cc:	00100513          	li	a0,1
   156d0:	faa614e3          	bne	a2,a0,15678 <jpeg_calc_output_dimensions+0x24c>
   156d4:	0c85a603          	lw	a2,200(a1)
   156d8:	00100513          	li	a0,1
   156dc:	f8a61ee3          	bne	a2,a0,15678 <jpeg_calc_output_dimensions+0x24c>
   156e0:	00c5a603          	lw	a2,12(a1)
   156e4:	00200693          	li	a3,2
   156e8:	f8c6c8e3          	blt	a3,a2,15678 <jpeg_calc_output_dimensions+0x24c>
   156ec:	06c5a603          	lw	a2,108(a1)
   156f0:	00100513          	li	a0,1
   156f4:	f8a612e3          	bne	a2,a0,15678 <jpeg_calc_output_dimensions+0x24c>
   156f8:	0cc5a603          	lw	a2,204(a1)
   156fc:	00100513          	li	a0,1
   15700:	f6a61ce3          	bne	a2,a0,15678 <jpeg_calc_output_dimensions+0x24c>
   15704:	0245a603          	lw	a2,36(a1)
   15708:	1a042683          	lw	a3,416(s0)
   1570c:	f6d616e3          	bne	a2,a3,15678 <jpeg_calc_output_dimensions+0x24c>
   15710:	0845a683          	lw	a3,132(a1)
   15714:	f6c692e3          	bne	a3,a2,15678 <jpeg_calc_output_dimensions+0x24c>
   15718:	0e45a583          	lw	a1,228(a1)
   1571c:	f4c59ee3          	bne	a1,a2,15678 <jpeg_calc_output_dimensions+0x24c>
   15720:	19c42503          	lw	a0,412(s0)
   15724:	f55ff06f          	j	15678 <jpeg_calc_output_dimensions+0x24c>

0000000000015728 <jpeg_new_colormap>:
   15728:	fe010113          	addi	sp,sp,-32
   1572c:	00113c23          	sd	ra,24(sp)
   15730:	00813823          	sd	s0,16(sp)
   15734:	00913423          	sd	s1,8(sp)
   15738:	02452583          	lw	a1,36(a0)
   1573c:	22053483          	ld	s1,544(a0)
   15740:	0cf00613          	li	a2,207
   15744:	02c58463          	beq	a1,a2,1576c <jpeg_new_colormap+0x44>
   15748:	00053603          	ld	a2,0(a0)
   1574c:	02b62623          	sw	a1,44(a2)
   15750:	00053583          	ld	a1,0(a0)
   15754:	0005b583          	ld	a1,0(a1)
   15758:	01400693          	li	a3,20
   1575c:	02d62423          	sw	a3,40(a2)
   15760:	00050413          	mv	s0,a0
   15764:	000580e7          	jalr	a1
   15768:	00040513          	mv	a0,s0
   1576c:	06c52583          	lw	a1,108(a0)
   15770:	02058e63          	beqz	a1,157ac <jpeg_new_colormap+0x84>
   15774:	08052583          	lw	a1,128(a0)
   15778:	02058a63          	beqz	a1,157ac <jpeg_new_colormap+0x84>
   1577c:	0a053583          	ld	a1,160(a0)
   15780:	02058663          	beqz	a1,157ac <jpeg_new_colormap+0x84>
   15784:	0284b583          	ld	a1,40(s1)
   15788:	0185b603          	ld	a2,24(a1)
   1578c:	26b53823          	sd	a1,624(a0)
   15790:	000600e7          	jalr	a2
   15794:	0004a823          	sw	zero,16(s1)
   15798:	01813083          	ld	ra,24(sp)
   1579c:	01013403          	ld	s0,16(sp)
   157a0:	00813483          	ld	s1,8(sp)
   157a4:	02010113          	addi	sp,sp,32
   157a8:	00008067          	ret
   157ac:	00053583          	ld	a1,0(a0)
   157b0:	0005b303          	ld	t1,0(a1)
   157b4:	02e00613          	li	a2,46
   157b8:	02c5a423          	sw	a2,40(a1)
   157bc:	01813083          	ld	ra,24(sp)
   157c0:	01013403          	ld	s0,16(sp)
   157c4:	00813483          	ld	s1,8(sp)
   157c8:	02010113          	addi	sp,sp,32
   157cc:	00030067          	jr	t1

00000000000157d0 <jinit_master_decompress>:
   157d0:	fd010113          	addi	sp,sp,-48
   157d4:	02113423          	sd	ra,40(sp)
   157d8:	02813023          	sd	s0,32(sp)
   157dc:	00913c23          	sd	s1,24(sp)
   157e0:	01213823          	sd	s2,16(sp)
   157e4:	01313423          	sd	s3,8(sp)
   157e8:	01413023          	sd	s4,0(sp)
   157ec:	00050493          	mv	s1,a0
   157f0:	00853503          	ld	a0,8(a0)
   157f4:	00053683          	ld	a3,0(a0)
   157f8:	00100593          	li	a1,1
   157fc:	03000613          	li	a2,48
   15800:	00048513          	mv	a0,s1
   15804:	000680e7          	jalr	a3
   15808:	00050413          	mv	s0,a0
   1580c:	22a4b023          	sd	a0,544(s1)
   15810:	00016537          	lui	a0,0x16
   15814:	be850513          	addi	a0,a0,-1048 # 15be8 <prepare_for_output_pass>
   15818:	00a43023          	sd	a0,0(s0)
   1581c:	00016537          	lui	a0,0x16
   15820:	db050513          	addi	a0,a0,-592 # 15db0 <finish_output_pass>
   15824:	00a43423          	sd	a0,8(s0)
   15828:	00042823          	sw	zero,16(s0)
   1582c:	00048513          	mv	a0,s1
   15830:	bfdff0ef          	jal	1542c <jpeg_calc_output_dimensions>
   15834:	0084b503          	ld	a0,8(s1)
   15838:	00053683          	ld	a3,0(a0)
   1583c:	00100593          	li	a1,1
   15840:	58000613          	li	a2,1408
   15844:	00048513          	mv	a0,s1
   15848:	000680e7          	jalr	a3
   1584c:	00050913          	mv	s2,a0
   15850:	10050993          	addi	s3,a0,256
   15854:	1b34b423          	sd	s3,424(s1)
   15858:	10000613          	li	a2,256
   1585c:	10000a13          	li	s4,256
   15860:	00000593          	li	a1,0
   15864:	becfb0ef          	jal	10c50 <memset@plt>
   15868:	00000513          	li	a0,0
   1586c:	00a985b3          	add	a1,s3,a0
   15870:	00a58023          	sb	a0,0(a1)
   15874:	00150513          	addi	a0,a0,1
   15878:	ff451ae3          	bne	a0,s4,1586c <jinit_master_decompress+0x9c>
   1587c:	20090513          	addi	a0,s2,512
   15880:	0ff00593          	li	a1,255
   15884:	18000613          	li	a2,384
   15888:	bc8fb0ef          	jal	10c50 <memset@plt>
   1588c:	38090513          	addi	a0,s2,896
   15890:	18000613          	li	a2,384
   15894:	00000593          	li	a1,0
   15898:	bb8fb0ef          	jal	10c50 <memset@plt>
   1589c:	1a84b583          	ld	a1,424(s1)
   158a0:	50090513          	addi	a0,s2,1280
   158a4:	08000613          	li	a2,128
   158a8:	ae8fb0ef          	jal	10b90 <memcpy@plt>
   158ac:	0884e503          	lwu	a0,136(s1)
   158b0:	0904a583          	lw	a1,144(s1)
   158b4:	02a58533          	mul	a0,a1,a0
   158b8:	02055513          	srli	a0,a0,0x20
   158bc:	00050e63          	beqz	a0,158d8 <jinit_master_decompress+0x108>
   158c0:	0004b503          	ld	a0,0(s1)
   158c4:	00053583          	ld	a1,0(a0)
   158c8:	04600613          	li	a2,70
   158cc:	02c52423          	sw	a2,40(a0)
   158d0:	00048513          	mv	a0,s1
   158d4:	000580e7          	jalr	a1
   158d8:	0644a583          	lw	a1,100(s1)
   158dc:	00000513          	li	a0,0
   158e0:	00042c23          	sw	zero,24(s0)
   158e4:	0a059263          	bnez	a1,15988 <jinit_master_decompress+0x1b8>
   158e8:	1884a503          	lw	a0,392(s1)
   158ec:	08051c63          	bnez	a0,15984 <jinit_master_decompress+0x1b4>
   158f0:	03c4a583          	lw	a1,60(s1)
   158f4:	00300513          	li	a0,3
   158f8:	08a59663          	bne	a1,a0,15984 <jinit_master_decompress+0x1b4>
   158fc:	0384a583          	lw	a1,56(s1)
   15900:	08a59263          	bne	a1,a0,15984 <jinit_master_decompress+0x1b4>
   15904:	0404a503          	lw	a0,64(s1)
   15908:	00200593          	li	a1,2
   1590c:	06b51c63          	bne	a0,a1,15984 <jinit_master_decompress+0x1b4>
   15910:	0904a503          	lw	a0,144(s1)
   15914:	00300593          	li	a1,3
   15918:	06b51663          	bne	a0,a1,15984 <jinit_master_decompress+0x1b4>
   1591c:	1304b503          	ld	a0,304(s1)
   15920:	00852583          	lw	a1,8(a0)
   15924:	00200613          	li	a2,2
   15928:	04c59e63          	bne	a1,a2,15984 <jinit_master_decompress+0x1b4>
   1592c:	06852603          	lw	a2,104(a0)
   15930:	00100593          	li	a1,1
   15934:	04b61863          	bne	a2,a1,15984 <jinit_master_decompress+0x1b4>
   15938:	0c852603          	lw	a2,200(a0)
   1593c:	04b61463          	bne	a2,a1,15984 <jinit_master_decompress+0x1b4>
   15940:	00c52583          	lw	a1,12(a0)
   15944:	00200613          	li	a2,2
   15948:	02b64e63          	blt	a2,a1,15984 <jinit_master_decompress+0x1b4>
   1594c:	06c52603          	lw	a2,108(a0)
   15950:	00100593          	li	a1,1
   15954:	02b61863          	bne	a2,a1,15984 <jinit_master_decompress+0x1b4>
   15958:	0cc52603          	lw	a2,204(a0)
   1595c:	02b61463          	bne	a2,a1,15984 <jinit_master_decompress+0x1b4>
   15960:	02452583          	lw	a1,36(a0)
   15964:	1a04a603          	lw	a2,416(s1)
   15968:	00c59e63          	bne	a1,a2,15984 <jinit_master_decompress+0x1b4>
   1596c:	08452603          	lw	a2,132(a0)
   15970:	00b61a63          	bne	a2,a1,15984 <jinit_master_decompress+0x1b4>
   15974:	0e452503          	lw	a0,228(a0)
   15978:	00b54533          	xor	a0,a0,a1
   1597c:	00153513          	seqz	a0,a0
   15980:	0080006f          	j	15988 <jinit_master_decompress+0x1b8>
   15984:	00000513          	li	a0,0
   15988:	02043023          	sd	zero,32(s0)
   1598c:	02043423          	sd	zero,40(s0)
   15990:	06c4a583          	lw	a1,108(s1)
   15994:	00a42e23          	sw	a0,28(s0)
   15998:	04058a63          	beqz	a1,159ec <jinit_master_decompress+0x21c>
   1599c:	0584a503          	lw	a0,88(s1)
   159a0:	00051663          	bnez	a0,159ac <jinit_master_decompress+0x1dc>
   159a4:	0604ae23          	sw	zero,124(s1)
   159a8:	0804b023          	sd	zero,128(s1)
   159ac:	05c4a503          	lw	a0,92(s1)
   159b0:	00050e63          	beqz	a0,159cc <jinit_master_decompress+0x1fc>
   159b4:	0004b503          	ld	a0,0(s1)
   159b8:	00053583          	ld	a1,0(a0)
   159bc:	02f00613          	li	a2,47
   159c0:	02c52423          	sw	a2,40(a0)
   159c4:	00048513          	mv	a0,s1
   159c8:	000580e7          	jalr	a1
   159cc:	0904a503          	lw	a0,144(s1)
   159d0:	00300593          	li	a1,3
   159d4:	02b51263          	bne	a0,a1,159f8 <jinit_master_decompress+0x228>
   159d8:	0a04b503          	ld	a0,160(s1)
   159dc:	1e050663          	beqz	a0,15bc8 <jinit_master_decompress+0x3f8>
   159e0:	00100513          	li	a0,1
   159e4:	08a4a023          	sw	a0,128(s1)
   159e8:	0200006f          	j	15a08 <jinit_master_decompress+0x238>
   159ec:	0604ae23          	sw	zero,124(s1)
   159f0:	0804b023          	sd	zero,128(s1)
   159f4:	04c0006f          	j	15a40 <jinit_master_decompress+0x270>
   159f8:	00100513          	li	a0,1
   159fc:	06a4ae23          	sw	a0,124(s1)
   15a00:	0804b023          	sd	zero,128(s1)
   15a04:	0a04b023          	sd	zero,160(s1)
   15a08:	07c4a503          	lw	a0,124(s1)
   15a0c:	00050a63          	beqz	a0,15a20 <jinit_master_decompress+0x250>
   15a10:	00048513          	mv	a0,s1
   15a14:	4410a0ef          	jal	20654 <jinit_1pass_quantizer>
   15a18:	2704b503          	ld	a0,624(s1)
   15a1c:	02a43023          	sd	a0,32(s0)
   15a20:	0844a503          	lw	a0,132(s1)
   15a24:	00051663          	bnez	a0,15a30 <jinit_master_decompress+0x260>
   15a28:	0804a503          	lw	a0,128(s1)
   15a2c:	00050a63          	beqz	a0,15a40 <jinit_master_decompress+0x270>
   15a30:	00048513          	mv	a0,s1
   15a34:	5dd0b0ef          	jal	21810 <jinit_2pass_quantizer>
   15a38:	2704b503          	ld	a0,624(s1)
   15a3c:	02a43423          	sd	a0,40(s0)
   15a40:	05c4a503          	lw	a0,92(s1)
   15a44:	10050263          	beqz	a0,15b48 <jinit_master_decompress+0x378>
   15a48:	00048513          	mv	a0,s1
   15a4c:	1a5070ef          	jal	1d3f0 <jinit_inverse_dct>
   15a50:	13c4a503          	lw	a0,316(s1)
   15a54:	12050a63          	beqz	a0,15b88 <jinit_master_decompress+0x3b8>
   15a58:	0004b503          	ld	a0,0(s1)
   15a5c:	00053583          	ld	a1,0(a0)
   15a60:	00100613          	li	a2,1
   15a64:	02c52423          	sw	a2,40(a0)
   15a68:	00048513          	mv	a0,s1
   15a6c:	000580e7          	jalr	a1
   15a70:	2404b503          	ld	a0,576(s1)
   15a74:	02052503          	lw	a0,32(a0)
   15a78:	00100593          	li	a1,1
   15a7c:	00051663          	bnez	a0,15a88 <jinit_master_decompress+0x2b8>
   15a80:	0584a503          	lw	a0,88(s1)
   15a84:	00a035b3          	snez	a1,a0
   15a88:	00048513          	mv	a0,s1
   15a8c:	324060ef          	jal	1bdb0 <jinit_d_coef_controller>
   15a90:	05c4a503          	lw	a0,92(s1)
   15a94:	00051863          	bnez	a0,15aa4 <jinit_master_decompress+0x2d4>
   15a98:	00048513          	mv	a0,s1
   15a9c:	00000593          	li	a1,0
   15aa0:	369050ef          	jal	1b608 <jinit_d_main_controller>
   15aa4:	0084b503          	ld	a0,8(s1)
   15aa8:	03053583          	ld	a1,48(a0)
   15aac:	00048513          	mv	a0,s1
   15ab0:	000580e7          	jalr	a1
   15ab4:	2404b503          	ld	a0,576(s1)
   15ab8:	01053583          	ld	a1,16(a0)
   15abc:	00048513          	mv	a0,s1
   15ac0:	000580e7          	jalr	a1
   15ac4:	0104b503          	ld	a0,16(s1)
   15ac8:	06050063          	beqz	a0,15b28 <jinit_master_decompress+0x358>
   15acc:	0584a583          	lw	a1,88(s1)
   15ad0:	04059c63          	bnez	a1,15b28 <jinit_master_decompress+0x358>
   15ad4:	2404b583          	ld	a1,576(s1)
   15ad8:	0205a583          	lw	a1,32(a1)
   15adc:	04058663          	beqz	a1,15b28 <jinit_master_decompress+0x358>
   15ae0:	1384a603          	lw	a2,312(s1)
   15ae4:	0384a583          	lw	a1,56(s1)
   15ae8:	00060863          	beqz	a2,15af8 <jinit_master_decompress+0x328>
   15aec:	00159613          	slli	a2,a1,0x1
   15af0:	00b605b3          	add	a1,a2,a1
   15af4:	0025859b          	addiw	a1,a1,2
   15af8:	1a44e603          	lwu	a2,420(s1)
   15afc:	00053423          	sd	zero,8(a0)
   15b00:	02c585b3          	mul	a1,a1,a2
   15b04:	0844a603          	lw	a2,132(s1)
   15b08:	00b53823          	sd	a1,16(a0)
   15b0c:	00052c23          	sw	zero,24(a0)
   15b10:	01842583          	lw	a1,24(s0)
   15b14:	00163613          	seqz	a2,a2
   15b18:	00364613          	xori	a2,a2,3
   15b1c:	00c52e23          	sw	a2,28(a0)
   15b20:	00158593          	addi	a1,a1,1
   15b24:	00b42c23          	sw	a1,24(s0)
   15b28:	02813083          	ld	ra,40(sp)
   15b2c:	02013403          	ld	s0,32(sp)
   15b30:	01813483          	ld	s1,24(sp)
   15b34:	01013903          	ld	s2,16(sp)
   15b38:	00813983          	ld	s3,8(sp)
   15b3c:	00013a03          	ld	s4,0(sp)
   15b40:	03010113          	addi	sp,sp,48
   15b44:	00008067          	ret
   15b48:	01c42503          	lw	a0,28(s0)
   15b4c:	00050863          	beqz	a0,15b5c <jinit_master_decompress+0x38c>
   15b50:	00048513          	mv	a0,s1
   15b54:	7dd0d0ef          	jal	23b30 <jinit_merged_upsampler>
   15b58:	0140006f          	j	15b6c <jinit_master_decompress+0x39c>
   15b5c:	00048513          	mv	a0,s1
   15b60:	34c0a0ef          	jal	1feac <jinit_color_deconverter>
   15b64:	00048513          	mv	a0,s1
   15b68:	04d090ef          	jal	1f3b4 <jinit_upsampler>
   15b6c:	0844a583          	lw	a1,132(s1)
   15b70:	00048513          	mv	a0,s1
   15b74:	3c8070ef          	jal	1cf3c <jinit_d_post_controller>
   15b78:	00048513          	mv	a0,s1
   15b7c:	075070ef          	jal	1d3f0 <jinit_inverse_dct>
   15b80:	13c4a503          	lw	a0,316(s1)
   15b84:	ec051ae3          	bnez	a0,15a58 <jinit_master_decompress+0x288>
   15b88:	1384a503          	lw	a0,312(s1)
   15b8c:	02050063          	beqz	a0,15bac <jinit_master_decompress+0x3dc>
   15b90:	00048513          	mv	a0,s1
   15b94:	0dd040ef          	jal	1a470 <jinit_phuff_decoder>
   15b98:	2404b503          	ld	a0,576(s1)
   15b9c:	02052503          	lw	a0,32(a0)
   15ba0:	00100593          	li	a1,1
   15ba4:	ee0512e3          	bnez	a0,15a88 <jinit_master_decompress+0x2b8>
   15ba8:	ed9ff06f          	j	15a80 <jinit_master_decompress+0x2b0>
   15bac:	00048513          	mv	a0,s1
   15bb0:	11c040ef          	jal	19ccc <jinit_huff_decoder>
   15bb4:	2404b503          	ld	a0,576(s1)
   15bb8:	02052503          	lw	a0,32(a0)
   15bbc:	00100593          	li	a1,1
   15bc0:	ec0514e3          	bnez	a0,15a88 <jinit_master_decompress+0x2b8>
   15bc4:	ebdff06f          	j	15a80 <jinit_master_decompress+0x2b0>
   15bc8:	0744a503          	lw	a0,116(s1)
   15bcc:	00050863          	beqz	a0,15bdc <jinit_master_decompress+0x40c>
   15bd0:	00100513          	li	a0,1
   15bd4:	08a4a223          	sw	a0,132(s1)
   15bd8:	e31ff06f          	j	15a08 <jinit_master_decompress+0x238>
   15bdc:	00100513          	li	a0,1
   15be0:	06a4ae23          	sw	a0,124(s1)
   15be4:	e25ff06f          	j	15a08 <jinit_master_decompress+0x238>

0000000000015be8 <prepare_for_output_pass>:
   15be8:	fe010113          	addi	sp,sp,-32
   15bec:	00113c23          	sd	ra,24(sp)
   15bf0:	00813823          	sd	s0,16(sp)
   15bf4:	00913423          	sd	s1,8(sp)
   15bf8:	01213023          	sd	s2,0(sp)
   15bfc:	00050413          	mv	s0,a0
   15c00:	22053903          	ld	s2,544(a0)
   15c04:	01092503          	lw	a0,16(s2)
   15c08:	04050663          	beqz	a0,15c54 <prepare_for_output_pass+0x6c>
   15c0c:	27043503          	ld	a0,624(s0)
   15c10:	00053603          	ld	a2,0(a0)
   15c14:	00092823          	sw	zero,16(s2)
   15c18:	00040513          	mv	a0,s0
   15c1c:	00000593          	li	a1,0
   15c20:	000600e7          	jalr	a2
   15c24:	23843503          	ld	a0,568(s0)
   15c28:	00053603          	ld	a2,0(a0)
   15c2c:	00200593          	li	a1,2
   15c30:	00200493          	li	s1,2
   15c34:	00040513          	mv	a0,s0
   15c38:	000600e7          	jalr	a2
   15c3c:	22843503          	ld	a0,552(s0)
   15c40:	00053603          	ld	a2,0(a0)
   15c44:	00040513          	mv	a0,s0
   15c48:	00048593          	mv	a1,s1
   15c4c:	000600e7          	jalr	a2
   15c50:	03c0006f          	j	15c8c <prepare_for_output_pass+0xa4>
   15c54:	06c42503          	lw	a0,108(s0)
   15c58:	00050663          	beqz	a0,15c64 <prepare_for_output_pass+0x7c>
   15c5c:	0a043503          	ld	a0,160(s0)
   15c60:	0e050e63          	beqz	a0,15d5c <prepare_for_output_pass+0x174>
   15c64:	25843503          	ld	a0,600(s0)
   15c68:	00053583          	ld	a1,0(a0)
   15c6c:	00040513          	mv	a0,s0
   15c70:	000580e7          	jalr	a1
   15c74:	23043503          	ld	a0,560(s0)
   15c78:	01053583          	ld	a1,16(a0)
   15c7c:	00040513          	mv	a0,s0
   15c80:	000580e7          	jalr	a1
   15c84:	05c42503          	lw	a0,92(s0)
   15c88:	06050463          	beqz	a0,15cf0 <prepare_for_output_pass+0x108>
   15c8c:	01043503          	ld	a0,16(s0)
   15c90:	04050463          	beqz	a0,15cd8 <prepare_for_output_pass+0xf0>
   15c94:	01892583          	lw	a1,24(s2)
   15c98:	01092603          	lw	a2,16(s2)
   15c9c:	00b52c23          	sw	a1,24(a0)
   15ca0:	05842683          	lw	a3,88(s0)
   15ca4:	00163613          	seqz	a2,a2
   15ca8:	40c585bb          	subw	a1,a1,a2
   15cac:	00258593          	addi	a1,a1,2
   15cb0:	00b52e23          	sw	a1,28(a0)
   15cb4:	02068263          	beqz	a3,15cd8 <prepare_for_output_pass+0xf0>
   15cb8:	24043603          	ld	a2,576(s0)
   15cbc:	02462603          	lw	a2,36(a2)
   15cc0:	00061c63          	bnez	a2,15cd8 <prepare_for_output_pass+0xf0>
   15cc4:	08442603          	lw	a2,132(s0)
   15cc8:	00163613          	seqz	a2,a2
   15ccc:	40c585bb          	subw	a1,a1,a2
   15cd0:	00258593          	addi	a1,a1,2
   15cd4:	00b52e23          	sw	a1,28(a0)
   15cd8:	01813083          	ld	ra,24(sp)
   15cdc:	01013403          	ld	s0,16(sp)
   15ce0:	00813483          	ld	s1,8(sp)
   15ce4:	00013903          	ld	s2,0(sp)
   15ce8:	02010113          	addi	sp,sp,32
   15cec:	00008067          	ret
   15cf0:	01c92503          	lw	a0,28(s2)
   15cf4:	00051a63          	bnez	a0,15d08 <prepare_for_output_pass+0x120>
   15cf8:	26843503          	ld	a0,616(s0)
   15cfc:	00053583          	ld	a1,0(a0)
   15d00:	00040513          	mv	a0,s0
   15d04:	000580e7          	jalr	a1
   15d08:	26043503          	ld	a0,608(s0)
   15d0c:	00053583          	ld	a1,0(a0)
   15d10:	00040513          	mv	a0,s0
   15d14:	000580e7          	jalr	a1
   15d18:	06c42503          	lw	a0,108(s0)
   15d1c:	00050c63          	beqz	a0,15d34 <prepare_for_output_pass+0x14c>
   15d20:	27043503          	ld	a0,624(s0)
   15d24:	00053603          	ld	a2,0(a0)
   15d28:	01092583          	lw	a1,16(s2)
   15d2c:	00040513          	mv	a0,s0
   15d30:	000600e7          	jalr	a2
   15d34:	23843503          	ld	a0,568(s0)
   15d38:	01092583          	lw	a1,16(s2)
   15d3c:	00053603          	ld	a2,0(a0)
   15d40:	0015b513          	seqz	a0,a1
   15d44:	fff50513          	addi	a0,a0,-1
   15d48:	00357593          	andi	a1,a0,3
   15d4c:	00040513          	mv	a0,s0
   15d50:	000600e7          	jalr	a2
   15d54:	00000493          	li	s1,0
   15d58:	ee5ff06f          	j	15c3c <prepare_for_output_pass+0x54>
   15d5c:	07442503          	lw	a0,116(s0)
   15d60:	02050063          	beqz	a0,15d80 <prepare_for_output_pass+0x198>
   15d64:	08442503          	lw	a0,132(s0)
   15d68:	00050c63          	beqz	a0,15d80 <prepare_for_output_pass+0x198>
   15d6c:	02893503          	ld	a0,40(s2)
   15d70:	26a43823          	sd	a0,624(s0)
   15d74:	00100513          	li	a0,1
   15d78:	00a92823          	sw	a0,16(s2)
   15d7c:	ee9ff06f          	j	15c64 <prepare_for_output_pass+0x7c>
   15d80:	07c42503          	lw	a0,124(s0)
   15d84:	00050863          	beqz	a0,15d94 <prepare_for_output_pass+0x1ac>
   15d88:	02093503          	ld	a0,32(s2)
   15d8c:	26a43823          	sd	a0,624(s0)
   15d90:	ed5ff06f          	j	15c64 <prepare_for_output_pass+0x7c>
   15d94:	00043503          	ld	a0,0(s0)
   15d98:	00053583          	ld	a1,0(a0)
   15d9c:	02e00613          	li	a2,46
   15da0:	02c52423          	sw	a2,40(a0)
   15da4:	00040513          	mv	a0,s0
   15da8:	000580e7          	jalr	a1
   15dac:	eb9ff06f          	j	15c64 <prepare_for_output_pass+0x7c>

0000000000015db0 <finish_output_pass>:
   15db0:	ff010113          	addi	sp,sp,-16
   15db4:	00113423          	sd	ra,8(sp)
   15db8:	00813023          	sd	s0,0(sp)
   15dbc:	06c52583          	lw	a1,108(a0)
   15dc0:	22053403          	ld	s0,544(a0)
   15dc4:	00058863          	beqz	a1,15dd4 <finish_output_pass+0x24>
   15dc8:	27053583          	ld	a1,624(a0)
   15dcc:	0105b583          	ld	a1,16(a1)
   15dd0:	000580e7          	jalr	a1
   15dd4:	01842503          	lw	a0,24(s0)
   15dd8:	00150513          	addi	a0,a0,1
   15ddc:	00a42c23          	sw	a0,24(s0)
   15de0:	00813083          	ld	ra,8(sp)
   15de4:	00013403          	ld	s0,0(sp)
   15de8:	01010113          	addi	sp,sp,16
   15dec:	00008067          	ret

0000000000015df0 <jinit_input_controller>:
   15df0:	ff010113          	addi	sp,sp,-16
   15df4:	00113423          	sd	ra,8(sp)
   15df8:	00813023          	sd	s0,0(sp)
   15dfc:	00050413          	mv	s0,a0
   15e00:	00853503          	ld	a0,8(a0)
   15e04:	00053683          	ld	a3,0(a0)
   15e08:	03000613          	li	a2,48
   15e0c:	00040513          	mv	a0,s0
   15e10:	00000593          	li	a1,0
   15e14:	000680e7          	jalr	a3
   15e18:	24a43023          	sd	a0,576(s0)
   15e1c:	000165b7          	lui	a1,0x16
   15e20:	e6858593          	addi	a1,a1,-408 # 15e68 <consume_markers>
   15e24:	00b53023          	sd	a1,0(a0)
   15e28:	000165b7          	lui	a1,0x16
   15e2c:	1d858593          	addi	a1,a1,472 # 161d8 <reset_input_controller>
   15e30:	00b53423          	sd	a1,8(a0)
   15e34:	000165b7          	lui	a1,0x16
   15e38:	23858593          	addi	a1,a1,568 # 16238 <start_input_pass>
   15e3c:	00b53823          	sd	a1,16(a0)
   15e40:	000165b7          	lui	a1,0x16
   15e44:	51c58593          	addi	a1,a1,1308 # 1651c <finish_input_pass>
   15e48:	00b53c23          	sd	a1,24(a0)
   15e4c:	02053023          	sd	zero,32(a0)
   15e50:	00100593          	li	a1,1
   15e54:	02b52423          	sw	a1,40(a0)
   15e58:	00813083          	ld	ra,8(sp)
   15e5c:	00013403          	ld	s0,0(sp)
   15e60:	01010113          	addi	sp,sp,16
   15e64:	00008067          	ret

0000000000015e68 <consume_markers>:
   15e68:	fc010113          	addi	sp,sp,-64
   15e6c:	02113c23          	sd	ra,56(sp)
   15e70:	02813823          	sd	s0,48(sp)
